Archive member included because of file (symbol)

d:/quartus13/nios2eds/bin/gnu/h-i686-mingw32/bin/../lib/gcc/nios2-elf/4.7.3\libgcc.a(_fixunsdfsi.o)
                              obj/default/drive/mculcd.o (__fixunsdfsi)
d:/quartus13/nios2eds/bin/gnu/h-i686-mingw32/bin/../lib/gcc/nios2-elf/4.7.3\libgcc.a(_addsub_df.o)
                              d:/quartus13/nios2eds/bin/gnu/h-i686-mingw32/bin/../lib/gcc/nios2-elf/4.7.3\libgcc.a(_fixunsdfsi.o) (__subdf3)
d:/quartus13/nios2eds/bin/gnu/h-i686-mingw32/bin/../lib/gcc/nios2-elf/4.7.3\libgcc.a(_mul_df.o)
                              obj/default/drive/mculcd.o (__muldf3)
d:/quartus13/nios2eds/bin/gnu/h-i686-mingw32/bin/../lib/gcc/nios2-elf/4.7.3\libgcc.a(_ge_df.o)
                              d:/quartus13/nios2eds/bin/gnu/h-i686-mingw32/bin/../lib/gcc/nios2-elf/4.7.3\libgcc.a(_fixunsdfsi.o) (__gedf2)
d:/quartus13/nios2eds/bin/gnu/h-i686-mingw32/bin/../lib/gcc/nios2-elf/4.7.3\libgcc.a(_si_to_df.o)
                              obj/default/drive/mculcd.o (__floatsidf)
d:/quartus13/nios2eds/bin/gnu/h-i686-mingw32/bin/../lib/gcc/nios2-elf/4.7.3\libgcc.a(_df_to_si.o)
                              d:/quartus13/nios2eds/bin/gnu/h-i686-mingw32/bin/../lib/gcc/nios2-elf/4.7.3\libgcc.a(_fixunsdfsi.o) (__fixdfsi)
d:/quartus13/nios2eds/bin/gnu/h-i686-mingw32/bin/../lib/gcc/nios2-elf/4.7.3\libgcc.a(_thenan_df.o)
                              d:/quartus13/nios2eds/bin/gnu/h-i686-mingw32/bin/../lib/gcc/nios2-elf/4.7.3\libgcc.a(_addsub_df.o) (__thenan_df)
d:/quartus13/nios2eds/bin/gnu/h-i686-mingw32/bin/../lib/gcc/nios2-elf/4.7.3\libgcc.a(_muldi3.o)
                              d:/quartus13/nios2eds/bin/gnu/h-i686-mingw32/bin/../lib/gcc/nios2-elf/4.7.3\libgcc.a(_mul_df.o) (__muldi3)
d:/quartus13/nios2eds/bin/gnu/h-i686-mingw32/bin/../lib/gcc/nios2-elf/4.7.3\libgcc.a(_clzsi2.o)
                              d:/quartus13/nios2eds/bin/gnu/h-i686-mingw32/bin/../lib/gcc/nios2-elf/4.7.3\libgcc.a(_si_to_df.o) (__clzsi2)
d:/quartus13/nios2eds/bin/gnu/h-i686-mingw32/bin/../lib/gcc/nios2-elf/4.7.3\libgcc.a(_pack_df.o)
                              d:/quartus13/nios2eds/bin/gnu/h-i686-mingw32/bin/../lib/gcc/nios2-elf/4.7.3\libgcc.a(_addsub_df.o) (__pack_d)
d:/quartus13/nios2eds/bin/gnu/h-i686-mingw32/bin/../lib/gcc/nios2-elf/4.7.3\libgcc.a(_unpack_df.o)
                              d:/quartus13/nios2eds/bin/gnu/h-i686-mingw32/bin/../lib/gcc/nios2-elf/4.7.3\libgcc.a(_addsub_df.o) (__unpack_d)
d:/quartus13/nios2eds/bin/gnu/h-i686-mingw32/bin/../lib/gcc/nios2-elf/4.7.3\libgcc.a(_fpcmp_parts_df.o)
                              d:/quartus13/nios2eds/bin/gnu/h-i686-mingw32/bin/../lib/gcc/nios2-elf/4.7.3\libgcc.a(_ge_df.o) (__fpcmp_parts_d)
d:/quartus13/nios2eds/bin/gnu/h-i686-mingw32/bin/../lib/gcc/nios2-elf/4.7.3\libgcc.a(_lshrdi3.o)
                              d:/quartus13/nios2eds/bin/gnu/h-i686-mingw32/bin/../lib/gcc/nios2-elf/4.7.3\libgcc.a(_pack_df.o) (__lshrdi3)
d:/quartus13/nios2eds/bin/gnu/h-i686-mingw32/bin/../lib/gcc/nios2-elf/4.7.3\libgcc.a(_ashldi3.o)
                              d:/quartus13/nios2eds/bin/gnu/h-i686-mingw32/bin/../lib/gcc/nios2-elf/4.7.3\libgcc.a(_pack_df.o) (__ashldi3)
d:/quartus13/nios2eds/bin/gnu/h-i686-mingw32/bin/../lib/gcc/nios2-elf/4.7.3\libgcc.a(_clz.o)
                              d:/quartus13/nios2eds/bin/gnu/h-i686-mingw32/bin/../lib/gcc/nios2-elf/4.7.3\libgcc.a(_clzsi2.o) (__clz_tab)
d:/quartus13/nios2eds/bin/gnu/h-i686-mingw32/bin/../lib/gcc/nios2-elf/4.7.3/../../../../../H-i686-mingw32/nios2-elf/lib\libc.a(lib_a-printf.o)
                              obj/default/drive/mculcd.o (printf)
d:/quartus13/nios2eds/bin/gnu/h-i686-mingw32/bin/../lib/gcc/nios2-elf/4.7.3/../../../../../H-i686-mingw32/nios2-elf/lib\libc.a(lib_a-puts.o)
                              obj/default/qsys_lcd.o (puts)
d:/quartus13/nios2eds/bin/gnu/h-i686-mingw32/bin/../lib/gcc/nios2-elf/4.7.3/../../../../../H-i686-mingw32/nios2-elf/lib\libc.a(lib_a-strlen.o)
                              d:/quartus13/nios2eds/bin/gnu/h-i686-mingw32/bin/../lib/gcc/nios2-elf/4.7.3/../../../../../H-i686-mingw32/nios2-elf/lib\libc.a(lib_a-puts.o) (strlen)
d:/quartus13/nios2eds/bin/gnu/h-i686-mingw32/bin/../lib/gcc/nios2-elf/4.7.3/../../../../../H-i686-mingw32/nios2-elf/lib\libc.a(lib_a-vfprintf.o)
                              d:/quartus13/nios2eds/bin/gnu/h-i686-mingw32/bin/../lib/gcc/nios2-elf/4.7.3/../../../../../H-i686-mingw32/nios2-elf/lib\libc.a(lib_a-printf.o) (___vfprintf_internal_r)
d:/quartus13/nios2eds/bin/gnu/h-i686-mingw32/bin/../lib/gcc/nios2-elf/4.7.3/../../../../../H-i686-mingw32/nios2-elf/lib\libc.a(lib_a-wsetup.o)
                              d:/quartus13/nios2eds/bin/gnu/h-i686-mingw32/bin/../lib/gcc/nios2-elf/4.7.3/../../../../../H-i686-mingw32/nios2-elf/lib\libc.a(lib_a-vfprintf.o) (__swsetup_r)
d:/quartus13/nios2eds/bin/gnu/h-i686-mingw32/bin/../lib/gcc/nios2-elf/4.7.3/../../../../../H-i686-mingw32/nios2-elf/lib\libc.a(lib_a-dtoa.o)
                              d:/quartus13/nios2eds/bin/gnu/h-i686-mingw32/bin/../lib/gcc/nios2-elf/4.7.3/../../../../../H-i686-mingw32/nios2-elf/lib\libc.a(lib_a-vfprintf.o) (_dtoa_r)
d:/quartus13/nios2eds/bin/gnu/h-i686-mingw32/bin/../lib/gcc/nios2-elf/4.7.3/../../../../../H-i686-mingw32/nios2-elf/lib\libc.a(lib_a-fflush.o)
                              d:/quartus13/nios2eds/bin/gnu/h-i686-mingw32/bin/../lib/gcc/nios2-elf/4.7.3/../../../../../H-i686-mingw32/nios2-elf/lib\libc.a(lib_a-vfprintf.o) (_fflush_r)
d:/quartus13/nios2eds/bin/gnu/h-i686-mingw32/bin/../lib/gcc/nios2-elf/4.7.3/../../../../../H-i686-mingw32/nios2-elf/lib\libc.a(lib_a-findfp.o)
                              d:/quartus13/nios2eds/bin/gnu/h-i686-mingw32/bin/../lib/gcc/nios2-elf/4.7.3/../../../../../H-i686-mingw32/nios2-elf/lib\libc.a(lib_a-vfprintf.o) (__sinit)
d:/quartus13/nios2eds/bin/gnu/h-i686-mingw32/bin/../lib/gcc/nios2-elf/4.7.3/../../../../../H-i686-mingw32/nios2-elf/lib\libc.a(lib_a-freer.o)
                              d:/quartus13/nios2eds/bin/gnu/h-i686-mingw32/bin/../lib/gcc/nios2-elf/4.7.3/../../../../../H-i686-mingw32/nios2-elf/lib\libc.a(lib_a-wsetup.o) (_free_r)
d:/quartus13/nios2eds/bin/gnu/h-i686-mingw32/bin/../lib/gcc/nios2-elf/4.7.3/../../../../../H-i686-mingw32/nios2-elf/lib\libc.a(lib_a-fvwrite.o)
                              d:/quartus13/nios2eds/bin/gnu/h-i686-mingw32/bin/../lib/gcc/nios2-elf/4.7.3/../../../../../H-i686-mingw32/nios2-elf/lib\libc.a(lib_a-puts.o) (__sfvwrite_r)
d:/quartus13/nios2eds/bin/gnu/h-i686-mingw32/bin/../lib/gcc/nios2-elf/4.7.3/../../../../../H-i686-mingw32/nios2-elf/lib\libc.a(lib_a-fwalk.o)
                              d:/quartus13/nios2eds/bin/gnu/h-i686-mingw32/bin/../lib/gcc/nios2-elf/4.7.3/../../../../../H-i686-mingw32/nios2-elf/lib\libc.a(lib_a-findfp.o) (_fwalk)
d:/quartus13/nios2eds/bin/gnu/h-i686-mingw32/bin/../lib/gcc/nios2-elf/4.7.3/../../../../../H-i686-mingw32/nios2-elf/lib\libc.a(lib_a-impure.o)
                              d:/quartus13/nios2eds/bin/gnu/h-i686-mingw32/bin/../lib/gcc/nios2-elf/4.7.3/../../../../../H-i686-mingw32/nios2-elf/lib\libc.a(lib_a-fflush.o) (_global_impure_ptr)
d:/quartus13/nios2eds/bin/gnu/h-i686-mingw32/bin/../lib/gcc/nios2-elf/4.7.3/../../../../../H-i686-mingw32/nios2-elf/lib\libc.a(lib_a-locale.o)
                              d:/quartus13/nios2eds/bin/gnu/h-i686-mingw32/bin/../lib/gcc/nios2-elf/4.7.3/../../../../../H-i686-mingw32/nios2-elf/lib\libc.a(lib_a-vfprintf.o) (_localeconv_r)
d:/quartus13/nios2eds/bin/gnu/h-i686-mingw32/bin/../lib/gcc/nios2-elf/4.7.3/../../../../../H-i686-mingw32/nios2-elf/lib\libc.a(lib_a-makebuf.o)
                              d:/quartus13/nios2eds/bin/gnu/h-i686-mingw32/bin/../lib/gcc/nios2-elf/4.7.3/../../../../../H-i686-mingw32/nios2-elf/lib\libc.a(lib_a-wsetup.o) (__smakebuf_r)
d:/quartus13/nios2eds/bin/gnu/h-i686-mingw32/bin/../lib/gcc/nios2-elf/4.7.3/../../../../../H-i686-mingw32/nios2-elf/lib\libc.a(lib_a-mallocr.o)
                              d:/quartus13/nios2eds/bin/gnu/h-i686-mingw32/bin/../lib/gcc/nios2-elf/4.7.3/../../../../../H-i686-mingw32/nios2-elf/lib\libc.a(lib_a-findfp.o) (_malloc_r)
d:/quartus13/nios2eds/bin/gnu/h-i686-mingw32/bin/../lib/gcc/nios2-elf/4.7.3/../../../../../H-i686-mingw32/nios2-elf/lib\libc.a(lib_a-memchr.o)
                              d:/quartus13/nios2eds/bin/gnu/h-i686-mingw32/bin/../lib/gcc/nios2-elf/4.7.3/../../../../../H-i686-mingw32/nios2-elf/lib\libc.a(lib_a-vfprintf.o) (memchr)
d:/quartus13/nios2eds/bin/gnu/h-i686-mingw32/bin/../lib/gcc/nios2-elf/4.7.3/../../../../../H-i686-mingw32/nios2-elf/lib\libc.a(lib_a-memcpy.o)
                              d:/quartus13/nios2eds/bin/gnu/h-i686-mingw32/bin/../lib/gcc/nios2-elf/4.7.3/../../../../../H-i686-mingw32/nios2-elf/lib\libc.a(lib_a-dtoa.o) (memcpy)
d:/quartus13/nios2eds/bin/gnu/h-i686-mingw32/bin/../lib/gcc/nios2-elf/4.7.3/../../../../../H-i686-mingw32/nios2-elf/lib\libc.a(lib_a-memmove.o)
                              d:/quartus13/nios2eds/bin/gnu/h-i686-mingw32/bin/../lib/gcc/nios2-elf/4.7.3/../../../../../H-i686-mingw32/nios2-elf/lib\libc.a(lib_a-fvwrite.o) (memmove)
d:/quartus13/nios2eds/bin/gnu/h-i686-mingw32/bin/../lib/gcc/nios2-elf/4.7.3/../../../../../H-i686-mingw32/nios2-elf/lib\libc.a(lib_a-memset.o)
                              d:/quartus13/nios2eds/bin/gnu/h-i686-mingw32/bin/../lib/gcc/nios2-elf/4.7.3/../../../../../H-i686-mingw32/nios2-elf/lib\libc.a(lib_a-findfp.o) (memset)
d:/quartus13/nios2eds/bin/gnu/h-i686-mingw32/bin/../lib/gcc/nios2-elf/4.7.3/../../../../../H-i686-mingw32/nios2-elf/lib\libc.a(lib_a-mprec.o)
                              d:/quartus13/nios2eds/bin/gnu/h-i686-mingw32/bin/../lib/gcc/nios2-elf/4.7.3/../../../../../H-i686-mingw32/nios2-elf/lib\libc.a(lib_a-dtoa.o) (_Balloc)
d:/quartus13/nios2eds/bin/gnu/h-i686-mingw32/bin/../lib/gcc/nios2-elf/4.7.3/../../../../../H-i686-mingw32/nios2-elf/lib\libc.a(lib_a-reallocr.o)
                              d:/quartus13/nios2eds/bin/gnu/h-i686-mingw32/bin/../lib/gcc/nios2-elf/4.7.3/../../../../../H-i686-mingw32/nios2-elf/lib\libc.a(lib_a-fvwrite.o) (_realloc_r)
d:/quartus13/nios2eds/bin/gnu/h-i686-mingw32/bin/../lib/gcc/nios2-elf/4.7.3/../../../../../H-i686-mingw32/nios2-elf/lib\libc.a(lib_a-s_isinfd.o)
                              d:/quartus13/nios2eds/bin/gnu/h-i686-mingw32/bin/../lib/gcc/nios2-elf/4.7.3/../../../../../H-i686-mingw32/nios2-elf/lib\libc.a(lib_a-vfprintf.o) (__isinfd)
d:/quartus13/nios2eds/bin/gnu/h-i686-mingw32/bin/../lib/gcc/nios2-elf/4.7.3/../../../../../H-i686-mingw32/nios2-elf/lib\libc.a(lib_a-s_isnand.o)
                              d:/quartus13/nios2eds/bin/gnu/h-i686-mingw32/bin/../lib/gcc/nios2-elf/4.7.3/../../../../../H-i686-mingw32/nios2-elf/lib\libc.a(lib_a-vfprintf.o) (__isnand)
d:/quartus13/nios2eds/bin/gnu/h-i686-mingw32/bin/../lib/gcc/nios2-elf/4.7.3/../../../../../H-i686-mingw32/nios2-elf/lib\libc.a(lib_a-sbrkr.o)
                              d:/quartus13/nios2eds/bin/gnu/h-i686-mingw32/bin/../lib/gcc/nios2-elf/4.7.3/../../../../../H-i686-mingw32/nios2-elf/lib\libc.a(lib_a-freer.o) (_sbrk_r)
d:/quartus13/nios2eds/bin/gnu/h-i686-mingw32/bin/../lib/gcc/nios2-elf/4.7.3/../../../../../H-i686-mingw32/nios2-elf/lib\libc.a(lib_a-stdio.o)
                              d:/quartus13/nios2eds/bin/gnu/h-i686-mingw32/bin/../lib/gcc/nios2-elf/4.7.3/../../../../../H-i686-mingw32/nios2-elf/lib\libc.a(lib_a-findfp.o) (__sread)
d:/quartus13/nios2eds/bin/gnu/h-i686-mingw32/bin/../lib/gcc/nios2-elf/4.7.3/../../../../../H-i686-mingw32/nios2-elf/lib\libc.a(lib_a-strcmp.o)
                              d:/quartus13/nios2eds/bin/gnu/h-i686-mingw32/bin/../lib/gcc/nios2-elf/4.7.3/../../../../../H-i686-mingw32/nios2-elf/lib\libc.a(lib_a-locale.o) (strcmp)
d:/quartus13/nios2eds/bin/gnu/h-i686-mingw32/bin/../lib/gcc/nios2-elf/4.7.3/../../../../../H-i686-mingw32/nios2-elf/lib\libc.a(lib_a-writer.o)
                              d:/quartus13/nios2eds/bin/gnu/h-i686-mingw32/bin/../lib/gcc/nios2-elf/4.7.3/../../../../../H-i686-mingw32/nios2-elf/lib\libc.a(lib_a-stdio.o) (_write_r)
d:/quartus13/nios2eds/bin/gnu/h-i686-mingw32/bin/../lib/gcc/nios2-elf/4.7.3/../../../../../H-i686-mingw32/nios2-elf/lib\libc.a(lib_a-callocr.o)
                              d:/quartus13/nios2eds/bin/gnu/h-i686-mingw32/bin/../lib/gcc/nios2-elf/4.7.3/../../../../../H-i686-mingw32/nios2-elf/lib\libc.a(lib_a-mprec.o) (_calloc_r)
d:/quartus13/nios2eds/bin/gnu/h-i686-mingw32/bin/../lib/gcc/nios2-elf/4.7.3/../../../../../H-i686-mingw32/nios2-elf/lib\libc.a(lib_a-closer.o)
                              d:/quartus13/nios2eds/bin/gnu/h-i686-mingw32/bin/../lib/gcc/nios2-elf/4.7.3/../../../../../H-i686-mingw32/nios2-elf/lib\libc.a(lib_a-stdio.o) (_close_r)
d:/quartus13/nios2eds/bin/gnu/h-i686-mingw32/bin/../lib/gcc/nios2-elf/4.7.3/../../../../../H-i686-mingw32/nios2-elf/lib\libc.a(lib_a-fclose.o)
                              d:/quartus13/nios2eds/bin/gnu/h-i686-mingw32/bin/../lib/gcc/nios2-elf/4.7.3/../../../../../H-i686-mingw32/nios2-elf/lib\libc.a(lib_a-findfp.o) (fclose)
d:/quartus13/nios2eds/bin/gnu/h-i686-mingw32/bin/../lib/gcc/nios2-elf/4.7.3/../../../../../H-i686-mingw32/nios2-elf/lib\libc.a(lib_a-fstatr.o)
                              d:/quartus13/nios2eds/bin/gnu/h-i686-mingw32/bin/../lib/gcc/nios2-elf/4.7.3/../../../../../H-i686-mingw32/nios2-elf/lib\libc.a(lib_a-makebuf.o) (_fstat_r)
d:/quartus13/nios2eds/bin/gnu/h-i686-mingw32/bin/../lib/gcc/nios2-elf/4.7.3/../../../../../H-i686-mingw32/nios2-elf/lib\libc.a(lib_a-int_errno.o)
                              d:/quartus13/nios2eds/bin/gnu/h-i686-mingw32/bin/../lib/gcc/nios2-elf/4.7.3/../../../../../H-i686-mingw32/nios2-elf/lib\libc.a(lib_a-sbrkr.o) (errno)
d:/quartus13/nios2eds/bin/gnu/h-i686-mingw32/bin/../lib/gcc/nios2-elf/4.7.3/../../../../../H-i686-mingw32/nios2-elf/lib\libc.a(lib_a-isattyr.o)
                              d:/quartus13/nios2eds/bin/gnu/h-i686-mingw32/bin/../lib/gcc/nios2-elf/4.7.3/../../../../../H-i686-mingw32/nios2-elf/lib\libc.a(lib_a-makebuf.o) (_isatty_r)
d:/quartus13/nios2eds/bin/gnu/h-i686-mingw32/bin/../lib/gcc/nios2-elf/4.7.3/../../../../../H-i686-mingw32/nios2-elf/lib\libc.a(lib_a-lseekr.o)
                              d:/quartus13/nios2eds/bin/gnu/h-i686-mingw32/bin/../lib/gcc/nios2-elf/4.7.3/../../../../../H-i686-mingw32/nios2-elf/lib\libc.a(lib_a-stdio.o) (_lseek_r)
d:/quartus13/nios2eds/bin/gnu/h-i686-mingw32/bin/../lib/gcc/nios2-elf/4.7.3/../../../../../H-i686-mingw32/nios2-elf/lib\libc.a(lib_a-readr.o)
                              d:/quartus13/nios2eds/bin/gnu/h-i686-mingw32/bin/../lib/gcc/nios2-elf/4.7.3/../../../../../H-i686-mingw32/nios2-elf/lib\libc.a(lib_a-stdio.o) (_read_r)
d:/quartus13/nios2eds/bin/gnu/h-i686-mingw32/bin/../lib/gcc/nios2-elf/4.7.3\libgcc.a(_udivdi3.o)
                              d:/quartus13/nios2eds/bin/gnu/h-i686-mingw32/bin/../lib/gcc/nios2-elf/4.7.3/../../../../../H-i686-mingw32/nios2-elf/lib\libc.a(lib_a-vfprintf.o) (__udivdi3)
d:/quartus13/nios2eds/bin/gnu/h-i686-mingw32/bin/../lib/gcc/nios2-elf/4.7.3\libgcc.a(_umoddi3.o)
                              d:/quartus13/nios2eds/bin/gnu/h-i686-mingw32/bin/../lib/gcc/nios2-elf/4.7.3/../../../../../H-i686-mingw32/nios2-elf/lib\libc.a(lib_a-vfprintf.o) (__umoddi3)
d:/quartus13/nios2eds/bin/gnu/h-i686-mingw32/bin/../lib/gcc/nios2-elf/4.7.3\libgcc.a(_div_df.o)
                              d:/quartus13/nios2eds/bin/gnu/h-i686-mingw32/bin/../lib/gcc/nios2-elf/4.7.3/../../../../../H-i686-mingw32/nios2-elf/lib\libc.a(lib_a-dtoa.o) (__divdf3)
d:/quartus13/nios2eds/bin/gnu/h-i686-mingw32/bin/../lib/gcc/nios2-elf/4.7.3\libgcc.a(_eq_df.o)
                              d:/quartus13/nios2eds/bin/gnu/h-i686-mingw32/bin/../lib/gcc/nios2-elf/4.7.3/../../../../../H-i686-mingw32/nios2-elf/lib\libc.a(lib_a-vfprintf.o) (__eqdf2)
d:/quartus13/nios2eds/bin/gnu/h-i686-mingw32/bin/../lib/gcc/nios2-elf/4.7.3\libgcc.a(_ne_df.o)
                              d:/quartus13/nios2eds/bin/gnu/h-i686-mingw32/bin/../lib/gcc/nios2-elf/4.7.3/../../../../../H-i686-mingw32/nios2-elf/lib\libc.a(lib_a-vfprintf.o) (__nedf2)
d:/quartus13/nios2eds/bin/gnu/h-i686-mingw32/bin/../lib/gcc/nios2-elf/4.7.3\libgcc.a(_gt_df.o)
                              d:/quartus13/nios2eds/bin/gnu/h-i686-mingw32/bin/../lib/gcc/nios2-elf/4.7.3/../../../../../H-i686-mingw32/nios2-elf/lib\libc.a(lib_a-dtoa.o) (__gtdf2)
d:/quartus13/nios2eds/bin/gnu/h-i686-mingw32/bin/../lib/gcc/nios2-elf/4.7.3\libgcc.a(_lt_df.o)
                              d:/quartus13/nios2eds/bin/gnu/h-i686-mingw32/bin/../lib/gcc/nios2-elf/4.7.3/../../../../../H-i686-mingw32/nios2-elf/lib\libc.a(lib_a-vfprintf.o) (__ltdf2)
d:/quartus13/nios2eds/bin/gnu/h-i686-mingw32/bin/../lib/gcc/nios2-elf/4.7.3\libgcc.a(_usi_to_df.o)
                              d:/quartus13/nios2eds/bin/gnu/h-i686-mingw32/bin/../lib/gcc/nios2-elf/4.7.3/../../../../../H-i686-mingw32/nios2-elf/lib\libc.a(lib_a-dtoa.o) (__floatunsidf)
d:/quartus13/nios2eds/bin/gnu/h-i686-mingw32/bin/../lib/gcc/nios2-elf/4.7.3\libgcc.a(lib2-divmod.o)
                              d:/quartus13/nios2eds/bin/gnu/h-i686-mingw32/bin/../lib/gcc/nios2-elf/4.7.3/../../../../../H-i686-mingw32/nios2-elf/lib\libc.a(lib_a-vfprintf.o) (__divsi3)
../qsys_lcd_bsp/\libhal_bsp.a(alt_close.o)
                              d:/quartus13/nios2eds/bin/gnu/h-i686-mingw32/bin/../lib/gcc/nios2-elf/4.7.3/../../../../../H-i686-mingw32/nios2-elf/lib\libc.a(lib_a-closer.o) (close)
../qsys_lcd_bsp/\libhal_bsp.a(alt_dev.o)
                              ../qsys_lcd_bsp/\libhal_bsp.a(alt_close.o) (alt_fd_list)
../qsys_lcd_bsp/\libhal_bsp.a(alt_errno.o)
                              ../qsys_lcd_bsp/\libhal_bsp.a(alt_close.o) (alt_errno)
../qsys_lcd_bsp/\libhal_bsp.a(alt_fstat.o)
                              d:/quartus13/nios2eds/bin/gnu/h-i686-mingw32/bin/../lib/gcc/nios2-elf/4.7.3/../../../../../H-i686-mingw32/nios2-elf/lib\libc.a(lib_a-fstatr.o) (fstat)
../qsys_lcd_bsp/\libhal_bsp.a(alt_isatty.o)
                              d:/quartus13/nios2eds/bin/gnu/h-i686-mingw32/bin/../lib/gcc/nios2-elf/4.7.3/../../../../../H-i686-mingw32/nios2-elf/lib\libc.a(lib_a-isattyr.o) (isatty)
../qsys_lcd_bsp/\libhal_bsp.a(alt_lseek.o)
                              d:/quartus13/nios2eds/bin/gnu/h-i686-mingw32/bin/../lib/gcc/nios2-elf/4.7.3/../../../../../H-i686-mingw32/nios2-elf/lib\libc.a(lib_a-lseekr.o) (lseek)
../qsys_lcd_bsp/\libhal_bsp.a(alt_main.o)
                              ../qsys_lcd_bsp//obj/HAL/src/crt0.o (alt_main)
../qsys_lcd_bsp/\libhal_bsp.a(alt_malloc_lock.o)
                              d:/quartus13/nios2eds/bin/gnu/h-i686-mingw32/bin/../lib/gcc/nios2-elf/4.7.3/../../../../../H-i686-mingw32/nios2-elf/lib\libc.a(lib_a-freer.o) (__malloc_lock)
../qsys_lcd_bsp/\libhal_bsp.a(alt_read.o)
                              d:/quartus13/nios2eds/bin/gnu/h-i686-mingw32/bin/../lib/gcc/nios2-elf/4.7.3/../../../../../H-i686-mingw32/nios2-elf/lib\libc.a(lib_a-readr.o) (read)
../qsys_lcd_bsp/\libhal_bsp.a(alt_release_fd.o)
                              ../qsys_lcd_bsp/\libhal_bsp.a(alt_close.o) (alt_release_fd)
../qsys_lcd_bsp/\libhal_bsp.a(alt_sbrk.o)
                              d:/quartus13/nios2eds/bin/gnu/h-i686-mingw32/bin/../lib/gcc/nios2-elf/4.7.3/../../../../../H-i686-mingw32/nios2-elf/lib\libc.a(lib_a-sbrkr.o) (sbrk)
../qsys_lcd_bsp/\libhal_bsp.a(alt_usleep.o)
                              obj/default/drive/mculcd.o (usleep)
../qsys_lcd_bsp/\libhal_bsp.a(alt_write.o)
                              d:/quartus13/nios2eds/bin/gnu/h-i686-mingw32/bin/../lib/gcc/nios2-elf/4.7.3/../../../../../H-i686-mingw32/nios2-elf/lib\libc.a(lib_a-writer.o) (write)
../qsys_lcd_bsp/\libhal_bsp.a(alt_sys_init.o)
                              ../qsys_lcd_bsp/\libhal_bsp.a(alt_main.o) (alt_irq_init)
../qsys_lcd_bsp/\libhal_bsp.a(altera_avalon_epcs_flash_controller.o)
                              ../qsys_lcd_bsp/\libhal_bsp.a(alt_sys_init.o) (alt_epcs_flash_init)
../qsys_lcd_bsp/\libhal_bsp.a(altera_avalon_jtag_uart_fd.o)
                              ../qsys_lcd_bsp/\libhal_bsp.a(alt_sys_init.o) (altera_avalon_jtag_uart_read_fd)
../qsys_lcd_bsp/\libhal_bsp.a(altera_avalon_jtag_uart_init.o)
                              ../qsys_lcd_bsp/\libhal_bsp.a(alt_sys_init.o) (altera_avalon_jtag_uart_init)
../qsys_lcd_bsp/\libhal_bsp.a(altera_avalon_jtag_uart_ioctl.o)
                              ../qsys_lcd_bsp/\libhal_bsp.a(altera_avalon_jtag_uart_fd.o) (altera_avalon_jtag_uart_ioctl)
../qsys_lcd_bsp/\libhal_bsp.a(altera_avalon_jtag_uart_read.o)
                              ../qsys_lcd_bsp/\libhal_bsp.a(altera_avalon_jtag_uart_fd.o) (altera_avalon_jtag_uart_read)
../qsys_lcd_bsp/\libhal_bsp.a(altera_avalon_jtag_uart_write.o)
                              ../qsys_lcd_bsp/\libhal_bsp.a(altera_avalon_jtag_uart_fd.o) (altera_avalon_jtag_uart_write)
../qsys_lcd_bsp/\libhal_bsp.a(epcs_commands.o)
                              ../qsys_lcd_bsp/\libhal_bsp.a(altera_avalon_epcs_flash_controller.o) (epcs_sector_erase)
../qsys_lcd_bsp/\libhal_bsp.a(alt_alarm_start.o)
                              ../qsys_lcd_bsp/\libhal_bsp.a(altera_avalon_jtag_uart_init.o) (alt_alarm_start)
../qsys_lcd_bsp/\libhal_bsp.a(alt_busy_sleep.o)
                              ../qsys_lcd_bsp/\libhal_bsp.a(alt_usleep.o) (alt_busy_sleep)
../qsys_lcd_bsp/\libhal_bsp.a(alt_dev_llist_insert.o)
                              ../qsys_lcd_bsp/\libhal_bsp.a(alt_sys_init.o) (alt_dev_llist_insert)
../qsys_lcd_bsp/\libhal_bsp.a(alt_do_ctors.o)
                              ../qsys_lcd_bsp/\libhal_bsp.a(alt_main.o) (_do_ctors)
../qsys_lcd_bsp/\libhal_bsp.a(alt_do_dtors.o)
                              ../qsys_lcd_bsp/\libhal_bsp.a(alt_main.o) (_do_dtors)
../qsys_lcd_bsp/\libhal_bsp.a(alt_flash_dev.o)
                              ../qsys_lcd_bsp/\libhal_bsp.a(altera_avalon_epcs_flash_controller.o) (alt_flash_dev_list)
../qsys_lcd_bsp/\libhal_bsp.a(alt_iic.o)
                              ../qsys_lcd_bsp/\libhal_bsp.a(altera_avalon_jtag_uart_init.o) (alt_ic_isr_register)
../qsys_lcd_bsp/\libhal_bsp.a(alt_iic_isr_register.o)
                              ../qsys_lcd_bsp/\libhal_bsp.a(alt_iic.o) (alt_iic_isr_register)
../qsys_lcd_bsp/\libhal_bsp.a(alt_io_redirect.o)
                              ../qsys_lcd_bsp/\libhal_bsp.a(alt_main.o) (alt_io_redirect)
../qsys_lcd_bsp/\libhal_bsp.a(alt_irq_entry.o)
                              ../qsys_lcd_bsp/\libhal_bsp.a(alt_iic_isr_register.o) (alt_irq_entry)
../qsys_lcd_bsp/\libhal_bsp.a(alt_irq_handler.o)
                              ../qsys_lcd_bsp/\libhal_bsp.a(alt_iic_isr_register.o) (alt_irq)
../qsys_lcd_bsp/\libhal_bsp.a(alt_irq_vars.o)
                              ../qsys_lcd_bsp/\libhal_bsp.a(alt_iic.o) (alt_irq_active)
../qsys_lcd_bsp/\libhal_bsp.a(alt_open.o)
                              ../qsys_lcd_bsp/\libhal_bsp.a(alt_io_redirect.o) (open)
../qsys_lcd_bsp/\libhal_bsp.a(alt_tick.o)
                              ../qsys_lcd_bsp/\libhal_bsp.a(altera_avalon_jtag_uart_init.o) (_alt_tick_rate)
../qsys_lcd_bsp/\libhal_bsp.a(altera_nios2_qsys_irq.o)
                              ../qsys_lcd_bsp/\libhal_bsp.a(alt_sys_init.o) (altera_nios2_qsys_irq_init)
../qsys_lcd_bsp/\libhal_bsp.a(altera_avalon_spi.o)
                              ../qsys_lcd_bsp/\libhal_bsp.a(epcs_commands.o) (alt_avalon_spi_command)
../qsys_lcd_bsp/\libhal_bsp.a(alt_exception_entry.o)
                              ../qsys_lcd_bsp/\libhal_bsp.a(alt_irq_entry.o) (alt_exception)
../qsys_lcd_bsp/\libhal_bsp.a(alt_find_dev.o)
                              ../qsys_lcd_bsp/\libhal_bsp.a(alt_flash_dev.o) (alt_find_dev)
../qsys_lcd_bsp/\libhal_bsp.a(alt_find_file.o)
                              ../qsys_lcd_bsp/\libhal_bsp.a(alt_open.o) (alt_find_file)
../qsys_lcd_bsp/\libhal_bsp.a(alt_get_fd.o)
                              ../qsys_lcd_bsp/\libhal_bsp.a(alt_open.o) (alt_get_fd)
d:/quartus13/nios2eds/bin/gnu/h-i686-mingw32/bin/../lib/gcc/nios2-elf/4.7.3/../../../../../H-i686-mingw32/nios2-elf/lib\libc.a(lib_a-atexit.o)
                              ../qsys_lcd_bsp/\libhal_bsp.a(alt_main.o) (atexit)
d:/quartus13/nios2eds/bin/gnu/h-i686-mingw32/bin/../lib/gcc/nios2-elf/4.7.3/../../../../../H-i686-mingw32/nios2-elf/lib\libc.a(lib_a-exit.o)
                              ../qsys_lcd_bsp/\libhal_bsp.a(alt_main.o) (exit)
d:/quartus13/nios2eds/bin/gnu/h-i686-mingw32/bin/../lib/gcc/nios2-elf/4.7.3/../../../../../H-i686-mingw32/nios2-elf/lib\libc.a(lib_a-memcmp.o)
                              ../qsys_lcd_bsp/\libhal_bsp.a(altera_avalon_epcs_flash_controller.o) (memcmp)
d:/quartus13/nios2eds/bin/gnu/h-i686-mingw32/bin/../lib/gcc/nios2-elf/4.7.3/../../../../../H-i686-mingw32/nios2-elf/lib\libc.a(lib_a-__atexit.o)
                              d:/quartus13/nios2eds/bin/gnu/h-i686-mingw32/bin/../lib/gcc/nios2-elf/4.7.3/../../../../../H-i686-mingw32/nios2-elf/lib\libc.a(lib_a-atexit.o) (__register_exitproc)
d:/quartus13/nios2eds/bin/gnu/h-i686-mingw32/bin/../lib/gcc/nios2-elf/4.7.3/../../../../../H-i686-mingw32/nios2-elf/lib\libc.a(lib_a-__call_atexit.o)
                              d:/quartus13/nios2eds/bin/gnu/h-i686-mingw32/bin/../lib/gcc/nios2-elf/4.7.3/../../../../../H-i686-mingw32/nios2-elf/lib\libc.a(lib_a-exit.o) (__call_exitprocs)
../qsys_lcd_bsp/\libhal_bsp.a(alt_exit.o)
                              d:/quartus13/nios2eds/bin/gnu/h-i686-mingw32/bin/../lib/gcc/nios2-elf/4.7.3/../../../../../H-i686-mingw32/nios2-elf/lib\libc.a(lib_a-exit.o) (_exit)

Allocating common symbols
Common symbol       size              file

alt_irq             0x100             ../qsys_lcd_bsp/\libhal_bsp.a(alt_irq_handler.o)
errno               0x4               d:/quartus13/nios2eds/bin/gnu/h-i686-mingw32/bin/../lib/gcc/nios2-elf/4.7.3/../../../../../H-i686-mingw32/nios2-elf/lib\libc.a(lib_a-int_errno.o)
_atexit0            0x190             d:/quartus13/nios2eds/bin/gnu/h-i686-mingw32/bin/../lib/gcc/nios2-elf/4.7.3/../../../../../H-i686-mingw32/nios2-elf/lib\libc.a(lib_a-atexit.o)
lcddev              0x1c              obj/default/drive/mculcd.o

Memory Configuration

Name             Origin             Length             Attributes
reset            0x00000000         0x00000020
epcs             0x00000020         0x000007e0
sdram_BEFORE_EXCEPTION 0x04000000         0x00000020
sdram            0x04000020         0x01ffffe0
*default*        0x00000000         0xffffffff

Linker script and memory map

LOAD ../qsys_lcd_bsp//obj/HAL/src/crt0.o
LOAD obj/default/drive/mculcd.o
LOAD obj/default/qsys_lcd.o
LOAD d:/quartus13/nios2eds/bin/gnu/h-i686-mingw32/bin/../lib/gcc/nios2-elf/4.7.3/../../../../../H-i686-mingw32/nios2-elf/lib\libstdc++.a
LOAD d:/quartus13/nios2eds/bin/gnu/h-i686-mingw32/bin/../lib/gcc/nios2-elf/4.7.3/../../../../../H-i686-mingw32/nios2-elf/lib\libm.a
LOAD d:/quartus13/nios2eds/bin/gnu/h-i686-mingw32/bin/../lib/gcc/nios2-elf/4.7.3\libgcc.a
START GROUP
LOAD d:/quartus13/nios2eds/bin/gnu/h-i686-mingw32/bin/../lib/gcc/nios2-elf/4.7.3/../../../../../H-i686-mingw32/nios2-elf/lib\libc.a
LOAD d:/quartus13/nios2eds/bin/gnu/h-i686-mingw32/bin/../lib/gcc/nios2-elf/4.7.3\libgcc.a
LOAD ../qsys_lcd_bsp/\libhal_bsp.a
END GROUP
LOAD d:/quartus13/nios2eds/bin/gnu/h-i686-mingw32/bin/../lib/gcc/nios2-elf/4.7.3\libgcc.a
                0x00000000                __alt_mem_epcs = 0x0
                0x04000000                __alt_mem_sdram = 0x4000000

.entry          0x00000000        0x0
 *(.entry)
 .entry         0x00000000        0x0 ../qsys_lcd_bsp//obj/HAL/src/crt0.o
                0x00000000                __reset

.exceptions     0x04000020      0x198
                0x04000020                PROVIDE (__ram_exceptions_start, ABSOLUTE (.))
                0x04000020                . = ALIGN (0x20)
 *(.irq)
 *(.exceptions.entry.label)
 .exceptions.entry.label
                0x04000020        0x0 ../qsys_lcd_bsp/\libhal_bsp.a(alt_irq_entry.o)
                0x04000020                alt_irq_entry
 .exceptions.entry.label
                0x04000020        0x0 ../qsys_lcd_bsp/\libhal_bsp.a(alt_exception_entry.o)
                0x04000020                alt_exception
 *(.exceptions.entry.user)
 *(.exceptions.entry.ecc_fatal)
 *(.exceptions.entry)
 .exceptions.entry
                0x04000020       0x54 ../qsys_lcd_bsp/\libhal_bsp.a(alt_exception_entry.o)
 *(.exceptions.irqtest.user)
 *(.exceptions.irqtest)
 .exceptions.irqtest
                0x04000074       0x10 ../qsys_lcd_bsp/\libhal_bsp.a(alt_irq_entry.o)
 *(.exceptions.irqhandler.user)
 *(.exceptions.irqhandler)
 .exceptions.irqhandler
                0x04000084        0x4 ../qsys_lcd_bsp/\libhal_bsp.a(alt_irq_entry.o)
 *(.exceptions.irqreturn.user)
 *(.exceptions.irqreturn)
 .exceptions.irqreturn
                0x04000088        0x4 ../qsys_lcd_bsp/\libhal_bsp.a(alt_irq_entry.o)
 *(.exceptions.notirq.label)
 .exceptions.notirq.label
                0x0400008c        0x0 ../qsys_lcd_bsp/\libhal_bsp.a(alt_irq_entry.o)
 *(.exceptions.notirq.user)
 *(.exceptions.notirq)
 .exceptions.notirq
                0x0400008c        0x8 ../qsys_lcd_bsp/\libhal_bsp.a(alt_exception_entry.o)
 *(.exceptions.soft.user)
 *(.exceptions.soft)
 *(.exceptions.unknown.user)
 *(.exceptions.unknown)
 .exceptions.unknown
                0x04000094        0x4 ../qsys_lcd_bsp/\libhal_bsp.a(alt_exception_entry.o)
 *(.exceptions.exit.label)
 .exceptions.exit.label
                0x04000098        0x0 ../qsys_lcd_bsp/\libhal_bsp.a(alt_irq_entry.o)
 .exceptions.exit.label
                0x04000098        0x0 ../qsys_lcd_bsp/\libhal_bsp.a(alt_exception_entry.o)
 *(.exceptions.exit.user)
 *(.exceptions.exit)
 .exceptions.exit
                0x04000098       0x54 ../qsys_lcd_bsp/\libhal_bsp.a(alt_exception_entry.o)
 *(.exceptions)
 .exceptions    0x040000ec       0xcc ../qsys_lcd_bsp/\libhal_bsp.a(alt_irq_handler.o)
                0x040000ec                alt_irq_handler
                0x040001b8                PROVIDE (__ram_exceptions_end, ABSOLUTE (.))
                0x04000020                PROVIDE (__flash_exceptions_start, LOADADDR (.exceptions))

.text           0x040001b8    0x12168
                0x040001b8                PROVIDE (stext, ABSOLUTE (.))
 *(.interp)
 *(.hash)
 *(.dynsym)
 *(.dynstr)
 *(.gnu.version)
 *(.gnu.version_d)
 *(.gnu.version_r)
 *(.rel.init)
 *(.rela.init)
 *(.rel.text .rel.text.* .rel.gnu.linkonce.t.*)
 *(.rela.text .rela.text.* .rela.gnu.linkonce.t.*)
 *(.rel.fini)
 *(.rela.fini)
 *(.rel.rodata .rel.rodata.* .rel.gnu.linkonce.r.*)
 *(.rela.rodata .rela.rodata.* .rela.gnu.linkonce.r.*)
 *(.rel.data .rel.data.* .rel.gnu.linkonce.d.*)
 *(.rela.data .rela.data.* .rela.gnu.linkonce.d.*)
 *(.rel.tdata .rel.tdata.* .rel.gnu.linkonce.td.*)
 *(.rela.tdata .rela.tdata.* .rela.gnu.linkonce.td.*)
 *(.rel.tbss .rel.tbss.* .rel.gnu.linkonce.tb.*)
 *(.rela.tbss .rela.tbss.* .rela.gnu.linkonce.tb.*)
 *(.rel.ctors)
 *(.rela.ctors)
 *(.rel.dtors)
 *(.rela.dtors)
 *(.rel.got)
 *(.rela.got)
 *(.rel.sdata .rel.sdata.* .rel.gnu.linkonce.s.*)
 *(.rela.sdata .rela.sdata.* .rela.gnu.linkonce.s.*)
 *(.rel.sbss .rel.sbss.* .rel.gnu.linkonce.sb.*)
 *(.rela.sbss .rela.sbss.* .rela.gnu.linkonce.sb.*)
 *(.rel.sdata2 .rel.sdata2.* .rel.gnu.linkonce.s2.*)
 *(.rela.sdata2 .rela.sdata2.* .rela.gnu.linkonce.s2.*)
 *(.rel.sbss2 .rel.sbss2.* .rel.gnu.linkonce.sb2.*)
 *(.rela.sbss2 .rela.sbss2.* .rela.gnu.linkonce.sb2.*)
 *(.rel.bss .rel.bss.* .rel.gnu.linkonce.b.*)
 *(.rela.bss .rela.bss.* .rela.gnu.linkonce.b.*)
 *(.rel.plt)
 *(.rela.plt)
 *(.rel.dyn)
 *(.init)
 *(.plt)
 *(.text .stub .text.* .gnu.linkonce.t.*)
 .text          0x040001b8       0x48 ../qsys_lcd_bsp//obj/HAL/src/crt0.o
                0x040001b8                _start
 .text          0x04000200     0x53d0 obj/default/drive/mculcd.o
                0x04000200                delay_ms
                0x04000238                LCD_WR_CMD
                0x040002a0                LCD_WR_DATA
                0x040002fc                LCD_RD_DATA
                0x04000368                LCD_WriteReg
                0x040003a4                LCD_ReadReg
                0x040003e0                LCD_WriteRAM_Prepare
                0x04000418                LCD_WriteRAM
                0x04000448                LCD_BGR2RGB
                0x040004b8                LCD_ReadPoint
                0x04000604                LCD_DisplayOn
                0x0400068c                LCD_DisplayOff
                0x04000714                LCD_SetCursor
                0x040009e8                LCD_Scan_Dir
                0x04000f80                LCD_DrawPoint
                0x04000fc8                LCD_Fast_DrawPoint
                0x04001244                LCD_SSD_BackLightSet
                0x040012f4                LCD_Display_Dir
                0x04001648                LCD_Set_Window
                0x040019fc                MCULCD_Init
                0x040047f4                LCD_Clear
                0x04004880                LCD_Fill
                0x04004928                LCD_Color_Fill
                0x04004a10                LCD_DrawLine
                0x04004bc0                LCD_DrawRectangle
                0x04004c44                LCD_Draw_Circle
                0x04004e2c                LCD_ShowChar
                0x04005094                LCD_Pow
                0x040050fc                LCD_ShowNum
                0x04005248                LCD_ShowxNum
                0x04005408                LCD_ShowString
                0x04005528                LCD_DisplayPic
 .text          0x040055d0      0x13c obj/default/qsys_lcd.o
                0x040055d0                main
 .text          0x0400570c       0x84 d:/quartus13/nios2eds/bin/gnu/h-i686-mingw32/bin/../lib/gcc/nios2-elf/4.7.3\libgcc.a(_fixunsdfsi.o)
                0x0400570c                __fixunsdfsi
 .text          0x04005790      0x408 d:/quartus13/nios2eds/bin/gnu/h-i686-mingw32/bin/../lib/gcc/nios2-elf/4.7.3\libgcc.a(_addsub_df.o)
                0x04005ae4                __adddf3
                0x04005b38                __subdf3
 .text          0x04005b98      0x2e4 d:/quartus13/nios2eds/bin/gnu/h-i686-mingw32/bin/../lib/gcc/nios2-elf/4.7.3\libgcc.a(_mul_df.o)
                0x04005b98                __muldf3
 .text          0x04005e7c       0x64 d:/quartus13/nios2eds/bin/gnu/h-i686-mingw32/bin/../lib/gcc/nios2-elf/4.7.3\libgcc.a(_ge_df.o)
                0x04005e7c                __gedf2
 .text          0x04005ee0       0xd4 d:/quartus13/nios2eds/bin/gnu/h-i686-mingw32/bin/../lib/gcc/nios2-elf/4.7.3\libgcc.a(_si_to_df.o)
                0x04005ee0                __floatsidf
 .text          0x04005fb4       0xd4 d:/quartus13/nios2eds/bin/gnu/h-i686-mingw32/bin/../lib/gcc/nios2-elf/4.7.3\libgcc.a(_df_to_si.o)
                0x04005fb4                __fixdfsi
 .text          0x04006088        0x0 d:/quartus13/nios2eds/bin/gnu/h-i686-mingw32/bin/../lib/gcc/nios2-elf/4.7.3\libgcc.a(_thenan_df.o)
 .text          0x04006088       0x60 d:/quartus13/nios2eds/bin/gnu/h-i686-mingw32/bin/../lib/gcc/nios2-elf/4.7.3\libgcc.a(_muldi3.o)
                0x04006088                __muldi3
 .text          0x040060e8       0xac d:/quartus13/nios2eds/bin/gnu/h-i686-mingw32/bin/../lib/gcc/nios2-elf/4.7.3\libgcc.a(_clzsi2.o)
                0x040060e8                __clzsi2
 .text          0x04006194      0x224 d:/quartus13/nios2eds/bin/gnu/h-i686-mingw32/bin/../lib/gcc/nios2-elf/4.7.3\libgcc.a(_pack_df.o)
                0x04006194                __pack_d
 .text          0x040063b8      0x104 d:/quartus13/nios2eds/bin/gnu/h-i686-mingw32/bin/../lib/gcc/nios2-elf/4.7.3\libgcc.a(_unpack_df.o)
                0x040063b8                __unpack_d
 .text          0x040064bc       0xd0 d:/quartus13/nios2eds/bin/gnu/h-i686-mingw32/bin/../lib/gcc/nios2-elf/4.7.3\libgcc.a(_fpcmp_parts_df.o)
                0x040064bc                __fpcmp_parts_d
 .text          0x0400658c       0x44 d:/quartus13/nios2eds/bin/gnu/h-i686-mingw32/bin/../lib/gcc/nios2-elf/4.7.3\libgcc.a(_lshrdi3.o)
                0x0400658c                __lshrdi3
 .text          0x040065d0       0x44 d:/quartus13/nios2eds/bin/gnu/h-i686-mingw32/bin/../lib/gcc/nios2-elf/4.7.3\libgcc.a(_ashldi3.o)
                0x040065d0                __ashldi3
 .text          0x04006614        0x0 d:/quartus13/nios2eds/bin/gnu/h-i686-mingw32/bin/../lib/gcc/nios2-elf/4.7.3\libgcc.a(_clz.o)
 .text          0x04006614       0x68 d:/quartus13/nios2eds/bin/gnu/h-i686-mingw32/bin/../lib/gcc/nios2-elf/4.7.3/../../../../../H-i686-mingw32/nios2-elf/lib\libc.a(lib_a-printf.o)
                0x04006614                _printf_r
                0x04006640                printf
 .text          0x0400667c       0x98 d:/quartus13/nios2eds/bin/gnu/h-i686-mingw32/bin/../lib/gcc/nios2-elf/4.7.3/../../../../../H-i686-mingw32/nios2-elf/lib\libc.a(lib_a-puts.o)
                0x0400667c                _puts_r
                0x04006700                puts
 .text          0x04006714       0x8c d:/quartus13/nios2eds/bin/gnu/h-i686-mingw32/bin/../lib/gcc/nios2-elf/4.7.3/../../../../../H-i686-mingw32/nios2-elf/lib\libc.a(lib_a-strlen.o)
                0x04006714                strlen
 .text          0x040067a0     0x1e50 d:/quartus13/nios2eds/bin/gnu/h-i686-mingw32/bin/../lib/gcc/nios2-elf/4.7.3/../../../../../H-i686-mingw32/nios2-elf/lib\libc.a(lib_a-vfprintf.o)
                0x040067d4                ___vfprintf_internal_r
                0x040085cc                __vfprintf_internal
 .text          0x040085f0      0x174 d:/quartus13/nios2eds/bin/gnu/h-i686-mingw32/bin/../lib/gcc/nios2-elf/4.7.3/../../../../../H-i686-mingw32/nios2-elf/lib\libc.a(lib_a-wsetup.o)
                0x040085f0                __swsetup_r
 .text          0x04008764     0x1824 d:/quartus13/nios2eds/bin/gnu/h-i686-mingw32/bin/../lib/gcc/nios2-elf/4.7.3/../../../../../H-i686-mingw32/nios2-elf/lib\libc.a(lib_a-dtoa.o)
                0x0400896c                _dtoa_r
 .text          0x04009f88      0x218 d:/quartus13/nios2eds/bin/gnu/h-i686-mingw32/bin/../lib/gcc/nios2-elf/4.7.3/../../../../../H-i686-mingw32/nios2-elf/lib\libc.a(lib_a-fflush.o)
                0x04009f88                _fflush_r
                0x0400a170                fflush
 .text          0x0400a1a0      0x2d8 d:/quartus13/nios2eds/bin/gnu/h-i686-mingw32/bin/../lib/gcc/nios2-elf/4.7.3/../../../../../H-i686-mingw32/nios2-elf/lib\libc.a(lib_a-findfp.o)
                0x0400a1b0                _cleanup_r
                0x0400a1bc                __sfmoreglue
                0x0400a220                _cleanup
                0x0400a230                __sinit
                0x0400a33c                __sfp
                0x0400a438                __sfp_lock_acquire
                0x0400a43c                __sfp_lock_release
                0x0400a440                __sinit_lock_acquire
                0x0400a444                __sinit_lock_release
                0x0400a448                __fp_lock_all
                0x0400a460                __fp_unlock_all
 .text          0x0400a478      0x40c d:/quartus13/nios2eds/bin/gnu/h-i686-mingw32/bin/../lib/gcc/nios2-elf/4.7.3/../../../../../H-i686-mingw32/nios2-elf/lib\libc.a(lib_a-freer.o)
                0x0400a478                _malloc_trim_r
                0x0400a5b4                _free_r
 .text          0x0400a884      0x4e4 d:/quartus13/nios2eds/bin/gnu/h-i686-mingw32/bin/../lib/gcc/nios2-elf/4.7.3/../../../../../H-i686-mingw32/nios2-elf/lib\libc.a(lib_a-fvwrite.o)
                0x0400a884                __sfvwrite_r
 .text          0x0400ad68      0x160 d:/quartus13/nios2eds/bin/gnu/h-i686-mingw32/bin/../lib/gcc/nios2-elf/4.7.3/../../../../../H-i686-mingw32/nios2-elf/lib\libc.a(lib_a-fwalk.o)
                0x0400ad68                _fwalk
                0x0400ae10                _fwalk_reent
 .text          0x0400aec8        0x0 d:/quartus13/nios2eds/bin/gnu/h-i686-mingw32/bin/../lib/gcc/nios2-elf/4.7.3/../../../../../H-i686-mingw32/nios2-elf/lib\libc.a(lib_a-impure.o)
 .text          0x0400aec8       0xdc d:/quartus13/nios2eds/bin/gnu/h-i686-mingw32/bin/../lib/gcc/nios2-elf/4.7.3/../../../../../H-i686-mingw32/nios2-elf/lib\libc.a(lib_a-locale.o)
                0x0400aec8                _setlocale_r
                0x0400af64                __locale_charset
                0x0400af70                _localeconv_r
                0x0400af7c                setlocale
                0x0400af98                localeconv
 .text          0x0400afa4      0x1a8 d:/quartus13/nios2eds/bin/gnu/h-i686-mingw32/bin/../lib/gcc/nios2-elf/4.7.3/../../../../../H-i686-mingw32/nios2-elf/lib\libc.a(lib_a-makebuf.o)
                0x0400afa4                __smakebuf_r
 .text          0x0400b14c      0x784 d:/quartus13/nios2eds/bin/gnu/h-i686-mingw32/bin/../lib/gcc/nios2-elf/4.7.3/../../../../../H-i686-mingw32/nios2-elf/lib\libc.a(lib_a-mallocr.o)
                0x0400b14c                _malloc_r
 .text          0x0400b8d0       0xf8 d:/quartus13/nios2eds/bin/gnu/h-i686-mingw32/bin/../lib/gcc/nios2-elf/4.7.3/../../../../../H-i686-mingw32/nios2-elf/lib\libc.a(lib_a-memchr.o)
                0x0400b8d0                memchr
 .text          0x0400b9c8       0xf8 d:/quartus13/nios2eds/bin/gnu/h-i686-mingw32/bin/../lib/gcc/nios2-elf/4.7.3/../../../../../H-i686-mingw32/nios2-elf/lib\libc.a(lib_a-memcpy.o)
                0x0400b9c8                memcpy
 .text          0x0400bac0      0x128 d:/quartus13/nios2eds/bin/gnu/h-i686-mingw32/bin/../lib/gcc/nios2-elf/4.7.3/../../../../../H-i686-mingw32/nios2-elf/lib\libc.a(lib_a-memmove.o)
                0x0400bac0                memmove
 .text          0x0400bbe8       0xdc d:/quartus13/nios2eds/bin/gnu/h-i686-mingw32/bin/../lib/gcc/nios2-elf/4.7.3/../../../../../H-i686-mingw32/nios2-elf/lib\libc.a(lib_a-memset.o)
                0x0400bbe8                memset
 .text          0x0400bcc4      0xfa8 d:/quartus13/nios2eds/bin/gnu/h-i686-mingw32/bin/../lib/gcc/nios2-elf/4.7.3/../../../../../H-i686-mingw32/nios2-elf/lib\libc.a(lib_a-mprec.o)
                0x0400bcc4                _Balloc
                0x0400bd6c                _Bfree
                0x0400bd94                __multadd
                0x0400bea8                __s2b
                0x0400bfac                __hi0bits
                0x0400c014                __lo0bits
                0x0400c0c4                __i2b
                0x0400c100                __multiply
                0x0400c2e0                __pow5mult
                0x0400c40c                __lshift
                0x0400c568                __mcmp
                0x0400c5c0                __mdiff
                0x0400c768                __ulp
                0x0400c7c8                __b2d
                0x0400c910                __d2b
                0x0400ca54                __ratio
                0x0400caf8                _mprec_log10
                0x0400cb6c                __copybits
                0x0400cbe8                __any_on
 .text          0x0400cc6c      0x5fc d:/quartus13/nios2eds/bin/gnu/h-i686-mingw32/bin/../lib/gcc/nios2-elf/4.7.3/../../../../../H-i686-mingw32/nios2-elf/lib\libc.a(lib_a-reallocr.o)
                0x0400cc6c                _realloc_r
 .text          0x0400d268       0x38 d:/quartus13/nios2eds/bin/gnu/h-i686-mingw32/bin/../lib/gcc/nios2-elf/4.7.3/../../../../../H-i686-mingw32/nios2-elf/lib\libc.a(lib_a-s_isinfd.o)
                0x0400d268                __isinfd
 .text          0x0400d2a0       0x2c d:/quartus13/nios2eds/bin/gnu/h-i686-mingw32/bin/../lib/gcc/nios2-elf/4.7.3/../../../../../H-i686-mingw32/nios2-elf/lib\libc.a(lib_a-s_isnand.o)
                0x0400d2a0                __isnand
 .text          0x0400d2cc       0x64 d:/quartus13/nios2eds/bin/gnu/h-i686-mingw32/bin/../lib/gcc/nios2-elf/4.7.3/../../../../../H-i686-mingw32/nios2-elf/lib\libc.a(lib_a-sbrkr.o)
                0x0400d2cc                _sbrk_r
 .text          0x0400d330      0x140 d:/quartus13/nios2eds/bin/gnu/h-i686-mingw32/bin/../lib/gcc/nios2-elf/4.7.3/../../../../../H-i686-mingw32/nios2-elf/lib\libc.a(lib_a-stdio.o)
                0x0400d330                __sread
                0x0400d384                __swrite
                0x0400d40c                __sseek
                0x0400d468                __sclose
 .text          0x0400d470       0xa4 d:/quartus13/nios2eds/bin/gnu/h-i686-mingw32/bin/../lib/gcc/nios2-elf/4.7.3/../../../../../H-i686-mingw32/nios2-elf/lib\libc.a(lib_a-strcmp.o)
                0x0400d470                strcmp
 .text          0x0400d514       0x6c d:/quartus13/nios2eds/bin/gnu/h-i686-mingw32/bin/../lib/gcc/nios2-elf/4.7.3/../../../../../H-i686-mingw32/nios2-elf/lib\libc.a(lib_a-writer.o)
                0x0400d514                _write_r
 .text          0x0400d580       0xbc d:/quartus13/nios2eds/bin/gnu/h-i686-mingw32/bin/../lib/gcc/nios2-elf/4.7.3/../../../../../H-i686-mingw32/nios2-elf/lib\libc.a(lib_a-callocr.o)
                0x0400d580                _calloc_r
 .text          0x0400d63c       0x64 d:/quartus13/nios2eds/bin/gnu/h-i686-mingw32/bin/../lib/gcc/nios2-elf/4.7.3/../../../../../H-i686-mingw32/nios2-elf/lib\libc.a(lib_a-closer.o)
                0x0400d63c                _close_r
 .text          0x0400d6a0      0x150 d:/quartus13/nios2eds/bin/gnu/h-i686-mingw32/bin/../lib/gcc/nios2-elf/4.7.3/../../../../../H-i686-mingw32/nios2-elf/lib\libc.a(lib_a-fclose.o)
                0x0400d6a0                _fclose_r
                0x0400d7dc                fclose
 .text          0x0400d7f0       0x68 d:/quartus13/nios2eds/bin/gnu/h-i686-mingw32/bin/../lib/gcc/nios2-elf/4.7.3/../../../../../H-i686-mingw32/nios2-elf/lib\libc.a(lib_a-fstatr.o)
                0x0400d7f0                _fstat_r
 .text          0x0400d858        0x0 d:/quartus13/nios2eds/bin/gnu/h-i686-mingw32/bin/../lib/gcc/nios2-elf/4.7.3/../../../../../H-i686-mingw32/nios2-elf/lib\libc.a(lib_a-int_errno.o)
 .text          0x0400d858       0x64 d:/quartus13/nios2eds/bin/gnu/h-i686-mingw32/bin/../lib/gcc/nios2-elf/4.7.3/../../../../../H-i686-mingw32/nios2-elf/lib\libc.a(lib_a-isattyr.o)
                0x0400d858                _isatty_r
 .text          0x0400d8bc       0x6c d:/quartus13/nios2eds/bin/gnu/h-i686-mingw32/bin/../lib/gcc/nios2-elf/4.7.3/../../../../../H-i686-mingw32/nios2-elf/lib\libc.a(lib_a-lseekr.o)
                0x0400d8bc                _lseek_r
 .text          0x0400d928       0x6c d:/quartus13/nios2eds/bin/gnu/h-i686-mingw32/bin/../lib/gcc/nios2-elf/4.7.3/../../../../../H-i686-mingw32/nios2-elf/lib\libc.a(lib_a-readr.o)
                0x0400d928                _read_r
 .text          0x0400d994      0x5c8 d:/quartus13/nios2eds/bin/gnu/h-i686-mingw32/bin/../lib/gcc/nios2-elf/4.7.3\libgcc.a(_udivdi3.o)
                0x0400d994                __udivdi3
 .text          0x0400df5c      0x58c d:/quartus13/nios2eds/bin/gnu/h-i686-mingw32/bin/../lib/gcc/nios2-elf/4.7.3\libgcc.a(_umoddi3.o)
                0x0400df5c                __umoddi3
 .text          0x0400e4e8      0x1b4 d:/quartus13/nios2eds/bin/gnu/h-i686-mingw32/bin/../lib/gcc/nios2-elf/4.7.3\libgcc.a(_div_df.o)
                0x0400e4e8                __divdf3
 .text          0x0400e69c       0x5c d:/quartus13/nios2eds/bin/gnu/h-i686-mingw32/bin/../lib/gcc/nios2-elf/4.7.3\libgcc.a(_eq_df.o)
                0x0400e69c                __eqdf2
 .text          0x0400e6f8       0x5c d:/quartus13/nios2eds/bin/gnu/h-i686-mingw32/bin/../lib/gcc/nios2-elf/4.7.3\libgcc.a(_ne_df.o)
                0x0400e6f8                __nedf2
 .text          0x0400e754       0x64 d:/quartus13/nios2eds/bin/gnu/h-i686-mingw32/bin/../lib/gcc/nios2-elf/4.7.3\libgcc.a(_gt_df.o)
                0x0400e754                __gtdf2
 .text          0x0400e7b8       0x5c d:/quartus13/nios2eds/bin/gnu/h-i686-mingw32/bin/../lib/gcc/nios2-elf/4.7.3\libgcc.a(_lt_df.o)
                0x0400e7b8                __ltdf2
 .text          0x0400e814      0x11c d:/quartus13/nios2eds/bin/gnu/h-i686-mingw32/bin/../lib/gcc/nios2-elf/4.7.3\libgcc.a(_usi_to_df.o)
                0x0400e814                __floatunsidf
 .text          0x0400e930      0x130 d:/quartus13/nios2eds/bin/gnu/h-i686-mingw32/bin/../lib/gcc/nios2-elf/4.7.3\libgcc.a(lib2-divmod.o)
                0x0400e9a4                __divsi3
                0x0400e9f4                __modsi3
                0x0400ea50                __udivsi3
                0x0400ea58                __umodsi3
 .text          0x0400ea60      0x118 ../qsys_lcd_bsp/\libhal_bsp.a(alt_close.o)
                0x0400eab0                close
 .text          0x0400eb78       0x2c ../qsys_lcd_bsp/\libhal_bsp.a(alt_dev.o)
 .text          0x0400eba4        0x0 ../qsys_lcd_bsp/\libhal_bsp.a(alt_errno.o)
 .text          0x0400eba4       0xfc ../qsys_lcd_bsp/\libhal_bsp.a(alt_fstat.o)
                0x0400ebf4                fstat
 .text          0x0400eca0       0xf0 ../qsys_lcd_bsp/\libhal_bsp.a(alt_isatty.o)
                0x0400ecf0                isatty
 .text          0x0400ed90      0x120 ../qsys_lcd_bsp/\libhal_bsp.a(alt_lseek.o)
                0x0400ede0                lseek
 .text          0x0400eeb0       0x78 ../qsys_lcd_bsp/\libhal_bsp.a(alt_main.o)
                0x0400eeb0                alt_main
 .text          0x0400ef28       0x40 ../qsys_lcd_bsp/\libhal_bsp.a(alt_malloc_lock.o)
                0x0400ef28                __malloc_lock
                0x0400ef48                __malloc_unlock
 .text          0x0400ef68      0x140 ../qsys_lcd_bsp/\libhal_bsp.a(alt_read.o)
                0x0400efb8                read
 .text          0x0400f0a8       0x60 ../qsys_lcd_bsp/\libhal_bsp.a(alt_release_fd.o)
                0x0400f0a8                alt_release_fd
 .text          0x0400f108       0xb0 ../qsys_lcd_bsp/\libhal_bsp.a(alt_sbrk.o)
                0x0400f108                sbrk
 .text          0x0400f1b8       0x30 ../qsys_lcd_bsp/\libhal_bsp.a(alt_usleep.o)
                0x0400f1b8                usleep
 .text          0x0400f1e8      0x13c ../qsys_lcd_bsp/\libhal_bsp.a(alt_write.o)
                0x0400f238                write
 .text          0x0400f324       0xbc ../qsys_lcd_bsp/\libhal_bsp.a(alt_sys_init.o)
                0x0400f35c                alt_irq_init
                0x0400f390                alt_sys_init
 .text          0x0400f3e0      0x990 ../qsys_lcd_bsp/\libhal_bsp.a(altera_avalon_epcs_flash_controller.o)
                0x0400f418                alt_epcs_flash_init
                0x0400f7e0                alt_epcs_flash_write
                0x0400fa40                alt_epcs_flash_get_info
                0x0400fb60                alt_epcs_flash_erase_block
                0x0400fbd4                alt_epcs_flash_write_block
                0x0400fcd8                alt_epcs_flash_read
 .text          0x0400fd70      0x164 ../qsys_lcd_bsp/\libhal_bsp.a(altera_avalon_jtag_uart_fd.o)
                0x0400fd70                altera_avalon_jtag_uart_read_fd
                0x0400fdd0                altera_avalon_jtag_uart_write_fd
                0x0400fe30                altera_avalon_jtag_uart_close_fd
                0x0400fe80                altera_avalon_jtag_uart_ioctl_fd
 .text          0x0400fed4      0x3d0 ../qsys_lcd_bsp/\libhal_bsp.a(altera_avalon_jtag_uart_init.o)
                0x0400fed4                altera_avalon_jtag_uart_init
                0x0401023c                altera_avalon_jtag_uart_close
 .text          0x040102a4       0xf4 ../qsys_lcd_bsp/\libhal_bsp.a(altera_avalon_jtag_uart_ioctl.o)
                0x040102a4                altera_avalon_jtag_uart_ioctl
 .text          0x04010398      0x218 ../qsys_lcd_bsp/\libhal_bsp.a(altera_avalon_jtag_uart_read.o)
                0x04010398                altera_avalon_jtag_uart_read
 .text          0x040105b0      0x224 ../qsys_lcd_bsp/\libhal_bsp.a(altera_avalon_jtag_uart_write.o)
                0x040105b0                altera_avalon_jtag_uart_write
 .text          0x040107d4      0x624 ../qsys_lcd_bsp/\libhal_bsp.a(epcs_commands.o)
                0x040107d4                epcs_read_status_register
                0x040108a0                epcs_sector_erase
                0x04010998                epcs_read_buffer
                0x04010a8c                epcs_write_enable
                0x04010adc                epcs_write_status_register
                0x04010b44                epcs_write_buffer
                0x04010c60                epcs_read_electronic_signature
                0x04010cc8                epcs_read_device_id
                0x04010d48                epcs_enter_4_bytes_mode
                0x04010da0                epcs_exit_4_bytes_mode
 .text          0x04010df8      0x140 ../qsys_lcd_bsp/\libhal_bsp.a(alt_alarm_start.o)
                0x04010df8                alt_alarm_start
 .text          0x04010f38      0x128 ../qsys_lcd_bsp/\libhal_bsp.a(alt_busy_sleep.o)
                0x04010f38                alt_busy_sleep
 .text          0x04011060       0xf0 ../qsys_lcd_bsp/\libhal_bsp.a(alt_dev_llist_insert.o)
                0x040110b0                alt_dev_llist_insert
 .text          0x04011150       0x5c ../qsys_lcd_bsp/\libhal_bsp.a(alt_do_ctors.o)
                0x04011150                _do_ctors
 .text          0x040111ac       0x5c ../qsys_lcd_bsp/\libhal_bsp.a(alt_do_dtors.o)
                0x040111ac                _do_dtors
 .text          0x04011208       0xb8 ../qsys_lcd_bsp/\libhal_bsp.a(alt_flash_dev.o)
                0x04011208                alt_flash_open_dev
                0x04011270                alt_flash_close_dev
 .text          0x040112c0      0x1d8 ../qsys_lcd_bsp/\libhal_bsp.a(alt_iic.o)
                0x040112c0                alt_ic_isr_register
                0x04011310                alt_ic_irq_enable
                0x040113ac                alt_ic_irq_disable
                0x0401144c                alt_ic_irq_enabled
 .text          0x04011498       0xf0 ../qsys_lcd_bsp/\libhal_bsp.a(alt_iic_isr_register.o)
                0x04011498                alt_iic_isr_register
 .text          0x04011588      0x138 ../qsys_lcd_bsp/\libhal_bsp.a(alt_io_redirect.o)
                0x04011648                alt_io_redirect
 .text          0x040116c0        0x0 ../qsys_lcd_bsp/\libhal_bsp.a(alt_irq_entry.o)
 .text          0x040116c0        0x0 ../qsys_lcd_bsp/\libhal_bsp.a(alt_irq_handler.o)
 .text          0x040116c0        0x0 ../qsys_lcd_bsp/\libhal_bsp.a(alt_irq_vars.o)
 .text          0x040116c0      0x270 ../qsys_lcd_bsp/\libhal_bsp.a(alt_open.o)
                0x040117dc                open
 .text          0x04011930      0x19c ../qsys_lcd_bsp/\libhal_bsp.a(alt_tick.o)
                0x04011930                alt_alarm_stop
                0x040119c8                alt_tick
 .text          0x04011acc       0x20 ../qsys_lcd_bsp/\libhal_bsp.a(altera_nios2_qsys_irq.o)
                0x04011acc                altera_nios2_qsys_irq_init
 .text          0x04011aec      0x208 ../qsys_lcd_bsp/\libhal_bsp.a(altera_avalon_spi.o)
                0x04011aec                alt_avalon_spi_command
 .text          0x04011cf4        0x0 ../qsys_lcd_bsp/\libhal_bsp.a(alt_exception_entry.o)
 .text          0x04011cf4       0x90 ../qsys_lcd_bsp/\libhal_bsp.a(alt_find_dev.o)
                0x04011cf4                alt_find_dev
 .text          0x04011d84      0x114 ../qsys_lcd_bsp/\libhal_bsp.a(alt_find_file.o)
                0x04011d84                alt_find_file
 .text          0x04011e98       0xb4 ../qsys_lcd_bsp/\libhal_bsp.a(alt_get_fd.o)
                0x04011e98                alt_get_fd
 .text          0x04011f4c       0x14 d:/quartus13/nios2eds/bin/gnu/h-i686-mingw32/bin/../lib/gcc/nios2-elf/4.7.3/../../../../../H-i686-mingw32/nios2-elf/lib\libc.a(lib_a-atexit.o)
                0x04011f4c                atexit
 .text          0x04011f60       0x38 d:/quartus13/nios2eds/bin/gnu/h-i686-mingw32/bin/../lib/gcc/nios2-elf/4.7.3/../../../../../H-i686-mingw32/nios2-elf/lib\libc.a(lib_a-exit.o)
                0x04011f60                exit
 .text          0x04011f98       0x7c d:/quartus13/nios2eds/bin/gnu/h-i686-mingw32/bin/../lib/gcc/nios2-elf/4.7.3/../../../../../H-i686-mingw32/nios2-elf/lib\libc.a(lib_a-memcmp.o)
                0x04011f98                memcmp
 .text          0x04012014      0x130 d:/quartus13/nios2eds/bin/gnu/h-i686-mingw32/bin/../lib/gcc/nios2-elf/4.7.3/../../../../../H-i686-mingw32/nios2-elf/lib\libc.a(lib_a-__atexit.o)
                0x04012014                __register_exitproc
 .text          0x04012144      0x1a0 d:/quartus13/nios2eds/bin/gnu/h-i686-mingw32/bin/../lib/gcc/nios2-elf/4.7.3/../../../../../H-i686-mingw32/nios2-elf/lib\libc.a(lib_a-__call_atexit.o)
                0x04012144                __call_exitprocs
 .text          0x040122e4       0x3c ../qsys_lcd_bsp/\libhal_bsp.a(alt_exit.o)
                0x040122e4                _exit
 *(.gnu.warning.*)
 *(.fini)
                0x04012320                PROVIDE (__etext, ABSOLUTE (.))
                0x04012320                PROVIDE (_etext, ABSOLUTE (.))
                0x04012320                PROVIDE (etext, ABSOLUTE (.))
 *(.eh_frame_hdr)
                0x04012320                . = ALIGN (0x4)
                0x04012320                PROVIDE (__preinit_array_start, ABSOLUTE (.))
 *(.preinit_array)
                0x04012320                PROVIDE (__preinit_array_end, ABSOLUTE (.))
                0x04012320                PROVIDE (__init_array_start, ABSOLUTE (.))
 *(.init_array)
                0x04012320                PROVIDE (__init_array_end, ABSOLUTE (.))
                0x04012320                PROVIDE (__fini_array_start, ABSOLUTE (.))
 *(.fini_array)
                0x04012320                PROVIDE (__fini_array_end, ABSOLUTE (.))
 *(.eh_frame)
 *(.gcc_except_table .gcc_except_table.*)
 *(.dynamic)
                0x04012320                PROVIDE (__CTOR_LIST__, ABSOLUTE (.))
 *(.ctors)
 *(SORT(.ctors.*))
                0x04012320                PROVIDE (__CTOR_END__, ABSOLUTE (.))
                0x04012320                PROVIDE (__DTOR_LIST__, ABSOLUTE (.))
 *(.dtors)
 *(SORT(.dtors.*))
                0x04012320                PROVIDE (__DTOR_END__, ABSOLUTE (.))
 *(.jcr)
                0x04012320                . = ALIGN (0x4)

.rodata         0x04012320    0xc02e8
                0x04012320                PROVIDE (__ram_rodata_start, ABSOLUTE (.))
                0x04012320                . = ALIGN (0x4)
 *(.rodata .rodata.* .gnu.linkonce.r.*)
 .rodata        0x04012320     0x4750 obj/default/drive/mculcd.o
                0x04012320                asc2_1206
                0x04012794                asc2_1608
                0x04012d84                asc2_2412
                0x04013ae0                asc2_3216
 .rodata        0x04016a70    0xbb86c obj/default/qsys_lcd.o
                0x04016a70                gImage_pic01
 .rodata        0x040d22dc       0x14 d:/quartus13/nios2eds/bin/gnu/h-i686-mingw32/bin/../lib/gcc/nios2-elf/4.7.3\libgcc.a(_thenan_df.o)
                0x040d22dc                __thenan_df
 .rodata        0x040d22f0      0x100 d:/quartus13/nios2eds/bin/gnu/h-i686-mingw32/bin/../lib/gcc/nios2-elf/4.7.3\libgcc.a(_clz.o)
                0x040d22f0                __clz_tab
 .rodata.str1.4
                0x040d23f0        0x2 d:/quartus13/nios2eds/bin/gnu/h-i686-mingw32/bin/../lib/gcc/nios2-elf/4.7.3/../../../../../H-i686-mingw32/nios2-elf/lib\libc.a(lib_a-puts.o)
                                  0x4 (size before relaxing)
 *fill*         0x040d23f2        0x2 
 .rodata.str1.4
                0x040d23f4       0x42 d:/quartus13/nios2eds/bin/gnu/h-i686-mingw32/bin/../lib/gcc/nios2-elf/4.7.3/../../../../../H-i686-mingw32/nios2-elf/lib\libc.a(lib_a-vfprintf.o)
                                 0x44 (size before relaxing)
 .rodata        0x040d2436       0x20 d:/quartus13/nios2eds/bin/gnu/h-i686-mingw32/bin/../lib/gcc/nios2-elf/4.7.3/../../../../../H-i686-mingw32/nios2-elf/lib\libc.a(lib_a-vfprintf.o)
 *fill*         0x040d2456        0x2 
 .rodata.str1.4
                0x040d2458       0x10 d:/quartus13/nios2eds/bin/gnu/h-i686-mingw32/bin/../lib/gcc/nios2-elf/4.7.3/../../../../../H-i686-mingw32/nios2-elf/lib\libc.a(lib_a-dtoa.o)
                                 0x14 (size before relaxing)
 .rodata.str1.4
                0x040d2468        0x2 d:/quartus13/nios2eds/bin/gnu/h-i686-mingw32/bin/../lib/gcc/nios2-elf/4.7.3/../../../../../H-i686-mingw32/nios2-elf/lib\libc.a(lib_a-impure.o)
                                  0x4 (size before relaxing)
 *fill*         0x040d246a        0x2 
 .rodata.str1.4
                0x040d246c       0x10 d:/quartus13/nios2eds/bin/gnu/h-i686-mingw32/bin/../lib/gcc/nios2-elf/4.7.3/../../../../../H-i686-mingw32/nios2-elf/lib\libc.a(lib_a-locale.o)
                                 0x18 (size before relaxing)
 .rodata        0x040d247c       0x30 d:/quartus13/nios2eds/bin/gnu/h-i686-mingw32/bin/../lib/gcc/nios2-elf/4.7.3/../../../../../H-i686-mingw32/nios2-elf/lib\libc.a(lib_a-locale.o)
 .rodata        0x040d24ac      0x124 d:/quartus13/nios2eds/bin/gnu/h-i686-mingw32/bin/../lib/gcc/nios2-elf/4.7.3/../../../../../H-i686-mingw32/nios2-elf/lib\libc.a(lib_a-mprec.o)
                0x040d24ac                __mprec_tinytens
                0x040d24d4                __mprec_bigtens
                0x040d24fc                __mprec_tens
 .rodata        0x040d25d0        0xc ../qsys_lcd_bsp/\libhal_bsp.a(alt_dev.o)
 .rodata        0x040d25dc       0x10 ../qsys_lcd_bsp/\libhal_bsp.a(alt_main.o)
 .rodata        0x040d25ec       0x1c ../qsys_lcd_bsp/\libhal_bsp.a(alt_sys_init.o)
 *(.rodata1)
                0x040d2608                . = ALIGN (0x4)
                0x040d2608                PROVIDE (__ram_rodata_end, ABSOLUTE (.))
                0x04012320                PROVIDE (__flash_rodata_start, LOADADDR (.rodata))

.rwdata         0x040d2608     0x1b30
                0x040d2608                PROVIDE (__ram_rwdata_start, ABSOLUTE (.))
                0x040d2608                . = ALIGN (0x4)
 *(.got.plt)
 *(.got)
 *(.data1)
 *(.data .data.* .gnu.linkonce.d.*)
 .data          0x040d2608        0x0 ../qsys_lcd_bsp//obj/HAL/src/crt0.o
 .data          0x040d2608        0x0 obj/default/drive/mculcd.o
 .data          0x040d2608        0x0 obj/default/qsys_lcd.o
 .data          0x040d2608        0x0 d:/quartus13/nios2eds/bin/gnu/h-i686-mingw32/bin/../lib/gcc/nios2-elf/4.7.3\libgcc.a(_fixunsdfsi.o)
 .data          0x040d2608        0x0 d:/quartus13/nios2eds/bin/gnu/h-i686-mingw32/bin/../lib/gcc/nios2-elf/4.7.3\libgcc.a(_addsub_df.o)
 .data          0x040d2608        0x0 d:/quartus13/nios2eds/bin/gnu/h-i686-mingw32/bin/../lib/gcc/nios2-elf/4.7.3\libgcc.a(_mul_df.o)
 .data          0x040d2608        0x0 d:/quartus13/nios2eds/bin/gnu/h-i686-mingw32/bin/../lib/gcc/nios2-elf/4.7.3\libgcc.a(_ge_df.o)
 .data          0x040d2608        0x0 d:/quartus13/nios2eds/bin/gnu/h-i686-mingw32/bin/../lib/gcc/nios2-elf/4.7.3\libgcc.a(_si_to_df.o)
 .data          0x040d2608        0x0 d:/quartus13/nios2eds/bin/gnu/h-i686-mingw32/bin/../lib/gcc/nios2-elf/4.7.3\libgcc.a(_df_to_si.o)
 .data          0x040d2608        0x0 d:/quartus13/nios2eds/bin/gnu/h-i686-mingw32/bin/../lib/gcc/nios2-elf/4.7.3\libgcc.a(_thenan_df.o)
 .data          0x040d2608        0x0 d:/quartus13/nios2eds/bin/gnu/h-i686-mingw32/bin/../lib/gcc/nios2-elf/4.7.3\libgcc.a(_muldi3.o)
 .data          0x040d2608        0x0 d:/quartus13/nios2eds/bin/gnu/h-i686-mingw32/bin/../lib/gcc/nios2-elf/4.7.3\libgcc.a(_clzsi2.o)
 .data          0x040d2608        0x0 d:/quartus13/nios2eds/bin/gnu/h-i686-mingw32/bin/../lib/gcc/nios2-elf/4.7.3\libgcc.a(_pack_df.o)
 .data          0x040d2608        0x0 d:/quartus13/nios2eds/bin/gnu/h-i686-mingw32/bin/../lib/gcc/nios2-elf/4.7.3\libgcc.a(_unpack_df.o)
 .data          0x040d2608        0x0 d:/quartus13/nios2eds/bin/gnu/h-i686-mingw32/bin/../lib/gcc/nios2-elf/4.7.3\libgcc.a(_fpcmp_parts_df.o)
 .data          0x040d2608        0x0 d:/quartus13/nios2eds/bin/gnu/h-i686-mingw32/bin/../lib/gcc/nios2-elf/4.7.3\libgcc.a(_lshrdi3.o)
 .data          0x040d2608        0x0 d:/quartus13/nios2eds/bin/gnu/h-i686-mingw32/bin/../lib/gcc/nios2-elf/4.7.3\libgcc.a(_ashldi3.o)
 .data          0x040d2608        0x0 d:/quartus13/nios2eds/bin/gnu/h-i686-mingw32/bin/../lib/gcc/nios2-elf/4.7.3\libgcc.a(_clz.o)
 .data          0x040d2608        0x0 d:/quartus13/nios2eds/bin/gnu/h-i686-mingw32/bin/../lib/gcc/nios2-elf/4.7.3/../../../../../H-i686-mingw32/nios2-elf/lib\libc.a(lib_a-printf.o)
 .data          0x040d2608        0x0 d:/quartus13/nios2eds/bin/gnu/h-i686-mingw32/bin/../lib/gcc/nios2-elf/4.7.3/../../../../../H-i686-mingw32/nios2-elf/lib\libc.a(lib_a-puts.o)
 .data          0x040d2608        0x0 d:/quartus13/nios2eds/bin/gnu/h-i686-mingw32/bin/../lib/gcc/nios2-elf/4.7.3/../../../../../H-i686-mingw32/nios2-elf/lib\libc.a(lib_a-strlen.o)
 .data          0x040d2608        0x0 d:/quartus13/nios2eds/bin/gnu/h-i686-mingw32/bin/../lib/gcc/nios2-elf/4.7.3/../../../../../H-i686-mingw32/nios2-elf/lib\libc.a(lib_a-vfprintf.o)
 .data          0x040d2608        0x0 d:/quartus13/nios2eds/bin/gnu/h-i686-mingw32/bin/../lib/gcc/nios2-elf/4.7.3/../../../../../H-i686-mingw32/nios2-elf/lib\libc.a(lib_a-wsetup.o)
 .data          0x040d2608        0x0 d:/quartus13/nios2eds/bin/gnu/h-i686-mingw32/bin/../lib/gcc/nios2-elf/4.7.3/../../../../../H-i686-mingw32/nios2-elf/lib\libc.a(lib_a-dtoa.o)
 .data          0x040d2608        0x0 d:/quartus13/nios2eds/bin/gnu/h-i686-mingw32/bin/../lib/gcc/nios2-elf/4.7.3/../../../../../H-i686-mingw32/nios2-elf/lib\libc.a(lib_a-fflush.o)
 .data          0x040d2608        0x0 d:/quartus13/nios2eds/bin/gnu/h-i686-mingw32/bin/../lib/gcc/nios2-elf/4.7.3/../../../../../H-i686-mingw32/nios2-elf/lib\libc.a(lib_a-findfp.o)
 .data          0x040d2608        0x0 d:/quartus13/nios2eds/bin/gnu/h-i686-mingw32/bin/../lib/gcc/nios2-elf/4.7.3/../../../../../H-i686-mingw32/nios2-elf/lib\libc.a(lib_a-freer.o)
 .data          0x040d2608        0x0 d:/quartus13/nios2eds/bin/gnu/h-i686-mingw32/bin/../lib/gcc/nios2-elf/4.7.3/../../../../../H-i686-mingw32/nios2-elf/lib\libc.a(lib_a-fvwrite.o)
 .data          0x040d2608        0x0 d:/quartus13/nios2eds/bin/gnu/h-i686-mingw32/bin/../lib/gcc/nios2-elf/4.7.3/../../../../../H-i686-mingw32/nios2-elf/lib\libc.a(lib_a-fwalk.o)
 .data          0x040d2608      0x400 d:/quartus13/nios2eds/bin/gnu/h-i686-mingw32/bin/../lib/gcc/nios2-elf/4.7.3/../../../../../H-i686-mingw32/nios2-elf/lib\libc.a(lib_a-impure.o)
 .data          0x040d2a08        0xc d:/quartus13/nios2eds/bin/gnu/h-i686-mingw32/bin/../lib/gcc/nios2-elf/4.7.3/../../../../../H-i686-mingw32/nios2-elf/lib\libc.a(lib_a-locale.o)
                0x040d2a08                __lc_ctype
 .data          0x040d2a14        0x0 d:/quartus13/nios2eds/bin/gnu/h-i686-mingw32/bin/../lib/gcc/nios2-elf/4.7.3/../../../../../H-i686-mingw32/nios2-elf/lib\libc.a(lib_a-makebuf.o)
 .data          0x040d2a14      0x408 d:/quartus13/nios2eds/bin/gnu/h-i686-mingw32/bin/../lib/gcc/nios2-elf/4.7.3/../../../../../H-i686-mingw32/nios2-elf/lib\libc.a(lib_a-mallocr.o)
                0x040d2a14                __malloc_av_
 .data          0x040d2e1c        0x0 d:/quartus13/nios2eds/bin/gnu/h-i686-mingw32/bin/../lib/gcc/nios2-elf/4.7.3/../../../../../H-i686-mingw32/nios2-elf/lib\libc.a(lib_a-memchr.o)
 .data          0x040d2e1c        0x0 d:/quartus13/nios2eds/bin/gnu/h-i686-mingw32/bin/../lib/gcc/nios2-elf/4.7.3/../../../../../H-i686-mingw32/nios2-elf/lib\libc.a(lib_a-memcpy.o)
 .data          0x040d2e1c        0x0 d:/quartus13/nios2eds/bin/gnu/h-i686-mingw32/bin/../lib/gcc/nios2-elf/4.7.3/../../../../../H-i686-mingw32/nios2-elf/lib\libc.a(lib_a-memmove.o)
 .data          0x040d2e1c        0x0 d:/quartus13/nios2eds/bin/gnu/h-i686-mingw32/bin/../lib/gcc/nios2-elf/4.7.3/../../../../../H-i686-mingw32/nios2-elf/lib\libc.a(lib_a-memset.o)
 .data          0x040d2e1c        0x0 d:/quartus13/nios2eds/bin/gnu/h-i686-mingw32/bin/../lib/gcc/nios2-elf/4.7.3/../../../../../H-i686-mingw32/nios2-elf/lib\libc.a(lib_a-mprec.o)
 .data          0x040d2e1c        0x0 d:/quartus13/nios2eds/bin/gnu/h-i686-mingw32/bin/../lib/gcc/nios2-elf/4.7.3/../../../../../H-i686-mingw32/nios2-elf/lib\libc.a(lib_a-reallocr.o)
 .data          0x040d2e1c        0x0 d:/quartus13/nios2eds/bin/gnu/h-i686-mingw32/bin/../lib/gcc/nios2-elf/4.7.3/../../../../../H-i686-mingw32/nios2-elf/lib\libc.a(lib_a-s_isinfd.o)
 .data          0x040d2e1c        0x0 d:/quartus13/nios2eds/bin/gnu/h-i686-mingw32/bin/../lib/gcc/nios2-elf/4.7.3/../../../../../H-i686-mingw32/nios2-elf/lib\libc.a(lib_a-s_isnand.o)
 .data          0x040d2e1c        0x0 d:/quartus13/nios2eds/bin/gnu/h-i686-mingw32/bin/../lib/gcc/nios2-elf/4.7.3/../../../../../H-i686-mingw32/nios2-elf/lib\libc.a(lib_a-sbrkr.o)
 .data          0x040d2e1c        0x0 d:/quartus13/nios2eds/bin/gnu/h-i686-mingw32/bin/../lib/gcc/nios2-elf/4.7.3/../../../../../H-i686-mingw32/nios2-elf/lib\libc.a(lib_a-stdio.o)
 .data          0x040d2e1c        0x0 d:/quartus13/nios2eds/bin/gnu/h-i686-mingw32/bin/../lib/gcc/nios2-elf/4.7.3/../../../../../H-i686-mingw32/nios2-elf/lib\libc.a(lib_a-strcmp.o)
 .data          0x040d2e1c        0x0 d:/quartus13/nios2eds/bin/gnu/h-i686-mingw32/bin/../lib/gcc/nios2-elf/4.7.3/../../../../../H-i686-mingw32/nios2-elf/lib\libc.a(lib_a-writer.o)
 .data          0x040d2e1c        0x0 d:/quartus13/nios2eds/bin/gnu/h-i686-mingw32/bin/../lib/gcc/nios2-elf/4.7.3/../../../../../H-i686-mingw32/nios2-elf/lib\libc.a(lib_a-callocr.o)
 .data          0x040d2e1c        0x0 d:/quartus13/nios2eds/bin/gnu/h-i686-mingw32/bin/../lib/gcc/nios2-elf/4.7.3/../../../../../H-i686-mingw32/nios2-elf/lib\libc.a(lib_a-closer.o)
 .data          0x040d2e1c        0x0 d:/quartus13/nios2eds/bin/gnu/h-i686-mingw32/bin/../lib/gcc/nios2-elf/4.7.3/../../../../../H-i686-mingw32/nios2-elf/lib\libc.a(lib_a-fclose.o)
 .data          0x040d2e1c        0x0 d:/quartus13/nios2eds/bin/gnu/h-i686-mingw32/bin/../lib/gcc/nios2-elf/4.7.3/../../../../../H-i686-mingw32/nios2-elf/lib\libc.a(lib_a-fstatr.o)
 .data          0x040d2e1c        0x0 d:/quartus13/nios2eds/bin/gnu/h-i686-mingw32/bin/../lib/gcc/nios2-elf/4.7.3/../../../../../H-i686-mingw32/nios2-elf/lib\libc.a(lib_a-int_errno.o)
 .data          0x040d2e1c        0x0 d:/quartus13/nios2eds/bin/gnu/h-i686-mingw32/bin/../lib/gcc/nios2-elf/4.7.3/../../../../../H-i686-mingw32/nios2-elf/lib\libc.a(lib_a-isattyr.o)
 .data          0x040d2e1c        0x0 d:/quartus13/nios2eds/bin/gnu/h-i686-mingw32/bin/../lib/gcc/nios2-elf/4.7.3/../../../../../H-i686-mingw32/nios2-elf/lib\libc.a(lib_a-lseekr.o)
 .data          0x040d2e1c        0x0 d:/quartus13/nios2eds/bin/gnu/h-i686-mingw32/bin/../lib/gcc/nios2-elf/4.7.3/../../../../../H-i686-mingw32/nios2-elf/lib\libc.a(lib_a-readr.o)
 .data          0x040d2e1c        0x0 d:/quartus13/nios2eds/bin/gnu/h-i686-mingw32/bin/../lib/gcc/nios2-elf/4.7.3\libgcc.a(_udivdi3.o)
 .data          0x040d2e1c        0x0 d:/quartus13/nios2eds/bin/gnu/h-i686-mingw32/bin/../lib/gcc/nios2-elf/4.7.3\libgcc.a(_umoddi3.o)
 .data          0x040d2e1c        0x0 d:/quartus13/nios2eds/bin/gnu/h-i686-mingw32/bin/../lib/gcc/nios2-elf/4.7.3\libgcc.a(_div_df.o)
 .data          0x040d2e1c        0x0 d:/quartus13/nios2eds/bin/gnu/h-i686-mingw32/bin/../lib/gcc/nios2-elf/4.7.3\libgcc.a(_eq_df.o)
 .data          0x040d2e1c        0x0 d:/quartus13/nios2eds/bin/gnu/h-i686-mingw32/bin/../lib/gcc/nios2-elf/4.7.3\libgcc.a(_ne_df.o)
 .data          0x040d2e1c        0x0 d:/quartus13/nios2eds/bin/gnu/h-i686-mingw32/bin/../lib/gcc/nios2-elf/4.7.3\libgcc.a(_gt_df.o)
 .data          0x040d2e1c        0x0 d:/quartus13/nios2eds/bin/gnu/h-i686-mingw32/bin/../lib/gcc/nios2-elf/4.7.3\libgcc.a(_lt_df.o)
 .data          0x040d2e1c        0x0 d:/quartus13/nios2eds/bin/gnu/h-i686-mingw32/bin/../lib/gcc/nios2-elf/4.7.3\libgcc.a(_usi_to_df.o)
 .data          0x040d2e1c        0x0 d:/quartus13/nios2eds/bin/gnu/h-i686-mingw32/bin/../lib/gcc/nios2-elf/4.7.3\libgcc.a(lib2-divmod.o)
 .data          0x040d2e1c        0x0 ../qsys_lcd_bsp/\libhal_bsp.a(alt_close.o)
 .data          0x040d2e1c      0x1a8 ../qsys_lcd_bsp/\libhal_bsp.a(alt_dev.o)
                0x040d2e1c                alt_dev_null
                0x040d2e44                alt_fd_list
 .data          0x040d2fc4        0x0 ../qsys_lcd_bsp/\libhal_bsp.a(alt_errno.o)
 .data          0x040d2fc4        0x0 ../qsys_lcd_bsp/\libhal_bsp.a(alt_fstat.o)
 .data          0x040d2fc4        0x0 ../qsys_lcd_bsp/\libhal_bsp.a(alt_isatty.o)
 .data          0x040d2fc4        0x0 ../qsys_lcd_bsp/\libhal_bsp.a(alt_lseek.o)
 .data          0x040d2fc4        0x0 ../qsys_lcd_bsp/\libhal_bsp.a(alt_main.o)
 .data          0x040d2fc4        0x0 ../qsys_lcd_bsp/\libhal_bsp.a(alt_malloc_lock.o)
 .data          0x040d2fc4        0x0 ../qsys_lcd_bsp/\libhal_bsp.a(alt_read.o)
 .data          0x040d2fc4        0x0 ../qsys_lcd_bsp/\libhal_bsp.a(alt_release_fd.o)
 .data          0x040d2fc4        0x0 ../qsys_lcd_bsp/\libhal_bsp.a(alt_sbrk.o)
 .data          0x040d2fc4        0x0 ../qsys_lcd_bsp/\libhal_bsp.a(alt_usleep.o)
 .data          0x040d2fc4        0x0 ../qsys_lcd_bsp/\libhal_bsp.a(alt_write.o)
 .data          0x040d2fc4     0x1128 ../qsys_lcd_bsp/\libhal_bsp.a(alt_sys_init.o)
 .data          0x040d40ec        0x0 ../qsys_lcd_bsp/\libhal_bsp.a(altera_avalon_epcs_flash_controller.o)
 .data          0x040d40ec        0x0 ../qsys_lcd_bsp/\libhal_bsp.a(altera_avalon_jtag_uart_fd.o)
 .data          0x040d40ec        0x0 ../qsys_lcd_bsp/\libhal_bsp.a(altera_avalon_jtag_uart_init.o)
 .data          0x040d40ec        0x0 ../qsys_lcd_bsp/\libhal_bsp.a(altera_avalon_jtag_uart_ioctl.o)
 .data          0x040d40ec        0x0 ../qsys_lcd_bsp/\libhal_bsp.a(altera_avalon_jtag_uart_read.o)
 .data          0x040d40ec        0x0 ../qsys_lcd_bsp/\libhal_bsp.a(altera_avalon_jtag_uart_write.o)
 .data          0x040d40ec        0x0 ../qsys_lcd_bsp/\libhal_bsp.a(epcs_commands.o)
 .data          0x040d40ec        0x0 ../qsys_lcd_bsp/\libhal_bsp.a(alt_alarm_start.o)
 .data          0x040d40ec        0x0 ../qsys_lcd_bsp/\libhal_bsp.a(alt_busy_sleep.o)
 .data          0x040d40ec        0x0 ../qsys_lcd_bsp/\libhal_bsp.a(alt_dev_llist_insert.o)
 .data          0x040d40ec        0x0 ../qsys_lcd_bsp/\libhal_bsp.a(alt_do_ctors.o)
 .data          0x040d40ec        0x0 ../qsys_lcd_bsp/\libhal_bsp.a(alt_do_dtors.o)
 .data          0x040d40ec        0x0 ../qsys_lcd_bsp/\libhal_bsp.a(alt_flash_dev.o)
 .data          0x040d40ec        0x0 ../qsys_lcd_bsp/\libhal_bsp.a(alt_iic.o)
 .data          0x040d40ec        0x0 ../qsys_lcd_bsp/\libhal_bsp.a(alt_iic_isr_register.o)
 .data          0x040d40ec        0x0 ../qsys_lcd_bsp/\libhal_bsp.a(alt_io_redirect.o)
 .data          0x040d40ec        0x0 ../qsys_lcd_bsp/\libhal_bsp.a(alt_irq_entry.o)
 .data          0x040d40ec        0x0 ../qsys_lcd_bsp/\libhal_bsp.a(alt_irq_handler.o)
 .data          0x040d40ec        0x0 ../qsys_lcd_bsp/\libhal_bsp.a(alt_irq_vars.o)
 .data          0x040d40ec        0x0 ../qsys_lcd_bsp/\libhal_bsp.a(alt_open.o)
 .data          0x040d40ec        0x0 ../qsys_lcd_bsp/\libhal_bsp.a(alt_tick.o)
 .data          0x040d40ec        0x0 ../qsys_lcd_bsp/\libhal_bsp.a(altera_nios2_qsys_irq.o)
 .data          0x040d40ec        0x0 ../qsys_lcd_bsp/\libhal_bsp.a(altera_avalon_spi.o)
 .data          0x040d40ec        0x0 ../qsys_lcd_bsp/\libhal_bsp.a(alt_exception_entry.o)
 .data          0x040d40ec        0x0 ../qsys_lcd_bsp/\libhal_bsp.a(alt_find_dev.o)
 .data          0x040d40ec        0x0 ../qsys_lcd_bsp/\libhal_bsp.a(alt_find_file.o)
 .data          0x040d40ec        0x0 ../qsys_lcd_bsp/\libhal_bsp.a(alt_get_fd.o)
 .data          0x040d40ec        0x0 d:/quartus13/nios2eds/bin/gnu/h-i686-mingw32/bin/../lib/gcc/nios2-elf/4.7.3/../../../../../H-i686-mingw32/nios2-elf/lib\libc.a(lib_a-atexit.o)
 .data          0x040d40ec        0x0 d:/quartus13/nios2eds/bin/gnu/h-i686-mingw32/bin/../lib/gcc/nios2-elf/4.7.3/../../../../../H-i686-mingw32/nios2-elf/lib\libc.a(lib_a-exit.o)
 .data          0x040d40ec        0x0 d:/quartus13/nios2eds/bin/gnu/h-i686-mingw32/bin/../lib/gcc/nios2-elf/4.7.3/../../../../../H-i686-mingw32/nios2-elf/lib\libc.a(lib_a-memcmp.o)
 .data          0x040d40ec        0x0 d:/quartus13/nios2eds/bin/gnu/h-i686-mingw32/bin/../lib/gcc/nios2-elf/4.7.3/../../../../../H-i686-mingw32/nios2-elf/lib\libc.a(lib_a-__atexit.o)
 .data          0x040d40ec        0x0 d:/quartus13/nios2eds/bin/gnu/h-i686-mingw32/bin/../lib/gcc/nios2-elf/4.7.3/../../../../../H-i686-mingw32/nios2-elf/lib\libc.a(lib_a-__call_atexit.o)
 .data          0x040d40ec        0x0 ../qsys_lcd_bsp/\libhal_bsp.a(alt_exit.o)
                0x040dc0ec                _gp = ABSOLUTE ((. + 0x8000))
                0x040dc0ec                PROVIDE (gp, _gp)
 *(.rwdata .rwdata.*)
 *(.sdata .sdata.* .gnu.linkonce.s.*)
 .sdata         0x040d40ec        0x8 obj/default/drive/mculcd.o
                0x040d40ec                POINT_COLOR
                0x040d40f0                BACK_COLOR
 .sdata         0x040d40f4        0x8 d:/quartus13/nios2eds/bin/gnu/h-i686-mingw32/bin/../lib/gcc/nios2-elf/4.7.3/../../../../../H-i686-mingw32/nios2-elf/lib\libc.a(lib_a-impure.o)
                0x040d40f4                _global_impure_ptr
                0x040d40f8                _impure_ptr
 .sdata         0x040d40fc        0x4 d:/quartus13/nios2eds/bin/gnu/h-i686-mingw32/bin/../lib/gcc/nios2-elf/4.7.3/../../../../../H-i686-mingw32/nios2-elf/lib\libc.a(lib_a-locale.o)
                0x040d40fc                __mb_cur_max
 .sdata         0x040d4100        0x8 d:/quartus13/nios2eds/bin/gnu/h-i686-mingw32/bin/../lib/gcc/nios2-elf/4.7.3/../../../../../H-i686-mingw32/nios2-elf/lib\libc.a(lib_a-mallocr.o)
                0x040d4100                __malloc_sbrk_base
                0x040d4104                __malloc_trim_threshold
 .sdata         0x040d4108       0x14 ../qsys_lcd_bsp/\libhal_bsp.a(alt_dev.o)
                0x040d4108                alt_fs_list
                0x040d4110                alt_dev_list
                0x040d4118                alt_max_fd
 .sdata         0x040d411c        0x4 ../qsys_lcd_bsp/\libhal_bsp.a(alt_errno.o)
                0x040d411c                alt_errno
 .sdata         0x040d4120        0x4 ../qsys_lcd_bsp/\libhal_bsp.a(alt_sbrk.o)
 .sdata         0x040d4124        0x8 ../qsys_lcd_bsp/\libhal_bsp.a(alt_flash_dev.o)
                0x040d4124                alt_flash_dev_list
 .sdata         0x040d412c        0x4 ../qsys_lcd_bsp/\libhal_bsp.a(alt_irq_vars.o)
                0x040d412c                alt_priority_mask
 .sdata         0x040d4130        0x8 ../qsys_lcd_bsp/\libhal_bsp.a(alt_tick.o)
                0x040d4130                alt_alarm_list
 *(.sdata2 .sdata2.* .gnu.linkonce.s2.*)
                0x040d4138                . = ALIGN (0x4)
                0x040d4138                _edata = ABSOLUTE (.)
                0x040d4138                PROVIDE (edata, ABSOLUTE (.))
                0x040d4138                PROVIDE (__ram_rwdata_end, ABSOLUTE (.))
                0x040d2608                PROVIDE (__flash_rwdata_start, LOADADDR (.rwdata))

.bss            0x040d4138      0x308
                0x040d4138                __bss_start = ABSOLUTE (.)
                0x040d4138                PROVIDE (__sbss_start, ABSOLUTE (.))
                0x040d4138                PROVIDE (___sbss_start, ABSOLUTE (.))
 *(.dynsbss)
 *(.sbss .sbss.* .gnu.linkonce.sb.*)
 .sbss          0x040d4138        0xc d:/quartus13/nios2eds/bin/gnu/h-i686-mingw32/bin/../lib/gcc/nios2-elf/4.7.3/../../../../../H-i686-mingw32/nios2-elf/lib\libc.a(lib_a-locale.o)
                0x040d4138                _PathLocale
                0x040d413c                __mlocale_changed
                0x040d4140                __nlocale_changed
 .sbss          0x040d4144        0xc d:/quartus13/nios2eds/bin/gnu/h-i686-mingw32/bin/../lib/gcc/nios2-elf/4.7.3/../../../../../H-i686-mingw32/nios2-elf/lib\libc.a(lib_a-mallocr.o)
                0x040d4144                __malloc_max_total_mem
                0x040d4148                __malloc_max_sbrked_mem
                0x040d414c                __malloc_top_pad
 .sbss          0x040d4150        0x4 d:/quartus13/nios2eds/bin/gnu/h-i686-mingw32/bin/../lib/gcc/nios2-elf/4.7.3/../../../../../H-i686-mingw32/nios2-elf/lib\libc.a(lib_a-int_errno.o)
                0x040d4150                errno
 .sbss          0x040d4154        0xc ../qsys_lcd_bsp/\libhal_bsp.a(alt_main.o)
                0x040d4154                alt_argc
                0x040d4158                alt_argv
                0x040d415c                alt_envp
 .sbss          0x040d4160        0x4 ../qsys_lcd_bsp/\libhal_bsp.a(alt_irq_vars.o)
                0x040d4160                alt_irq_active
 .sbss          0x040d4164        0x8 ../qsys_lcd_bsp/\libhal_bsp.a(alt_tick.o)
                0x040d4164                _alt_tick_rate
                0x040d4168                _alt_nticks
 *(.sbss2 .sbss2.* .gnu.linkonce.sb2.*)
 *(.scommon)
                0x040d416c                PROVIDE (__sbss_end, ABSOLUTE (.))
                0x040d416c                PROVIDE (___sbss_end, ABSOLUTE (.))
 *(.dynbss)
 *(.bss .bss.* .gnu.linkonce.b.*)
 .bss           0x040d416c        0x0 ../qsys_lcd_bsp//obj/HAL/src/crt0.o
 .bss           0x040d416c        0x0 obj/default/drive/mculcd.o
 .bss           0x040d416c        0x0 obj/default/qsys_lcd.o
 .bss           0x040d416c        0x0 d:/quartus13/nios2eds/bin/gnu/h-i686-mingw32/bin/../lib/gcc/nios2-elf/4.7.3\libgcc.a(_fixunsdfsi.o)
 .bss           0x040d416c        0x0 d:/quartus13/nios2eds/bin/gnu/h-i686-mingw32/bin/../lib/gcc/nios2-elf/4.7.3\libgcc.a(_addsub_df.o)
 .bss           0x040d416c        0x0 d:/quartus13/nios2eds/bin/gnu/h-i686-mingw32/bin/../lib/gcc/nios2-elf/4.7.3\libgcc.a(_mul_df.o)
 .bss           0x040d416c        0x0 d:/quartus13/nios2eds/bin/gnu/h-i686-mingw32/bin/../lib/gcc/nios2-elf/4.7.3\libgcc.a(_ge_df.o)
 .bss           0x040d416c        0x0 d:/quartus13/nios2eds/bin/gnu/h-i686-mingw32/bin/../lib/gcc/nios2-elf/4.7.3\libgcc.a(_si_to_df.o)
 .bss           0x040d416c        0x0 d:/quartus13/nios2eds/bin/gnu/h-i686-mingw32/bin/../lib/gcc/nios2-elf/4.7.3\libgcc.a(_df_to_si.o)
 .bss           0x040d416c        0x0 d:/quartus13/nios2eds/bin/gnu/h-i686-mingw32/bin/../lib/gcc/nios2-elf/4.7.3\libgcc.a(_thenan_df.o)
 .bss           0x040d416c        0x0 d:/quartus13/nios2eds/bin/gnu/h-i686-mingw32/bin/../lib/gcc/nios2-elf/4.7.3\libgcc.a(_muldi3.o)
 .bss           0x040d416c        0x0 d:/quartus13/nios2eds/bin/gnu/h-i686-mingw32/bin/../lib/gcc/nios2-elf/4.7.3\libgcc.a(_clzsi2.o)
 .bss           0x040d416c        0x0 d:/quartus13/nios2eds/bin/gnu/h-i686-mingw32/bin/../lib/gcc/nios2-elf/4.7.3\libgcc.a(_pack_df.o)
 .bss           0x040d416c        0x0 d:/quartus13/nios2eds/bin/gnu/h-i686-mingw32/bin/../lib/gcc/nios2-elf/4.7.3\libgcc.a(_unpack_df.o)
 .bss           0x040d416c        0x0 d:/quartus13/nios2eds/bin/gnu/h-i686-mingw32/bin/../lib/gcc/nios2-elf/4.7.3\libgcc.a(_fpcmp_parts_df.o)
 .bss           0x040d416c        0x0 d:/quartus13/nios2eds/bin/gnu/h-i686-mingw32/bin/../lib/gcc/nios2-elf/4.7.3\libgcc.a(_lshrdi3.o)
 .bss           0x040d416c        0x0 d:/quartus13/nios2eds/bin/gnu/h-i686-mingw32/bin/../lib/gcc/nios2-elf/4.7.3\libgcc.a(_ashldi3.o)
 .bss           0x040d416c        0x0 d:/quartus13/nios2eds/bin/gnu/h-i686-mingw32/bin/../lib/gcc/nios2-elf/4.7.3\libgcc.a(_clz.o)
 .bss           0x040d416c        0x0 d:/quartus13/nios2eds/bin/gnu/h-i686-mingw32/bin/../lib/gcc/nios2-elf/4.7.3/../../../../../H-i686-mingw32/nios2-elf/lib\libc.a(lib_a-printf.o)
 .bss           0x040d416c        0x0 d:/quartus13/nios2eds/bin/gnu/h-i686-mingw32/bin/../lib/gcc/nios2-elf/4.7.3/../../../../../H-i686-mingw32/nios2-elf/lib\libc.a(lib_a-puts.o)
 .bss           0x040d416c        0x0 d:/quartus13/nios2eds/bin/gnu/h-i686-mingw32/bin/../lib/gcc/nios2-elf/4.7.3/../../../../../H-i686-mingw32/nios2-elf/lib\libc.a(lib_a-strlen.o)
 .bss           0x040d416c        0x0 d:/quartus13/nios2eds/bin/gnu/h-i686-mingw32/bin/../lib/gcc/nios2-elf/4.7.3/../../../../../H-i686-mingw32/nios2-elf/lib\libc.a(lib_a-vfprintf.o)
 .bss           0x040d416c        0x0 d:/quartus13/nios2eds/bin/gnu/h-i686-mingw32/bin/../lib/gcc/nios2-elf/4.7.3/../../../../../H-i686-mingw32/nios2-elf/lib\libc.a(lib_a-wsetup.o)
 .bss           0x040d416c        0x0 d:/quartus13/nios2eds/bin/gnu/h-i686-mingw32/bin/../lib/gcc/nios2-elf/4.7.3/../../../../../H-i686-mingw32/nios2-elf/lib\libc.a(lib_a-dtoa.o)
 .bss           0x040d416c        0x0 d:/quartus13/nios2eds/bin/gnu/h-i686-mingw32/bin/../lib/gcc/nios2-elf/4.7.3/../../../../../H-i686-mingw32/nios2-elf/lib\libc.a(lib_a-fflush.o)
 .bss           0x040d416c        0x0 d:/quartus13/nios2eds/bin/gnu/h-i686-mingw32/bin/../lib/gcc/nios2-elf/4.7.3/../../../../../H-i686-mingw32/nios2-elf/lib\libc.a(lib_a-findfp.o)
 .bss           0x040d416c        0x0 d:/quartus13/nios2eds/bin/gnu/h-i686-mingw32/bin/../lib/gcc/nios2-elf/4.7.3/../../../../../H-i686-mingw32/nios2-elf/lib\libc.a(lib_a-freer.o)
 .bss           0x040d416c        0x0 d:/quartus13/nios2eds/bin/gnu/h-i686-mingw32/bin/../lib/gcc/nios2-elf/4.7.3/../../../../../H-i686-mingw32/nios2-elf/lib\libc.a(lib_a-fvwrite.o)
 .bss           0x040d416c        0x0 d:/quartus13/nios2eds/bin/gnu/h-i686-mingw32/bin/../lib/gcc/nios2-elf/4.7.3/../../../../../H-i686-mingw32/nios2-elf/lib\libc.a(lib_a-fwalk.o)
 .bss           0x040d416c        0x0 d:/quartus13/nios2eds/bin/gnu/h-i686-mingw32/bin/../lib/gcc/nios2-elf/4.7.3/../../../../../H-i686-mingw32/nios2-elf/lib\libc.a(lib_a-impure.o)
 .bss           0x040d416c        0x0 d:/quartus13/nios2eds/bin/gnu/h-i686-mingw32/bin/../lib/gcc/nios2-elf/4.7.3/../../../../../H-i686-mingw32/nios2-elf/lib\libc.a(lib_a-locale.o)
 .bss           0x040d416c        0x0 d:/quartus13/nios2eds/bin/gnu/h-i686-mingw32/bin/../lib/gcc/nios2-elf/4.7.3/../../../../../H-i686-mingw32/nios2-elf/lib\libc.a(lib_a-makebuf.o)
 .bss           0x040d416c       0x28 d:/quartus13/nios2eds/bin/gnu/h-i686-mingw32/bin/../lib/gcc/nios2-elf/4.7.3/../../../../../H-i686-mingw32/nios2-elf/lib\libc.a(lib_a-mallocr.o)
                0x040d416c                __malloc_current_mallinfo
 .bss           0x040d4194        0x0 d:/quartus13/nios2eds/bin/gnu/h-i686-mingw32/bin/../lib/gcc/nios2-elf/4.7.3/../../../../../H-i686-mingw32/nios2-elf/lib\libc.a(lib_a-memchr.o)
 .bss           0x040d4194        0x0 d:/quartus13/nios2eds/bin/gnu/h-i686-mingw32/bin/../lib/gcc/nios2-elf/4.7.3/../../../../../H-i686-mingw32/nios2-elf/lib\libc.a(lib_a-memcpy.o)
 .bss           0x040d4194        0x0 d:/quartus13/nios2eds/bin/gnu/h-i686-mingw32/bin/../lib/gcc/nios2-elf/4.7.3/../../../../../H-i686-mingw32/nios2-elf/lib\libc.a(lib_a-memmove.o)
 .bss           0x040d4194        0x0 d:/quartus13/nios2eds/bin/gnu/h-i686-mingw32/bin/../lib/gcc/nios2-elf/4.7.3/../../../../../H-i686-mingw32/nios2-elf/lib\libc.a(lib_a-memset.o)
 .bss           0x040d4194        0x0 d:/quartus13/nios2eds/bin/gnu/h-i686-mingw32/bin/../lib/gcc/nios2-elf/4.7.3/../../../../../H-i686-mingw32/nios2-elf/lib\libc.a(lib_a-mprec.o)
 .bss           0x040d4194        0x0 d:/quartus13/nios2eds/bin/gnu/h-i686-mingw32/bin/../lib/gcc/nios2-elf/4.7.3/../../../../../H-i686-mingw32/nios2-elf/lib\libc.a(lib_a-reallocr.o)
 .bss           0x040d4194        0x0 d:/quartus13/nios2eds/bin/gnu/h-i686-mingw32/bin/../lib/gcc/nios2-elf/4.7.3/../../../../../H-i686-mingw32/nios2-elf/lib\libc.a(lib_a-s_isinfd.o)
 .bss           0x040d4194        0x0 d:/quartus13/nios2eds/bin/gnu/h-i686-mingw32/bin/../lib/gcc/nios2-elf/4.7.3/../../../../../H-i686-mingw32/nios2-elf/lib\libc.a(lib_a-s_isnand.o)
 .bss           0x040d4194        0x0 d:/quartus13/nios2eds/bin/gnu/h-i686-mingw32/bin/../lib/gcc/nios2-elf/4.7.3/../../../../../H-i686-mingw32/nios2-elf/lib\libc.a(lib_a-sbrkr.o)
 .bss           0x040d4194        0x0 d:/quartus13/nios2eds/bin/gnu/h-i686-mingw32/bin/../lib/gcc/nios2-elf/4.7.3/../../../../../H-i686-mingw32/nios2-elf/lib\libc.a(lib_a-stdio.o)
 .bss           0x040d4194        0x0 d:/quartus13/nios2eds/bin/gnu/h-i686-mingw32/bin/../lib/gcc/nios2-elf/4.7.3/../../../../../H-i686-mingw32/nios2-elf/lib\libc.a(lib_a-strcmp.o)
 .bss           0x040d4194        0x0 d:/quartus13/nios2eds/bin/gnu/h-i686-mingw32/bin/../lib/gcc/nios2-elf/4.7.3/../../../../../H-i686-mingw32/nios2-elf/lib\libc.a(lib_a-writer.o)
 .bss           0x040d4194        0x0 d:/quartus13/nios2eds/bin/gnu/h-i686-mingw32/bin/../lib/gcc/nios2-elf/4.7.3/../../../../../H-i686-mingw32/nios2-elf/lib\libc.a(lib_a-callocr.o)
 .bss           0x040d4194        0x0 d:/quartus13/nios2eds/bin/gnu/h-i686-mingw32/bin/../lib/gcc/nios2-elf/4.7.3/../../../../../H-i686-mingw32/nios2-elf/lib\libc.a(lib_a-closer.o)
 .bss           0x040d4194        0x0 d:/quartus13/nios2eds/bin/gnu/h-i686-mingw32/bin/../lib/gcc/nios2-elf/4.7.3/../../../../../H-i686-mingw32/nios2-elf/lib\libc.a(lib_a-fclose.o)
 .bss           0x040d4194        0x0 d:/quartus13/nios2eds/bin/gnu/h-i686-mingw32/bin/../lib/gcc/nios2-elf/4.7.3/../../../../../H-i686-mingw32/nios2-elf/lib\libc.a(lib_a-fstatr.o)
 .bss           0x040d4194        0x0 d:/quartus13/nios2eds/bin/gnu/h-i686-mingw32/bin/../lib/gcc/nios2-elf/4.7.3/../../../../../H-i686-mingw32/nios2-elf/lib\libc.a(lib_a-int_errno.o)
 .bss           0x040d4194        0x0 d:/quartus13/nios2eds/bin/gnu/h-i686-mingw32/bin/../lib/gcc/nios2-elf/4.7.3/../../../../../H-i686-mingw32/nios2-elf/lib\libc.a(lib_a-isattyr.o)
 .bss           0x040d4194        0x0 d:/quartus13/nios2eds/bin/gnu/h-i686-mingw32/bin/../lib/gcc/nios2-elf/4.7.3/../../../../../H-i686-mingw32/nios2-elf/lib\libc.a(lib_a-lseekr.o)
 .bss           0x040d4194        0x0 d:/quartus13/nios2eds/bin/gnu/h-i686-mingw32/bin/../lib/gcc/nios2-elf/4.7.3/../../../../../H-i686-mingw32/nios2-elf/lib\libc.a(lib_a-readr.o)
 .bss           0x040d4194        0x0 d:/quartus13/nios2eds/bin/gnu/h-i686-mingw32/bin/../lib/gcc/nios2-elf/4.7.3\libgcc.a(_udivdi3.o)
 .bss           0x040d4194        0x0 d:/quartus13/nios2eds/bin/gnu/h-i686-mingw32/bin/../lib/gcc/nios2-elf/4.7.3\libgcc.a(_umoddi3.o)
 .bss           0x040d4194        0x0 d:/quartus13/nios2eds/bin/gnu/h-i686-mingw32/bin/../lib/gcc/nios2-elf/4.7.3\libgcc.a(_div_df.o)
 .bss           0x040d4194        0x0 d:/quartus13/nios2eds/bin/gnu/h-i686-mingw32/bin/../lib/gcc/nios2-elf/4.7.3\libgcc.a(_eq_df.o)
 .bss           0x040d4194        0x0 d:/quartus13/nios2eds/bin/gnu/h-i686-mingw32/bin/../lib/gcc/nios2-elf/4.7.3\libgcc.a(_ne_df.o)
 .bss           0x040d4194        0x0 d:/quartus13/nios2eds/bin/gnu/h-i686-mingw32/bin/../lib/gcc/nios2-elf/4.7.3\libgcc.a(_gt_df.o)
 .bss           0x040d4194        0x0 d:/quartus13/nios2eds/bin/gnu/h-i686-mingw32/bin/../lib/gcc/nios2-elf/4.7.3\libgcc.a(_lt_df.o)
 .bss           0x040d4194        0x0 d:/quartus13/nios2eds/bin/gnu/h-i686-mingw32/bin/../lib/gcc/nios2-elf/4.7.3\libgcc.a(_usi_to_df.o)
 .bss           0x040d4194        0x0 d:/quartus13/nios2eds/bin/gnu/h-i686-mingw32/bin/../lib/gcc/nios2-elf/4.7.3\libgcc.a(lib2-divmod.o)
 .bss           0x040d4194        0x0 ../qsys_lcd_bsp/\libhal_bsp.a(alt_close.o)
 .bss           0x040d4194        0x0 ../qsys_lcd_bsp/\libhal_bsp.a(alt_dev.o)
 .bss           0x040d4194        0x0 ../qsys_lcd_bsp/\libhal_bsp.a(alt_errno.o)
 .bss           0x040d4194        0x0 ../qsys_lcd_bsp/\libhal_bsp.a(alt_fstat.o)
 .bss           0x040d4194        0x0 ../qsys_lcd_bsp/\libhal_bsp.a(alt_isatty.o)
 .bss           0x040d4194        0x0 ../qsys_lcd_bsp/\libhal_bsp.a(alt_lseek.o)
 .bss           0x040d4194        0x0 ../qsys_lcd_bsp/\libhal_bsp.a(alt_main.o)
 .bss           0x040d4194        0x0 ../qsys_lcd_bsp/\libhal_bsp.a(alt_malloc_lock.o)
 .bss           0x040d4194        0x0 ../qsys_lcd_bsp/\libhal_bsp.a(alt_read.o)
 .bss           0x040d4194        0x0 ../qsys_lcd_bsp/\libhal_bsp.a(alt_release_fd.o)
 .bss           0x040d4194        0x0 ../qsys_lcd_bsp/\libhal_bsp.a(alt_sbrk.o)
 .bss           0x040d4194        0x0 ../qsys_lcd_bsp/\libhal_bsp.a(alt_usleep.o)
 .bss           0x040d4194        0x0 ../qsys_lcd_bsp/\libhal_bsp.a(alt_write.o)
 .bss           0x040d4194        0x0 ../qsys_lcd_bsp/\libhal_bsp.a(alt_sys_init.o)
 .bss           0x040d4194        0x0 ../qsys_lcd_bsp/\libhal_bsp.a(altera_avalon_epcs_flash_controller.o)
 .bss           0x040d4194        0x0 ../qsys_lcd_bsp/\libhal_bsp.a(altera_avalon_jtag_uart_fd.o)
 .bss           0x040d4194        0x0 ../qsys_lcd_bsp/\libhal_bsp.a(altera_avalon_jtag_uart_init.o)
 .bss           0x040d4194        0x0 ../qsys_lcd_bsp/\libhal_bsp.a(altera_avalon_jtag_uart_ioctl.o)
 .bss           0x040d4194        0x0 ../qsys_lcd_bsp/\libhal_bsp.a(altera_avalon_jtag_uart_read.o)
 .bss           0x040d4194        0x0 ../qsys_lcd_bsp/\libhal_bsp.a(altera_avalon_jtag_uart_write.o)
 .bss           0x040d4194        0x0 ../qsys_lcd_bsp/\libhal_bsp.a(epcs_commands.o)
 .bss           0x040d4194        0x0 ../qsys_lcd_bsp/\libhal_bsp.a(alt_alarm_start.o)
 .bss           0x040d4194        0x0 ../qsys_lcd_bsp/\libhal_bsp.a(alt_busy_sleep.o)
 .bss           0x040d4194        0x0 ../qsys_lcd_bsp/\libhal_bsp.a(alt_dev_llist_insert.o)
 .bss           0x040d4194        0x0 ../qsys_lcd_bsp/\libhal_bsp.a(alt_do_ctors.o)
 .bss           0x040d4194        0x0 ../qsys_lcd_bsp/\libhal_bsp.a(alt_do_dtors.o)
 .bss           0x040d4194        0x0 ../qsys_lcd_bsp/\libhal_bsp.a(alt_flash_dev.o)
 .bss           0x040d4194        0x0 ../qsys_lcd_bsp/\libhal_bsp.a(alt_iic.o)
 .bss           0x040d4194        0x0 ../qsys_lcd_bsp/\libhal_bsp.a(alt_iic_isr_register.o)
 .bss           0x040d4194        0x0 ../qsys_lcd_bsp/\libhal_bsp.a(alt_io_redirect.o)
 .bss           0x040d4194        0x0 ../qsys_lcd_bsp/\libhal_bsp.a(alt_irq_entry.o)
 .bss           0x040d4194        0x0 ../qsys_lcd_bsp/\libhal_bsp.a(alt_irq_handler.o)
 .bss           0x040d4194        0x0 ../qsys_lcd_bsp/\libhal_bsp.a(alt_irq_vars.o)
 .bss           0x040d4194        0x0 ../qsys_lcd_bsp/\libhal_bsp.a(alt_open.o)
 .bss           0x040d4194        0x0 ../qsys_lcd_bsp/\libhal_bsp.a(alt_tick.o)
 .bss           0x040d4194        0x0 ../qsys_lcd_bsp/\libhal_bsp.a(altera_nios2_qsys_irq.o)
 .bss           0x040d4194        0x0 ../qsys_lcd_bsp/\libhal_bsp.a(altera_avalon_spi.o)
 .bss           0x040d4194        0x0 ../qsys_lcd_bsp/\libhal_bsp.a(alt_exception_entry.o)
 .bss           0x040d4194        0x0 ../qsys_lcd_bsp/\libhal_bsp.a(alt_find_dev.o)
 .bss           0x040d4194        0x0 ../qsys_lcd_bsp/\libhal_bsp.a(alt_find_file.o)
 .bss           0x040d4194        0x0 ../qsys_lcd_bsp/\libhal_bsp.a(alt_get_fd.o)
 .bss           0x040d4194        0x0 d:/quartus13/nios2eds/bin/gnu/h-i686-mingw32/bin/../lib/gcc/nios2-elf/4.7.3/../../../../../H-i686-mingw32/nios2-elf/lib\libc.a(lib_a-atexit.o)
 .bss           0x040d4194        0x0 d:/quartus13/nios2eds/bin/gnu/h-i686-mingw32/bin/../lib/gcc/nios2-elf/4.7.3/../../../../../H-i686-mingw32/nios2-elf/lib\libc.a(lib_a-exit.o)
 .bss           0x040d4194        0x0 d:/quartus13/nios2eds/bin/gnu/h-i686-mingw32/bin/../lib/gcc/nios2-elf/4.7.3/../../../../../H-i686-mingw32/nios2-elf/lib\libc.a(lib_a-memcmp.o)
 .bss           0x040d4194        0x0 d:/quartus13/nios2eds/bin/gnu/h-i686-mingw32/bin/../lib/gcc/nios2-elf/4.7.3/../../../../../H-i686-mingw32/nios2-elf/lib\libc.a(lib_a-__atexit.o)
 .bss           0x040d4194        0x0 d:/quartus13/nios2eds/bin/gnu/h-i686-mingw32/bin/../lib/gcc/nios2-elf/4.7.3/../../../../../H-i686-mingw32/nios2-elf/lib\libc.a(lib_a-__call_atexit.o)
 .bss           0x040d4194        0x0 ../qsys_lcd_bsp/\libhal_bsp.a(alt_exit.o)
 *(COMMON)
 COMMON         0x040d4194       0x1c obj/default/drive/mculcd.o
                0x040d4194                lcddev
 COMMON         0x040d41b0      0x100 ../qsys_lcd_bsp/\libhal_bsp.a(alt_irq_handler.o)
                0x040d41b0                alt_irq
 COMMON         0x040d42b0      0x190 d:/quartus13/nios2eds/bin/gnu/h-i686-mingw32/bin/../lib/gcc/nios2-elf/4.7.3/../../../../../H-i686-mingw32/nios2-elf/lib\libc.a(lib_a-atexit.o)
                0x040d42b0                _atexit0
                0x040d4440                . = ALIGN (0x4)
                0x040d4440                __bss_end = ABSOLUTE (.)

.epcs           0x00000020        0x0
                0x00000020                PROVIDE (_alt_partition_epcs_start, ABSOLUTE (.))
 *(.epcs .epcs. epcs.*)
                0x00000020                . = ALIGN (0x4)
                0x00000020                PROVIDE (_alt_partition_epcs_end, ABSOLUTE (.))
                0x00000020                PROVIDE (_alt_partition_epcs_load_addr, LOADADDR (.epcs))

.sdram          0x040d4440        0x0
                0x040d4440                PROVIDE (_alt_partition_sdram_start, ABSOLUTE (.))
 *(.sdram .sdram. sdram.*)
                0x040d4440                . = ALIGN (0x4)
                0x040d4440                PROVIDE (_alt_partition_sdram_end, ABSOLUTE (.))
                0x040d4440                _end = ABSOLUTE (.)
                0x040d4440                end = ABSOLUTE (.)
                0x040d4440                __alt_stack_base = ABSOLUTE (.)
                0x040d4440                PROVIDE (_alt_partition_sdram_load_addr, LOADADDR (.sdram))

.stab
 *(.stab)

.stabstr
 *(.stabstr)

.stab.excl
 *(.stab.excl)

.stab.exclstr
 *(.stab.exclstr)

.stab.index
 *(.stab.index)

.stab.indexstr
 *(.stab.indexstr)

.comment        0x00000000       0x23
 *(.comment)
 .comment       0x00000000       0x23 obj/default/drive/mculcd.o
                                 0x24 (size before relaxing)
 .comment       0x00000000       0x24 obj/default/qsys_lcd.o
 .comment       0x00000000       0x24 d:/quartus13/nios2eds/bin/gnu/h-i686-mingw32/bin/../lib/gcc/nios2-elf/4.7.3\libgcc.a(_fixunsdfsi.o)
 .comment       0x00000000       0x24 d:/quartus13/nios2eds/bin/gnu/h-i686-mingw32/bin/../lib/gcc/nios2-elf/4.7.3\libgcc.a(_addsub_df.o)
 .comment       0x00000000       0x24 d:/quartus13/nios2eds/bin/gnu/h-i686-mingw32/bin/../lib/gcc/nios2-elf/4.7.3\libgcc.a(_mul_df.o)
 .comment       0x00000000       0x24 d:/quartus13/nios2eds/bin/gnu/h-i686-mingw32/bin/../lib/gcc/nios2-elf/4.7.3\libgcc.a(_ge_df.o)
 .comment       0x00000000       0x24 d:/quartus13/nios2eds/bin/gnu/h-i686-mingw32/bin/../lib/gcc/nios2-elf/4.7.3\libgcc.a(_si_to_df.o)
 .comment       0x00000000       0x24 d:/quartus13/nios2eds/bin/gnu/h-i686-mingw32/bin/../lib/gcc/nios2-elf/4.7.3\libgcc.a(_df_to_si.o)
 .comment       0x00000000       0x24 d:/quartus13/nios2eds/bin/gnu/h-i686-mingw32/bin/../lib/gcc/nios2-elf/4.7.3\libgcc.a(_thenan_df.o)
 .comment       0x00000000       0x24 d:/quartus13/nios2eds/bin/gnu/h-i686-mingw32/bin/../lib/gcc/nios2-elf/4.7.3\libgcc.a(_muldi3.o)
 .comment       0x00000000       0x24 d:/quartus13/nios2eds/bin/gnu/h-i686-mingw32/bin/../lib/gcc/nios2-elf/4.7.3\libgcc.a(_clzsi2.o)
 .comment       0x00000000       0x24 d:/quartus13/nios2eds/bin/gnu/h-i686-mingw32/bin/../lib/gcc/nios2-elf/4.7.3\libgcc.a(_pack_df.o)
 .comment       0x00000000       0x24 d:/quartus13/nios2eds/bin/gnu/h-i686-mingw32/bin/../lib/gcc/nios2-elf/4.7.3\libgcc.a(_unpack_df.o)
 .comment       0x00000000       0x24 d:/quartus13/nios2eds/bin/gnu/h-i686-mingw32/bin/../lib/gcc/nios2-elf/4.7.3\libgcc.a(_fpcmp_parts_df.o)
 .comment       0x00000000       0x24 d:/quartus13/nios2eds/bin/gnu/h-i686-mingw32/bin/../lib/gcc/nios2-elf/4.7.3\libgcc.a(_lshrdi3.o)
 .comment       0x00000000       0x24 d:/quartus13/nios2eds/bin/gnu/h-i686-mingw32/bin/../lib/gcc/nios2-elf/4.7.3\libgcc.a(_ashldi3.o)
 .comment       0x00000000       0x24 d:/quartus13/nios2eds/bin/gnu/h-i686-mingw32/bin/../lib/gcc/nios2-elf/4.7.3\libgcc.a(_clz.o)
 .comment       0x00000000       0x24 d:/quartus13/nios2eds/bin/gnu/h-i686-mingw32/bin/../lib/gcc/nios2-elf/4.7.3/../../../../../H-i686-mingw32/nios2-elf/lib\libc.a(lib_a-printf.o)
 .comment       0x00000000       0x24 d:/quartus13/nios2eds/bin/gnu/h-i686-mingw32/bin/../lib/gcc/nios2-elf/4.7.3/../../../../../H-i686-mingw32/nios2-elf/lib\libc.a(lib_a-puts.o)
 .comment       0x00000000       0x24 d:/quartus13/nios2eds/bin/gnu/h-i686-mingw32/bin/../lib/gcc/nios2-elf/4.7.3/../../../../../H-i686-mingw32/nios2-elf/lib\libc.a(lib_a-strlen.o)
 .comment       0x00000000       0x24 d:/quartus13/nios2eds/bin/gnu/h-i686-mingw32/bin/../lib/gcc/nios2-elf/4.7.3/../../../../../H-i686-mingw32/nios2-elf/lib\libc.a(lib_a-vfprintf.o)
 .comment       0x00000000       0x24 d:/quartus13/nios2eds/bin/gnu/h-i686-mingw32/bin/../lib/gcc/nios2-elf/4.7.3/../../../../../H-i686-mingw32/nios2-elf/lib\libc.a(lib_a-wsetup.o)
 .comment       0x00000000       0x24 d:/quartus13/nios2eds/bin/gnu/h-i686-mingw32/bin/../lib/gcc/nios2-elf/4.7.3/../../../../../H-i686-mingw32/nios2-elf/lib\libc.a(lib_a-dtoa.o)
 .comment       0x00000000       0x24 d:/quartus13/nios2eds/bin/gnu/h-i686-mingw32/bin/../lib/gcc/nios2-elf/4.7.3/../../../../../H-i686-mingw32/nios2-elf/lib\libc.a(lib_a-fflush.o)
 .comment       0x00000000       0x24 d:/quartus13/nios2eds/bin/gnu/h-i686-mingw32/bin/../lib/gcc/nios2-elf/4.7.3/../../../../../H-i686-mingw32/nios2-elf/lib\libc.a(lib_a-findfp.o)
 .comment       0x00000000       0x24 d:/quartus13/nios2eds/bin/gnu/h-i686-mingw32/bin/../lib/gcc/nios2-elf/4.7.3/../../../../../H-i686-mingw32/nios2-elf/lib\libc.a(lib_a-freer.o)
 .comment       0x00000000       0x24 d:/quartus13/nios2eds/bin/gnu/h-i686-mingw32/bin/../lib/gcc/nios2-elf/4.7.3/../../../../../H-i686-mingw32/nios2-elf/lib\libc.a(lib_a-fvwrite.o)
 .comment       0x00000000       0x24 d:/quartus13/nios2eds/bin/gnu/h-i686-mingw32/bin/../lib/gcc/nios2-elf/4.7.3/../../../../../H-i686-mingw32/nios2-elf/lib\libc.a(lib_a-fwalk.o)
 .comment       0x00000000       0x24 d:/quartus13/nios2eds/bin/gnu/h-i686-mingw32/bin/../lib/gcc/nios2-elf/4.7.3/../../../../../H-i686-mingw32/nios2-elf/lib\libc.a(lib_a-impure.o)
 .comment       0x00000000       0x24 d:/quartus13/nios2eds/bin/gnu/h-i686-mingw32/bin/../lib/gcc/nios2-elf/4.7.3/../../../../../H-i686-mingw32/nios2-elf/lib\libc.a(lib_a-locale.o)
 .comment       0x00000000       0x24 d:/quartus13/nios2eds/bin/gnu/h-i686-mingw32/bin/../lib/gcc/nios2-elf/4.7.3/../../../../../H-i686-mingw32/nios2-elf/lib\libc.a(lib_a-makebuf.o)
 .comment       0x00000000       0x24 d:/quartus13/nios2eds/bin/gnu/h-i686-mingw32/bin/../lib/gcc/nios2-elf/4.7.3/../../../../../H-i686-mingw32/nios2-elf/lib\libc.a(lib_a-mallocr.o)
 .comment       0x00000000       0x24 d:/quartus13/nios2eds/bin/gnu/h-i686-mingw32/bin/../lib/gcc/nios2-elf/4.7.3/../../../../../H-i686-mingw32/nios2-elf/lib\libc.a(lib_a-memchr.o)
 .comment       0x00000000       0x24 d:/quartus13/nios2eds/bin/gnu/h-i686-mingw32/bin/../lib/gcc/nios2-elf/4.7.3/../../../../../H-i686-mingw32/nios2-elf/lib\libc.a(lib_a-memcpy.o)
 .comment       0x00000000       0x24 d:/quartus13/nios2eds/bin/gnu/h-i686-mingw32/bin/../lib/gcc/nios2-elf/4.7.3/../../../../../H-i686-mingw32/nios2-elf/lib\libc.a(lib_a-memmove.o)
 .comment       0x00000000       0x24 d:/quartus13/nios2eds/bin/gnu/h-i686-mingw32/bin/../lib/gcc/nios2-elf/4.7.3/../../../../../H-i686-mingw32/nios2-elf/lib\libc.a(lib_a-memset.o)
 .comment       0x00000000       0x24 d:/quartus13/nios2eds/bin/gnu/h-i686-mingw32/bin/../lib/gcc/nios2-elf/4.7.3/../../../../../H-i686-mingw32/nios2-elf/lib\libc.a(lib_a-mprec.o)
 .comment       0x00000000       0x24 d:/quartus13/nios2eds/bin/gnu/h-i686-mingw32/bin/../lib/gcc/nios2-elf/4.7.3/../../../../../H-i686-mingw32/nios2-elf/lib\libc.a(lib_a-reallocr.o)
 .comment       0x00000000       0x24 d:/quartus13/nios2eds/bin/gnu/h-i686-mingw32/bin/../lib/gcc/nios2-elf/4.7.3/../../../../../H-i686-mingw32/nios2-elf/lib\libc.a(lib_a-s_isinfd.o)
 .comment       0x00000000       0x24 d:/quartus13/nios2eds/bin/gnu/h-i686-mingw32/bin/../lib/gcc/nios2-elf/4.7.3/../../../../../H-i686-mingw32/nios2-elf/lib\libc.a(lib_a-s_isnand.o)
 .comment       0x00000000       0x24 d:/quartus13/nios2eds/bin/gnu/h-i686-mingw32/bin/../lib/gcc/nios2-elf/4.7.3/../../../../../H-i686-mingw32/nios2-elf/lib\libc.a(lib_a-sbrkr.o)
 .comment       0x00000000       0x24 d:/quartus13/nios2eds/bin/gnu/h-i686-mingw32/bin/../lib/gcc/nios2-elf/4.7.3/../../../../../H-i686-mingw32/nios2-elf/lib\libc.a(lib_a-stdio.o)
 .comment       0x00000000       0x24 d:/quartus13/nios2eds/bin/gnu/h-i686-mingw32/bin/../lib/gcc/nios2-elf/4.7.3/../../../../../H-i686-mingw32/nios2-elf/lib\libc.a(lib_a-strcmp.o)
 .comment       0x00000000       0x24 d:/quartus13/nios2eds/bin/gnu/h-i686-mingw32/bin/../lib/gcc/nios2-elf/4.7.3/../../../../../H-i686-mingw32/nios2-elf/lib\libc.a(lib_a-writer.o)
 .comment       0x00000000       0x24 d:/quartus13/nios2eds/bin/gnu/h-i686-mingw32/bin/../lib/gcc/nios2-elf/4.7.3/../../../../../H-i686-mingw32/nios2-elf/lib\libc.a(lib_a-callocr.o)
 .comment       0x00000000       0x24 d:/quartus13/nios2eds/bin/gnu/h-i686-mingw32/bin/../lib/gcc/nios2-elf/4.7.3/../../../../../H-i686-mingw32/nios2-elf/lib\libc.a(lib_a-closer.o)
 .comment       0x00000000       0x24 d:/quartus13/nios2eds/bin/gnu/h-i686-mingw32/bin/../lib/gcc/nios2-elf/4.7.3/../../../../../H-i686-mingw32/nios2-elf/lib\libc.a(lib_a-fclose.o)
 .comment       0x00000000       0x24 d:/quartus13/nios2eds/bin/gnu/h-i686-mingw32/bin/../lib/gcc/nios2-elf/4.7.3/../../../../../H-i686-mingw32/nios2-elf/lib\libc.a(lib_a-fstatr.o)
 .comment       0x00000000       0x24 d:/quartus13/nios2eds/bin/gnu/h-i686-mingw32/bin/../lib/gcc/nios2-elf/4.7.3/../../../../../H-i686-mingw32/nios2-elf/lib\libc.a(lib_a-int_errno.o)
 .comment       0x00000000       0x24 d:/quartus13/nios2eds/bin/gnu/h-i686-mingw32/bin/../lib/gcc/nios2-elf/4.7.3/../../../../../H-i686-mingw32/nios2-elf/lib\libc.a(lib_a-isattyr.o)
 .comment       0x00000000       0x24 d:/quartus13/nios2eds/bin/gnu/h-i686-mingw32/bin/../lib/gcc/nios2-elf/4.7.3/../../../../../H-i686-mingw32/nios2-elf/lib\libc.a(lib_a-lseekr.o)
 .comment       0x00000000       0x24 d:/quartus13/nios2eds/bin/gnu/h-i686-mingw32/bin/../lib/gcc/nios2-elf/4.7.3/../../../../../H-i686-mingw32/nios2-elf/lib\libc.a(lib_a-readr.o)
 .comment       0x00000000       0x24 d:/quartus13/nios2eds/bin/gnu/h-i686-mingw32/bin/../lib/gcc/nios2-elf/4.7.3\libgcc.a(_udivdi3.o)
 .comment       0x00000000       0x24 d:/quartus13/nios2eds/bin/gnu/h-i686-mingw32/bin/../lib/gcc/nios2-elf/4.7.3\libgcc.a(_umoddi3.o)
 .comment       0x00000000       0x24 d:/quartus13/nios2eds/bin/gnu/h-i686-mingw32/bin/../lib/gcc/nios2-elf/4.7.3\libgcc.a(_div_df.o)
 .comment       0x00000000       0x24 d:/quartus13/nios2eds/bin/gnu/h-i686-mingw32/bin/../lib/gcc/nios2-elf/4.7.3\libgcc.a(_eq_df.o)
 .comment       0x00000000       0x24 d:/quartus13/nios2eds/bin/gnu/h-i686-mingw32/bin/../lib/gcc/nios2-elf/4.7.3\libgcc.a(_ne_df.o)
 .comment       0x00000000       0x24 d:/quartus13/nios2eds/bin/gnu/h-i686-mingw32/bin/../lib/gcc/nios2-elf/4.7.3\libgcc.a(_gt_df.o)
 .comment       0x00000000       0x24 d:/quartus13/nios2eds/bin/gnu/h-i686-mingw32/bin/../lib/gcc/nios2-elf/4.7.3\libgcc.a(_lt_df.o)
 .comment       0x00000000       0x24 d:/quartus13/nios2eds/bin/gnu/h-i686-mingw32/bin/../lib/gcc/nios2-elf/4.7.3\libgcc.a(_usi_to_df.o)
 .comment       0x00000000       0x24 d:/quartus13/nios2eds/bin/gnu/h-i686-mingw32/bin/../lib/gcc/nios2-elf/4.7.3\libgcc.a(lib2-divmod.o)
 .comment       0x00000000       0x24 ../qsys_lcd_bsp/\libhal_bsp.a(alt_close.o)
 .comment       0x00000000       0x24 ../qsys_lcd_bsp/\libhal_bsp.a(alt_dev.o)
 .comment       0x00000000       0x24 ../qsys_lcd_bsp/\libhal_bsp.a(alt_errno.o)
 .comment       0x00000000       0x24 ../qsys_lcd_bsp/\libhal_bsp.a(alt_fstat.o)
 .comment       0x00000000       0x24 ../qsys_lcd_bsp/\libhal_bsp.a(alt_isatty.o)
 .comment       0x00000000       0x24 ../qsys_lcd_bsp/\libhal_bsp.a(alt_lseek.o)
 .comment       0x00000000       0x24 ../qsys_lcd_bsp/\libhal_bsp.a(alt_main.o)
 .comment       0x00000000       0x24 ../qsys_lcd_bsp/\libhal_bsp.a(alt_malloc_lock.o)
 .comment       0x00000000       0x24 ../qsys_lcd_bsp/\libhal_bsp.a(alt_read.o)
 .comment       0x00000000       0x24 ../qsys_lcd_bsp/\libhal_bsp.a(alt_release_fd.o)
 .comment       0x00000000       0x24 ../qsys_lcd_bsp/\libhal_bsp.a(alt_sbrk.o)
 .comment       0x00000000       0x24 ../qsys_lcd_bsp/\libhal_bsp.a(alt_usleep.o)
 .comment       0x00000000       0x24 ../qsys_lcd_bsp/\libhal_bsp.a(alt_write.o)
 .comment       0x00000000       0x24 ../qsys_lcd_bsp/\libhal_bsp.a(alt_sys_init.o)
 .comment       0x00000000       0x24 ../qsys_lcd_bsp/\libhal_bsp.a(altera_avalon_epcs_flash_controller.o)
 .comment       0x00000000       0x24 ../qsys_lcd_bsp/\libhal_bsp.a(altera_avalon_jtag_uart_fd.o)
 .comment       0x00000000       0x24 ../qsys_lcd_bsp/\libhal_bsp.a(altera_avalon_jtag_uart_init.o)
 .comment       0x00000000       0x24 ../qsys_lcd_bsp/\libhal_bsp.a(altera_avalon_jtag_uart_ioctl.o)
 .comment       0x00000000       0x24 ../qsys_lcd_bsp/\libhal_bsp.a(altera_avalon_jtag_uart_read.o)
 .comment       0x00000000       0x24 ../qsys_lcd_bsp/\libhal_bsp.a(altera_avalon_jtag_uart_write.o)
 .comment       0x00000000       0x24 ../qsys_lcd_bsp/\libhal_bsp.a(epcs_commands.o)
 .comment       0x00000000       0x24 ../qsys_lcd_bsp/\libhal_bsp.a(alt_alarm_start.o)
 .comment       0x00000000       0x24 ../qsys_lcd_bsp/\libhal_bsp.a(alt_busy_sleep.o)
 .comment       0x00000000       0x24 ../qsys_lcd_bsp/\libhal_bsp.a(alt_dev_llist_insert.o)
 .comment       0x00000000       0x24 ../qsys_lcd_bsp/\libhal_bsp.a(alt_do_ctors.o)
 .comment       0x00000000       0x24 ../qsys_lcd_bsp/\libhal_bsp.a(alt_do_dtors.o)
 .comment       0x00000000       0x24 ../qsys_lcd_bsp/\libhal_bsp.a(alt_flash_dev.o)
 .comment       0x00000000       0x24 ../qsys_lcd_bsp/\libhal_bsp.a(alt_iic.o)
 .comment       0x00000000       0x24 ../qsys_lcd_bsp/\libhal_bsp.a(alt_iic_isr_register.o)
 .comment       0x00000000       0x24 ../qsys_lcd_bsp/\libhal_bsp.a(alt_io_redirect.o)
 .comment       0x00000000       0x24 ../qsys_lcd_bsp/\libhal_bsp.a(alt_irq_handler.o)
 .comment       0x00000000       0x24 ../qsys_lcd_bsp/\libhal_bsp.a(alt_irq_vars.o)
 .comment       0x00000000       0x24 ../qsys_lcd_bsp/\libhal_bsp.a(alt_open.o)
 .comment       0x00000000       0x24 ../qsys_lcd_bsp/\libhal_bsp.a(alt_tick.o)
 .comment       0x00000000       0x24 ../qsys_lcd_bsp/\libhal_bsp.a(altera_nios2_qsys_irq.o)
 .comment       0x00000000       0x24 ../qsys_lcd_bsp/\libhal_bsp.a(altera_avalon_spi.o)
 .comment       0x00000000       0x24 ../qsys_lcd_bsp/\libhal_bsp.a(alt_find_dev.o)
 .comment       0x00000000       0x24 ../qsys_lcd_bsp/\libhal_bsp.a(alt_find_file.o)
 .comment       0x00000000       0x24 ../qsys_lcd_bsp/\libhal_bsp.a(alt_get_fd.o)
 .comment       0x00000000       0x24 d:/quartus13/nios2eds/bin/gnu/h-i686-mingw32/bin/../lib/gcc/nios2-elf/4.7.3/../../../../../H-i686-mingw32/nios2-elf/lib\libc.a(lib_a-atexit.o)
 .comment       0x00000000       0x24 d:/quartus13/nios2eds/bin/gnu/h-i686-mingw32/bin/../lib/gcc/nios2-elf/4.7.3/../../../../../H-i686-mingw32/nios2-elf/lib\libc.a(lib_a-exit.o)
 .comment       0x00000000       0x24 d:/quartus13/nios2eds/bin/gnu/h-i686-mingw32/bin/../lib/gcc/nios2-elf/4.7.3/../../../../../H-i686-mingw32/nios2-elf/lib\libc.a(lib_a-memcmp.o)
 .comment       0x00000000       0x24 d:/quartus13/nios2eds/bin/gnu/h-i686-mingw32/bin/../lib/gcc/nios2-elf/4.7.3/../../../../../H-i686-mingw32/nios2-elf/lib\libc.a(lib_a-__atexit.o)
 .comment       0x00000000       0x24 d:/quartus13/nios2eds/bin/gnu/h-i686-mingw32/bin/../lib/gcc/nios2-elf/4.7.3/../../../../../H-i686-mingw32/nios2-elf/lib\libc.a(lib_a-__call_atexit.o)
 .comment       0x00000000       0x24 ../qsys_lcd_bsp/\libhal_bsp.a(alt_exit.o)

.debug
 *(.debug)

.line
 *(.line)

.debug_srcinfo
 *(.debug_srcinfo)

.debug_sfnames
 *(.debug_sfnames)

.debug_aranges  0x00000000      0xd98
 *(.debug_aranges)
 .debug_aranges
                0x00000000       0x20 ../qsys_lcd_bsp//obj/HAL/src/crt0.o
 .debug_aranges
                0x00000020       0x20 obj/default/drive/mculcd.o
 .debug_aranges
                0x00000040       0x20 obj/default/qsys_lcd.o
 .debug_aranges
                0x00000060       0x20 d:/quartus13/nios2eds/bin/gnu/h-i686-mingw32/bin/../lib/gcc/nios2-elf/4.7.3\libgcc.a(_fixunsdfsi.o)
 .debug_aranges
                0x00000080       0x20 d:/quartus13/nios2eds/bin/gnu/h-i686-mingw32/bin/../lib/gcc/nios2-elf/4.7.3\libgcc.a(_addsub_df.o)
 .debug_aranges
                0x000000a0       0x20 d:/quartus13/nios2eds/bin/gnu/h-i686-mingw32/bin/../lib/gcc/nios2-elf/4.7.3\libgcc.a(_mul_df.o)
 .debug_aranges
                0x000000c0       0x20 d:/quartus13/nios2eds/bin/gnu/h-i686-mingw32/bin/../lib/gcc/nios2-elf/4.7.3\libgcc.a(_ge_df.o)
 .debug_aranges
                0x000000e0       0x20 d:/quartus13/nios2eds/bin/gnu/h-i686-mingw32/bin/../lib/gcc/nios2-elf/4.7.3\libgcc.a(_si_to_df.o)
 .debug_aranges
                0x00000100       0x20 d:/quartus13/nios2eds/bin/gnu/h-i686-mingw32/bin/../lib/gcc/nios2-elf/4.7.3\libgcc.a(_df_to_si.o)
 .debug_aranges
                0x00000120       0x18 d:/quartus13/nios2eds/bin/gnu/h-i686-mingw32/bin/../lib/gcc/nios2-elf/4.7.3\libgcc.a(_thenan_df.o)
 .debug_aranges
                0x00000138       0x20 d:/quartus13/nios2eds/bin/gnu/h-i686-mingw32/bin/../lib/gcc/nios2-elf/4.7.3\libgcc.a(_muldi3.o)
 .debug_aranges
                0x00000158       0x20 d:/quartus13/nios2eds/bin/gnu/h-i686-mingw32/bin/../lib/gcc/nios2-elf/4.7.3\libgcc.a(_clzsi2.o)
 .debug_aranges
                0x00000178       0x20 d:/quartus13/nios2eds/bin/gnu/h-i686-mingw32/bin/../lib/gcc/nios2-elf/4.7.3\libgcc.a(_pack_df.o)
 .debug_aranges
                0x00000198       0x20 d:/quartus13/nios2eds/bin/gnu/h-i686-mingw32/bin/../lib/gcc/nios2-elf/4.7.3\libgcc.a(_unpack_df.o)
 .debug_aranges
                0x000001b8       0x20 d:/quartus13/nios2eds/bin/gnu/h-i686-mingw32/bin/../lib/gcc/nios2-elf/4.7.3\libgcc.a(_fpcmp_parts_df.o)
 .debug_aranges
                0x000001d8       0x20 d:/quartus13/nios2eds/bin/gnu/h-i686-mingw32/bin/../lib/gcc/nios2-elf/4.7.3\libgcc.a(_lshrdi3.o)
 .debug_aranges
                0x000001f8       0x20 d:/quartus13/nios2eds/bin/gnu/h-i686-mingw32/bin/../lib/gcc/nios2-elf/4.7.3\libgcc.a(_ashldi3.o)
 .debug_aranges
                0x00000218       0x18 d:/quartus13/nios2eds/bin/gnu/h-i686-mingw32/bin/../lib/gcc/nios2-elf/4.7.3\libgcc.a(_clz.o)
 .debug_aranges
                0x00000230       0x20 d:/quartus13/nios2eds/bin/gnu/h-i686-mingw32/bin/../lib/gcc/nios2-elf/4.7.3/../../../../../H-i686-mingw32/nios2-elf/lib\libc.a(lib_a-printf.o)
 .debug_aranges
                0x00000250       0x20 d:/quartus13/nios2eds/bin/gnu/h-i686-mingw32/bin/../lib/gcc/nios2-elf/4.7.3/../../../../../H-i686-mingw32/nios2-elf/lib\libc.a(lib_a-puts.o)
 .debug_aranges
                0x00000270       0x20 d:/quartus13/nios2eds/bin/gnu/h-i686-mingw32/bin/../lib/gcc/nios2-elf/4.7.3/../../../../../H-i686-mingw32/nios2-elf/lib\libc.a(lib_a-strlen.o)
 .debug_aranges
                0x00000290       0x20 d:/quartus13/nios2eds/bin/gnu/h-i686-mingw32/bin/../lib/gcc/nios2-elf/4.7.3/../../../../../H-i686-mingw32/nios2-elf/lib\libc.a(lib_a-vfprintf.o)
 .debug_aranges
                0x000002b0       0x20 d:/quartus13/nios2eds/bin/gnu/h-i686-mingw32/bin/../lib/gcc/nios2-elf/4.7.3/../../../../../H-i686-mingw32/nios2-elf/lib\libc.a(lib_a-wsetup.o)
 .debug_aranges
                0x000002d0       0x20 d:/quartus13/nios2eds/bin/gnu/h-i686-mingw32/bin/../lib/gcc/nios2-elf/4.7.3/../../../../../H-i686-mingw32/nios2-elf/lib\libc.a(lib_a-dtoa.o)
 .debug_aranges
                0x000002f0       0x20 d:/quartus13/nios2eds/bin/gnu/h-i686-mingw32/bin/../lib/gcc/nios2-elf/4.7.3/../../../../../H-i686-mingw32/nios2-elf/lib\libc.a(lib_a-fflush.o)
 .debug_aranges
                0x00000310       0x20 d:/quartus13/nios2eds/bin/gnu/h-i686-mingw32/bin/../lib/gcc/nios2-elf/4.7.3/../../../../../H-i686-mingw32/nios2-elf/lib\libc.a(lib_a-findfp.o)
 .debug_aranges
                0x00000330       0x20 d:/quartus13/nios2eds/bin/gnu/h-i686-mingw32/bin/../lib/gcc/nios2-elf/4.7.3/../../../../../H-i686-mingw32/nios2-elf/lib\libc.a(lib_a-freer.o)
 .debug_aranges
                0x00000350       0x20 d:/quartus13/nios2eds/bin/gnu/h-i686-mingw32/bin/../lib/gcc/nios2-elf/4.7.3/../../../../../H-i686-mingw32/nios2-elf/lib\libc.a(lib_a-fvwrite.o)
 .debug_aranges
                0x00000370       0x20 d:/quartus13/nios2eds/bin/gnu/h-i686-mingw32/bin/../lib/gcc/nios2-elf/4.7.3/../../../../../H-i686-mingw32/nios2-elf/lib\libc.a(lib_a-fwalk.o)
 .debug_aranges
                0x00000390       0x18 d:/quartus13/nios2eds/bin/gnu/h-i686-mingw32/bin/../lib/gcc/nios2-elf/4.7.3/../../../../../H-i686-mingw32/nios2-elf/lib\libc.a(lib_a-impure.o)
 .debug_aranges
                0x000003a8       0x20 d:/quartus13/nios2eds/bin/gnu/h-i686-mingw32/bin/../lib/gcc/nios2-elf/4.7.3/../../../../../H-i686-mingw32/nios2-elf/lib\libc.a(lib_a-locale.o)
 .debug_aranges
                0x000003c8       0x20 d:/quartus13/nios2eds/bin/gnu/h-i686-mingw32/bin/../lib/gcc/nios2-elf/4.7.3/../../../../../H-i686-mingw32/nios2-elf/lib\libc.a(lib_a-makebuf.o)
 .debug_aranges
                0x000003e8       0x20 d:/quartus13/nios2eds/bin/gnu/h-i686-mingw32/bin/../lib/gcc/nios2-elf/4.7.3/../../../../../H-i686-mingw32/nios2-elf/lib\libc.a(lib_a-mallocr.o)
 .debug_aranges
                0x00000408       0x20 d:/quartus13/nios2eds/bin/gnu/h-i686-mingw32/bin/../lib/gcc/nios2-elf/4.7.3/../../../../../H-i686-mingw32/nios2-elf/lib\libc.a(lib_a-memchr.o)
 .debug_aranges
                0x00000428       0x20 d:/quartus13/nios2eds/bin/gnu/h-i686-mingw32/bin/../lib/gcc/nios2-elf/4.7.3/../../../../../H-i686-mingw32/nios2-elf/lib\libc.a(lib_a-memcpy.o)
 .debug_aranges
                0x00000448       0x20 d:/quartus13/nios2eds/bin/gnu/h-i686-mingw32/bin/../lib/gcc/nios2-elf/4.7.3/../../../../../H-i686-mingw32/nios2-elf/lib\libc.a(lib_a-memmove.o)
 .debug_aranges
                0x00000468       0x20 d:/quartus13/nios2eds/bin/gnu/h-i686-mingw32/bin/../lib/gcc/nios2-elf/4.7.3/../../../../../H-i686-mingw32/nios2-elf/lib\libc.a(lib_a-memset.o)
 .debug_aranges
                0x00000488       0x20 d:/quartus13/nios2eds/bin/gnu/h-i686-mingw32/bin/../lib/gcc/nios2-elf/4.7.3/../../../../../H-i686-mingw32/nios2-elf/lib\libc.a(lib_a-mprec.o)
 .debug_aranges
                0x000004a8       0x20 d:/quartus13/nios2eds/bin/gnu/h-i686-mingw32/bin/../lib/gcc/nios2-elf/4.7.3/../../../../../H-i686-mingw32/nios2-elf/lib\libc.a(lib_a-reallocr.o)
 .debug_aranges
                0x000004c8       0x20 d:/quartus13/nios2eds/bin/gnu/h-i686-mingw32/bin/../lib/gcc/nios2-elf/4.7.3/../../../../../H-i686-mingw32/nios2-elf/lib\libc.a(lib_a-s_isinfd.o)
 .debug_aranges
                0x000004e8       0x20 d:/quartus13/nios2eds/bin/gnu/h-i686-mingw32/bin/../lib/gcc/nios2-elf/4.7.3/../../../../../H-i686-mingw32/nios2-elf/lib\libc.a(lib_a-s_isnand.o)
 .debug_aranges
                0x00000508       0x20 d:/quartus13/nios2eds/bin/gnu/h-i686-mingw32/bin/../lib/gcc/nios2-elf/4.7.3/../../../../../H-i686-mingw32/nios2-elf/lib\libc.a(lib_a-sbrkr.o)
 .debug_aranges
                0x00000528       0x20 d:/quartus13/nios2eds/bin/gnu/h-i686-mingw32/bin/../lib/gcc/nios2-elf/4.7.3/../../../../../H-i686-mingw32/nios2-elf/lib\libc.a(lib_a-stdio.o)
 .debug_aranges
                0x00000548       0x20 d:/quartus13/nios2eds/bin/gnu/h-i686-mingw32/bin/../lib/gcc/nios2-elf/4.7.3/../../../../../H-i686-mingw32/nios2-elf/lib\libc.a(lib_a-strcmp.o)
 .debug_aranges
                0x00000568       0x20 d:/quartus13/nios2eds/bin/gnu/h-i686-mingw32/bin/../lib/gcc/nios2-elf/4.7.3/../../../../../H-i686-mingw32/nios2-elf/lib\libc.a(lib_a-writer.o)
 .debug_aranges
                0x00000588       0x20 d:/quartus13/nios2eds/bin/gnu/h-i686-mingw32/bin/../lib/gcc/nios2-elf/4.7.3/../../../../../H-i686-mingw32/nios2-elf/lib\libc.a(lib_a-callocr.o)
 .debug_aranges
                0x000005a8       0x20 d:/quartus13/nios2eds/bin/gnu/h-i686-mingw32/bin/../lib/gcc/nios2-elf/4.7.3/../../../../../H-i686-mingw32/nios2-elf/lib\libc.a(lib_a-closer.o)
 .debug_aranges
                0x000005c8       0x20 d:/quartus13/nios2eds/bin/gnu/h-i686-mingw32/bin/../lib/gcc/nios2-elf/4.7.3/../../../../../H-i686-mingw32/nios2-elf/lib\libc.a(lib_a-fclose.o)
 .debug_aranges
                0x000005e8       0x20 d:/quartus13/nios2eds/bin/gnu/h-i686-mingw32/bin/../lib/gcc/nios2-elf/4.7.3/../../../../../H-i686-mingw32/nios2-elf/lib\libc.a(lib_a-fstatr.o)
 .debug_aranges
                0x00000608       0x18 d:/quartus13/nios2eds/bin/gnu/h-i686-mingw32/bin/../lib/gcc/nios2-elf/4.7.3/../../../../../H-i686-mingw32/nios2-elf/lib\libc.a(lib_a-int_errno.o)
 .debug_aranges
                0x00000620       0x20 d:/quartus13/nios2eds/bin/gnu/h-i686-mingw32/bin/../lib/gcc/nios2-elf/4.7.3/../../../../../H-i686-mingw32/nios2-elf/lib\libc.a(lib_a-isattyr.o)
 .debug_aranges
                0x00000640       0x20 d:/quartus13/nios2eds/bin/gnu/h-i686-mingw32/bin/../lib/gcc/nios2-elf/4.7.3/../../../../../H-i686-mingw32/nios2-elf/lib\libc.a(lib_a-lseekr.o)
 .debug_aranges
                0x00000660       0x20 d:/quartus13/nios2eds/bin/gnu/h-i686-mingw32/bin/../lib/gcc/nios2-elf/4.7.3/../../../../../H-i686-mingw32/nios2-elf/lib\libc.a(lib_a-readr.o)
 .debug_aranges
                0x00000680       0x20 d:/quartus13/nios2eds/bin/gnu/h-i686-mingw32/bin/../lib/gcc/nios2-elf/4.7.3\libgcc.a(_udivdi3.o)
 .debug_aranges
                0x000006a0       0x20 d:/quartus13/nios2eds/bin/gnu/h-i686-mingw32/bin/../lib/gcc/nios2-elf/4.7.3\libgcc.a(_umoddi3.o)
 .debug_aranges
                0x000006c0       0x20 d:/quartus13/nios2eds/bin/gnu/h-i686-mingw32/bin/../lib/gcc/nios2-elf/4.7.3\libgcc.a(_div_df.o)
 .debug_aranges
                0x000006e0       0x20 d:/quartus13/nios2eds/bin/gnu/h-i686-mingw32/bin/../lib/gcc/nios2-elf/4.7.3\libgcc.a(_eq_df.o)
 .debug_aranges
                0x00000700       0x20 d:/quartus13/nios2eds/bin/gnu/h-i686-mingw32/bin/../lib/gcc/nios2-elf/4.7.3\libgcc.a(_ne_df.o)
 .debug_aranges
                0x00000720       0x20 d:/quartus13/nios2eds/bin/gnu/h-i686-mingw32/bin/../lib/gcc/nios2-elf/4.7.3\libgcc.a(_gt_df.o)
 .debug_aranges
                0x00000740       0x20 d:/quartus13/nios2eds/bin/gnu/h-i686-mingw32/bin/../lib/gcc/nios2-elf/4.7.3\libgcc.a(_lt_df.o)
 .debug_aranges
                0x00000760       0x20 d:/quartus13/nios2eds/bin/gnu/h-i686-mingw32/bin/../lib/gcc/nios2-elf/4.7.3\libgcc.a(_usi_to_df.o)
 .debug_aranges
                0x00000780       0x20 d:/quartus13/nios2eds/bin/gnu/h-i686-mingw32/bin/../lib/gcc/nios2-elf/4.7.3\libgcc.a(lib2-divmod.o)
 .debug_aranges
                0x000007a0       0x20 ../qsys_lcd_bsp/\libhal_bsp.a(alt_close.o)
 .debug_aranges
                0x000007c0       0x20 ../qsys_lcd_bsp/\libhal_bsp.a(alt_dev.o)
 .debug_aranges
                0x000007e0       0x18 ../qsys_lcd_bsp/\libhal_bsp.a(alt_errno.o)
 .debug_aranges
                0x000007f8       0x20 ../qsys_lcd_bsp/\libhal_bsp.a(alt_fstat.o)
 .debug_aranges
                0x00000818       0x20 ../qsys_lcd_bsp/\libhal_bsp.a(alt_isatty.o)
 .debug_aranges
                0x00000838       0x20 ../qsys_lcd_bsp/\libhal_bsp.a(alt_lseek.o)
 .debug_aranges
                0x00000858       0x20 ../qsys_lcd_bsp/\libhal_bsp.a(alt_main.o)
 .debug_aranges
                0x00000878       0x20 ../qsys_lcd_bsp/\libhal_bsp.a(alt_malloc_lock.o)
 .debug_aranges
                0x00000898       0x20 ../qsys_lcd_bsp/\libhal_bsp.a(alt_read.o)
 .debug_aranges
                0x000008b8       0x20 ../qsys_lcd_bsp/\libhal_bsp.a(alt_release_fd.o)
 .debug_aranges
                0x000008d8       0x20 ../qsys_lcd_bsp/\libhal_bsp.a(alt_sbrk.o)
 .debug_aranges
                0x000008f8       0x20 ../qsys_lcd_bsp/\libhal_bsp.a(alt_usleep.o)
 .debug_aranges
                0x00000918       0x20 ../qsys_lcd_bsp/\libhal_bsp.a(alt_write.o)
 .debug_aranges
                0x00000938       0x20 ../qsys_lcd_bsp/\libhal_bsp.a(alt_sys_init.o)
 .debug_aranges
                0x00000958       0x20 ../qsys_lcd_bsp/\libhal_bsp.a(altera_avalon_epcs_flash_controller.o)
 .debug_aranges
                0x00000978       0x20 ../qsys_lcd_bsp/\libhal_bsp.a(altera_avalon_jtag_uart_fd.o)
 .debug_aranges
                0x00000998       0x20 ../qsys_lcd_bsp/\libhal_bsp.a(altera_avalon_jtag_uart_init.o)
 .debug_aranges
                0x000009b8       0x20 ../qsys_lcd_bsp/\libhal_bsp.a(altera_avalon_jtag_uart_ioctl.o)
 .debug_aranges
                0x000009d8       0x20 ../qsys_lcd_bsp/\libhal_bsp.a(altera_avalon_jtag_uart_read.o)
 .debug_aranges
                0x000009f8       0x20 ../qsys_lcd_bsp/\libhal_bsp.a(altera_avalon_jtag_uart_write.o)
 .debug_aranges
                0x00000a18       0x20 ../qsys_lcd_bsp/\libhal_bsp.a(epcs_commands.o)
 .debug_aranges
                0x00000a38       0x20 ../qsys_lcd_bsp/\libhal_bsp.a(alt_alarm_start.o)
 .debug_aranges
                0x00000a58       0x20 ../qsys_lcd_bsp/\libhal_bsp.a(alt_busy_sleep.o)
 .debug_aranges
                0x00000a78       0x20 ../qsys_lcd_bsp/\libhal_bsp.a(alt_dev_llist_insert.o)
 .debug_aranges
                0x00000a98       0x20 ../qsys_lcd_bsp/\libhal_bsp.a(alt_do_ctors.o)
 .debug_aranges
                0x00000ab8       0x20 ../qsys_lcd_bsp/\libhal_bsp.a(alt_do_dtors.o)
 .debug_aranges
                0x00000ad8       0x20 ../qsys_lcd_bsp/\libhal_bsp.a(alt_flash_dev.o)
 .debug_aranges
                0x00000af8       0x20 ../qsys_lcd_bsp/\libhal_bsp.a(alt_iic.o)
 .debug_aranges
                0x00000b18       0x20 ../qsys_lcd_bsp/\libhal_bsp.a(alt_iic_isr_register.o)
 .debug_aranges
                0x00000b38       0x20 ../qsys_lcd_bsp/\libhal_bsp.a(alt_io_redirect.o)
 .debug_aranges
                0x00000b58       0x30 ../qsys_lcd_bsp/\libhal_bsp.a(alt_irq_entry.o)
 .debug_aranges
                0x00000b88       0x20 ../qsys_lcd_bsp/\libhal_bsp.a(alt_irq_handler.o)
 .debug_aranges
                0x00000ba8       0x18 ../qsys_lcd_bsp/\libhal_bsp.a(alt_irq_vars.o)
 .debug_aranges
                0x00000bc0       0x20 ../qsys_lcd_bsp/\libhal_bsp.a(alt_open.o)
 .debug_aranges
                0x00000be0       0x20 ../qsys_lcd_bsp/\libhal_bsp.a(alt_tick.o)
 .debug_aranges
                0x00000c00       0x20 ../qsys_lcd_bsp/\libhal_bsp.a(altera_nios2_qsys_irq.o)
 .debug_aranges
                0x00000c20       0x20 ../qsys_lcd_bsp/\libhal_bsp.a(altera_avalon_spi.o)
 .debug_aranges
                0x00000c40       0x38 ../qsys_lcd_bsp/\libhal_bsp.a(alt_exception_entry.o)
 .debug_aranges
                0x00000c78       0x20 ../qsys_lcd_bsp/\libhal_bsp.a(alt_find_dev.o)
 .debug_aranges
                0x00000c98       0x20 ../qsys_lcd_bsp/\libhal_bsp.a(alt_find_file.o)
 .debug_aranges
                0x00000cb8       0x20 ../qsys_lcd_bsp/\libhal_bsp.a(alt_get_fd.o)
 .debug_aranges
                0x00000cd8       0x20 d:/quartus13/nios2eds/bin/gnu/h-i686-mingw32/bin/../lib/gcc/nios2-elf/4.7.3/../../../../../H-i686-mingw32/nios2-elf/lib\libc.a(lib_a-atexit.o)
 .debug_aranges
                0x00000cf8       0x20 d:/quartus13/nios2eds/bin/gnu/h-i686-mingw32/bin/../lib/gcc/nios2-elf/4.7.3/../../../../../H-i686-mingw32/nios2-elf/lib\libc.a(lib_a-exit.o)
 .debug_aranges
                0x00000d18       0x20 d:/quartus13/nios2eds/bin/gnu/h-i686-mingw32/bin/../lib/gcc/nios2-elf/4.7.3/../../../../../H-i686-mingw32/nios2-elf/lib\libc.a(lib_a-memcmp.o)
 .debug_aranges
                0x00000d38       0x20 d:/quartus13/nios2eds/bin/gnu/h-i686-mingw32/bin/../lib/gcc/nios2-elf/4.7.3/../../../../../H-i686-mingw32/nios2-elf/lib\libc.a(lib_a-__atexit.o)
 .debug_aranges
                0x00000d58       0x20 d:/quartus13/nios2eds/bin/gnu/h-i686-mingw32/bin/../lib/gcc/nios2-elf/4.7.3/../../../../../H-i686-mingw32/nios2-elf/lib\libc.a(lib_a-__call_atexit.o)
 .debug_aranges
                0x00000d78       0x20 ../qsys_lcd_bsp/\libhal_bsp.a(alt_exit.o)

.debug_pubnames
 *(.debug_pubnames)

.debug_info     0x00000000    0x24653
 *(.debug_info .gnu.linkonce.wi.*)
 .debug_info    0x00000000       0x64 ../qsys_lcd_bsp//obj/HAL/src/crt0.o
 .debug_info    0x00000064      0xc58 obj/default/drive/mculcd.o
 .debug_info    0x00000cbc      0x151 obj/default/qsys_lcd.o
 .debug_info    0x00000e0d       0xc5 d:/quartus13/nios2eds/bin/gnu/h-i686-mingw32/bin/../lib/gcc/nios2-elf/4.7.3\libgcc.a(_fixunsdfsi.o)
 .debug_info    0x00000ed2      0x588 d:/quartus13/nios2eds/bin/gnu/h-i686-mingw32/bin/../lib/gcc/nios2-elf/4.7.3\libgcc.a(_addsub_df.o)
 .debug_info    0x0000145a      0x519 d:/quartus13/nios2eds/bin/gnu/h-i686-mingw32/bin/../lib/gcc/nios2-elf/4.7.3\libgcc.a(_mul_df.o)
 .debug_info    0x00001973      0x320 d:/quartus13/nios2eds/bin/gnu/h-i686-mingw32/bin/../lib/gcc/nios2-elf/4.7.3\libgcc.a(_ge_df.o)
 .debug_info    0x00001c93      0x261 d:/quartus13/nios2eds/bin/gnu/h-i686-mingw32/bin/../lib/gcc/nios2-elf/4.7.3\libgcc.a(_si_to_df.o)
 .debug_info    0x00001ef4      0x30b d:/quartus13/nios2eds/bin/gnu/h-i686-mingw32/bin/../lib/gcc/nios2-elf/4.7.3\libgcc.a(_df_to_si.o)
 .debug_info    0x000021ff      0x155 d:/quartus13/nios2eds/bin/gnu/h-i686-mingw32/bin/../lib/gcc/nios2-elf/4.7.3\libgcc.a(_thenan_df.o)
 .debug_info    0x00002354      0x1ea d:/quartus13/nios2eds/bin/gnu/h-i686-mingw32/bin/../lib/gcc/nios2-elf/4.7.3\libgcc.a(_muldi3.o)
 .debug_info    0x0000253e      0x123 d:/quartus13/nios2eds/bin/gnu/h-i686-mingw32/bin/../lib/gcc/nios2-elf/4.7.3\libgcc.a(_clzsi2.o)
 .debug_info    0x00002661      0x2f7 d:/quartus13/nios2eds/bin/gnu/h-i686-mingw32/bin/../lib/gcc/nios2-elf/4.7.3\libgcc.a(_pack_df.o)
 .debug_info    0x00002958      0x265 d:/quartus13/nios2eds/bin/gnu/h-i686-mingw32/bin/../lib/gcc/nios2-elf/4.7.3\libgcc.a(_unpack_df.o)
 .debug_info    0x00002bbd      0x226 d:/quartus13/nios2eds/bin/gnu/h-i686-mingw32/bin/../lib/gcc/nios2-elf/4.7.3\libgcc.a(_fpcmp_parts_df.o)
 .debug_info    0x00002de3      0x185 d:/quartus13/nios2eds/bin/gnu/h-i686-mingw32/bin/../lib/gcc/nios2-elf/4.7.3\libgcc.a(_lshrdi3.o)
 .debug_info    0x00002f68      0x185 d:/quartus13/nios2eds/bin/gnu/h-i686-mingw32/bin/../lib/gcc/nios2-elf/4.7.3\libgcc.a(_ashldi3.o)
 .debug_info    0x000030ed       0xac d:/quartus13/nios2eds/bin/gnu/h-i686-mingw32/bin/../lib/gcc/nios2-elf/4.7.3\libgcc.a(_clz.o)
 .debug_info    0x00003199      0xa6c d:/quartus13/nios2eds/bin/gnu/h-i686-mingw32/bin/../lib/gcc/nios2-elf/4.7.3/../../../../../H-i686-mingw32/nios2-elf/lib\libc.a(lib_a-printf.o)
 .debug_info    0x00003c05      0xab7 d:/quartus13/nios2eds/bin/gnu/h-i686-mingw32/bin/../lib/gcc/nios2-elf/4.7.3/../../../../../H-i686-mingw32/nios2-elf/lib\libc.a(lib_a-puts.o)
 .debug_info    0x000046bc       0xdf d:/quartus13/nios2eds/bin/gnu/h-i686-mingw32/bin/../lib/gcc/nios2-elf/4.7.3/../../../../../H-i686-mingw32/nios2-elf/lib\libc.a(lib_a-strlen.o)
 .debug_info    0x0000479b     0x195a d:/quartus13/nios2eds/bin/gnu/h-i686-mingw32/bin/../lib/gcc/nios2-elf/4.7.3/../../../../../H-i686-mingw32/nios2-elf/lib\libc.a(lib_a-vfprintf.o)
 .debug_info    0x000060f5      0x9d4 d:/quartus13/nios2eds/bin/gnu/h-i686-mingw32/bin/../lib/gcc/nios2-elf/4.7.3/../../../../../H-i686-mingw32/nios2-elf/lib\libc.a(lib_a-wsetup.o)
 .debug_info    0x00006ac9     0x1408 d:/quartus13/nios2eds/bin/gnu/h-i686-mingw32/bin/../lib/gcc/nios2-elf/4.7.3/../../../../../H-i686-mingw32/nios2-elf/lib\libc.a(lib_a-dtoa.o)
 .debug_info    0x00007ed1      0xad0 d:/quartus13/nios2eds/bin/gnu/h-i686-mingw32/bin/../lib/gcc/nios2-elf/4.7.3/../../../../../H-i686-mingw32/nios2-elf/lib\libc.a(lib_a-fflush.o)
 .debug_info    0x000089a1      0xd6f d:/quartus13/nios2eds/bin/gnu/h-i686-mingw32/bin/../lib/gcc/nios2-elf/4.7.3/../../../../../H-i686-mingw32/nios2-elf/lib\libc.a(lib_a-findfp.o)
 .debug_info    0x00009710      0xcf9 d:/quartus13/nios2eds/bin/gnu/h-i686-mingw32/bin/../lib/gcc/nios2-elf/4.7.3/../../../../../H-i686-mingw32/nios2-elf/lib\libc.a(lib_a-freer.o)
 .debug_info    0x0000a409      0xd05 d:/quartus13/nios2eds/bin/gnu/h-i686-mingw32/bin/../lib/gcc/nios2-elf/4.7.3/../../../../../H-i686-mingw32/nios2-elf/lib\libc.a(lib_a-fvwrite.o)
 .debug_info    0x0000b10e      0xb72 d:/quartus13/nios2eds/bin/gnu/h-i686-mingw32/bin/../lib/gcc/nios2-elf/4.7.3/../../../../../H-i686-mingw32/nios2-elf/lib\libc.a(lib_a-fwalk.o)
 .debug_info    0x0000bc80      0x938 d:/quartus13/nios2eds/bin/gnu/h-i686-mingw32/bin/../lib/gcc/nios2-elf/4.7.3/../../../../../H-i686-mingw32/nios2-elf/lib\libc.a(lib_a-impure.o)
 .debug_info    0x0000c5b8      0xc10 d:/quartus13/nios2eds/bin/gnu/h-i686-mingw32/bin/../lib/gcc/nios2-elf/4.7.3/../../../../../H-i686-mingw32/nios2-elf/lib\libc.a(lib_a-locale.o)
 .debug_info    0x0000d1c8      0xbc2 d:/quartus13/nios2eds/bin/gnu/h-i686-mingw32/bin/../lib/gcc/nios2-elf/4.7.3/../../../../../H-i686-mingw32/nios2-elf/lib\libc.a(lib_a-makebuf.o)
 .debug_info    0x0000dd8a      0xe44 d:/quartus13/nios2eds/bin/gnu/h-i686-mingw32/bin/../lib/gcc/nios2-elf/4.7.3/../../../../../H-i686-mingw32/nios2-elf/lib\libc.a(lib_a-mallocr.o)
 .debug_info    0x0000ebce      0x13e d:/quartus13/nios2eds/bin/gnu/h-i686-mingw32/bin/../lib/gcc/nios2-elf/4.7.3/../../../../../H-i686-mingw32/nios2-elf/lib\libc.a(lib_a-memchr.o)
 .debug_info    0x0000ed0c      0x10e d:/quartus13/nios2eds/bin/gnu/h-i686-mingw32/bin/../lib/gcc/nios2-elf/4.7.3/../../../../../H-i686-mingw32/nios2-elf/lib\libc.a(lib_a-memcpy.o)
 .debug_info    0x0000ee1a      0x146 d:/quartus13/nios2eds/bin/gnu/h-i686-mingw32/bin/../lib/gcc/nios2-elf/4.7.3/../../../../../H-i686-mingw32/nios2-elf/lib\libc.a(lib_a-memmove.o)
 .debug_info    0x0000ef60      0x117 d:/quartus13/nios2eds/bin/gnu/h-i686-mingw32/bin/../lib/gcc/nios2-elf/4.7.3/../../../../../H-i686-mingw32/nios2-elf/lib\libc.a(lib_a-memset.o)
 .debug_info    0x0000f077     0x172a d:/quartus13/nios2eds/bin/gnu/h-i686-mingw32/bin/../lib/gcc/nios2-elf/4.7.3/../../../../../H-i686-mingw32/nios2-elf/lib\libc.a(lib_a-mprec.o)
 .debug_info    0x000107a1      0xd8e d:/quartus13/nios2eds/bin/gnu/h-i686-mingw32/bin/../lib/gcc/nios2-elf/4.7.3/../../../../../H-i686-mingw32/nios2-elf/lib\libc.a(lib_a-reallocr.o)
 .debug_info    0x0001152f       0xe8 d:/quartus13/nios2eds/bin/gnu/h-i686-mingw32/bin/../lib/gcc/nios2-elf/4.7.3/../../../../../H-i686-mingw32/nios2-elf/lib\libc.a(lib_a-s_isinfd.o)
 .debug_info    0x00011617       0xe8 d:/quartus13/nios2eds/bin/gnu/h-i686-mingw32/bin/../lib/gcc/nios2-elf/4.7.3/../../../../../H-i686-mingw32/nios2-elf/lib\libc.a(lib_a-s_isnand.o)
 .debug_info    0x000116ff      0x9a3 d:/quartus13/nios2eds/bin/gnu/h-i686-mingw32/bin/../lib/gcc/nios2-elf/4.7.3/../../../../../H-i686-mingw32/nios2-elf/lib\libc.a(lib_a-sbrkr.o)
 .debug_info    0x000120a2      0xbfd d:/quartus13/nios2eds/bin/gnu/h-i686-mingw32/bin/../lib/gcc/nios2-elf/4.7.3/../../../../../H-i686-mingw32/nios2-elf/lib\libc.a(lib_a-stdio.o)
 .debug_info    0x00012c9f       0xe1 d:/quartus13/nios2eds/bin/gnu/h-i686-mingw32/bin/../lib/gcc/nios2-elf/4.7.3/../../../../../H-i686-mingw32/nios2-elf/lib\libc.a(lib_a-strcmp.o)
 .debug_info    0x00012d80      0x9d2 d:/quartus13/nios2eds/bin/gnu/h-i686-mingw32/bin/../lib/gcc/nios2-elf/4.7.3/../../../../../H-i686-mingw32/nios2-elf/lib\libc.a(lib_a-writer.o)
 .debug_info    0x00013752      0xa9b d:/quartus13/nios2eds/bin/gnu/h-i686-mingw32/bin/../lib/gcc/nios2-elf/4.7.3/../../../../../H-i686-mingw32/nios2-elf/lib\libc.a(lib_a-callocr.o)
 .debug_info    0x000141ed      0x97f d:/quartus13/nios2eds/bin/gnu/h-i686-mingw32/bin/../lib/gcc/nios2-elf/4.7.3/../../../../../H-i686-mingw32/nios2-elf/lib\libc.a(lib_a-closer.o)
 .debug_info    0x00014b6c      0xa97 d:/quartus13/nios2eds/bin/gnu/h-i686-mingw32/bin/../lib/gcc/nios2-elf/4.7.3/../../../../../H-i686-mingw32/nios2-elf/lib\libc.a(lib_a-fclose.o)
 .debug_info    0x00015603      0xb2f d:/quartus13/nios2eds/bin/gnu/h-i686-mingw32/bin/../lib/gcc/nios2-elf/4.7.3/../../../../../H-i686-mingw32/nios2-elf/lib\libc.a(lib_a-fstatr.o)
 .debug_info    0x00016132       0x84 d:/quartus13/nios2eds/bin/gnu/h-i686-mingw32/bin/../lib/gcc/nios2-elf/4.7.3/../../../../../H-i686-mingw32/nios2-elf/lib\libc.a(lib_a-int_errno.o)
 .debug_info    0x000161b6      0x97f d:/quartus13/nios2eds/bin/gnu/h-i686-mingw32/bin/../lib/gcc/nios2-elf/4.7.3/../../../../../H-i686-mingw32/nios2-elf/lib\libc.a(lib_a-isattyr.o)
 .debug_info    0x00016b35      0x9cb d:/quartus13/nios2eds/bin/gnu/h-i686-mingw32/bin/../lib/gcc/nios2-elf/4.7.3/../../../../../H-i686-mingw32/nios2-elf/lib\libc.a(lib_a-lseekr.o)
 .debug_info    0x00017500      0x9cb d:/quartus13/nios2eds/bin/gnu/h-i686-mingw32/bin/../lib/gcc/nios2-elf/4.7.3/../../../../../H-i686-mingw32/nios2-elf/lib\libc.a(lib_a-readr.o)
 .debug_info    0x00017ecb      0x718 d:/quartus13/nios2eds/bin/gnu/h-i686-mingw32/bin/../lib/gcc/nios2-elf/4.7.3\libgcc.a(_udivdi3.o)
 .debug_info    0x000185e3      0x771 d:/quartus13/nios2eds/bin/gnu/h-i686-mingw32/bin/../lib/gcc/nios2-elf/4.7.3\libgcc.a(_umoddi3.o)
 .debug_info    0x00018d54      0x443 d:/quartus13/nios2eds/bin/gnu/h-i686-mingw32/bin/../lib/gcc/nios2-elf/4.7.3\libgcc.a(_div_df.o)
 .debug_info    0x00019197      0x320 d:/quartus13/nios2eds/bin/gnu/h-i686-mingw32/bin/../lib/gcc/nios2-elf/4.7.3\libgcc.a(_eq_df.o)
 .debug_info    0x000194b7      0x320 d:/quartus13/nios2eds/bin/gnu/h-i686-mingw32/bin/../lib/gcc/nios2-elf/4.7.3\libgcc.a(_ne_df.o)
 .debug_info    0x000197d7      0x320 d:/quartus13/nios2eds/bin/gnu/h-i686-mingw32/bin/../lib/gcc/nios2-elf/4.7.3\libgcc.a(_gt_df.o)
 .debug_info    0x00019af7      0x320 d:/quartus13/nios2eds/bin/gnu/h-i686-mingw32/bin/../lib/gcc/nios2-elf/4.7.3\libgcc.a(_lt_df.o)
 .debug_info    0x00019e17      0x284 d:/quartus13/nios2eds/bin/gnu/h-i686-mingw32/bin/../lib/gcc/nios2-elf/4.7.3\libgcc.a(_usi_to_df.o)
 .debug_info    0x0001a09b      0x289 d:/quartus13/nios2eds/bin/gnu/h-i686-mingw32/bin/../lib/gcc/nios2-elf/4.7.3\libgcc.a(lib2-divmod.o)
 .debug_info    0x0001a324      0x350 ../qsys_lcd_bsp/\libhal_bsp.a(alt_close.o)
 .debug_info    0x0001a674      0x4e3 ../qsys_lcd_bsp/\libhal_bsp.a(alt_dev.o)
 .debug_info    0x0001ab57       0xa3 ../qsys_lcd_bsp/\libhal_bsp.a(alt_errno.o)
 .debug_info    0x0001abfa      0x4d8 ../qsys_lcd_bsp/\libhal_bsp.a(alt_fstat.o)
 .debug_info    0x0001b0d2      0x4db ../qsys_lcd_bsp/\libhal_bsp.a(alt_isatty.o)
 .debug_info    0x0001b5ad      0x381 ../qsys_lcd_bsp/\libhal_bsp.a(alt_lseek.o)
 .debug_info    0x0001b92e      0x139 ../qsys_lcd_bsp/\libhal_bsp.a(alt_main.o)
 .debug_info    0x0001ba67      0x950 ../qsys_lcd_bsp/\libhal_bsp.a(alt_malloc_lock.o)
 .debug_info    0x0001c3b7      0x500 ../qsys_lcd_bsp/\libhal_bsp.a(alt_read.o)
 .debug_info    0x0001c8b7      0x2dd ../qsys_lcd_bsp/\libhal_bsp.a(alt_release_fd.o)
 .debug_info    0x0001cb94      0x1b2 ../qsys_lcd_bsp/\libhal_bsp.a(alt_sbrk.o)
 .debug_info    0x0001cd46       0xad ../qsys_lcd_bsp/\libhal_bsp.a(alt_usleep.o)
 .debug_info    0x0001cdf3      0x507 ../qsys_lcd_bsp/\libhal_bsp.a(alt_write.o)
 .debug_info    0x0001d2fa      0x821 ../qsys_lcd_bsp/\libhal_bsp.a(alt_sys_init.o)
 .debug_info    0x0001db1b      0x8ae ../qsys_lcd_bsp/\libhal_bsp.a(altera_avalon_epcs_flash_controller.o)
 .debug_info    0x0001e3c9      0x58a ../qsys_lcd_bsp/\libhal_bsp.a(altera_avalon_jtag_uart_fd.o)
 .debug_info    0x0001e953      0x3d8 ../qsys_lcd_bsp/\libhal_bsp.a(altera_avalon_jtag_uart_init.o)
 .debug_info    0x0001ed2b      0x2a9 ../qsys_lcd_bsp/\libhal_bsp.a(altera_avalon_jtag_uart_ioctl.o)
 .debug_info    0x0001efd4      0x371 ../qsys_lcd_bsp/\libhal_bsp.a(altera_avalon_jtag_uart_read.o)
 .debug_info    0x0001f345      0x36c ../qsys_lcd_bsp/\libhal_bsp.a(altera_avalon_jtag_uart_write.o)
 .debug_info    0x0001f6b1      0x482 ../qsys_lcd_bsp/\libhal_bsp.a(epcs_commands.o)
 .debug_info    0x0001fb33      0x2e4 ../qsys_lcd_bsp/\libhal_bsp.a(alt_alarm_start.o)
 .debug_info    0x0001fe17       0xd5 ../qsys_lcd_bsp/\libhal_bsp.a(alt_busy_sleep.o)
 .debug_info    0x0001feec      0x1b9 ../qsys_lcd_bsp/\libhal_bsp.a(alt_dev_llist_insert.o)
 .debug_info    0x000200a5       0x8d ../qsys_lcd_bsp/\libhal_bsp.a(alt_do_ctors.o)
 .debug_info    0x00020132       0x8d ../qsys_lcd_bsp/\libhal_bsp.a(alt_do_dtors.o)
 .debug_info    0x000201bf      0x3ce ../qsys_lcd_bsp/\libhal_bsp.a(alt_flash_dev.o)
 .debug_info    0x0002058d      0x364 ../qsys_lcd_bsp/\libhal_bsp.a(alt_iic.o)
 .debug_info    0x000208f1      0x1f6 ../qsys_lcd_bsp/\libhal_bsp.a(alt_iic_isr_register.o)
 .debug_info    0x00020ae7      0x4f0 ../qsys_lcd_bsp/\libhal_bsp.a(alt_io_redirect.o)
 .debug_info    0x00020fd7       0x69 ../qsys_lcd_bsp/\libhal_bsp.a(alt_irq_entry.o)
 .debug_info    0x00021040      0x190 ../qsys_lcd_bsp/\libhal_bsp.a(alt_irq_handler.o)
 .debug_info    0x000211d0       0x8a ../qsys_lcd_bsp/\libhal_bsp.a(alt_irq_vars.o)
 .debug_info    0x0002125a      0x3f0 ../qsys_lcd_bsp/\libhal_bsp.a(alt_open.o)
 .debug_info    0x0002164a      0x2b1 ../qsys_lcd_bsp/\libhal_bsp.a(alt_tick.o)
 .debug_info    0x000218fb       0x90 ../qsys_lcd_bsp/\libhal_bsp.a(altera_nios2_qsys_irq.o)
 .debug_info    0x0002198b      0x18b ../qsys_lcd_bsp/\libhal_bsp.a(altera_avalon_spi.o)
 .debug_info    0x00021b16       0x6f ../qsys_lcd_bsp/\libhal_bsp.a(alt_exception_entry.o)
 .debug_info    0x00021b85      0x30d ../qsys_lcd_bsp/\libhal_bsp.a(alt_find_dev.o)
 .debug_info    0x00021e92      0x30c ../qsys_lcd_bsp/\libhal_bsp.a(alt_find_file.o)
 .debug_info    0x0002219e      0x339 ../qsys_lcd_bsp/\libhal_bsp.a(alt_get_fd.o)
 .debug_info    0x000224d7      0x1e6 d:/quartus13/nios2eds/bin/gnu/h-i686-mingw32/bin/../lib/gcc/nios2-elf/4.7.3/../../../../../H-i686-mingw32/nios2-elf/lib\libc.a(lib_a-atexit.o)
 .debug_info    0x000226bd      0x993 d:/quartus13/nios2eds/bin/gnu/h-i686-mingw32/bin/../lib/gcc/nios2-elf/4.7.3/../../../../../H-i686-mingw32/nios2-elf/lib\libc.a(lib_a-exit.o)
 .debug_info    0x00023050      0x117 d:/quartus13/nios2eds/bin/gnu/h-i686-mingw32/bin/../lib/gcc/nios2-elf/4.7.3/../../../../../H-i686-mingw32/nios2-elf/lib\libc.a(lib_a-memcmp.o)
 .debug_info    0x00023167      0x9f9 d:/quartus13/nios2eds/bin/gnu/h-i686-mingw32/bin/../lib/gcc/nios2-elf/4.7.3/../../../../../H-i686-mingw32/nios2-elf/lib\libc.a(lib_a-__atexit.o)
 .debug_info    0x00023b60      0xa07 d:/quartus13/nios2eds/bin/gnu/h-i686-mingw32/bin/../lib/gcc/nios2-elf/4.7.3/../../../../../H-i686-mingw32/nios2-elf/lib\libc.a(lib_a-__call_atexit.o)
 .debug_info    0x00024567       0xec ../qsys_lcd_bsp/\libhal_bsp.a(alt_exit.o)

.debug_abbrev   0x00000000     0x9376
 *(.debug_abbrev)
 .debug_abbrev  0x00000000       0x14 ../qsys_lcd_bsp//obj/HAL/src/crt0.o
 .debug_abbrev  0x00000014      0x211 obj/default/drive/mculcd.o
 .debug_abbrev  0x00000225       0xb5 obj/default/qsys_lcd.o
 .debug_abbrev  0x000002da       0x60 d:/quartus13/nios2eds/bin/gnu/h-i686-mingw32/bin/../lib/gcc/nios2-elf/4.7.3\libgcc.a(_fixunsdfsi.o)
 .debug_abbrev  0x0000033a      0x22d d:/quartus13/nios2eds/bin/gnu/h-i686-mingw32/bin/../lib/gcc/nios2-elf/4.7.3\libgcc.a(_addsub_df.o)
 .debug_abbrev  0x00000567      0x240 d:/quartus13/nios2eds/bin/gnu/h-i686-mingw32/bin/../lib/gcc/nios2-elf/4.7.3\libgcc.a(_mul_df.o)
 .debug_abbrev  0x000007a7      0x1a5 d:/quartus13/nios2eds/bin/gnu/h-i686-mingw32/bin/../lib/gcc/nios2-elf/4.7.3\libgcc.a(_ge_df.o)
 .debug_abbrev  0x0000094c      0x19c d:/quartus13/nios2eds/bin/gnu/h-i686-mingw32/bin/../lib/gcc/nios2-elf/4.7.3\libgcc.a(_si_to_df.o)
 .debug_abbrev  0x00000ae8      0x1ae d:/quartus13/nios2eds/bin/gnu/h-i686-mingw32/bin/../lib/gcc/nios2-elf/4.7.3\libgcc.a(_df_to_si.o)
 .debug_abbrev  0x00000c96       0xb6 d:/quartus13/nios2eds/bin/gnu/h-i686-mingw32/bin/../lib/gcc/nios2-elf/4.7.3\libgcc.a(_thenan_df.o)
 .debug_abbrev  0x00000d4c       0xe0 d:/quartus13/nios2eds/bin/gnu/h-i686-mingw32/bin/../lib/gcc/nios2-elf/4.7.3\libgcc.a(_muldi3.o)
 .debug_abbrev  0x00000e2c       0xbe d:/quartus13/nios2eds/bin/gnu/h-i686-mingw32/bin/../lib/gcc/nios2-elf/4.7.3\libgcc.a(_clzsi2.o)
 .debug_abbrev  0x00000eea      0x1b6 d:/quartus13/nios2eds/bin/gnu/h-i686-mingw32/bin/../lib/gcc/nios2-elf/4.7.3\libgcc.a(_pack_df.o)
 .debug_abbrev  0x000010a0      0x15d d:/quartus13/nios2eds/bin/gnu/h-i686-mingw32/bin/../lib/gcc/nios2-elf/4.7.3\libgcc.a(_unpack_df.o)
 .debug_abbrev  0x000011fd      0x146 d:/quartus13/nios2eds/bin/gnu/h-i686-mingw32/bin/../lib/gcc/nios2-elf/4.7.3\libgcc.a(_fpcmp_parts_df.o)
 .debug_abbrev  0x00001343       0xf1 d:/quartus13/nios2eds/bin/gnu/h-i686-mingw32/bin/../lib/gcc/nios2-elf/4.7.3\libgcc.a(_lshrdi3.o)
 .debug_abbrev  0x00001434       0xf1 d:/quartus13/nios2eds/bin/gnu/h-i686-mingw32/bin/../lib/gcc/nios2-elf/4.7.3\libgcc.a(_ashldi3.o)
 .debug_abbrev  0x00001525       0x5d d:/quartus13/nios2eds/bin/gnu/h-i686-mingw32/bin/../lib/gcc/nios2-elf/4.7.3\libgcc.a(_clz.o)
 .debug_abbrev  0x00001582      0x209 d:/quartus13/nios2eds/bin/gnu/h-i686-mingw32/bin/../lib/gcc/nios2-elf/4.7.3/../../../../../H-i686-mingw32/nios2-elf/lib\libc.a(lib_a-printf.o)
 .debug_abbrev  0x0000178b      0x208 d:/quartus13/nios2eds/bin/gnu/h-i686-mingw32/bin/../lib/gcc/nios2-elf/4.7.3/../../../../../H-i686-mingw32/nios2-elf/lib\libc.a(lib_a-puts.o)
 .debug_abbrev  0x00001993       0x90 d:/quartus13/nios2eds/bin/gnu/h-i686-mingw32/bin/../lib/gcc/nios2-elf/4.7.3/../../../../../H-i686-mingw32/nios2-elf/lib\libc.a(lib_a-strlen.o)
 .debug_abbrev  0x00001a23      0x3d9 d:/quartus13/nios2eds/bin/gnu/h-i686-mingw32/bin/../lib/gcc/nios2-elf/4.7.3/../../../../../H-i686-mingw32/nios2-elf/lib\libc.a(lib_a-vfprintf.o)
 .debug_abbrev  0x00001dfc      0x1d5 d:/quartus13/nios2eds/bin/gnu/h-i686-mingw32/bin/../lib/gcc/nios2-elf/4.7.3/../../../../../H-i686-mingw32/nios2-elf/lib\libc.a(lib_a-wsetup.o)
 .debug_abbrev  0x00001fd1      0x2ab d:/quartus13/nios2eds/bin/gnu/h-i686-mingw32/bin/../lib/gcc/nios2-elf/4.7.3/../../../../../H-i686-mingw32/nios2-elf/lib\libc.a(lib_a-dtoa.o)
 .debug_abbrev  0x0000227c      0x259 d:/quartus13/nios2eds/bin/gnu/h-i686-mingw32/bin/../lib/gcc/nios2-elf/4.7.3/../../../../../H-i686-mingw32/nios2-elf/lib\libc.a(lib_a-fflush.o)
 .debug_abbrev  0x000024d5      0x317 d:/quartus13/nios2eds/bin/gnu/h-i686-mingw32/bin/../lib/gcc/nios2-elf/4.7.3/../../../../../H-i686-mingw32/nios2-elf/lib\libc.a(lib_a-findfp.o)
 .debug_abbrev  0x000027ec      0x25d d:/quartus13/nios2eds/bin/gnu/h-i686-mingw32/bin/../lib/gcc/nios2-elf/4.7.3/../../../../../H-i686-mingw32/nios2-elf/lib\libc.a(lib_a-freer.o)
 .debug_abbrev  0x00002a49      0x234 d:/quartus13/nios2eds/bin/gnu/h-i686-mingw32/bin/../lib/gcc/nios2-elf/4.7.3/../../../../../H-i686-mingw32/nios2-elf/lib\libc.a(lib_a-fvwrite.o)
 .debug_abbrev  0x00002c7d      0x224 d:/quartus13/nios2eds/bin/gnu/h-i686-mingw32/bin/../lib/gcc/nios2-elf/4.7.3/../../../../../H-i686-mingw32/nios2-elf/lib\libc.a(lib_a-fwalk.o)
 .debug_abbrev  0x00002ea1      0x162 d:/quartus13/nios2eds/bin/gnu/h-i686-mingw32/bin/../lib/gcc/nios2-elf/4.7.3/../../../../../H-i686-mingw32/nios2-elf/lib\libc.a(lib_a-impure.o)
 .debug_abbrev  0x00003003      0x29f d:/quartus13/nios2eds/bin/gnu/h-i686-mingw32/bin/../lib/gcc/nios2-elf/4.7.3/../../../../../H-i686-mingw32/nios2-elf/lib\libc.a(lib_a-locale.o)
 .debug_abbrev  0x000032a2      0x1e8 d:/quartus13/nios2eds/bin/gnu/h-i686-mingw32/bin/../lib/gcc/nios2-elf/4.7.3/../../../../../H-i686-mingw32/nios2-elf/lib\libc.a(lib_a-makebuf.o)
 .debug_abbrev  0x0000348a      0x284 d:/quartus13/nios2eds/bin/gnu/h-i686-mingw32/bin/../lib/gcc/nios2-elf/4.7.3/../../../../../H-i686-mingw32/nios2-elf/lib\libc.a(lib_a-mallocr.o)
 .debug_abbrev  0x0000370e       0xab d:/quartus13/nios2eds/bin/gnu/h-i686-mingw32/bin/../lib/gcc/nios2-elf/4.7.3/../../../../../H-i686-mingw32/nios2-elf/lib\libc.a(lib_a-memchr.o)
 .debug_abbrev  0x000037b9       0x9c d:/quartus13/nios2eds/bin/gnu/h-i686-mingw32/bin/../lib/gcc/nios2-elf/4.7.3/../../../../../H-i686-mingw32/nios2-elf/lib\libc.a(lib_a-memcpy.o)
 .debug_abbrev  0x00003855       0x9c d:/quartus13/nios2eds/bin/gnu/h-i686-mingw32/bin/../lib/gcc/nios2-elf/4.7.3/../../../../../H-i686-mingw32/nios2-elf/lib\libc.a(lib_a-memmove.o)
 .debug_abbrev  0x000038f1       0xac d:/quartus13/nios2eds/bin/gnu/h-i686-mingw32/bin/../lib/gcc/nios2-elf/4.7.3/../../../../../H-i686-mingw32/nios2-elf/lib\libc.a(lib_a-memset.o)
 .debug_abbrev  0x0000399d      0x394 d:/quartus13/nios2eds/bin/gnu/h-i686-mingw32/bin/../lib/gcc/nios2-elf/4.7.3/../../../../../H-i686-mingw32/nios2-elf/lib\libc.a(lib_a-mprec.o)
 .debug_abbrev  0x00003d31      0x242 d:/quartus13/nios2eds/bin/gnu/h-i686-mingw32/bin/../lib/gcc/nios2-elf/4.7.3/../../../../../H-i686-mingw32/nios2-elf/lib\libc.a(lib_a-reallocr.o)
 .debug_abbrev  0x00003f73       0x6f d:/quartus13/nios2eds/bin/gnu/h-i686-mingw32/bin/../lib/gcc/nios2-elf/4.7.3/../../../../../H-i686-mingw32/nios2-elf/lib\libc.a(lib_a-s_isinfd.o)
 .debug_abbrev  0x00003fe2       0x6f d:/quartus13/nios2eds/bin/gnu/h-i686-mingw32/bin/../lib/gcc/nios2-elf/4.7.3/../../../../../H-i686-mingw32/nios2-elf/lib\libc.a(lib_a-s_isnand.o)
 .debug_abbrev  0x00004051      0x1df d:/quartus13/nios2eds/bin/gnu/h-i686-mingw32/bin/../lib/gcc/nios2-elf/4.7.3/../../../../../H-i686-mingw32/nios2-elf/lib\libc.a(lib_a-sbrkr.o)
 .debug_abbrev  0x00004230      0x226 d:/quartus13/nios2eds/bin/gnu/h-i686-mingw32/bin/../lib/gcc/nios2-elf/4.7.3/../../../../../H-i686-mingw32/nios2-elf/lib\libc.a(lib_a-stdio.o)
 .debug_abbrev  0x00004456       0x74 d:/quartus13/nios2eds/bin/gnu/h-i686-mingw32/bin/../lib/gcc/nios2-elf/4.7.3/../../../../../H-i686-mingw32/nios2-elf/lib\libc.a(lib_a-strcmp.o)
 .debug_abbrev  0x000044ca      0x1c0 d:/quartus13/nios2eds/bin/gnu/h-i686-mingw32/bin/../lib/gcc/nios2-elf/4.7.3/../../../../../H-i686-mingw32/nios2-elf/lib\libc.a(lib_a-writer.o)
 .debug_abbrev  0x0000468a      0x1f5 d:/quartus13/nios2eds/bin/gnu/h-i686-mingw32/bin/../lib/gcc/nios2-elf/4.7.3/../../../../../H-i686-mingw32/nios2-elf/lib\libc.a(lib_a-callocr.o)
 .debug_abbrev  0x0000487f      0x1bb d:/quartus13/nios2eds/bin/gnu/h-i686-mingw32/bin/../lib/gcc/nios2-elf/4.7.3/../../../../../H-i686-mingw32/nios2-elf/lib\libc.a(lib_a-closer.o)
 .debug_abbrev  0x00004a3a      0x24e d:/quartus13/nios2eds/bin/gnu/h-i686-mingw32/bin/../lib/gcc/nios2-elf/4.7.3/../../../../../H-i686-mingw32/nios2-elf/lib\libc.a(lib_a-fclose.o)
 .debug_abbrev  0x00004c88      0x1ca d:/quartus13/nios2eds/bin/gnu/h-i686-mingw32/bin/../lib/gcc/nios2-elf/4.7.3/../../../../../H-i686-mingw32/nios2-elf/lib\libc.a(lib_a-fstatr.o)
 .debug_abbrev  0x00004e52       0x37 d:/quartus13/nios2eds/bin/gnu/h-i686-mingw32/bin/../lib/gcc/nios2-elf/4.7.3/../../../../../H-i686-mingw32/nios2-elf/lib\libc.a(lib_a-int_errno.o)
 .debug_abbrev  0x00004e89      0x1bb d:/quartus13/nios2eds/bin/gnu/h-i686-mingw32/bin/../lib/gcc/nios2-elf/4.7.3/../../../../../H-i686-mingw32/nios2-elf/lib\libc.a(lib_a-isattyr.o)
 .debug_abbrev  0x00005044      0x1ca d:/quartus13/nios2eds/bin/gnu/h-i686-mingw32/bin/../lib/gcc/nios2-elf/4.7.3/../../../../../H-i686-mingw32/nios2-elf/lib\libc.a(lib_a-lseekr.o)
 .debug_abbrev  0x0000520e      0x1bb d:/quartus13/nios2eds/bin/gnu/h-i686-mingw32/bin/../lib/gcc/nios2-elf/4.7.3/../../../../../H-i686-mingw32/nios2-elf/lib\libc.a(lib_a-readr.o)
 .debug_abbrev  0x000053c9      0x170 d:/quartus13/nios2eds/bin/gnu/h-i686-mingw32/bin/../lib/gcc/nios2-elf/4.7.3\libgcc.a(_udivdi3.o)
 .debug_abbrev  0x00005539      0x193 d:/quartus13/nios2eds/bin/gnu/h-i686-mingw32/bin/../lib/gcc/nios2-elf/4.7.3\libgcc.a(_umoddi3.o)
 .debug_abbrev  0x000056cc      0x245 d:/quartus13/nios2eds/bin/gnu/h-i686-mingw32/bin/../lib/gcc/nios2-elf/4.7.3\libgcc.a(_div_df.o)
 .debug_abbrev  0x00005911      0x1a5 d:/quartus13/nios2eds/bin/gnu/h-i686-mingw32/bin/../lib/gcc/nios2-elf/4.7.3\libgcc.a(_eq_df.o)
 .debug_abbrev  0x00005ab6      0x1a5 d:/quartus13/nios2eds/bin/gnu/h-i686-mingw32/bin/../lib/gcc/nios2-elf/4.7.3\libgcc.a(_ne_df.o)
 .debug_abbrev  0x00005c5b      0x1a5 d:/quartus13/nios2eds/bin/gnu/h-i686-mingw32/bin/../lib/gcc/nios2-elf/4.7.3\libgcc.a(_gt_df.o)
 .debug_abbrev  0x00005e00      0x1a5 d:/quartus13/nios2eds/bin/gnu/h-i686-mingw32/bin/../lib/gcc/nios2-elf/4.7.3\libgcc.a(_lt_df.o)
 .debug_abbrev  0x00005fa5      0x1bf d:/quartus13/nios2eds/bin/gnu/h-i686-mingw32/bin/../lib/gcc/nios2-elf/4.7.3\libgcc.a(_usi_to_df.o)
 .debug_abbrev  0x00006164      0x112 d:/quartus13/nios2eds/bin/gnu/h-i686-mingw32/bin/../lib/gcc/nios2-elf/4.7.3\libgcc.a(lib2-divmod.o)
 .debug_abbrev  0x00006276      0x11f ../qsys_lcd_bsp/\libhal_bsp.a(alt_close.o)
 .debug_abbrev  0x00006395       0xd9 ../qsys_lcd_bsp/\libhal_bsp.a(alt_dev.o)
 .debug_abbrev  0x0000646e       0x5a ../qsys_lcd_bsp/\libhal_bsp.a(alt_errno.o)
 .debug_abbrev  0x000064c8      0x11f ../qsys_lcd_bsp/\libhal_bsp.a(alt_fstat.o)
 .debug_abbrev  0x000065e7      0x11f ../qsys_lcd_bsp/\libhal_bsp.a(alt_isatty.o)
 .debug_abbrev  0x00006706      0x11f ../qsys_lcd_bsp/\libhal_bsp.a(alt_lseek.o)
 .debug_abbrev  0x00006825       0xba ../qsys_lcd_bsp/\libhal_bsp.a(alt_main.o)
 .debug_abbrev  0x000068df      0x187 ../qsys_lcd_bsp/\libhal_bsp.a(alt_malloc_lock.o)
 .debug_abbrev  0x00006a66      0x12e ../qsys_lcd_bsp/\libhal_bsp.a(alt_read.o)
 .debug_abbrev  0x00006b94       0xde ../qsys_lcd_bsp/\libhal_bsp.a(alt_release_fd.o)
 .debug_abbrev  0x00006c72      0x112 ../qsys_lcd_bsp/\libhal_bsp.a(alt_sbrk.o)
 .debug_abbrev  0x00006d84       0x60 ../qsys_lcd_bsp/\libhal_bsp.a(alt_usleep.o)
 .debug_abbrev  0x00006de4      0x133 ../qsys_lcd_bsp/\libhal_bsp.a(alt_write.o)
 .debug_abbrev  0x00006f17      0x17f ../qsys_lcd_bsp/\libhal_bsp.a(alt_sys_init.o)
 .debug_abbrev  0x00007096      0x1c9 ../qsys_lcd_bsp/\libhal_bsp.a(altera_avalon_epcs_flash_controller.o)
 .debug_abbrev  0x0000725f      0x118 ../qsys_lcd_bsp/\libhal_bsp.a(altera_avalon_jtag_uart_fd.o)
 .debug_abbrev  0x00007377      0x18f ../qsys_lcd_bsp/\libhal_bsp.a(altera_avalon_jtag_uart_init.o)
 .debug_abbrev  0x00007506      0x102 ../qsys_lcd_bsp/\libhal_bsp.a(altera_avalon_jtag_uart_ioctl.o)
 .debug_abbrev  0x00007608      0x19b ../qsys_lcd_bsp/\libhal_bsp.a(altera_avalon_jtag_uart_read.o)
 .debug_abbrev  0x000077a3      0x199 ../qsys_lcd_bsp/\libhal_bsp.a(altera_avalon_jtag_uart_write.o)
 .debug_abbrev  0x0000793c      0x169 ../qsys_lcd_bsp/\libhal_bsp.a(epcs_commands.o)
 .debug_abbrev  0x00007aa5      0x162 ../qsys_lcd_bsp/\libhal_bsp.a(alt_alarm_start.o)
 .debug_abbrev  0x00007c07       0x7e ../qsys_lcd_bsp/\libhal_bsp.a(alt_busy_sleep.o)
 .debug_abbrev  0x00007c85      0x114 ../qsys_lcd_bsp/\libhal_bsp.a(alt_dev_llist_insert.o)
 .debug_abbrev  0x00007d99       0x79 ../qsys_lcd_bsp/\libhal_bsp.a(alt_do_ctors.o)
 .debug_abbrev  0x00007e12       0x79 ../qsys_lcd_bsp/\libhal_bsp.a(alt_do_dtors.o)
 .debug_abbrev  0x00007e8b      0x11a ../qsys_lcd_bsp/\libhal_bsp.a(alt_flash_dev.o)
 .debug_abbrev  0x00007fa5      0x16a ../qsys_lcd_bsp/\libhal_bsp.a(alt_iic.o)
 .debug_abbrev  0x0000810f      0x169 ../qsys_lcd_bsp/\libhal_bsp.a(alt_iic_isr_register.o)
 .debug_abbrev  0x00008278      0x114 ../qsys_lcd_bsp/\libhal_bsp.a(alt_io_redirect.o)
 .debug_abbrev  0x0000838c       0x12 ../qsys_lcd_bsp/\libhal_bsp.a(alt_irq_entry.o)
 .debug_abbrev  0x0000839e      0x124 ../qsys_lcd_bsp/\libhal_bsp.a(alt_irq_handler.o)
 .debug_abbrev  0x000084c2       0x40 ../qsys_lcd_bsp/\libhal_bsp.a(alt_irq_vars.o)
 .debug_abbrev  0x00008502      0x148 ../qsys_lcd_bsp/\libhal_bsp.a(alt_open.o)
 .debug_abbrev  0x0000864a      0x15a ../qsys_lcd_bsp/\libhal_bsp.a(alt_tick.o)
 .debug_abbrev  0x000087a4       0x42 ../qsys_lcd_bsp/\libhal_bsp.a(altera_nios2_qsys_irq.o)
 .debug_abbrev  0x000087e6       0x8a ../qsys_lcd_bsp/\libhal_bsp.a(altera_avalon_spi.o)
 .debug_abbrev  0x00008870       0x12 ../qsys_lcd_bsp/\libhal_bsp.a(alt_exception_entry.o)
 .debug_abbrev  0x00008882       0xf0 ../qsys_lcd_bsp/\libhal_bsp.a(alt_find_dev.o)
 .debug_abbrev  0x00008972       0xf0 ../qsys_lcd_bsp/\libhal_bsp.a(alt_find_file.o)
 .debug_abbrev  0x00008a62      0x10d ../qsys_lcd_bsp/\libhal_bsp.a(alt_get_fd.o)
 .debug_abbrev  0x00008b6f      0x106 d:/quartus13/nios2eds/bin/gnu/h-i686-mingw32/bin/../lib/gcc/nios2-elf/4.7.3/../../../../../H-i686-mingw32/nios2-elf/lib\libc.a(lib_a-atexit.o)
 .debug_abbrev  0x00008c75      0x1c8 d:/quartus13/nios2eds/bin/gnu/h-i686-mingw32/bin/../lib/gcc/nios2-elf/4.7.3/../../../../../H-i686-mingw32/nios2-elf/lib\libc.a(lib_a-exit.o)
 .debug_abbrev  0x00008e3d       0x7f d:/quartus13/nios2eds/bin/gnu/h-i686-mingw32/bin/../lib/gcc/nios2-elf/4.7.3/../../../../../H-i686-mingw32/nios2-elf/lib\libc.a(lib_a-memcmp.o)
 .debug_abbrev  0x00008ebc      0x211 d:/quartus13/nios2eds/bin/gnu/h-i686-mingw32/bin/../lib/gcc/nios2-elf/4.7.3/../../../../../H-i686-mingw32/nios2-elf/lib\libc.a(lib_a-__atexit.o)
 .debug_abbrev  0x000090cd      0x203 d:/quartus13/nios2eds/bin/gnu/h-i686-mingw32/bin/../lib/gcc/nios2-elf/4.7.3/../../../../../H-i686-mingw32/nios2-elf/lib\libc.a(lib_a-__call_atexit.o)
 .debug_abbrev  0x000092d0       0xa6 ../qsys_lcd_bsp/\libhal_bsp.a(alt_exit.o)

.debug_line     0x00000000     0xad1f
 *(.debug_line)
 .debug_line    0x00000000       0x57 ../qsys_lcd_bsp//obj/HAL/src/crt0.o
 .debug_line    0x00000057      0x986 obj/default/drive/mculcd.o
 .debug_line    0x000009dd       0x6d obj/default/qsys_lcd.o
 .debug_line    0x00000a4a       0x6e d:/quartus13/nios2eds/bin/gnu/h-i686-mingw32/bin/../lib/gcc/nios2-elf/4.7.3\libgcc.a(_fixunsdfsi.o)
 .debug_line    0x00000ab8      0x131 d:/quartus13/nios2eds/bin/gnu/h-i686-mingw32/bin/../lib/gcc/nios2-elf/4.7.3\libgcc.a(_addsub_df.o)
 .debug_line    0x00000be9      0x114 d:/quartus13/nios2eds/bin/gnu/h-i686-mingw32/bin/../lib/gcc/nios2-elf/4.7.3\libgcc.a(_mul_df.o)
 .debug_line    0x00000cfd       0x6e d:/quartus13/nios2eds/bin/gnu/h-i686-mingw32/bin/../lib/gcc/nios2-elf/4.7.3\libgcc.a(_ge_df.o)
 .debug_line    0x00000d6b       0x94 d:/quartus13/nios2eds/bin/gnu/h-i686-mingw32/bin/../lib/gcc/nios2-elf/4.7.3\libgcc.a(_si_to_df.o)
 .debug_line    0x00000dff       0x8d d:/quartus13/nios2eds/bin/gnu/h-i686-mingw32/bin/../lib/gcc/nios2-elf/4.7.3\libgcc.a(_df_to_si.o)
 .debug_line    0x00000e8c       0x51 d:/quartus13/nios2eds/bin/gnu/h-i686-mingw32/bin/../lib/gcc/nios2-elf/4.7.3\libgcc.a(_thenan_df.o)
 .debug_line    0x00000edd       0x8b d:/quartus13/nios2eds/bin/gnu/h-i686-mingw32/bin/../lib/gcc/nios2-elf/4.7.3\libgcc.a(_muldi3.o)
 .debug_line    0x00000f68       0x8c d:/quartus13/nios2eds/bin/gnu/h-i686-mingw32/bin/../lib/gcc/nios2-elf/4.7.3\libgcc.a(_clzsi2.o)
 .debug_line    0x00000ff4       0xc7 d:/quartus13/nios2eds/bin/gnu/h-i686-mingw32/bin/../lib/gcc/nios2-elf/4.7.3\libgcc.a(_pack_df.o)
 .debug_line    0x000010bb       0xa2 d:/quartus13/nios2eds/bin/gnu/h-i686-mingw32/bin/../lib/gcc/nios2-elf/4.7.3\libgcc.a(_unpack_df.o)
 .debug_line    0x0000115d       0x96 d:/quartus13/nios2eds/bin/gnu/h-i686-mingw32/bin/../lib/gcc/nios2-elf/4.7.3\libgcc.a(_fpcmp_parts_df.o)
 .debug_line    0x000011f3       0x77 d:/quartus13/nios2eds/bin/gnu/h-i686-mingw32/bin/../lib/gcc/nios2-elf/4.7.3\libgcc.a(_lshrdi3.o)
 .debug_line    0x0000126a       0x75 d:/quartus13/nios2eds/bin/gnu/h-i686-mingw32/bin/../lib/gcc/nios2-elf/4.7.3\libgcc.a(_ashldi3.o)
 .debug_line    0x000012df       0x53 d:/quartus13/nios2eds/bin/gnu/h-i686-mingw32/bin/../lib/gcc/nios2-elf/4.7.3\libgcc.a(_clz.o)
 .debug_line    0x00001332      0x218 d:/quartus13/nios2eds/bin/gnu/h-i686-mingw32/bin/../lib/gcc/nios2-elf/4.7.3/../../../../../H-i686-mingw32/nios2-elf/lib\libc.a(lib_a-printf.o)
 .debug_line    0x0000154a      0x235 d:/quartus13/nios2eds/bin/gnu/h-i686-mingw32/bin/../lib/gcc/nios2-elf/4.7.3/../../../../../H-i686-mingw32/nios2-elf/lib\libc.a(lib_a-puts.o)
 .debug_line    0x0000177f      0x182 d:/quartus13/nios2eds/bin/gnu/h-i686-mingw32/bin/../lib/gcc/nios2-elf/4.7.3/../../../../../H-i686-mingw32/nios2-elf/lib\libc.a(lib_a-strlen.o)
 .debug_line    0x00001901      0xaf9 d:/quartus13/nios2eds/bin/gnu/h-i686-mingw32/bin/../lib/gcc/nios2-elf/4.7.3/../../../../../H-i686-mingw32/nios2-elf/lib\libc.a(lib_a-vfprintf.o)
 .debug_line    0x000023fa      0x26b d:/quartus13/nios2eds/bin/gnu/h-i686-mingw32/bin/../lib/gcc/nios2-elf/4.7.3/../../../../../H-i686-mingw32/nios2-elf/lib\libc.a(lib_a-wsetup.o)
 .debug_line    0x00002665      0x876 d:/quartus13/nios2eds/bin/gnu/h-i686-mingw32/bin/../lib/gcc/nios2-elf/4.7.3/../../../../../H-i686-mingw32/nios2-elf/lib\libc.a(lib_a-dtoa.o)
 .debug_line    0x00002edb      0x29c d:/quartus13/nios2eds/bin/gnu/h-i686-mingw32/bin/../lib/gcc/nios2-elf/4.7.3/../../../../../H-i686-mingw32/nios2-elf/lib\libc.a(lib_a-fflush.o)
 .debug_line    0x00003177      0x2e6 d:/quartus13/nios2eds/bin/gnu/h-i686-mingw32/bin/../lib/gcc/nios2-elf/4.7.3/../../../../../H-i686-mingw32/nios2-elf/lib\libc.a(lib_a-findfp.o)
 .debug_line    0x0000345d      0x311 d:/quartus13/nios2eds/bin/gnu/h-i686-mingw32/bin/../lib/gcc/nios2-elf/4.7.3/../../../../../H-i686-mingw32/nios2-elf/lib\libc.a(lib_a-freer.o)
 .debug_line    0x0000376e      0x360 d:/quartus13/nios2eds/bin/gnu/h-i686-mingw32/bin/../lib/gcc/nios2-elf/4.7.3/../../../../../H-i686-mingw32/nios2-elf/lib\libc.a(lib_a-fvwrite.o)
 .debug_line    0x00003ace      0x259 d:/quartus13/nios2eds/bin/gnu/h-i686-mingw32/bin/../lib/gcc/nios2-elf/4.7.3/../../../../../H-i686-mingw32/nios2-elf/lib\libc.a(lib_a-fwalk.o)
 .debug_line    0x00003d27      0x173 d:/quartus13/nios2eds/bin/gnu/h-i686-mingw32/bin/../lib/gcc/nios2-elf/4.7.3/../../../../../H-i686-mingw32/nios2-elf/lib\libc.a(lib_a-impure.o)
 .debug_line    0x00003e9a      0x231 d:/quartus13/nios2eds/bin/gnu/h-i686-mingw32/bin/../lib/gcc/nios2-elf/4.7.3/../../../../../H-i686-mingw32/nios2-elf/lib\libc.a(lib_a-locale.o)
 .debug_line    0x000040cb      0x293 d:/quartus13/nios2eds/bin/gnu/h-i686-mingw32/bin/../lib/gcc/nios2-elf/4.7.3/../../../../../H-i686-mingw32/nios2-elf/lib\libc.a(lib_a-makebuf.o)
 .debug_line    0x0000435e      0x421 d:/quartus13/nios2eds/bin/gnu/h-i686-mingw32/bin/../lib/gcc/nios2-elf/4.7.3/../../../../../H-i686-mingw32/nios2-elf/lib\libc.a(lib_a-mallocr.o)
 .debug_line    0x0000477f      0x1f1 d:/quartus13/nios2eds/bin/gnu/h-i686-mingw32/bin/../lib/gcc/nios2-elf/4.7.3/../../../../../H-i686-mingw32/nios2-elf/lib\libc.a(lib_a-memchr.o)
 .debug_line    0x00004970      0x13d d:/quartus13/nios2eds/bin/gnu/h-i686-mingw32/bin/../lib/gcc/nios2-elf/4.7.3/../../../../../H-i686-mingw32/nios2-elf/lib\libc.a(lib_a-memcpy.o)
 .debug_line    0x00004aad      0x1ed d:/quartus13/nios2eds/bin/gnu/h-i686-mingw32/bin/../lib/gcc/nios2-elf/4.7.3/../../../../../H-i686-mingw32/nios2-elf/lib\libc.a(lib_a-memmove.o)
 .debug_line    0x00004c9a      0x1f1 d:/quartus13/nios2eds/bin/gnu/h-i686-mingw32/bin/../lib/gcc/nios2-elf/4.7.3/../../../../../H-i686-mingw32/nios2-elf/lib\libc.a(lib_a-memset.o)
 .debug_line    0x00004e8b      0x725 d:/quartus13/nios2eds/bin/gnu/h-i686-mingw32/bin/../lib/gcc/nios2-elf/4.7.3/../../../../../H-i686-mingw32/nios2-elf/lib\libc.a(lib_a-mprec.o)
 .debug_line    0x000055b0      0x330 d:/quartus13/nios2eds/bin/gnu/h-i686-mingw32/bin/../lib/gcc/nios2-elf/4.7.3/../../../../../H-i686-mingw32/nios2-elf/lib\libc.a(lib_a-reallocr.o)
 .debug_line    0x000058e0      0x170 d:/quartus13/nios2eds/bin/gnu/h-i686-mingw32/bin/../lib/gcc/nios2-elf/4.7.3/../../../../../H-i686-mingw32/nios2-elf/lib\libc.a(lib_a-s_isinfd.o)
 .debug_line    0x00005a50      0x170 d:/quartus13/nios2eds/bin/gnu/h-i686-mingw32/bin/../lib/gcc/nios2-elf/4.7.3/../../../../../H-i686-mingw32/nios2-elf/lib\libc.a(lib_a-s_isnand.o)
 .debug_line    0x00005bc0      0x212 d:/quartus13/nios2eds/bin/gnu/h-i686-mingw32/bin/../lib/gcc/nios2-elf/4.7.3/../../../../../H-i686-mingw32/nios2-elf/lib\libc.a(lib_a-sbrkr.o)
 .debug_line    0x00005dd2      0x245 d:/quartus13/nios2eds/bin/gnu/h-i686-mingw32/bin/../lib/gcc/nios2-elf/4.7.3/../../../../../H-i686-mingw32/nios2-elf/lib\libc.a(lib_a-stdio.o)
 .debug_line    0x00006017      0x110 d:/quartus13/nios2eds/bin/gnu/h-i686-mingw32/bin/../lib/gcc/nios2-elf/4.7.3/../../../../../H-i686-mingw32/nios2-elf/lib\libc.a(lib_a-strcmp.o)
 .debug_line    0x00006127      0x213 d:/quartus13/nios2eds/bin/gnu/h-i686-mingw32/bin/../lib/gcc/nios2-elf/4.7.3/../../../../../H-i686-mingw32/nios2-elf/lib\libc.a(lib_a-writer.o)
 .debug_line    0x0000633a      0x1c9 d:/quartus13/nios2eds/bin/gnu/h-i686-mingw32/bin/../lib/gcc/nios2-elf/4.7.3/../../../../../H-i686-mingw32/nios2-elf/lib\libc.a(lib_a-callocr.o)
 .debug_line    0x00006503      0x213 d:/quartus13/nios2eds/bin/gnu/h-i686-mingw32/bin/../lib/gcc/nios2-elf/4.7.3/../../../../../H-i686-mingw32/nios2-elf/lib\libc.a(lib_a-closer.o)
 .debug_line    0x00006716      0x266 d:/quartus13/nios2eds/bin/gnu/h-i686-mingw32/bin/../lib/gcc/nios2-elf/4.7.3/../../../../../H-i686-mingw32/nios2-elf/lib\libc.a(lib_a-fclose.o)
 .debug_line    0x0000697c      0x21c d:/quartus13/nios2eds/bin/gnu/h-i686-mingw32/bin/../lib/gcc/nios2-elf/4.7.3/../../../../../H-i686-mingw32/nios2-elf/lib\libc.a(lib_a-fstatr.o)
 .debug_line    0x00006b98       0x5d d:/quartus13/nios2eds/bin/gnu/h-i686-mingw32/bin/../lib/gcc/nios2-elf/4.7.3/../../../../../H-i686-mingw32/nios2-elf/lib\libc.a(lib_a-int_errno.o)
 .debug_line    0x00006bf5      0x214 d:/quartus13/nios2eds/bin/gnu/h-i686-mingw32/bin/../lib/gcc/nios2-elf/4.7.3/../../../../../H-i686-mingw32/nios2-elf/lib\libc.a(lib_a-isattyr.o)
 .debug_line    0x00006e09      0x21e d:/quartus13/nios2eds/bin/gnu/h-i686-mingw32/bin/../lib/gcc/nios2-elf/4.7.3/../../../../../H-i686-mingw32/nios2-elf/lib\libc.a(lib_a-lseekr.o)
 .debug_line    0x00007027      0x212 d:/quartus13/nios2eds/bin/gnu/h-i686-mingw32/bin/../lib/gcc/nios2-elf/4.7.3/../../../../../H-i686-mingw32/nios2-elf/lib\libc.a(lib_a-readr.o)
 .debug_line    0x00007239      0x119 d:/quartus13/nios2eds/bin/gnu/h-i686-mingw32/bin/../lib/gcc/nios2-elf/4.7.3\libgcc.a(_udivdi3.o)
 .debug_line    0x00007352      0x121 d:/quartus13/nios2eds/bin/gnu/h-i686-mingw32/bin/../lib/gcc/nios2-elf/4.7.3\libgcc.a(_umoddi3.o)
 .debug_line    0x00007473       0xce d:/quartus13/nios2eds/bin/gnu/h-i686-mingw32/bin/../lib/gcc/nios2-elf/4.7.3\libgcc.a(_div_df.o)
 .debug_line    0x00007541       0x6d d:/quartus13/nios2eds/bin/gnu/h-i686-mingw32/bin/../lib/gcc/nios2-elf/4.7.3\libgcc.a(_eq_df.o)
 .debug_line    0x000075ae       0x6d d:/quartus13/nios2eds/bin/gnu/h-i686-mingw32/bin/../lib/gcc/nios2-elf/4.7.3\libgcc.a(_ne_df.o)
 .debug_line    0x0000761b       0x6e d:/quartus13/nios2eds/bin/gnu/h-i686-mingw32/bin/../lib/gcc/nios2-elf/4.7.3\libgcc.a(_gt_df.o)
 .debug_line    0x00007689       0x6d d:/quartus13/nios2eds/bin/gnu/h-i686-mingw32/bin/../lib/gcc/nios2-elf/4.7.3\libgcc.a(_lt_df.o)
 .debug_line    0x000076f6       0x9e d:/quartus13/nios2eds/bin/gnu/h-i686-mingw32/bin/../lib/gcc/nios2-elf/4.7.3\libgcc.a(_usi_to_df.o)
 .debug_line    0x00007794       0xd3 d:/quartus13/nios2eds/bin/gnu/h-i686-mingw32/bin/../lib/gcc/nios2-elf/4.7.3\libgcc.a(lib2-divmod.o)
 .debug_line    0x00007867      0x184 ../qsys_lcd_bsp/\libhal_bsp.a(alt_close.o)
 .debug_line    0x000079eb      0x117 ../qsys_lcd_bsp/\libhal_bsp.a(alt_dev.o)
 .debug_line    0x00007b02       0x51 ../qsys_lcd_bsp/\libhal_bsp.a(alt_errno.o)
 .debug_line    0x00007b53      0x17e ../qsys_lcd_bsp/\libhal_bsp.a(alt_fstat.o)
 .debug_line    0x00007cd1      0x17e ../qsys_lcd_bsp/\libhal_bsp.a(alt_isatty.o)
 .debug_line    0x00007e4f      0x182 ../qsys_lcd_bsp/\libhal_bsp.a(alt_lseek.o)
 .debug_line    0x00007fd1       0xa4 ../qsys_lcd_bsp/\libhal_bsp.a(alt_main.o)
 .debug_line    0x00008075      0x13b ../qsys_lcd_bsp/\libhal_bsp.a(alt_malloc_lock.o)
 .debug_line    0x000081b0      0x1f5 ../qsys_lcd_bsp/\libhal_bsp.a(alt_read.o)
 .debug_line    0x000083a5       0xae ../qsys_lcd_bsp/\libhal_bsp.a(alt_release_fd.o)
 .debug_line    0x00008453      0x112 ../qsys_lcd_bsp/\libhal_bsp.a(alt_sbrk.o)
 .debug_line    0x00008565       0xcc ../qsys_lcd_bsp/\libhal_bsp.a(alt_usleep.o)
 .debug_line    0x00008631      0x1f4 ../qsys_lcd_bsp/\libhal_bsp.a(alt_write.o)
 .debug_line    0x00008825      0x188 ../qsys_lcd_bsp/\libhal_bsp.a(alt_sys_init.o)
 .debug_line    0x000089ad      0x2ad ../qsys_lcd_bsp/\libhal_bsp.a(altera_avalon_epcs_flash_controller.o)
 .debug_line    0x00008c5a      0x131 ../qsys_lcd_bsp/\libhal_bsp.a(altera_avalon_jtag_uart_fd.o)
 .debug_line    0x00008d8b      0x199 ../qsys_lcd_bsp/\libhal_bsp.a(altera_avalon_jtag_uart_init.o)
 .debug_line    0x00008f24      0x129 ../qsys_lcd_bsp/\libhal_bsp.a(altera_avalon_jtag_uart_ioctl.o)
 .debug_line    0x0000904d      0x174 ../qsys_lcd_bsp/\libhal_bsp.a(altera_avalon_jtag_uart_read.o)
 .debug_line    0x000091c1      0x173 ../qsys_lcd_bsp/\libhal_bsp.a(altera_avalon_jtag_uart_write.o)
 .debug_line    0x00009334      0x118 ../qsys_lcd_bsp/\libhal_bsp.a(epcs_commands.o)
 .debug_line    0x0000944c       0xfa ../qsys_lcd_bsp/\libhal_bsp.a(alt_alarm_start.o)
 .debug_line    0x00009546       0x9f ../qsys_lcd_bsp/\libhal_bsp.a(alt_busy_sleep.o)
 .debug_line    0x000095e5       0xd0 ../qsys_lcd_bsp/\libhal_bsp.a(alt_dev_llist_insert.o)
 .debug_line    0x000096b5       0x59 ../qsys_lcd_bsp/\libhal_bsp.a(alt_do_ctors.o)
 .debug_line    0x0000970e       0x59 ../qsys_lcd_bsp/\libhal_bsp.a(alt_do_dtors.o)
 .debug_line    0x00009767       0xc5 ../qsys_lcd_bsp/\libhal_bsp.a(alt_flash_dev.o)
 .debug_line    0x0000982c       0xed ../qsys_lcd_bsp/\libhal_bsp.a(alt_iic.o)
 .debug_line    0x00009919       0xdb ../qsys_lcd_bsp/\libhal_bsp.a(alt_iic_isr_register.o)
 .debug_line    0x000099f4      0x152 ../qsys_lcd_bsp/\libhal_bsp.a(alt_io_redirect.o)
 .debug_line    0x00009b46       0x6b ../qsys_lcd_bsp/\libhal_bsp.a(alt_irq_entry.o)
 .debug_line    0x00009bb1       0xae ../qsys_lcd_bsp/\libhal_bsp.a(alt_irq_handler.o)
 .debug_line    0x00009c5f       0x50 ../qsys_lcd_bsp/\libhal_bsp.a(alt_irq_vars.o)
 .debug_line    0x00009caf      0x125 ../qsys_lcd_bsp/\libhal_bsp.a(alt_open.o)
 .debug_line    0x00009dd4      0x102 ../qsys_lcd_bsp/\libhal_bsp.a(alt_tick.o)
 .debug_line    0x00009ed6       0x51 ../qsys_lcd_bsp/\libhal_bsp.a(altera_nios2_qsys_irq.o)
 .debug_line    0x00009f27       0xb6 ../qsys_lcd_bsp/\libhal_bsp.a(altera_avalon_spi.o)
 .debug_line    0x00009fdd       0xab ../qsys_lcd_bsp/\libhal_bsp.a(alt_exception_entry.o)
 .debug_line    0x0000a088       0xb9 ../qsys_lcd_bsp/\libhal_bsp.a(alt_find_dev.o)
 .debug_line    0x0000a141       0xd5 ../qsys_lcd_bsp/\libhal_bsp.a(alt_find_file.o)
 .debug_line    0x0000a216       0xd1 ../qsys_lcd_bsp/\libhal_bsp.a(alt_get_fd.o)
 .debug_line    0x0000a2e7      0x16d d:/quartus13/nios2eds/bin/gnu/h-i686-mingw32/bin/../lib/gcc/nios2-elf/4.7.3/../../../../../H-i686-mingw32/nios2-elf/lib\libc.a(lib_a-atexit.o)
 .debug_line    0x0000a454      0x219 d:/quartus13/nios2eds/bin/gnu/h-i686-mingw32/bin/../lib/gcc/nios2-elf/4.7.3/../../../../../H-i686-mingw32/nios2-elf/lib\libc.a(lib_a-exit.o)
 .debug_line    0x0000a66d      0x18d d:/quartus13/nios2eds/bin/gnu/h-i686-mingw32/bin/../lib/gcc/nios2-elf/4.7.3/../../../../../H-i686-mingw32/nios2-elf/lib\libc.a(lib_a-memcmp.o)
 .debug_line    0x0000a7fa      0x250 d:/quartus13/nios2eds/bin/gnu/h-i686-mingw32/bin/../lib/gcc/nios2-elf/4.7.3/../../../../../H-i686-mingw32/nios2-elf/lib\libc.a(lib_a-__atexit.o)
 .debug_line    0x0000aa4a      0x264 d:/quartus13/nios2eds/bin/gnu/h-i686-mingw32/bin/../lib/gcc/nios2-elf/4.7.3/../../../../../H-i686-mingw32/nios2-elf/lib\libc.a(lib_a-__call_atexit.o)
 .debug_line    0x0000acae       0x71 ../qsys_lcd_bsp/\libhal_bsp.a(alt_exit.o)

.debug_frame    0x00000000     0x1d80
 *(.debug_frame)
 .debug_frame   0x00000000      0x394 obj/default/drive/mculcd.o
 .debug_frame   0x00000394       0x2c obj/default/qsys_lcd.o
 .debug_frame   0x000003c0       0x2c d:/quartus13/nios2eds/bin/gnu/h-i686-mingw32/bin/../lib/gcc/nios2-elf/4.7.3\libgcc.a(_fixunsdfsi.o)
 .debug_frame   0x000003ec       0x50 d:/quartus13/nios2eds/bin/gnu/h-i686-mingw32/bin/../lib/gcc/nios2-elf/4.7.3\libgcc.a(_addsub_df.o)
 .debug_frame   0x0000043c       0x38 d:/quartus13/nios2eds/bin/gnu/h-i686-mingw32/bin/../lib/gcc/nios2-elf/4.7.3\libgcc.a(_mul_df.o)
 .debug_frame   0x00000474       0x28 d:/quartus13/nios2eds/bin/gnu/h-i686-mingw32/bin/../lib/gcc/nios2-elf/4.7.3\libgcc.a(_ge_df.o)
 .debug_frame   0x0000049c       0x28 d:/quartus13/nios2eds/bin/gnu/h-i686-mingw32/bin/../lib/gcc/nios2-elf/4.7.3\libgcc.a(_si_to_df.o)
 .debug_frame   0x000004c4       0x28 d:/quartus13/nios2eds/bin/gnu/h-i686-mingw32/bin/../lib/gcc/nios2-elf/4.7.3\libgcc.a(_df_to_si.o)
 .debug_frame   0x000004ec       0x20 d:/quartus13/nios2eds/bin/gnu/h-i686-mingw32/bin/../lib/gcc/nios2-elf/4.7.3\libgcc.a(_muldi3.o)
 .debug_frame   0x0000050c       0x20 d:/quartus13/nios2eds/bin/gnu/h-i686-mingw32/bin/../lib/gcc/nios2-elf/4.7.3\libgcc.a(_clzsi2.o)
 .debug_frame   0x0000052c       0x34 d:/quartus13/nios2eds/bin/gnu/h-i686-mingw32/bin/../lib/gcc/nios2-elf/4.7.3\libgcc.a(_pack_df.o)
 .debug_frame   0x00000560       0x20 d:/quartus13/nios2eds/bin/gnu/h-i686-mingw32/bin/../lib/gcc/nios2-elf/4.7.3\libgcc.a(_unpack_df.o)
 .debug_frame   0x00000580       0x20 d:/quartus13/nios2eds/bin/gnu/h-i686-mingw32/bin/../lib/gcc/nios2-elf/4.7.3\libgcc.a(_fpcmp_parts_df.o)
 .debug_frame   0x000005a0       0x20 d:/quartus13/nios2eds/bin/gnu/h-i686-mingw32/bin/../lib/gcc/nios2-elf/4.7.3\libgcc.a(_lshrdi3.o)
 .debug_frame   0x000005c0       0x20 d:/quartus13/nios2eds/bin/gnu/h-i686-mingw32/bin/../lib/gcc/nios2-elf/4.7.3\libgcc.a(_ashldi3.o)
 .debug_frame   0x000005e0       0x40 d:/quartus13/nios2eds/bin/gnu/h-i686-mingw32/bin/../lib/gcc/nios2-elf/4.7.3/../../../../../H-i686-mingw32/nios2-elf/lib\libc.a(lib_a-printf.o)
 .debug_frame   0x00000620       0x3c d:/quartus13/nios2eds/bin/gnu/h-i686-mingw32/bin/../lib/gcc/nios2-elf/4.7.3/../../../../../H-i686-mingw32/nios2-elf/lib\libc.a(lib_a-puts.o)
 .debug_frame   0x0000065c       0x20 d:/quartus13/nios2eds/bin/gnu/h-i686-mingw32/bin/../lib/gcc/nios2-elf/4.7.3/../../../../../H-i686-mingw32/nios2-elf/lib\libc.a(lib_a-strlen.o)
 .debug_frame   0x0000067c       0x64 d:/quartus13/nios2eds/bin/gnu/h-i686-mingw32/bin/../lib/gcc/nios2-elf/4.7.3/../../../../../H-i686-mingw32/nios2-elf/lib\libc.a(lib_a-vfprintf.o)
 .debug_frame   0x000006e0       0x2c d:/quartus13/nios2eds/bin/gnu/h-i686-mingw32/bin/../lib/gcc/nios2-elf/4.7.3/../../../../../H-i686-mingw32/nios2-elf/lib\libc.a(lib_a-wsetup.o)
 .debug_frame   0x0000070c       0x64 d:/quartus13/nios2eds/bin/gnu/h-i686-mingw32/bin/../lib/gcc/nios2-elf/4.7.3/../../../../../H-i686-mingw32/nios2-elf/lib\libc.a(lib_a-dtoa.o)
 .debug_frame   0x00000770       0x40 d:/quartus13/nios2eds/bin/gnu/h-i686-mingw32/bin/../lib/gcc/nios2-elf/4.7.3/../../../../../H-i686-mingw32/nios2-elf/lib\libc.a(lib_a-fflush.o)
 .debug_frame   0x000007b0      0x100 d:/quartus13/nios2eds/bin/gnu/h-i686-mingw32/bin/../lib/gcc/nios2-elf/4.7.3/../../../../../H-i686-mingw32/nios2-elf/lib\libc.a(lib_a-findfp.o)
 .debug_frame   0x000008b0       0x4c d:/quartus13/nios2eds/bin/gnu/h-i686-mingw32/bin/../lib/gcc/nios2-elf/4.7.3/../../../../../H-i686-mingw32/nios2-elf/lib\libc.a(lib_a-freer.o)
 .debug_frame   0x000008fc       0x38 d:/quartus13/nios2eds/bin/gnu/h-i686-mingw32/bin/../lib/gcc/nios2-elf/4.7.3/../../../../../H-i686-mingw32/nios2-elf/lib\libc.a(lib_a-fvwrite.o)
 .debug_frame   0x00000934       0x5c d:/quartus13/nios2eds/bin/gnu/h-i686-mingw32/bin/../lib/gcc/nios2-elf/4.7.3/../../../../../H-i686-mingw32/nios2-elf/lib\libc.a(lib_a-fwalk.o)
 .debug_frame   0x00000990       0x6c d:/quartus13/nios2eds/bin/gnu/h-i686-mingw32/bin/../lib/gcc/nios2-elf/4.7.3/../../../../../H-i686-mingw32/nios2-elf/lib\libc.a(lib_a-locale.o)
 .debug_frame   0x000009fc       0x2c d:/quartus13/nios2eds/bin/gnu/h-i686-mingw32/bin/../lib/gcc/nios2-elf/4.7.3/../../../../../H-i686-mingw32/nios2-elf/lib\libc.a(lib_a-makebuf.o)
 .debug_frame   0x00000a28       0x38 d:/quartus13/nios2eds/bin/gnu/h-i686-mingw32/bin/../lib/gcc/nios2-elf/4.7.3/../../../../../H-i686-mingw32/nios2-elf/lib\libc.a(lib_a-mallocr.o)
 .debug_frame   0x00000a60       0x20 d:/quartus13/nios2eds/bin/gnu/h-i686-mingw32/bin/../lib/gcc/nios2-elf/4.7.3/../../../../../H-i686-mingw32/nios2-elf/lib\libc.a(lib_a-memchr.o)
 .debug_frame   0x00000a80       0x20 d:/quartus13/nios2eds/bin/gnu/h-i686-mingw32/bin/../lib/gcc/nios2-elf/4.7.3/../../../../../H-i686-mingw32/nios2-elf/lib\libc.a(lib_a-memcpy.o)
 .debug_frame   0x00000aa0       0x20 d:/quartus13/nios2eds/bin/gnu/h-i686-mingw32/bin/../lib/gcc/nios2-elf/4.7.3/../../../../../H-i686-mingw32/nios2-elf/lib\libc.a(lib_a-memmove.o)
 .debug_frame   0x00000ac0       0x20 d:/quartus13/nios2eds/bin/gnu/h-i686-mingw32/bin/../lib/gcc/nios2-elf/4.7.3/../../../../../H-i686-mingw32/nios2-elf/lib\libc.a(lib_a-memset.o)
 .debug_frame   0x00000ae0      0x204 d:/quartus13/nios2eds/bin/gnu/h-i686-mingw32/bin/../lib/gcc/nios2-elf/4.7.3/../../../../../H-i686-mingw32/nios2-elf/lib\libc.a(lib_a-mprec.o)
 .debug_frame   0x00000ce4       0x38 d:/quartus13/nios2eds/bin/gnu/h-i686-mingw32/bin/../lib/gcc/nios2-elf/4.7.3/../../../../../H-i686-mingw32/nios2-elf/lib\libc.a(lib_a-reallocr.o)
 .debug_frame   0x00000d1c       0x20 d:/quartus13/nios2eds/bin/gnu/h-i686-mingw32/bin/../lib/gcc/nios2-elf/4.7.3/../../../../../H-i686-mingw32/nios2-elf/lib\libc.a(lib_a-s_isinfd.o)
 .debug_frame   0x00000d3c       0x20 d:/quartus13/nios2eds/bin/gnu/h-i686-mingw32/bin/../lib/gcc/nios2-elf/4.7.3/../../../../../H-i686-mingw32/nios2-elf/lib\libc.a(lib_a-s_isnand.o)
 .debug_frame   0x00000d5c       0x2c d:/quartus13/nios2eds/bin/gnu/h-i686-mingw32/bin/../lib/gcc/nios2-elf/4.7.3/../../../../../H-i686-mingw32/nios2-elf/lib\libc.a(lib_a-sbrkr.o)
 .debug_frame   0x00000d88       0x78 d:/quartus13/nios2eds/bin/gnu/h-i686-mingw32/bin/../lib/gcc/nios2-elf/4.7.3/../../../../../H-i686-mingw32/nios2-elf/lib\libc.a(lib_a-stdio.o)
 .debug_frame   0x00000e00       0x20 d:/quartus13/nios2eds/bin/gnu/h-i686-mingw32/bin/../lib/gcc/nios2-elf/4.7.3/../../../../../H-i686-mingw32/nios2-elf/lib\libc.a(lib_a-strcmp.o)
 .debug_frame   0x00000e20       0x2c d:/quartus13/nios2eds/bin/gnu/h-i686-mingw32/bin/../lib/gcc/nios2-elf/4.7.3/../../../../../H-i686-mingw32/nios2-elf/lib\libc.a(lib_a-writer.o)
 .debug_frame   0x00000e4c       0x28 d:/quartus13/nios2eds/bin/gnu/h-i686-mingw32/bin/../lib/gcc/nios2-elf/4.7.3/../../../../../H-i686-mingw32/nios2-elf/lib\libc.a(lib_a-callocr.o)
 .debug_frame   0x00000e74       0x2c d:/quartus13/nios2eds/bin/gnu/h-i686-mingw32/bin/../lib/gcc/nios2-elf/4.7.3/../../../../../H-i686-mingw32/nios2-elf/lib\libc.a(lib_a-closer.o)
 .debug_frame   0x00000ea0       0x3c d:/quartus13/nios2eds/bin/gnu/h-i686-mingw32/bin/../lib/gcc/nios2-elf/4.7.3/../../../../../H-i686-mingw32/nios2-elf/lib\libc.a(lib_a-fclose.o)
 .debug_frame   0x00000edc       0x2c d:/quartus13/nios2eds/bin/gnu/h-i686-mingw32/bin/../lib/gcc/nios2-elf/4.7.3/../../../../../H-i686-mingw32/nios2-elf/lib\libc.a(lib_a-fstatr.o)
 .debug_frame   0x00000f08       0x2c d:/quartus13/nios2eds/bin/gnu/h-i686-mingw32/bin/../lib/gcc/nios2-elf/4.7.3/../../../../../H-i686-mingw32/nios2-elf/lib\libc.a(lib_a-isattyr.o)
 .debug_frame   0x00000f34       0x2c d:/quartus13/nios2eds/bin/gnu/h-i686-mingw32/bin/../lib/gcc/nios2-elf/4.7.3/../../../../../H-i686-mingw32/nios2-elf/lib\libc.a(lib_a-lseekr.o)
 .debug_frame   0x00000f60       0x2c d:/quartus13/nios2eds/bin/gnu/h-i686-mingw32/bin/../lib/gcc/nios2-elf/4.7.3/../../../../../H-i686-mingw32/nios2-elf/lib\libc.a(lib_a-readr.o)
 .debug_frame   0x00000f8c       0x38 d:/quartus13/nios2eds/bin/gnu/h-i686-mingw32/bin/../lib/gcc/nios2-elf/4.7.3\libgcc.a(_udivdi3.o)
 .debug_frame   0x00000fc4       0x38 d:/quartus13/nios2eds/bin/gnu/h-i686-mingw32/bin/../lib/gcc/nios2-elf/4.7.3\libgcc.a(_umoddi3.o)
 .debug_frame   0x00000ffc       0x28 d:/quartus13/nios2eds/bin/gnu/h-i686-mingw32/bin/../lib/gcc/nios2-elf/4.7.3\libgcc.a(_div_df.o)
 .debug_frame   0x00001024       0x28 d:/quartus13/nios2eds/bin/gnu/h-i686-mingw32/bin/../lib/gcc/nios2-elf/4.7.3\libgcc.a(_eq_df.o)
 .debug_frame   0x0000104c       0x28 d:/quartus13/nios2eds/bin/gnu/h-i686-mingw32/bin/../lib/gcc/nios2-elf/4.7.3\libgcc.a(_ne_df.o)
 .debug_frame   0x00001074       0x28 d:/quartus13/nios2eds/bin/gnu/h-i686-mingw32/bin/../lib/gcc/nios2-elf/4.7.3\libgcc.a(_gt_df.o)
 .debug_frame   0x0000109c       0x28 d:/quartus13/nios2eds/bin/gnu/h-i686-mingw32/bin/../lib/gcc/nios2-elf/4.7.3\libgcc.a(_lt_df.o)
 .debug_frame   0x000010c4       0x28 d:/quartus13/nios2eds/bin/gnu/h-i686-mingw32/bin/../lib/gcc/nios2-elf/4.7.3\libgcc.a(_usi_to_df.o)
 .debug_frame   0x000010ec       0x70 d:/quartus13/nios2eds/bin/gnu/h-i686-mingw32/bin/../lib/gcc/nios2-elf/4.7.3\libgcc.a(lib2-divmod.o)
 .debug_frame   0x0000115c       0x48 ../qsys_lcd_bsp/\libhal_bsp.a(alt_close.o)
 .debug_frame   0x000011a4       0x2c ../qsys_lcd_bsp/\libhal_bsp.a(alt_dev.o)
 .debug_frame   0x000011d0       0x48 ../qsys_lcd_bsp/\libhal_bsp.a(alt_fstat.o)
 .debug_frame   0x00001218       0x48 ../qsys_lcd_bsp/\libhal_bsp.a(alt_isatty.o)
 .debug_frame   0x00001260       0x48 ../qsys_lcd_bsp/\libhal_bsp.a(alt_lseek.o)
 .debug_frame   0x000012a8       0x2c ../qsys_lcd_bsp/\libhal_bsp.a(alt_main.o)
 .debug_frame   0x000012d4       0x48 ../qsys_lcd_bsp/\libhal_bsp.a(alt_malloc_lock.o)
 .debug_frame   0x0000131c       0x48 ../qsys_lcd_bsp/\libhal_bsp.a(alt_read.o)
 .debug_frame   0x00001364       0x2c ../qsys_lcd_bsp/\libhal_bsp.a(alt_release_fd.o)
 .debug_frame   0x00001390       0x2c ../qsys_lcd_bsp/\libhal_bsp.a(alt_sbrk.o)
 .debug_frame   0x000013bc       0x2c ../qsys_lcd_bsp/\libhal_bsp.a(alt_usleep.o)
 .debug_frame   0x000013e8       0x48 ../qsys_lcd_bsp/\libhal_bsp.a(alt_write.o)
 .debug_frame   0x00001430       0x64 ../qsys_lcd_bsp/\libhal_bsp.a(alt_sys_init.o)
 .debug_frame   0x00001494      0x128 ../qsys_lcd_bsp/\libhal_bsp.a(altera_avalon_epcs_flash_controller.o)
 .debug_frame   0x000015bc       0x80 ../qsys_lcd_bsp/\libhal_bsp.a(altera_avalon_jtag_uart_fd.o)
 .debug_frame   0x0000163c       0x80 ../qsys_lcd_bsp/\libhal_bsp.a(altera_avalon_jtag_uart_init.o)
 .debug_frame   0x000016bc       0x2c ../qsys_lcd_bsp/\libhal_bsp.a(altera_avalon_jtag_uart_ioctl.o)
 .debug_frame   0x000016e8       0x2c ../qsys_lcd_bsp/\libhal_bsp.a(altera_avalon_jtag_uart_read.o)
 .debug_frame   0x00001714       0x2c ../qsys_lcd_bsp/\libhal_bsp.a(altera_avalon_jtag_uart_write.o)
 .debug_frame   0x00001740      0x160 ../qsys_lcd_bsp/\libhal_bsp.a(epcs_commands.o)
 .debug_frame   0x000018a0       0x2c ../qsys_lcd_bsp/\libhal_bsp.a(alt_alarm_start.o)
 .debug_frame   0x000018cc       0x2c ../qsys_lcd_bsp/\libhal_bsp.a(alt_busy_sleep.o)
 .debug_frame   0x000018f8       0x48 ../qsys_lcd_bsp/\libhal_bsp.a(alt_dev_llist_insert.o)
 .debug_frame   0x00001940       0x2c ../qsys_lcd_bsp/\libhal_bsp.a(alt_do_ctors.o)
 .debug_frame   0x0000196c       0x2c ../qsys_lcd_bsp/\libhal_bsp.a(alt_do_dtors.o)
 .debug_frame   0x00001998       0x48 ../qsys_lcd_bsp/\libhal_bsp.a(alt_flash_dev.o)
 .debug_frame   0x000019e0       0x80 ../qsys_lcd_bsp/\libhal_bsp.a(alt_iic.o)
 .debug_frame   0x00001a60       0x2c ../qsys_lcd_bsp/\libhal_bsp.a(alt_iic_isr_register.o)
 .debug_frame   0x00001a8c       0x48 ../qsys_lcd_bsp/\libhal_bsp.a(alt_io_redirect.o)
 .debug_frame   0x00001ad4       0x2c ../qsys_lcd_bsp/\libhal_bsp.a(alt_irq_handler.o)
 .debug_frame   0x00001b00       0x64 ../qsys_lcd_bsp/\libhal_bsp.a(alt_open.o)
 .debug_frame   0x00001b64       0x48 ../qsys_lcd_bsp/\libhal_bsp.a(alt_tick.o)
 .debug_frame   0x00001bac       0x2c ../qsys_lcd_bsp/\libhal_bsp.a(altera_nios2_qsys_irq.o)
 .debug_frame   0x00001bd8       0x2c ../qsys_lcd_bsp/\libhal_bsp.a(altera_avalon_spi.o)
 .debug_frame   0x00001c04       0x2c ../qsys_lcd_bsp/\libhal_bsp.a(alt_find_dev.o)
 .debug_frame   0x00001c30       0x2c ../qsys_lcd_bsp/\libhal_bsp.a(alt_find_file.o)
 .debug_frame   0x00001c5c       0x2c ../qsys_lcd_bsp/\libhal_bsp.a(alt_get_fd.o)
 .debug_frame   0x00001c88       0x20 d:/quartus13/nios2eds/bin/gnu/h-i686-mingw32/bin/../lib/gcc/nios2-elf/4.7.3/../../../../../H-i686-mingw32/nios2-elf/lib\libc.a(lib_a-atexit.o)
 .debug_frame   0x00001ca8       0x28 d:/quartus13/nios2eds/bin/gnu/h-i686-mingw32/bin/../lib/gcc/nios2-elf/4.7.3/../../../../../H-i686-mingw32/nios2-elf/lib\libc.a(lib_a-exit.o)
 .debug_frame   0x00001cd0       0x20 d:/quartus13/nios2eds/bin/gnu/h-i686-mingw32/bin/../lib/gcc/nios2-elf/4.7.3/../../../../../H-i686-mingw32/nios2-elf/lib\libc.a(lib_a-memcmp.o)
 .debug_frame   0x00001cf0       0x2c d:/quartus13/nios2eds/bin/gnu/h-i686-mingw32/bin/../lib/gcc/nios2-elf/4.7.3/../../../../../H-i686-mingw32/nios2-elf/lib\libc.a(lib_a-__atexit.o)
 .debug_frame   0x00001d1c       0x38 d:/quartus13/nios2eds/bin/gnu/h-i686-mingw32/bin/../lib/gcc/nios2-elf/4.7.3/../../../../../H-i686-mingw32/nios2-elf/lib\libc.a(lib_a-__call_atexit.o)
 .debug_frame   0x00001d54       0x2c ../qsys_lcd_bsp/\libhal_bsp.a(alt_exit.o)

.debug_str      0x00000000     0x3303
 *(.debug_str)
 .debug_str     0x00000000      0x374 obj/default/drive/mculcd.o
                                0x3d8 (size before relaxing)
 .debug_str     0x00000374       0x18 obj/default/qsys_lcd.o
                                0x124 (size before relaxing)
 .debug_str     0x0000038c       0xdf d:/quartus13/nios2eds/bin/gnu/h-i686-mingw32/bin/../lib/gcc/nios2-elf/4.7.3\libgcc.a(_fixunsdfsi.o)
                                0x168 (size before relaxing)
 .debug_str     0x0000046b      0x170 d:/quartus13/nios2eds/bin/gnu/h-i686-mingw32/bin/../lib/gcc/nios2-elf/4.7.3\libgcc.a(_addsub_df.o)
                                0x2a9 (size before relaxing)
 .debug_str     0x000005db       0x45 d:/quartus13/nios2eds/bin/gnu/h-i686-mingw32/bin/../lib/gcc/nios2-elf/4.7.3\libgcc.a(_mul_df.o)
                                0x27b (size before relaxing)
 .debug_str     0x00000620       0x20 d:/quartus13/nios2eds/bin/gnu/h-i686-mingw32/bin/../lib/gcc/nios2-elf/4.7.3\libgcc.a(_ge_df.o)
                                0x238 (size before relaxing)
 .debug_str     0x00000640       0x21 d:/quartus13/nios2eds/bin/gnu/h-i686-mingw32/bin/../lib/gcc/nios2-elf/4.7.3\libgcc.a(_si_to_df.o)
                                0x20e (size before relaxing)
 .debug_str     0x00000661        0xa d:/quartus13/nios2eds/bin/gnu/h-i686-mingw32/bin/../lib/gcc/nios2-elf/4.7.3\libgcc.a(_df_to_si.o)
                                0x230 (size before relaxing)
 .debug_str     0x00000000      0x1c1 d:/quartus13/nios2eds/bin/gnu/h-i686-mingw32/bin/../lib/gcc/nios2-elf/4.7.3\libgcc.a(_thenan_df.o)
 .debug_str     0x0000066b       0x42 d:/quartus13/nios2eds/bin/gnu/h-i686-mingw32/bin/../lib/gcc/nios2-elf/4.7.3\libgcc.a(_muldi3.o)
                                0x1a2 (size before relaxing)
 .debug_str     0x000006ad       0x17 d:/quartus13/nios2eds/bin/gnu/h-i686-mingw32/bin/../lib/gcc/nios2-elf/4.7.3\libgcc.a(_clzsi2.o)
                                0x17d (size before relaxing)
 .debug_str     0x000006c4        0x7 d:/quartus13/nios2eds/bin/gnu/h-i686-mingw32/bin/../lib/gcc/nios2-elf/4.7.3\libgcc.a(_pack_df.o)
                                0x224 (size before relaxing)
 .debug_str     0x00000000      0x206 d:/quartus13/nios2eds/bin/gnu/h-i686-mingw32/bin/../lib/gcc/nios2-elf/4.7.3\libgcc.a(_unpack_df.o)
 .debug_str     0x00000000      0x1e4 d:/quartus13/nios2eds/bin/gnu/h-i686-mingw32/bin/../lib/gcc/nios2-elf/4.7.3\libgcc.a(_fpcmp_parts_df.o)
 .debug_str     0x000006cb       0x23 d:/quartus13/nios2eds/bin/gnu/h-i686-mingw32/bin/../lib/gcc/nios2-elf/4.7.3\libgcc.a(_lshrdi3.o)
                                0x194 (size before relaxing)
 .debug_str     0x000006ee        0xa d:/quartus13/nios2eds/bin/gnu/h-i686-mingw32/bin/../lib/gcc/nios2-elf/4.7.3\libgcc.a(_ashldi3.o)
                                0x194 (size before relaxing)
 .debug_str     0x00000000      0x160 d:/quartus13/nios2eds/bin/gnu/h-i686-mingw32/bin/../lib/gcc/nios2-elf/4.7.3\libgcc.a(_clz.o)
 .debug_str     0x000006f8      0x447 d:/quartus13/nios2eds/bin/gnu/h-i686-mingw32/bin/../lib/gcc/nios2-elf/4.7.3/../../../../../H-i686-mingw32/nios2-elf/lib\libc.a(lib_a-printf.o)
                                0x571 (size before relaxing)
 .debug_str     0x00000b3f       0x95 d:/quartus13/nios2eds/bin/gnu/h-i686-mingw32/bin/../lib/gcc/nios2-elf/4.7.3/../../../../../H-i686-mingw32/nios2-elf/lib\libc.a(lib_a-puts.o)
                                0x56e (size before relaxing)
 .debug_str     0x00000bd4       0xd7 d:/quartus13/nios2eds/bin/gnu/h-i686-mingw32/bin/../lib/gcc/nios2-elf/4.7.3/../../../../../H-i686-mingw32/nios2-elf/lib\libc.a(lib_a-strlen.o)
                                0x189 (size before relaxing)
 .debug_str     0x00000cab      0x282 d:/quartus13/nios2eds/bin/gnu/h-i686-mingw32/bin/../lib/gcc/nios2-elf/4.7.3/../../../../../H-i686-mingw32/nios2-elf/lib\libc.a(lib_a-vfprintf.o)
                                0x888 (size before relaxing)
 .debug_str     0x00000f2d       0x4f d:/quartus13/nios2eds/bin/gnu/h-i686-mingw32/bin/../lib/gcc/nios2-elf/4.7.3/../../../../../H-i686-mingw32/nios2-elf/lib\libc.a(lib_a-wsetup.o)
                                0x535 (size before relaxing)
 .debug_str     0x00000f7c      0x1ed d:/quartus13/nios2eds/bin/gnu/h-i686-mingw32/bin/../lib/gcc/nios2-elf/4.7.3/../../../../../H-i686-mingw32/nios2-elf/lib\libc.a(lib_a-dtoa.o)
                                0x678 (size before relaxing)
 .debug_str     0x00001169       0x5b d:/quartus13/nios2eds/bin/gnu/h-i686-mingw32/bin/../lib/gcc/nios2-elf/4.7.3/../../../../../H-i686-mingw32/nios2-elf/lib\libc.a(lib_a-fflush.o)
                                0x553 (size before relaxing)
 .debug_str     0x000011c4      0x10b d:/quartus13/nios2eds/bin/gnu/h-i686-mingw32/bin/../lib/gcc/nios2-elf/4.7.3/../../../../../H-i686-mingw32/nios2-elf/lib\libc.a(lib_a-findfp.o)
                                0x61f (size before relaxing)
 .debug_str     0x000012cf      0x183 d:/quartus13/nios2eds/bin/gnu/h-i686-mingw32/bin/../lib/gcc/nios2-elf/4.7.3/../../../../../H-i686-mingw32/nios2-elf/lib\libc.a(lib_a-freer.o)
                                0x67f (size before relaxing)
 .debug_str     0x00001452       0x6c d:/quartus13/nios2eds/bin/gnu/h-i686-mingw32/bin/../lib/gcc/nios2-elf/4.7.3/../../../../../H-i686-mingw32/nios2-elf/lib\libc.a(lib_a-fvwrite.o)
                                0x5b8 (size before relaxing)
 .debug_str     0x000014be       0x5e d:/quartus13/nios2eds/bin/gnu/h-i686-mingw32/bin/../lib/gcc/nios2-elf/4.7.3/../../../../../H-i686-mingw32/nios2-elf/lib\libc.a(lib_a-fwalk.o)
                                0x567 (size before relaxing)
 .debug_str     0x0000151c       0xd4 d:/quartus13/nios2eds/bin/gnu/h-i686-mingw32/bin/../lib/gcc/nios2-elf/4.7.3/../../../../../H-i686-mingw32/nios2-elf/lib\libc.a(lib_a-impure.o)
                                0x526 (size before relaxing)
 .debug_str     0x000015f0      0x14c d:/quartus13/nios2eds/bin/gnu/h-i686-mingw32/bin/../lib/gcc/nios2-elf/4.7.3/../../../../../H-i686-mingw32/nios2-elf/lib\libc.a(lib_a-locale.o)
                                0x6bc (size before relaxing)
 .debug_str     0x0000173c      0x129 d:/quartus13/nios2eds/bin/gnu/h-i686-mingw32/bin/../lib/gcc/nios2-elf/4.7.3/../../../../../H-i686-mingw32/nios2-elf/lib\libc.a(lib_a-makebuf.o)
                                0x62f (size before relaxing)
 .debug_str     0x00001865       0xd9 d:/quartus13/nios2eds/bin/gnu/h-i686-mingw32/bin/../lib/gcc/nios2-elf/4.7.3/../../../../../H-i686-mingw32/nios2-elf/lib\libc.a(lib_a-mallocr.o)
                                0x735 (size before relaxing)
 .debug_str     0x0000193e       0x49 d:/quartus13/nios2eds/bin/gnu/h-i686-mingw32/bin/../lib/gcc/nios2-elf/4.7.3/../../../../../H-i686-mingw32/nios2-elf/lib\libc.a(lib_a-memchr.o)
                                0x197 (size before relaxing)
 .debug_str     0x00001987       0x62 d:/quartus13/nios2eds/bin/gnu/h-i686-mingw32/bin/../lib/gcc/nios2-elf/4.7.3/../../../../../H-i686-mingw32/nios2-elf/lib\libc.a(lib_a-memcpy.o)
                                0x126 (size before relaxing)
 .debug_str     0x000019e9       0x45 d:/quartus13/nios2eds/bin/gnu/h-i686-mingw32/bin/../lib/gcc/nios2-elf/4.7.3/../../../../../H-i686-mingw32/nios2-elf/lib\libc.a(lib_a-memmove.o)
                                0x1a9 (size before relaxing)
 .debug_str     0x00001a2e       0x3b d:/quartus13/nios2eds/bin/gnu/h-i686-mingw32/bin/../lib/gcc/nios2-elf/4.7.3/../../../../../H-i686-mingw32/nios2-elf/lib\libc.a(lib_a-memset.o)
                                0x18a (size before relaxing)
 .debug_str     0x00001a69       0xa5 d:/quartus13/nios2eds/bin/gnu/h-i686-mingw32/bin/../lib/gcc/nios2-elf/4.7.3/../../../../../H-i686-mingw32/nios2-elf/lib\libc.a(lib_a-mprec.o)
                                0x632 (size before relaxing)
 .debug_str     0x00001b0e       0x4e d:/quartus13/nios2eds/bin/gnu/h-i686-mingw32/bin/../lib/gcc/nios2-elf/4.7.3/../../../../../H-i686-mingw32/nios2-elf/lib\libc.a(lib_a-reallocr.o)
                                0x607 (size before relaxing)
 .debug_str     0x00001b5c       0xd6 d:/quartus13/nios2eds/bin/gnu/h-i686-mingw32/bin/../lib/gcc/nios2-elf/4.7.3/../../../../../H-i686-mingw32/nios2-elf/lib\libc.a(lib_a-s_isinfd.o)
                                0x1a1 (size before relaxing)
 .debug_str     0x00001c32       0x3d d:/quartus13/nios2eds/bin/gnu/h-i686-mingw32/bin/../lib/gcc/nios2-elf/4.7.3/../../../../../H-i686-mingw32/nios2-elf/lib\libc.a(lib_a-s_isnand.o)
                                0x1a1 (size before relaxing)
 .debug_str     0x00001c6f       0x43 d:/quartus13/nios2eds/bin/gnu/h-i686-mingw32/bin/../lib/gcc/nios2-elf/4.7.3/../../../../../H-i686-mingw32/nios2-elf/lib\libc.a(lib_a-sbrkr.o)
                                0x51c (size before relaxing)
 .debug_str     0x00001cb2       0x8e d:/quartus13/nios2eds/bin/gnu/h-i686-mingw32/bin/../lib/gcc/nios2-elf/4.7.3/../../../../../H-i686-mingw32/nios2-elf/lib\libc.a(lib_a-stdio.o)
                                0x570 (size before relaxing)
 .debug_str     0x00001d40       0x3b d:/quartus13/nios2eds/bin/gnu/h-i686-mingw32/bin/../lib/gcc/nios2-elf/4.7.3/../../../../../H-i686-mingw32/nios2-elf/lib\libc.a(lib_a-strcmp.o)
                                0x16f (size before relaxing)
 .debug_str     0x00001d7b       0x3a d:/quartus13/nios2eds/bin/gnu/h-i686-mingw32/bin/../lib/gcc/nios2-elf/4.7.3/../../../../../H-i686-mingw32/nios2-elf/lib\libc.a(lib_a-writer.o)
                                0x520 (size before relaxing)
 .debug_str     0x00001db5        0xf d:/quartus13/nios2eds/bin/gnu/h-i686-mingw32/bin/../lib/gcc/nios2-elf/4.7.3/../../../../../H-i686-mingw32/nios2-elf/lib\libc.a(lib_a-callocr.o)
                                0x55f (size before relaxing)
 .debug_str     0x00001dc4       0x3a d:/quartus13/nios2eds/bin/gnu/h-i686-mingw32/bin/../lib/gcc/nios2-elf/4.7.3/../../../../../H-i686-mingw32/nios2-elf/lib\libc.a(lib_a-closer.o)
                                0x510 (size before relaxing)
 .debug_str     0x00001dfe       0x4b d:/quartus13/nios2eds/bin/gnu/h-i686-mingw32/bin/../lib/gcc/nios2-elf/4.7.3/../../../../../H-i686-mingw32/nios2-elf/lib\libc.a(lib_a-fclose.o)
                                0x562 (size before relaxing)
 .debug_str     0x00001e49       0x46 d:/quartus13/nios2eds/bin/gnu/h-i686-mingw32/bin/../lib/gcc/nios2-elf/4.7.3/../../../../../H-i686-mingw32/nios2-elf/lib\libc.a(lib_a-fstatr.o)
                                0x603 (size before relaxing)
 .debug_str     0x00001e8f       0x3d d:/quartus13/nios2eds/bin/gnu/h-i686-mingw32/bin/../lib/gcc/nios2-elf/4.7.3/../../../../../H-i686-mingw32/nios2-elf/lib\libc.a(lib_a-int_errno.o)
                                0x16f (size before relaxing)
 .debug_str     0x00001ecc       0x42 d:/quartus13/nios2eds/bin/gnu/h-i686-mingw32/bin/../lib/gcc/nios2-elf/4.7.3/../../../../../H-i686-mingw32/nios2-elf/lib\libc.a(lib_a-isattyr.o)
                                0x513 (size before relaxing)
 .debug_str     0x00001f0e       0x40 d:/quartus13/nios2eds/bin/gnu/h-i686-mingw32/bin/../lib/gcc/nios2-elf/4.7.3/../../../../../H-i686-mingw32/nios2-elf/lib\libc.a(lib_a-lseekr.o)
                                0x524 (size before relaxing)
 .debug_str     0x00001f4e       0x39 d:/quartus13/nios2eds/bin/gnu/h-i686-mingw32/bin/../lib/gcc/nios2-elf/4.7.3/../../../../../H-i686-mingw32/nios2-elf/lib\libc.a(lib_a-readr.o)
                                0x51d (size before relaxing)
 .debug_str     0x00001f87       0x35 d:/quartus13/nios2eds/bin/gnu/h-i686-mingw32/bin/../lib/gcc/nios2-elf/4.7.3\libgcc.a(_udivdi3.o)
                                0x1f6 (size before relaxing)
 .debug_str     0x00001fbc        0xa d:/quartus13/nios2eds/bin/gnu/h-i686-mingw32/bin/../lib/gcc/nios2-elf/4.7.3\libgcc.a(_umoddi3.o)
                                0x1f6 (size before relaxing)
 .debug_str     0x00001fc6       0x35 d:/quartus13/nios2eds/bin/gnu/h-i686-mingw32/bin/../lib/gcc/nios2-elf/4.7.3\libgcc.a(_div_df.o)
                                0x26b (size before relaxing)
 .debug_str     0x00001ffb        0x8 d:/quartus13/nios2eds/bin/gnu/h-i686-mingw32/bin/../lib/gcc/nios2-elf/4.7.3\libgcc.a(_eq_df.o)
                                0x238 (size before relaxing)
 .debug_str     0x00002003        0x8 d:/quartus13/nios2eds/bin/gnu/h-i686-mingw32/bin/../lib/gcc/nios2-elf/4.7.3\libgcc.a(_ne_df.o)
                                0x238 (size before relaxing)
 .debug_str     0x0000200b        0x8 d:/quartus13/nios2eds/bin/gnu/h-i686-mingw32/bin/../lib/gcc/nios2-elf/4.7.3\libgcc.a(_gt_df.o)
                                0x238 (size before relaxing)
 .debug_str     0x00002013        0x8 d:/quartus13/nios2eds/bin/gnu/h-i686-mingw32/bin/../lib/gcc/nios2-elf/4.7.3\libgcc.a(_lt_df.o)
                                0x238 (size before relaxing)
 .debug_str     0x0000201b       0x14 d:/quartus13/nios2eds/bin/gnu/h-i686-mingw32/bin/../lib/gcc/nios2-elf/4.7.3\libgcc.a(_usi_to_df.o)
                                0x20a (size before relaxing)
 .debug_str     0x0000202f       0x7c d:/quartus13/nios2eds/bin/gnu/h-i686-mingw32/bin/../lib/gcc/nios2-elf/4.7.3\libgcc.a(lib2-divmod.o)
                                0x15b (size before relaxing)
 .debug_str     0x000020ab       0xd1 ../qsys_lcd_bsp/\libhal_bsp.a(alt_close.o)
                                0x1b4 (size before relaxing)
 .debug_str     0x0000217c       0x50 ../qsys_lcd_bsp/\libhal_bsp.a(alt_dev.o)
                                0x2ae (size before relaxing)
 .debug_str     0x000021cc       0x14 ../qsys_lcd_bsp/\libhal_bsp.a(alt_errno.o)
                                 0xee (size before relaxing)
 .debug_str     0x000021e0       0x14 ../qsys_lcd_bsp/\libhal_bsp.a(alt_fstat.o)
                                0x295 (size before relaxing)
 .debug_str     0x000021f4       0x15 ../qsys_lcd_bsp/\libhal_bsp.a(alt_isatty.o)
                                0x29d (size before relaxing)
 .debug_str     0x00002209       0x14 ../qsys_lcd_bsp/\libhal_bsp.a(alt_lseek.o)
                                0x1ba (size before relaxing)
 .debug_str     0x0000221d       0x44 ../qsys_lcd_bsp/\libhal_bsp.a(alt_main.o)
                                0x146 (size before relaxing)
 .debug_str     0x00002261       0x1a ../qsys_lcd_bsp/\libhal_bsp.a(alt_malloc_lock.o)
                                0x497 (size before relaxing)
 .debug_str     0x0000227b       0x13 ../qsys_lcd_bsp/\libhal_bsp.a(alt_read.o)
                                0x2a0 (size before relaxing)
 .debug_str     0x0000228e       0x28 ../qsys_lcd_bsp/\libhal_bsp.a(alt_release_fd.o)
                                0x188 (size before relaxing)
 .debug_str     0x000022b6       0x98 ../qsys_lcd_bsp/\libhal_bsp.a(alt_sbrk.o)
                                0x17d (size before relaxing)
 .debug_str     0x0000234e       0x27 ../qsys_lcd_bsp/\libhal_bsp.a(alt_usleep.o)
                                 0xf1 (size before relaxing)
 .debug_str     0x00002375       0x14 ../qsys_lcd_bsp/\libhal_bsp.a(alt_write.o)
                                0x2a1 (size before relaxing)
 .debug_str     0x00002389      0x2b5 ../qsys_lcd_bsp/\libhal_bsp.a(alt_sys_init.o)
                                0x488 (size before relaxing)
 .debug_str     0x0000263e      0x219 ../qsys_lcd_bsp/\libhal_bsp.a(altera_avalon_epcs_flash_controller.o)
                                0x4f0 (size before relaxing)
 .debug_str     0x00002857       0xac ../qsys_lcd_bsp/\libhal_bsp.a(altera_avalon_jtag_uart_fd.o)
                                0x34d (size before relaxing)
 .debug_str     0x00002903       0xd1 ../qsys_lcd_bsp/\libhal_bsp.a(altera_avalon_jtag_uart_init.o)
                                0x2e1 (size before relaxing)
 .debug_str     0x000029d4       0x4a ../qsys_lcd_bsp/\libhal_bsp.a(altera_avalon_jtag_uart_ioctl.o)
                                0x23c (size before relaxing)
 .debug_str     0x00002a1e       0x48 ../qsys_lcd_bsp/\libhal_bsp.a(altera_avalon_jtag_uart_read.o)
                                0x291 (size before relaxing)
 .debug_str     0x00002a66       0x4a ../qsys_lcd_bsp/\libhal_bsp.a(altera_avalon_jtag_uart_write.o)
                                0x292 (size before relaxing)
 .debug_str     0x00002ab0      0x171 ../qsys_lcd_bsp/\libhal_bsp.a(epcs_commands.o)
                                0x288 (size before relaxing)
 .debug_str     0x00002c21       0x5f ../qsys_lcd_bsp/\libhal_bsp.a(alt_alarm_start.o)
                                0x227 (size before relaxing)
 .debug_str     0x00002c80       0x42 ../qsys_lcd_bsp/\libhal_bsp.a(alt_busy_sleep.o)
                                0x114 (size before relaxing)
 .debug_str     0x00002cc2       0x34 ../qsys_lcd_bsp/\libhal_bsp.a(alt_dev_llist_insert.o)
                                0x175 (size before relaxing)
 .debug_str     0x00002cf6       0x48 ../qsys_lcd_bsp/\libhal_bsp.a(alt_do_ctors.o)
                                 0x85 (size before relaxing)
 .debug_str     0x00002d3e       0x4c ../qsys_lcd_bsp/\libhal_bsp.a(alt_do_dtors.o)
                                 0x84 (size before relaxing)
 .debug_str     0x00002d8a       0x3f ../qsys_lcd_bsp/\libhal_bsp.a(alt_flash_dev.o)
                                0x298 (size before relaxing)
 .debug_str     0x00002dc9       0xbd ../qsys_lcd_bsp/\libhal_bsp.a(alt_iic.o)
                                0x1e7 (size before relaxing)
 .debug_str     0x00002e86       0x4c ../qsys_lcd_bsp/\libhal_bsp.a(alt_iic_isr_register.o)
                                0x191 (size before relaxing)
 .debug_str     0x00002ed2       0x56 ../qsys_lcd_bsp/\libhal_bsp.a(alt_io_redirect.o)
                                0x2bf (size before relaxing)
 .debug_str     0x00002f28       0x3a ../qsys_lcd_bsp/\libhal_bsp.a(alt_irq_handler.o)
                                0x140 (size before relaxing)
 .debug_str     0x00002f62       0x17 ../qsys_lcd_bsp/\libhal_bsp.a(alt_irq_vars.o)
                                 0xef (size before relaxing)
 .debug_str     0x00002f79       0x29 ../qsys_lcd_bsp/\libhal_bsp.a(alt_open.o)
                                0x1f4 (size before relaxing)
 .debug_str     0x00002fa2       0x4a ../qsys_lcd_bsp/\libhal_bsp.a(alt_tick.o)
                                0x1fb (size before relaxing)
 .debug_str     0x00002fec       0x3b ../qsys_lcd_bsp/\libhal_bsp.a(altera_nios2_qsys_irq.o)
                                0x105 (size before relaxing)
 .debug_str     0x00003027       0x9b ../qsys_lcd_bsp/\libhal_bsp.a(altera_avalon_spi.o)
                                0x189 (size before relaxing)
 .debug_str     0x000030c2       0x24 ../qsys_lcd_bsp/\libhal_bsp.a(alt_find_dev.o)
                                0x195 (size before relaxing)
 .debug_str     0x000030e6       0x26 ../qsys_lcd_bsp/\libhal_bsp.a(alt_find_file.o)
                                0x1a3 (size before relaxing)
 .debug_str     0x0000310c       0x30 ../qsys_lcd_bsp/\libhal_bsp.a(alt_get_fd.o)
                                0x1c5 (size before relaxing)
 .debug_str     0x0000313c       0x7f d:/quartus13/nios2eds/bin/gnu/h-i686-mingw32/bin/../lib/gcc/nios2-elf/4.7.3/../../../../../H-i686-mingw32/nios2-elf/lib\libc.a(lib_a-atexit.o)
                                0x20f (size before relaxing)
 .debug_str     0x000031bb       0x4a d:/quartus13/nios2eds/bin/gnu/h-i686-mingw32/bin/../lib/gcc/nios2-elf/4.7.3/../../../../../H-i686-mingw32/nios2-elf/lib\libc.a(lib_a-exit.o)
                                0x52f (size before relaxing)
 .debug_str     0x00003205       0x3b d:/quartus13/nios2eds/bin/gnu/h-i686-mingw32/bin/../lib/gcc/nios2-elf/4.7.3/../../../../../H-i686-mingw32/nios2-elf/lib\libc.a(lib_a-memcmp.o)
                                0x176 (size before relaxing)
 .debug_str     0x00003240       0x3d d:/quartus13/nios2eds/bin/gnu/h-i686-mingw32/bin/../lib/gcc/nios2-elf/4.7.3/../../../../../H-i686-mingw32/nios2-elf/lib\libc.a(lib_a-__atexit.o)
                                0x573 (size before relaxing)
 .debug_str     0x0000327d       0x5c d:/quartus13/nios2eds/bin/gnu/h-i686-mingw32/bin/../lib/gcc/nios2-elf/4.7.3/../../../../../H-i686-mingw32/nios2-elf/lib\libc.a(lib_a-__call_atexit.o)
                                0x551 (size before relaxing)
 .debug_str     0x000032d9       0x2a ../qsys_lcd_bsp/\libhal_bsp.a(alt_exit.o)
                                 0xfa (size before relaxing)

.debug_loc      0x00000000    0x10de3
 *(.debug_loc)
 .debug_loc     0x00000000      0x581 obj/default/drive/mculcd.o
 .debug_loc     0x00000581       0x2c obj/default/qsys_lcd.o
 .debug_loc     0x000005ad       0x48 d:/quartus13/nios2eds/bin/gnu/h-i686-mingw32/bin/../lib/gcc/nios2-elf/4.7.3\libgcc.a(_fixunsdfsi.o)
 .debug_loc     0x000005f5      0x7a1 d:/quartus13/nios2eds/bin/gnu/h-i686-mingw32/bin/../lib/gcc/nios2-elf/4.7.3\libgcc.a(_addsub_df.o)
 .debug_loc     0x00000d96      0x3ba d:/quartus13/nios2eds/bin/gnu/h-i686-mingw32/bin/../lib/gcc/nios2-elf/4.7.3\libgcc.a(_mul_df.o)
 .debug_loc     0x00001150       0x70 d:/quartus13/nios2eds/bin/gnu/h-i686-mingw32/bin/../lib/gcc/nios2-elf/4.7.3\libgcc.a(_ge_df.o)
 .debug_loc     0x000011c0       0xd3 d:/quartus13/nios2eds/bin/gnu/h-i686-mingw32/bin/../lib/gcc/nios2-elf/4.7.3\libgcc.a(_si_to_df.o)
 .debug_loc     0x00001293       0xce d:/quartus13/nios2eds/bin/gnu/h-i686-mingw32/bin/../lib/gcc/nios2-elf/4.7.3\libgcc.a(_df_to_si.o)
 .debug_loc     0x00001361      0x15d d:/quartus13/nios2eds/bin/gnu/h-i686-mingw32/bin/../lib/gcc/nios2-elf/4.7.3\libgcc.a(_muldi3.o)
 .debug_loc     0x000014be      0x19a d:/quartus13/nios2eds/bin/gnu/h-i686-mingw32/bin/../lib/gcc/nios2-elf/4.7.3\libgcc.a(_clzsi2.o)
 .debug_loc     0x00001658      0x2ae d:/quartus13/nios2eds/bin/gnu/h-i686-mingw32/bin/../lib/gcc/nios2-elf/4.7.3\libgcc.a(_pack_df.o)
 .debug_loc     0x00001906      0x179 d:/quartus13/nios2eds/bin/gnu/h-i686-mingw32/bin/../lib/gcc/nios2-elf/4.7.3\libgcc.a(_unpack_df.o)
 .debug_loc     0x00001a7f       0x7c d:/quartus13/nios2eds/bin/gnu/h-i686-mingw32/bin/../lib/gcc/nios2-elf/4.7.3\libgcc.a(_fpcmp_parts_df.o)
 .debug_loc     0x00001afb       0xc4 d:/quartus13/nios2eds/bin/gnu/h-i686-mingw32/bin/../lib/gcc/nios2-elf/4.7.3\libgcc.a(_lshrdi3.o)
 .debug_loc     0x00001bbf       0xc4 d:/quartus13/nios2eds/bin/gnu/h-i686-mingw32/bin/../lib/gcc/nios2-elf/4.7.3\libgcc.a(_ashldi3.o)
 .debug_loc     0x00001c83      0x132 d:/quartus13/nios2eds/bin/gnu/h-i686-mingw32/bin/../lib/gcc/nios2-elf/4.7.3/../../../../../H-i686-mingw32/nios2-elf/lib\libc.a(lib_a-printf.o)
 .debug_loc     0x00001db5       0xd9 d:/quartus13/nios2eds/bin/gnu/h-i686-mingw32/bin/../lib/gcc/nios2-elf/4.7.3/../../../../../H-i686-mingw32/nios2-elf/lib\libc.a(lib_a-puts.o)
 .debug_loc     0x00001e8e       0x52 d:/quartus13/nios2eds/bin/gnu/h-i686-mingw32/bin/../lib/gcc/nios2-elf/4.7.3/../../../../../H-i686-mingw32/nios2-elf/lib\libc.a(lib_a-strlen.o)
 .debug_loc     0x00001ee0     0x2b6b d:/quartus13/nios2eds/bin/gnu/h-i686-mingw32/bin/../lib/gcc/nios2-elf/4.7.3/../../../../../H-i686-mingw32/nios2-elf/lib\libc.a(lib_a-vfprintf.o)
 .debug_loc     0x00004a4b       0xba d:/quartus13/nios2eds/bin/gnu/h-i686-mingw32/bin/../lib/gcc/nios2-elf/4.7.3/../../../../../H-i686-mingw32/nios2-elf/lib\libc.a(lib_a-wsetup.o)
 .debug_loc     0x00004b05     0x2286 d:/quartus13/nios2eds/bin/gnu/h-i686-mingw32/bin/../lib/gcc/nios2-elf/4.7.3/../../../../../H-i686-mingw32/nios2-elf/lib\libc.a(lib_a-dtoa.o)
 .debug_loc     0x00006d8b      0x259 d:/quartus13/nios2eds/bin/gnu/h-i686-mingw32/bin/../lib/gcc/nios2-elf/4.7.3/../../../../../H-i686-mingw32/nios2-elf/lib\libc.a(lib_a-fflush.o)
 .debug_loc     0x00006fe4      0x29c d:/quartus13/nios2eds/bin/gnu/h-i686-mingw32/bin/../lib/gcc/nios2-elf/4.7.3/../../../../../H-i686-mingw32/nios2-elf/lib\libc.a(lib_a-findfp.o)
 .debug_loc     0x00007280      0x668 d:/quartus13/nios2eds/bin/gnu/h-i686-mingw32/bin/../lib/gcc/nios2-elf/4.7.3/../../../../../H-i686-mingw32/nios2-elf/lib\libc.a(lib_a-freer.o)
 .debug_loc     0x000078e8      0x50c d:/quartus13/nios2eds/bin/gnu/h-i686-mingw32/bin/../lib/gcc/nios2-elf/4.7.3/../../../../../H-i686-mingw32/nios2-elf/lib\libc.a(lib_a-fvwrite.o)
 .debug_loc     0x00007df4      0x2ae d:/quartus13/nios2eds/bin/gnu/h-i686-mingw32/bin/../lib/gcc/nios2-elf/4.7.3/../../../../../H-i686-mingw32/nios2-elf/lib\libc.a(lib_a-fwalk.o)
 .debug_loc     0x000080a2      0x13e d:/quartus13/nios2eds/bin/gnu/h-i686-mingw32/bin/../lib/gcc/nios2-elf/4.7.3/../../../../../H-i686-mingw32/nios2-elf/lib\libc.a(lib_a-locale.o)
 .debug_loc     0x000081e0      0x16a d:/quartus13/nios2eds/bin/gnu/h-i686-mingw32/bin/../lib/gcc/nios2-elf/4.7.3/../../../../../H-i686-mingw32/nios2-elf/lib\libc.a(lib_a-makebuf.o)
 .debug_loc     0x0000834a      0xb50 d:/quartus13/nios2eds/bin/gnu/h-i686-mingw32/bin/../lib/gcc/nios2-elf/4.7.3/../../../../../H-i686-mingw32/nios2-elf/lib\libc.a(lib_a-mallocr.o)
 .debug_loc     0x00008e9a      0x239 d:/quartus13/nios2eds/bin/gnu/h-i686-mingw32/bin/../lib/gcc/nios2-elf/4.7.3/../../../../../H-i686-mingw32/nios2-elf/lib\libc.a(lib_a-memchr.o)
 .debug_loc     0x000090d3      0x1f2 d:/quartus13/nios2eds/bin/gnu/h-i686-mingw32/bin/../lib/gcc/nios2-elf/4.7.3/../../../../../H-i686-mingw32/nios2-elf/lib\libc.a(lib_a-memcpy.o)
 .debug_loc     0x000092c5      0x240 d:/quartus13/nios2eds/bin/gnu/h-i686-mingw32/bin/../lib/gcc/nios2-elf/4.7.3/../../../../../H-i686-mingw32/nios2-elf/lib\libc.a(lib_a-memmove.o)
 .debug_loc     0x00009505      0x1b7 d:/quartus13/nios2eds/bin/gnu/h-i686-mingw32/bin/../lib/gcc/nios2-elf/4.7.3/../../../../../H-i686-mingw32/nios2-elf/lib\libc.a(lib_a-memset.o)
 .debug_loc     0x000096bc     0x1b23 d:/quartus13/nios2eds/bin/gnu/h-i686-mingw32/bin/../lib/gcc/nios2-elf/4.7.3/../../../../../H-i686-mingw32/nios2-elf/lib\libc.a(lib_a-mprec.o)
 .debug_loc     0x0000b1df     0x1136 d:/quartus13/nios2eds/bin/gnu/h-i686-mingw32/bin/../lib/gcc/nios2-elf/4.7.3/../../../../../H-i686-mingw32/nios2-elf/lib\libc.a(lib_a-reallocr.o)
 .debug_loc     0x0000c315       0x88 d:/quartus13/nios2eds/bin/gnu/h-i686-mingw32/bin/../lib/gcc/nios2-elf/4.7.3/../../../../../H-i686-mingw32/nios2-elf/lib\libc.a(lib_a-s_isinfd.o)
 .debug_loc     0x0000c39d       0xa5 d:/quartus13/nios2eds/bin/gnu/h-i686-mingw32/bin/../lib/gcc/nios2-elf/4.7.3/../../../../../H-i686-mingw32/nios2-elf/lib\libc.a(lib_a-s_isnand.o)
 .debug_loc     0x0000c442       0x86 d:/quartus13/nios2eds/bin/gnu/h-i686-mingw32/bin/../lib/gcc/nios2-elf/4.7.3/../../../../../H-i686-mingw32/nios2-elf/lib\libc.a(lib_a-sbrkr.o)
 .debug_loc     0x0000c4c8      0x379 d:/quartus13/nios2eds/bin/gnu/h-i686-mingw32/bin/../lib/gcc/nios2-elf/4.7.3/../../../../../H-i686-mingw32/nios2-elf/lib\libc.a(lib_a-stdio.o)
 .debug_loc     0x0000c841       0xb0 d:/quartus13/nios2eds/bin/gnu/h-i686-mingw32/bin/../lib/gcc/nios2-elf/4.7.3/../../../../../H-i686-mingw32/nios2-elf/lib\libc.a(lib_a-strcmp.o)
 .debug_loc     0x0000c8f1       0xde d:/quartus13/nios2eds/bin/gnu/h-i686-mingw32/bin/../lib/gcc/nios2-elf/4.7.3/../../../../../H-i686-mingw32/nios2-elf/lib\libc.a(lib_a-writer.o)
 .debug_loc     0x0000c9cf      0x283 d:/quartus13/nios2eds/bin/gnu/h-i686-mingw32/bin/../lib/gcc/nios2-elf/4.7.3/../../../../../H-i686-mingw32/nios2-elf/lib\libc.a(lib_a-callocr.o)
 .debug_loc     0x0000cc52       0x86 d:/quartus13/nios2eds/bin/gnu/h-i686-mingw32/bin/../lib/gcc/nios2-elf/4.7.3/../../../../../H-i686-mingw32/nios2-elf/lib\libc.a(lib_a-closer.o)
 .debug_loc     0x0000ccd8      0x136 d:/quartus13/nios2eds/bin/gnu/h-i686-mingw32/bin/../lib/gcc/nios2-elf/4.7.3/../../../../../H-i686-mingw32/nios2-elf/lib\libc.a(lib_a-fclose.o)
 .debug_loc     0x0000ce0e       0xb2 d:/quartus13/nios2eds/bin/gnu/h-i686-mingw32/bin/../lib/gcc/nios2-elf/4.7.3/../../../../../H-i686-mingw32/nios2-elf/lib\libc.a(lib_a-fstatr.o)
 .debug_loc     0x0000cec0       0x86 d:/quartus13/nios2eds/bin/gnu/h-i686-mingw32/bin/../lib/gcc/nios2-elf/4.7.3/../../../../../H-i686-mingw32/nios2-elf/lib\libc.a(lib_a-isattyr.o)
 .debug_loc     0x0000cf46       0xde d:/quartus13/nios2eds/bin/gnu/h-i686-mingw32/bin/../lib/gcc/nios2-elf/4.7.3/../../../../../H-i686-mingw32/nios2-elf/lib\libc.a(lib_a-lseekr.o)
 .debug_loc     0x0000d024       0xde d:/quartus13/nios2eds/bin/gnu/h-i686-mingw32/bin/../lib/gcc/nios2-elf/4.7.3/../../../../../H-i686-mingw32/nios2-elf/lib\libc.a(lib_a-readr.o)
 .debug_loc     0x0000d102     0x10da d:/quartus13/nios2eds/bin/gnu/h-i686-mingw32/bin/../lib/gcc/nios2-elf/4.7.3\libgcc.a(_udivdi3.o)
 .debug_loc     0x0000e1dc     0x104d d:/quartus13/nios2eds/bin/gnu/h-i686-mingw32/bin/../lib/gcc/nios2-elf/4.7.3\libgcc.a(_umoddi3.o)
 .debug_loc     0x0000f229      0x25e d:/quartus13/nios2eds/bin/gnu/h-i686-mingw32/bin/../lib/gcc/nios2-elf/4.7.3\libgcc.a(_div_df.o)
 .debug_loc     0x0000f487       0x70 d:/quartus13/nios2eds/bin/gnu/h-i686-mingw32/bin/../lib/gcc/nios2-elf/4.7.3\libgcc.a(_eq_df.o)
 .debug_loc     0x0000f4f7       0x70 d:/quartus13/nios2eds/bin/gnu/h-i686-mingw32/bin/../lib/gcc/nios2-elf/4.7.3\libgcc.a(_ne_df.o)
 .debug_loc     0x0000f567       0x70 d:/quartus13/nios2eds/bin/gnu/h-i686-mingw32/bin/../lib/gcc/nios2-elf/4.7.3\libgcc.a(_gt_df.o)
 .debug_loc     0x0000f5d7       0x70 d:/quartus13/nios2eds/bin/gnu/h-i686-mingw32/bin/../lib/gcc/nios2-elf/4.7.3\libgcc.a(_lt_df.o)
 .debug_loc     0x0000f647      0x168 d:/quartus13/nios2eds/bin/gnu/h-i686-mingw32/bin/../lib/gcc/nios2-elf/4.7.3\libgcc.a(_usi_to_df.o)
 .debug_loc     0x0000f7af      0x338 d:/quartus13/nios2eds/bin/gnu/h-i686-mingw32/bin/../lib/gcc/nios2-elf/4.7.3\libgcc.a(lib2-divmod.o)
 .debug_loc     0x0000fae7       0x58 ../qsys_lcd_bsp/\libhal_bsp.a(alt_close.o)
 .debug_loc     0x0000fb3f       0x2c ../qsys_lcd_bsp/\libhal_bsp.a(alt_dev.o)
 .debug_loc     0x0000fb6b       0x58 ../qsys_lcd_bsp/\libhal_bsp.a(alt_fstat.o)
 .debug_loc     0x0000fbc3       0x59 ../qsys_lcd_bsp/\libhal_bsp.a(alt_isatty.o)
 .debug_loc     0x0000fc1c       0x58 ../qsys_lcd_bsp/\libhal_bsp.a(alt_lseek.o)
 .debug_loc     0x0000fc74       0x2c ../qsys_lcd_bsp/\libhal_bsp.a(alt_main.o)
 .debug_loc     0x0000fca0       0x58 ../qsys_lcd_bsp/\libhal_bsp.a(alt_malloc_lock.o)
 .debug_loc     0x0000fcf8       0x58 ../qsys_lcd_bsp/\libhal_bsp.a(alt_read.o)
 .debug_loc     0x0000fd50       0x2c ../qsys_lcd_bsp/\libhal_bsp.a(alt_release_fd.o)
 .debug_loc     0x0000fd7c       0x2c ../qsys_lcd_bsp/\libhal_bsp.a(alt_sbrk.o)
 .debug_loc     0x0000fda8       0x2c ../qsys_lcd_bsp/\libhal_bsp.a(alt_usleep.o)
 .debug_loc     0x0000fdd4       0x58 ../qsys_lcd_bsp/\libhal_bsp.a(alt_write.o)
 .debug_loc     0x0000fe2c       0x84 ../qsys_lcd_bsp/\libhal_bsp.a(alt_sys_init.o)
 .debug_loc     0x0000feb0      0x1b9 ../qsys_lcd_bsp/\libhal_bsp.a(altera_avalon_epcs_flash_controller.o)
 .debug_loc     0x00010069       0xb0 ../qsys_lcd_bsp/\libhal_bsp.a(altera_avalon_jtag_uart_fd.o)
 .debug_loc     0x00010119       0xb0 ../qsys_lcd_bsp/\libhal_bsp.a(altera_avalon_jtag_uart_init.o)
 .debug_loc     0x000101c9       0x2c ../qsys_lcd_bsp/\libhal_bsp.a(altera_avalon_jtag_uart_ioctl.o)
 .debug_loc     0x000101f5       0x2c ../qsys_lcd_bsp/\libhal_bsp.a(altera_avalon_jtag_uart_read.o)
 .debug_loc     0x00010221       0x2c ../qsys_lcd_bsp/\libhal_bsp.a(altera_avalon_jtag_uart_write.o)
 .debug_loc     0x0001024d      0x210 ../qsys_lcd_bsp/\libhal_bsp.a(epcs_commands.o)
 .debug_loc     0x0001045d       0x2c ../qsys_lcd_bsp/\libhal_bsp.a(alt_alarm_start.o)
 .debug_loc     0x00010489       0x2c ../qsys_lcd_bsp/\libhal_bsp.a(alt_busy_sleep.o)
 .debug_loc     0x000104b5       0x58 ../qsys_lcd_bsp/\libhal_bsp.a(alt_dev_llist_insert.o)
 .debug_loc     0x0001050d       0x2c ../qsys_lcd_bsp/\libhal_bsp.a(alt_do_ctors.o)
 .debug_loc     0x00010539       0x2c ../qsys_lcd_bsp/\libhal_bsp.a(alt_do_dtors.o)
 .debug_loc     0x00010565       0x58 ../qsys_lcd_bsp/\libhal_bsp.a(alt_flash_dev.o)
 .debug_loc     0x000105bd       0xb0 ../qsys_lcd_bsp/\libhal_bsp.a(alt_iic.o)
 .debug_loc     0x0001066d       0x2c ../qsys_lcd_bsp/\libhal_bsp.a(alt_iic_isr_register.o)
 .debug_loc     0x00010699       0x58 ../qsys_lcd_bsp/\libhal_bsp.a(alt_io_redirect.o)
 .debug_loc     0x000106f1       0x2c ../qsys_lcd_bsp/\libhal_bsp.a(alt_irq_handler.o)
 .debug_loc     0x0001071d       0x84 ../qsys_lcd_bsp/\libhal_bsp.a(alt_open.o)
 .debug_loc     0x000107a1       0x58 ../qsys_lcd_bsp/\libhal_bsp.a(alt_tick.o)
 .debug_loc     0x000107f9       0x2c ../qsys_lcd_bsp/\libhal_bsp.a(altera_nios2_qsys_irq.o)
 .debug_loc     0x00010825       0x2c ../qsys_lcd_bsp/\libhal_bsp.a(altera_avalon_spi.o)
 .debug_loc     0x00010851       0x2c ../qsys_lcd_bsp/\libhal_bsp.a(alt_find_dev.o)
 .debug_loc     0x0001087d       0x2c ../qsys_lcd_bsp/\libhal_bsp.a(alt_find_file.o)
 .debug_loc     0x000108a9       0x2c ../qsys_lcd_bsp/\libhal_bsp.a(alt_get_fd.o)
 .debug_loc     0x000108d5       0x2c d:/quartus13/nios2eds/bin/gnu/h-i686-mingw32/bin/../lib/gcc/nios2-elf/4.7.3/../../../../../H-i686-mingw32/nios2-elf/lib\libc.a(lib_a-atexit.o)
 .debug_loc     0x00010901       0x3e d:/quartus13/nios2eds/bin/gnu/h-i686-mingw32/bin/../lib/gcc/nios2-elf/4.7.3/../../../../../H-i686-mingw32/nios2-elf/lib\libc.a(lib_a-exit.o)
 .debug_loc     0x0001093f      0x103 d:/quartus13/nios2eds/bin/gnu/h-i686-mingw32/bin/../lib/gcc/nios2-elf/4.7.3/../../../../../H-i686-mingw32/nios2-elf/lib\libc.a(lib_a-memcmp.o)
 .debug_loc     0x00010a42      0x194 d:/quartus13/nios2eds/bin/gnu/h-i686-mingw32/bin/../lib/gcc/nios2-elf/4.7.3/../../../../../H-i686-mingw32/nios2-elf/lib\libc.a(lib_a-__atexit.o)
 .debug_loc     0x00010bd6      0x1e1 d:/quartus13/nios2eds/bin/gnu/h-i686-mingw32/bin/../lib/gcc/nios2-elf/4.7.3/../../../../../H-i686-mingw32/nios2-elf/lib\libc.a(lib_a-__call_atexit.o)
 .debug_loc     0x00010db7       0x2c ../qsys_lcd_bsp/\libhal_bsp.a(alt_exit.o)

.debug_macinfo
 *(.debug_macinfo)

.debug_weaknames
 *(.debug_weaknames)

.debug_funcnames
 *(.debug_funcnames)

.debug_typenames
 *(.debug_typenames)

.debug_varnames
 *(.debug_varnames)

.debug_alt_sim_info
                0x00000000       0x50
 *(.debug_alt_sim_info)
 .debug_alt_sim_info
                0x00000000       0x20 ../qsys_lcd_bsp//obj/HAL/src/crt0.o
 .debug_alt_sim_info
                0x00000020       0x30 ../qsys_lcd_bsp/\libhal_bsp.a(alt_busy_sleep.o)
                0x06000000                __alt_data_end = 0x6000000
                0x06000000                PROVIDE (__alt_stack_pointer, __alt_data_end)
                0x040d4440                PROVIDE (__alt_stack_limit, __alt_stack_base)
                0x040d4440                PROVIDE (__alt_heap_start, end)
                0x06000000                PROVIDE (__alt_heap_limit, 0x6000000)
OUTPUT(qsys_lcd.elf elf32-littlenios2)

.debug_ranges   0x00000000      0xa38
 .debug_ranges  0x00000000       0x38 d:/quartus13/nios2eds/bin/gnu/h-i686-mingw32/bin/../lib/gcc/nios2-elf/4.7.3\libgcc.a(_addsub_df.o)
 .debug_ranges  0x00000038       0x78 d:/quartus13/nios2eds/bin/gnu/h-i686-mingw32/bin/../lib/gcc/nios2-elf/4.7.3\libgcc.a(_mul_df.o)
 .debug_ranges  0x000000b0       0x30 d:/quartus13/nios2eds/bin/gnu/h-i686-mingw32/bin/../lib/gcc/nios2-elf/4.7.3\libgcc.a(_si_to_df.o)
 .debug_ranges  0x000000e0       0x30 d:/quartus13/nios2eds/bin/gnu/h-i686-mingw32/bin/../lib/gcc/nios2-elf/4.7.3\libgcc.a(_muldi3.o)
 .debug_ranges  0x00000110       0x28 d:/quartus13/nios2eds/bin/gnu/h-i686-mingw32/bin/../lib/gcc/nios2-elf/4.7.3\libgcc.a(_clzsi2.o)
 .debug_ranges  0x00000138       0x18 d:/quartus13/nios2eds/bin/gnu/h-i686-mingw32/bin/../lib/gcc/nios2-elf/4.7.3\libgcc.a(_pack_df.o)
 .debug_ranges  0x00000150      0x150 d:/quartus13/nios2eds/bin/gnu/h-i686-mingw32/bin/../lib/gcc/nios2-elf/4.7.3/../../../../../H-i686-mingw32/nios2-elf/lib\libc.a(lib_a-vfprintf.o)
 .debug_ranges  0x000002a0       0x20 d:/quartus13/nios2eds/bin/gnu/h-i686-mingw32/bin/../lib/gcc/nios2-elf/4.7.3/../../../../../H-i686-mingw32/nios2-elf/lib\libc.a(lib_a-fflush.o)
 .debug_ranges  0x000002c0       0x18 d:/quartus13/nios2eds/bin/gnu/h-i686-mingw32/bin/../lib/gcc/nios2-elf/4.7.3/../../../../../H-i686-mingw32/nios2-elf/lib\libc.a(lib_a-fvwrite.o)
 .debug_ranges  0x000002d8       0x80 d:/quartus13/nios2eds/bin/gnu/h-i686-mingw32/bin/../lib/gcc/nios2-elf/4.7.3/../../../../../H-i686-mingw32/nios2-elf/lib\libc.a(lib_a-fwalk.o)
 .debug_ranges  0x00000358       0x70 d:/quartus13/nios2eds/bin/gnu/h-i686-mingw32/bin/../lib/gcc/nios2-elf/4.7.3/../../../../../H-i686-mingw32/nios2-elf/lib\libc.a(lib_a-mallocr.o)
 .debug_ranges  0x000003c8       0x40 d:/quartus13/nios2eds/bin/gnu/h-i686-mingw32/bin/../lib/gcc/nios2-elf/4.7.3/../../../../../H-i686-mingw32/nios2-elf/lib\libc.a(lib_a-mprec.o)
 .debug_ranges  0x00000408      0x158 d:/quartus13/nios2eds/bin/gnu/h-i686-mingw32/bin/../lib/gcc/nios2-elf/4.7.3/../../../../../H-i686-mingw32/nios2-elf/lib\libc.a(lib_a-reallocr.o)
 .debug_ranges  0x00000560       0x48 d:/quartus13/nios2eds/bin/gnu/h-i686-mingw32/bin/../lib/gcc/nios2-elf/4.7.3/../../../../../H-i686-mingw32/nios2-elf/lib\libc.a(lib_a-callocr.o)
 .debug_ranges  0x000005a8      0x1a0 d:/quartus13/nios2eds/bin/gnu/h-i686-mingw32/bin/../lib/gcc/nios2-elf/4.7.3\libgcc.a(_udivdi3.o)
 .debug_ranges  0x00000748      0x160 d:/quartus13/nios2eds/bin/gnu/h-i686-mingw32/bin/../lib/gcc/nios2-elf/4.7.3\libgcc.a(_umoddi3.o)
 .debug_ranges  0x000008a8       0x50 d:/quartus13/nios2eds/bin/gnu/h-i686-mingw32/bin/../lib/gcc/nios2-elf/4.7.3\libgcc.a(_div_df.o)
 .debug_ranges  0x000008f8       0x48 d:/quartus13/nios2eds/bin/gnu/h-i686-mingw32/bin/../lib/gcc/nios2-elf/4.7.3\libgcc.a(_usi_to_df.o)
 .debug_ranges  0x00000940       0x30 ../qsys_lcd_bsp/\libhal_bsp.a(altera_avalon_jtag_uart_init.o)
 .debug_ranges  0x00000970       0x18 ../qsys_lcd_bsp/\libhal_bsp.a(altera_avalon_jtag_uart_read.o)
 .debug_ranges  0x00000988       0x30 ../qsys_lcd_bsp/\libhal_bsp.a(alt_iic.o)
 .debug_ranges  0x000009b8       0x28 ../qsys_lcd_bsp/\libhal_bsp.a(alt_irq_entry.o)
 .debug_ranges  0x000009e0       0x10 ../qsys_lcd_bsp/\libhal_bsp.a(alt_irq_handler.o)
 .debug_ranges  0x000009f0       0x30 ../qsys_lcd_bsp/\libhal_bsp.a(alt_exception_entry.o)
 .debug_ranges  0x00000a20       0x18 d:/quartus13/nios2eds/bin/gnu/h-i686-mingw32/bin/../lib/gcc/nios2-elf/4.7.3/../../../../../H-i686-mingw32/nios2-elf/lib\libc.a(lib_a-__call_atexit.o)
