
lcd_init.elf:     file format elf32-littlenios2
lcd_init.elf
architecture: nios2, flags 0x00000112:
EXEC_P, HAS_SYMS, D_PAGED
start address 0x020001b8

Program Header:
    LOAD off    0x00001020 vaddr 0x02000020 paddr 0x02000020 align 2**12
         filesz 0x00013a00 memsz 0x00013d08 flags rwx
    LOAD off    0x00015000 vaddr 0x04001000 paddr 0x04001000 align 2**12
         filesz 0x00000000 memsz 0x00000000 flags r-x

Sections:
Idx Name          Size      VMA       LMA       File off  Algn
  0 .entry        00000000  04001000  04001000  00015000  2**5
                  CONTENTS, ALLOC, LOAD, READONLY, CODE
  1 .exceptions   00000198  02000020  02000020  00001020  2**2
                  CONTENTS, ALLOC, LOAD, READONLY, CODE
  2 .text         000119fc  020001b8  020001b8  000011b8  2**2
                  CONTENTS, ALLOC, LOAD, READONLY, CODE
  3 .rodata       0000033c  02011bb4  02011bb4  00012bb4  2**2
                  CONTENTS, ALLOC, LOAD, READONLY, DATA
  4 .rwdata       00001b30  02011ef0  02011ef0  00012ef0  2**2
                  CONTENTS, ALLOC, LOAD, DATA, SMALL_DATA
  5 .bss          00000308  02013a20  02013a20  00014a20  2**2
                  ALLOC, SMALL_DATA
  6 .comment      00000023  00000000  00000000  00015000  2**0
                  CONTENTS, READONLY
  7 .debug_aranges 00000d78  00000000  00000000  00015028  2**3
                  CONTENTS, READONLY, DEBUGGING
  8 .debug_info   0002383e  00000000  00000000  00015da0  2**0
                  CONTENTS, READONLY, DEBUGGING
  9 .debug_abbrev 0000911a  00000000  00000000  000395de  2**0
                  CONTENTS, READONLY, DEBUGGING
 10 .debug_line   0000aa2b  00000000  00000000  000426f8  2**0
                  CONTENTS, READONLY, DEBUGGING
 11 .debug_frame  00001cd4  00000000  00000000  0004d124  2**2
                  CONTENTS, READONLY, DEBUGGING
 12 .debug_str    0000325a  00000000  00000000  0004edf8  2**0
                  CONTENTS, READONLY, DEBUGGING
 13 .debug_loc    00010c5a  00000000  00000000  00052052  2**0
                  CONTENTS, READONLY, DEBUGGING
 14 .debug_alt_sim_info 00000050  00000000  00000000  00062cac  2**2
                  CONTENTS, READONLY, DEBUGGING
 15 .debug_ranges 00000a38  00000000  00000000  00062d00  2**3
                  CONTENTS, READONLY, DEBUGGING
 16 .thread_model 00000003  00000000  00000000  00066b3f  2**0
                  CONTENTS, READONLY
 17 .cpu          0000000a  00000000  00000000  00066b42  2**0
                  CONTENTS, READONLY
 18 .qsys         00000001  00000000  00000000  00066b4c  2**0
                  CONTENTS, READONLY
 19 .simulation_enabled 00000001  00000000  00000000  00066b4d  2**0
                  CONTENTS, READONLY
 20 .stderr_dev   00000009  00000000  00000000  00066b4e  2**0
                  CONTENTS, READONLY
 21 .stdin_dev    00000009  00000000  00000000  00066b57  2**0
                  CONTENTS, READONLY
 22 .stdout_dev   00000009  00000000  00000000  00066b60  2**0
                  CONTENTS, READONLY
 23 .sopc_system_name 00000004  00000000  00000000  00066b69  2**0
                  CONTENTS, READONLY
 24 .quartus_project_dir 00000027  00000000  00000000  00066b6d  2**0
                  CONTENTS, READONLY
 25 .sopcinfo     0006f7fc  00000000  00000000  00066b94  2**0
                  CONTENTS, READONLY
SYMBOL TABLE:
04001000 l    d  .entry	00000000 .entry
02000020 l    d  .exceptions	00000000 .exceptions
020001b8 l    d  .text	00000000 .text
02011bb4 l    d  .rodata	00000000 .rodata
02011ef0 l    d  .rwdata	00000000 .rwdata
02013a20 l    d  .bss	00000000 .bss
00000000 l    d  .comment	00000000 .comment
00000000 l    d  .debug_aranges	00000000 .debug_aranges
00000000 l    d  .debug_info	00000000 .debug_info
00000000 l    d  .debug_abbrev	00000000 .debug_abbrev
00000000 l    d  .debug_line	00000000 .debug_line
00000000 l    d  .debug_frame	00000000 .debug_frame
00000000 l    d  .debug_str	00000000 .debug_str
00000000 l    d  .debug_loc	00000000 .debug_loc
00000000 l    d  .debug_alt_sim_info	00000000 .debug_alt_sim_info
00000000 l    d  .debug_ranges	00000000 .debug_ranges
00000000 l    df *ABS*	00000000 F:/project/ov5640_mcu_lcd/qsys/software/lcd_init_bsp//obj/HAL/src/crt0.o
020001fc l       .text	00000000 alt_after_alt_main
00000000 l    df *ABS*	00000000 alt_exception_entry.o
02000094 l       .exceptions	00000000 alt_exception_unknown
00000000 l    df *ABS*	00000000 alt_irq_handler.c
00000000 l    df *ABS*	00000000 mculcd.c
00000000 l    df *ABS*	00000000 lcd_init.c
00000000 l    df *ABS*	00000000 libgcc2.c
00000000 l    df *ABS*	00000000 fp-bit.c
02005090 l     F .text	00000354 _fpadd_parts
00000000 l    df *ABS*	00000000 fp-bit.c
00000000 l    df *ABS*	00000000 fp-bit.c
00000000 l    df *ABS*	00000000 fp-bit.c
00000000 l    df *ABS*	00000000 fp-bit.c
00000000 l    df *ABS*	00000000 fp-bit.c
00000000 l    df *ABS*	00000000 libgcc2.c
00000000 l    df *ABS*	00000000 libgcc2.c
00000000 l    df *ABS*	00000000 fp-bit.c
00000000 l    df *ABS*	00000000 fp-bit.c
00000000 l    df *ABS*	00000000 fp-bit.c
00000000 l    df *ABS*	00000000 libgcc2.c
00000000 l    df *ABS*	00000000 libgcc2.c
00000000 l    df *ABS*	00000000 libgcc2.c
00000000 l    df *ABS*	00000000 printf.c
00000000 l    df *ABS*	00000000 vfprintf.c
02005f7c l     F .text	00000034 __sprint_r
02011d1a l     O .rodata	00000010 blanks.3515
02011d2a l     O .rodata	00000010 zeroes.3516
00000000 l    df *ABS*	00000000 wsetup.c
00000000 l    df *ABS*	00000000 dtoa.c
02007f40 l     F .text	00000208 quorem
00000000 l    df *ABS*	00000000 fflush.c
00000000 l    df *ABS*	00000000 findfp.c
0200997c l     F .text	00000008 __fp_lock
02009984 l     F .text	00000008 __fp_unlock
00000000 l    df *ABS*	00000000 mallocr.c
00000000 l    df *ABS*	00000000 fvwrite.c
00000000 l    df *ABS*	00000000 fwalk.c
00000000 l    df *ABS*	00000000 impure.c
02011ef0 l     O .rwdata	00000400 impure_data
00000000 l    df *ABS*	00000000 locale.c
02011d60 l     O .rodata	00000030 lconv
00000000 l    df *ABS*	00000000 makebuf.c
00000000 l    df *ABS*	00000000 mallocr.c
00000000 l    df *ABS*	00000000 memchr.c
00000000 l    df *ABS*	00000000 memcpy.c
00000000 l    df *ABS*	00000000 memmove.c
00000000 l    df *ABS*	00000000 memset.c
00000000 l    df *ABS*	00000000 mprec.c
02011ea8 l     O .rodata	0000000c p05.2435
00000000 l    df *ABS*	00000000 mallocr.c
00000000 l    df *ABS*	00000000 s_isinfd.c
00000000 l    df *ABS*	00000000 s_isnand.c
00000000 l    df *ABS*	00000000 sbrkr.c
00000000 l    df *ABS*	00000000 stdio.c
00000000 l    df *ABS*	00000000 strcmp.c
00000000 l    df *ABS*	00000000 strlen.c
00000000 l    df *ABS*	00000000 writer.c
00000000 l    df *ABS*	00000000 mallocr.c
00000000 l    df *ABS*	00000000 closer.c
00000000 l    df *ABS*	00000000 fclose.c
00000000 l    df *ABS*	00000000 fstatr.c
00000000 l    df *ABS*	00000000 int_errno.c
00000000 l    df *ABS*	00000000 isattyr.c
00000000 l    df *ABS*	00000000 lseekr.c
00000000 l    df *ABS*	00000000 readr.c
00000000 l    df *ABS*	00000000 libgcc2.c
00000000 l    df *ABS*	00000000 libgcc2.c
00000000 l    df *ABS*	00000000 fp-bit.c
00000000 l    df *ABS*	00000000 fp-bit.c
00000000 l    df *ABS*	00000000 fp-bit.c
00000000 l    df *ABS*	00000000 fp-bit.c
00000000 l    df *ABS*	00000000 fp-bit.c
00000000 l    df *ABS*	00000000 fp-bit.c
00000000 l    df *ABS*	00000000 lib2-divmod.c
0200e198 l     F .text	00000074 udivmodsi4
00000000 l    df *ABS*	00000000 alt_close.c
0200e2c8 l     F .text	00000050 alt_get_errno
00000000 l    df *ABS*	00000000 alt_dev.c
0200e3e0 l     F .text	0000002c alt_dev_null_write
00000000 l    df *ABS*	00000000 alt_errno.c
00000000 l    df *ABS*	00000000 alt_fstat.c
0200e40c l     F .text	00000050 alt_get_errno
00000000 l    df *ABS*	00000000 alt_isatty.c
0200e508 l     F .text	00000050 alt_get_errno
00000000 l    df *ABS*	00000000 alt_lseek.c
0200e5f8 l     F .text	00000050 alt_get_errno
00000000 l    df *ABS*	00000000 alt_main.c
00000000 l    df *ABS*	00000000 alt_malloc_lock.c
00000000 l    df *ABS*	00000000 alt_read.c
0200e7d0 l     F .text	00000050 alt_get_errno
00000000 l    df *ABS*	00000000 alt_release_fd.c
00000000 l    df *ABS*	00000000 alt_sbrk.c
02013a08 l     O .rwdata	00000004 heap_end
00000000 l    df *ABS*	00000000 alt_usleep.c
00000000 l    df *ABS*	00000000 alt_write.c
0200ea50 l     F .text	00000050 alt_get_errno
00000000 l    df *ABS*	00000000 alt_sys_init.c
0200eb8c l     F .text	00000038 alt_dev_reg
020128ac l     O .rwdata	000000c8 epcs_flash
02012974 l     O .rwdata	00001060 jtag_uart
00000000 l    df *ABS*	00000000 altera_avalon_epcs_flash_controller.c
0200ec48 l     F .text	00000038 alt_flash_device_register
0200ecd4 l     F .text	0000028c alt_epcs_flash_query
0200ef60 l     F .text	000000e8 alt_epcs_flash_memcmp
0200f334 l     F .text	00000094 alt_epcs_test_address
00000000 l    df *ABS*	00000000 altera_avalon_jtag_uart_fd.c
00000000 l    df *ABS*	00000000 altera_avalon_jtag_uart_init.c
0200f7fc l     F .text	00000204 altera_avalon_jtag_uart_irq
0200fa00 l     F .text	000000a4 altera_avalon_jtag_uart_timeout
00000000 l    df *ABS*	00000000 altera_avalon_jtag_uart_ioctl.c
00000000 l    df *ABS*	00000000 altera_avalon_jtag_uart_read.c
00000000 l    df *ABS*	00000000 altera_avalon_jtag_uart_write.c
00000000 l    df *ABS*	00000000 epcs_commands.c
02010098 l     F .text	00000038 epcs_test_wip
020100d0 l     F .text	00000038 epcs_await_wip_released
00000000 l    df *ABS*	00000000 alt_alarm_start.c
00000000 l    df *ABS*	00000000 alt_busy_sleep.c
00000000 l    df *ABS*	00000000 alt_dev_llist_insert.c
020108f4 l     F .text	00000050 alt_get_errno
00000000 l    df *ABS*	00000000 alt_do_ctors.c
00000000 l    df *ABS*	00000000 alt_do_dtors.c
00000000 l    df *ABS*	00000000 alt_flash_dev.c
00000000 l    df *ABS*	00000000 alt_iic.c
00000000 l    df *ABS*	00000000 alt_iic_isr_register.c
00000000 l    df *ABS*	00000000 alt_io_redirect.c
02010e1c l     F .text	000000c0 alt_open_fd
00000000 l    df *ABS*	00000000 alt_irq_vars.c
00000000 l    df *ABS*	00000000 alt_open.c
02010f54 l     F .text	00000050 alt_get_errno
02010fa4 l     F .text	000000cc alt_file_locked
00000000 l    df *ABS*	00000000 alt_tick.c
00000000 l    df *ABS*	00000000 altera_nios2_qsys_irq.c
00000000 l    df *ABS*	00000000 altera_avalon_spi.c
00000000 l    df *ABS*	00000000 alt_find_dev.c
00000000 l    df *ABS*	00000000 alt_find_file.c
00000000 l    df *ABS*	00000000 alt_get_fd.c
00000000 l    df *ABS*	00000000 atexit.c
00000000 l    df *ABS*	00000000 exit.c
00000000 l    df *ABS*	00000000 memcmp.c
00000000 l    df *ABS*	00000000 __atexit.c
00000000 l    df *ABS*	00000000 __call_atexit.c
00000000 l    df *ABS*	00000000 alt_exit.c
00000000 l    df *ABS*	00000000 
0200c2d4 g     F .text	00000074 _mprec_log10
0200f2a8 g     F .text	0000008c alt_epcs_flash_get_info
0200c3c4 g     F .text	00000084 __any_on
0200d0c0 g     F .text	00000064 _isatty_r
02011d90 g     O .rodata	00000028 __mprec_tinytens
02000fc4 g     F .text	00000048 LCD_DrawPoint
0200e718 g     F .text	00000078 alt_main
02005ed0 g     F .text	00000044 __ashldi3
02013a98 g     O .bss	00000100 alt_irq
0200d124 g     F .text	0000006c _lseek_r
0200df04 g     F .text	0000005c __eqdf2
020139d8 g     O .rwdata	00000004 BACK_COLOR
02013d28 g       *ABS*	00000000 __alt_heap_start
02005f40 g     F .text	0000003c printf
0200cbe8 g     F .text	0000005c __sseek
02009a0c g     F .text	0000010c __sinit
0200a6a4 g     F .text	0000009c _setlocale_r
02009998 g     F .text	00000064 __sfmoreglue
0200e7b0 g     F .text	00000020 __malloc_unlock
0200b29c g     F .text	00000128 memmove
020099fc g     F .text	00000010 _cleanup
0200b4a0 g     F .text	000000a8 _Balloc
04001000 g       *ABS*	00000000 __alt_mem_epcs_flash
0200dfbc g     F .text	00000064 __gtdf2
02000648 g     F .text	00000088 LCD_DisplayOn
00000000  w      *UND*	00000000 __errno
02010108 g     F .text	000000f8 epcs_sector_erase
04001000 g     F .entry	00000000 __reset
02001a40 g     F .text	00002e58 MCULCD_Init
02004898 g     F .text	0000008c LCD_Clear
0200d058 g     F .text	00000068 _fstat_r
02013a38 g     O .bss	00000004 errno
020139d4 g     O .rwdata	00000004 POINT_COLOR
02013a40 g     O .bss	00000004 alt_argv
0201b9d4 g       *ABS*	00000000 _gp
0200ea20 g     F .text	00000030 usleep
02000a2c g     F .text	00000598 LCD_Scan_Dir
0201272c g     O .rwdata	00000180 alt_fd_list
02001288 g     F .text	000000b0 LCD_SSD_BackLightSet
02010344 g     F .text	00000068 epcs_write_status_register
02011588 g     F .text	00000090 alt_find_dev
0200b1a4 g     F .text	000000f8 memcpy
0200998c g     F .text	0000000c _cleanup_r
020057e0 g     F .text	000000d4 __floatsidf
02010edc g     F .text	00000078 alt_io_redirect
0200e020 g     F .text	0000005c __ltdf2
02000424 g     F .text	00000038 LCD_WriteRAM_Prepare
02011bb4 g       *ABS*	00000000 __DTOR_END__
0200f43c g     F .text	00000104 alt_epcs_flash_write_block
0200c230 g     F .text	000000a4 __ratio
0200fc00 g     F .text	00000218 altera_avalon_jtag_uart_read
02004ab4 g     F .text	000001b0 LCD_DrawLine
00000000  w      *UND*	00000000 malloc
02005f14 g     F .text	0000002c _printf_r
0200e2b8 g     F .text	00000008 __udivsi3
0200e558 g     F .text	000000a0 isatty
02011de0 g     O .rodata	000000c8 __mprec_tens
0200a740 g     F .text	0000000c __locale_charset
0200500c g     F .text	00000084 __fixunsdfsi
02013a34 g     O .bss	00000004 __malloc_top_pad
020006d0 g     F .text	00000088 LCD_DisplayOff
020139e4 g     O .rwdata	00000004 __mb_cur_max
0200a74c g     F .text	0000000c _localeconv_r
0200b8a0 g     F .text	0000003c __i2b
0200a060 g     F .text	000004e4 __sfvwrite_r
0200caa8 g     F .text	00000064 _sbrk_r
02000238 g     F .text	00000070 LCD_WR_CMD
0200d190 g     F .text	0000006c _read_r
020122f0 g     O .rwdata	0000000c __lc_ctype
02013a00 g     O .rwdata	00000004 alt_max_fd
02005cb8 g     F .text	00000104 __unpack_d
0200cf08 g     F .text	0000013c _fclose_r
0200994c g     F .text	00000030 fflush
02013a30 g     O .bss	00000004 __malloc_max_sbrked_mem
0200168c g     F .text	000003b4 LCD_Set_Window
020053e4 g     F .text	00000054 __adddf3
0200f3c8 g     F .text	00000074 alt_epcs_flash_erase_block
0200bfa4 g     F .text	00000148 __b2d
0200d7c4 g     F .text	0000058c __umoddi3
0200e648 g     F .text	000000d0 lseek
020139dc g     O .rwdata	00000004 _global_impure_ptr
02010608 g     F .text	00000058 epcs_exit_4_bytes_mode
0200c448 g     F .text	000005fc _realloc_r
02013d28 g       *ABS*	00000000 __bss_end
02010d2c g     F .text	000000f0 alt_iic_isr_register
0201125c g     F .text	00000104 alt_tick
0200d1fc g     F .text	000005c8 __udivdi3
02011db8 g     O .rodata	00000028 __mprec_bigtens
0200b684 g     F .text	00000104 __s2b
0200e07c g     F .text	0000011c __floatunsidf
0200bd44 g     F .text	00000058 __mcmp
02009c24 g     F .text	00000018 __fp_lock_all
02010ce0 g     F .text	0000004c alt_ic_irq_enabled
020111c4 g     F .text	00000098 alt_alarm_stop
02013a48 g     O .bss	00000004 alt_irq_active
020000ec g     F .exceptions	000000cc alt_irq_handler
02012704 g     O .rwdata	00000028 alt_dev_null
0200b788 g     F .text	00000068 __hi0bits
020058b4 g     F .text	000000d4 __fixdfsi
020004fc g     F .text	0000014c LCD_ReadPoint
020002a8 g     F .text	00000070 LCD_WR_DATA
020139f8 g     O .rwdata	00000008 alt_dev_list
0200eaa0 g     F .text	000000ec write
0200e45c g     F .text	000000ac fstat
02005e8c g     F .text	00000044 __lshrdi3
0200babc g     F .text	0000012c __pow5mult
02013a28 g     O .bss	00000004 __nlocale_changed
0200e2c0 g     F .text	00000008 __umodsi3
020104c8 g     F .text	00000068 epcs_read_electronic_signature
02013d28 g       *ABS*	00000000 end
0200f73c g     F .text	000000c0 altera_avalon_jtag_uart_init
02011bb4 g       *ABS*	00000000 __CTOR_LIST__
04000000 g       *ABS*	00000000 __alt_stack_pointer
020059e8 g     F .text	000000ac __clzsi2
0200fe18 g     F .text	00000224 altera_avalon_jtag_uart_write
02001338 g     F .text	00000354 LCD_Display_Dir
02009c14 g     F .text	00000004 __sfp_lock_acquire
0200b0ac g     F .text	000000f8 memchr
02005fb0 g     F .text	00001df8 ___vfprintf_internal_r
02009d90 g     F .text	000002d0 _free_r
02000758 g     F .text	000002d4 LCD_SetCursor
020119d8 g     F .text	000001a0 __call_exitprocs
02013a24 g     O .bss	00000004 __mlocale_changed
020139e8 g     O .rwdata	00000004 __malloc_sbrk_base
020001b8 g     F .text	00000048 _start
02013a4c g     O .bss	00000004 _alt_tick_rate
0200bbe8 g     F .text	0000015c __lshift
02011380 g     F .text	00000208 alt_avalon_spi_command
02013a50 g     O .bss	00000004 _alt_nticks
0200e820 g     F .text	000000f0 read
0200ebf8 g     F .text	00000050 alt_sys_init
020118a8 g     F .text	00000130 __register_exitproc
0200b8dc g     F .text	000001e0 __multiply
0200faa4 g     F .text	00000068 altera_avalon_jtag_uart_close
02013a54 g     O .bss	00000028 __malloc_current_mallinfo
0200c0ec g     F .text	00000144 __d2b
0201003c g     F .text	0000005c epcs_read_status_register
0200f5d8 g     F .text	00000060 altera_avalon_jtag_uart_read_fd
0201172c g     F .text	000000b4 alt_get_fd
020107a0 g     F .text	00000154 alt_busy_sleep
02005dbc g     F .text	000000d0 __fpcmp_parts_d
0200cea4 g     F .text	00000064 _close_r
02010530 g     F .text	00000080 epcs_read_device_id
0201182c g     F .text	0000007c memcmp
0200f698 g     F .text	00000050 altera_avalon_jtag_uart_close_fd
02013d28 g       *ABS*	00000000 __alt_stack_base
0200f6e8 g     F .text	00000054 altera_avalon_jtag_uart_ioctl_fd
02007dcc g     F .text	00000174 __swsetup_r
0200dd50 g     F .text	000001b4 __divdf3
02009b18 g     F .text	000000fc __sfp
0200c348 g     F .text	0000007c __copybits
020122fc g     O .rwdata	00000408 __malloc_av_
02009c20 g     F .text	00000004 __sinit_lock_release
02005498 g     F .text	000002e4 __muldf3
0200cb0c g     F .text	00000054 __sread
02011618 g     F .text	00000114 alt_find_file
02010944 g     F .text	000000a0 alt_dev_llist_insert
0200e790 g     F .text	00000020 __malloc_lock
0200e970 g     F .text	000000b0 sbrk
02009764 g     F .text	000001e8 _fflush_r
0200cde8 g     F .text	000000bc _calloc_r
02013a0c g     O .rwdata	00000008 alt_flash_dev_list
02013a20 g       *ABS*	00000000 __bss_start
0200b3c4 g     F .text	000000dc memset
02004fe0 g     F .text	0000002c main
02000200 g     F .text	00000038 delay_ms
02013a44 g     O .bss	00000004 alt_envp
02013a2c g     O .bss	00000004 __malloc_max_total_mem
0200f638 g     F .text	00000060 altera_avalon_jtag_uart_write_fd
020049cc g     F .text	000000e8 LCD_Color_Fill
0200045c g     F .text	00000030 LCD_WriteRAM
0200cc44 g     F .text	00000008 __sclose
04000000 g       *ABS*	00000000 __alt_heap_limit
0200d044 g     F .text	00000014 fclose
02013b98 g     O .bss	00000190 _atexit0
02008148 g     F .text	0000161c _dtoa_r
0200a928 g     F .text	00000784 _malloc_r
02013a04 g     O .rwdata	00000004 alt_errno
0200a544 g     F .text	000000a8 _fwalk
0200100c g     F .text	0000027c LCD_Fast_DrawPoint
0200e20c g     F .text	00000050 __divsi3
02011bc4 g     O .rodata	00000014 __thenan_df
02009c54 g     F .text	0000013c _malloc_trim_r
02011bb4 g       *ABS*	00000000 __CTOR_END__
0200f048 g     F .text	00000260 alt_epcs_flash_write
0200cc4c g     F .text	000000a4 strcmp
02011bb4 g       *ABS*	00000000 __DTOR_LIST__
0200df60 g     F .text	0000005c __nedf2
02004924 g     F .text	000000a8 LCD_Fill
0200ebc4 g     F .text	00000034 alt_irq_init
0200e910 g     F .text	00000060 alt_release_fd
02011bd8 g     O .rodata	00000100 __clz_tab
02013a20 g     O .bss	00000004 _PathLocale
02013a7c g     O .bss	0000001c lcddev
020117e0 g     F .text	00000014 atexit
0200cd7c g     F .text	0000006c _write_r
0200a758 g     F .text	0000001c setlocale
020003ac g     F .text	0000003c LCD_WriteReg
020139e0 g     O .rwdata	00000004 _impure_ptr
02013a3c g     O .bss	00000004 alt_argc
02010a40 g     F .text	0000005c _do_dtors
02004ce8 g     F .text	000001e8 LCD_Draw_Circle
02000020 g       .exceptions	00000000 alt_irq_entry
0200bf44 g     F .text	00000060 __ulp
0200ca44 g     F .text	00000038 __isinfd
02009c3c g     F .text	00000018 __fp_unlock_all
020139f0 g     O .rwdata	00000008 alt_fs_list
02004f38 g     F .text	000000a8 LCD_DisplayPic
0200a774 g     F .text	0000000c localeconv
02010200 g     F .text	000000f4 epcs_read_buffer
02004ed0 g     F .text	00000068 LCD_Pow
0200ec80 g     F .text	00000054 alt_epcs_flash_init
02010b54 g     F .text	00000050 alt_ic_isr_register
02013a20 g       *ABS*	00000000 _edata
02013d28 g       *ABS*	00000000 _end
02010a9c g     F .text	00000068 alt_flash_open_dev
0200fb0c g     F .text	000000f4 altera_avalon_jtag_uart_ioctl
02010c40 g     F .text	000000a0 alt_ic_irq_disable
020105b0 g     F .text	00000058 epcs_enter_4_bytes_mode
0200cb60 g     F .text	00000088 __swrite
020139ec g     O .rwdata	00000004 __malloc_trim_threshold
02011360 g     F .text	00000020 altera_nios2_qsys_irq_init
020117f4 g     F .text	00000038 exit
0200a5ec g     F .text	000000b8 _fwalk_reent
0200bd9c g     F .text	000001a8 __mdiff
02010b04 g     F .text	00000050 alt_flash_close_dev
0200e25c g     F .text	0000005c __modsi3
04000000 g       *ABS*	00000000 __alt_data_end
02000020 g     F .exceptions	00000000 alt_exception
02009c18 g     F .text	00000004 __sfp_lock_release
02000000 g       *ABS*	00000000 __alt_mem_sdram
02011b78 g     F .text	0000003c _exit
0200ca7c g     F .text	0000002c __isnand
02010660 g     F .text	00000140 alt_alarm_start
02005988 g     F .text	00000060 __muldi3
0200a780 g     F .text	000001a8 __smakebuf_r
0200ccf0 g     F .text	0000008c strlen
020102f4 g     F .text	00000050 epcs_write_enable
02011070 g     F .text	00000154 open
0200577c g     F .text	00000064 __gedf2
02013a14 g     O .rwdata	00000004 alt_priority_mask
02010ba4 g     F .text	0000009c alt_ic_irq_enable
02007da8 g     F .text	00000024 __vfprintf_internal
02005438 g     F .text	00000060 __subdf3
0200f540 g     F .text	00000098 alt_epcs_flash_read
0200b7f0 g     F .text	000000b0 __lo0bits
02013a18 g     O .rwdata	00000008 alt_alarm_list
02000318 g     F .text	00000094 LCD_RD_DATA
020109e4 g     F .text	0000005c _do_ctors
0200e318 g     F .text	000000c8 close
020003e8 g     F .text	0000003c LCD_ReadReg
02005a94 g     F .text	00000224 __pack_d
0200048c g     F .text	00000070 LCD_BGR2RGB
02004c64 g     F .text	00000084 LCD_DrawRectangle
00000000  w      *UND*	00000000 free
02009c1c g     F .text	00000004 __sinit_lock_acquire
020103ac g     F .text	0000011c epcs_write_buffer
0200b570 g     F .text	00000114 __multadd
0200b548 g     F .text	00000028 _Bfree



Disassembly of section .exceptions:

02000020 <alt_exception>:

#else /* ALT_EXCEPTION_STACK disabled */
        /* 
         * Reserve space on normal stack for registers about to be pushed.
         */
        addi  sp, sp, -76
 2000020:	deffed04 	addi	sp,sp,-76
         * documentation for details).
         *
         * Leave a gap in the stack frame at 4(sp) for the muldiv handler to
         * store zero into.
         */
        stw   ra,  0(sp)
 2000024:	dfc00015 	stw	ra,0(sp)
        stw   r1,   8(sp)
 2000028:	d8400215 	stw	at,8(sp)
        stw   r2,  12(sp)
 200002c:	d8800315 	stw	r2,12(sp)
        stw   r3,  16(sp)
 2000030:	d8c00415 	stw	r3,16(sp)
        stw   r4,  20(sp)
 2000034:	d9000515 	stw	r4,20(sp)
        stw   r5,  24(sp)
 2000038:	d9400615 	stw	r5,24(sp)
        stw   r6,  28(sp)
 200003c:	d9800715 	stw	r6,28(sp)
        stw   r7,  32(sp)
 2000040:	d9c00815 	stw	r7,32(sp)
        rdctl r5, estatus   /* Read early to avoid usage stall */
 2000044:	000b307a 	rdctl	r5,estatus
        stw   r8,  36(sp)
 2000048:	da000915 	stw	r8,36(sp)
        stw   r9,  40(sp)
 200004c:	da400a15 	stw	r9,40(sp)
        stw   r10, 44(sp)
 2000050:	da800b15 	stw	r10,44(sp)
        stw   r11, 48(sp)
 2000054:	dac00c15 	stw	r11,48(sp)
        stw   r12, 52(sp)
 2000058:	db000d15 	stw	r12,52(sp)
        stw   r13, 56(sp)
 200005c:	db400e15 	stw	r13,56(sp)
        stw   r14, 60(sp)
 2000060:	db800f15 	stw	r14,60(sp)
        stw   r15, 64(sp)
 2000064:	dbc01015 	stw	r15,64(sp)
        /*
         * ea-4 contains the address of the instruction being executed
         * when the exception occured. For interrupt exceptions, we will
         * will be re-issue the isntruction. Store it in 72(sp)
         */
        stw   r5,  68(sp)  /* estatus */
 2000068:	d9401115 	stw	r5,68(sp)
        addi  r15, ea, -4  /* instruction that caused exception */
 200006c:	ebffff04 	addi	r15,ea,-4
        stw   r15,  72(sp)
 2000070:	dbc01215 	stw	r15,72(sp)
#else
        /*
         * Test to see if the exception was a software exception or caused 
         * by an external interrupt, and vector accordingly.
         */
        rdctl r4, ipending
 2000074:	0009313a 	rdctl	r4,ipending
        andi  r2, r5, 1
 2000078:	2880004c 	andi	r2,r5,1
        beq   r2, zero, .Lnot_irq
 200007c:	10000326 	beq	r2,zero,200008c <alt_exception+0x6c>
        beq   r4, zero, .Lnot_irq
 2000080:	20000226 	beq	r4,zero,200008c <alt_exception+0x6c>
        /*
         * Now that all necessary registers have been preserved, call 
         * alt_irq_handler() to process the interrupts.
         */

        call alt_irq_handler
 2000084:	20000ec0 	call	20000ec <alt_irq_handler>

        .section .exceptions.irqreturn, "xa"

        br    .Lexception_exit
 2000088:	00000306 	br	2000098 <alt_exception_unknown+0x4>
         * upon completion, so we write ea (address of instruction *after*
         * the one where the exception occured) into 72(sp). The actual
         * instruction that caused the exception is written in r2, which these
         * handlers will utilize.
         */
        stw   ea,  72(sp)  /* Don't re-issue */
 200008c:	df401215 	stw	ea,72(sp)
        ldw   r2, -4(ea)   /* Instruction that caused exception */
 2000090:	e8bfff17 	ldw	r2,-4(ea)

02000094 <alt_exception_unknown>:
#ifdef NIOS2_HAS_DEBUG_STUB
       /*
        *  Either tell the user now (if there is a debugger attached) or go into
        *  the debug monitor which will loop until a debugger is attached.
        */
        break
 2000094:	003da03a 	break	0
        /* 
         * Restore the saved registers, so that all general purpose registers 
         * have been restored to their state at the time the interrupt occured.
         */

        ldw   r5,  68(sp)
 2000098:	d9401117 	ldw	r5,68(sp)
        ldw   ea,  72(sp)  /* This becomes the PC once eret is executed */
 200009c:	df401217 	ldw	ea,72(sp)
        ldw   ra,   0(sp)
 20000a0:	dfc00017 	ldw	ra,0(sp)

        wrctl estatus, r5
 20000a4:	2801707a 	wrctl	estatus,r5

        ldw   r1,   8(sp)
 20000a8:	d8400217 	ldw	at,8(sp)
        ldw   r2,  12(sp)
 20000ac:	d8800317 	ldw	r2,12(sp)
        ldw   r3,  16(sp)
 20000b0:	d8c00417 	ldw	r3,16(sp)
        ldw   r4,  20(sp)
 20000b4:	d9000517 	ldw	r4,20(sp)
        ldw   r5,  24(sp)
 20000b8:	d9400617 	ldw	r5,24(sp)
        ldw   r6,  28(sp)
 20000bc:	d9800717 	ldw	r6,28(sp)
        ldw   r7,  32(sp)
 20000c0:	d9c00817 	ldw	r7,32(sp)

#if defined(ALT_EXCEPTION_STACK) && defined(ALT_STACK_CHECK)
        ldw   et, %gprel(alt_exception_old_stack_limit)(gp)
#endif

        ldw   r8,  36(sp)
 20000c4:	da000917 	ldw	r8,36(sp)
        ldw   r9,  40(sp)
 20000c8:	da400a17 	ldw	r9,40(sp)
        ldw   r10, 44(sp)
 20000cc:	da800b17 	ldw	r10,44(sp)
        ldw   r11, 48(sp)
 20000d0:	dac00c17 	ldw	r11,48(sp)
        ldw   r12, 52(sp)
 20000d4:	db000d17 	ldw	r12,52(sp)
        ldw   r13, 56(sp)
 20000d8:	db400e17 	ldw	r13,56(sp)
        ldw   r14, 60(sp)
 20000dc:	db800f17 	ldw	r14,60(sp)
        ldw   r15, 64(sp)
 20000e0:	dbc01017 	ldw	r15,64(sp)
        stw   et, %gprel(alt_stack_limit_value)(gp)
        stw   zero, %gprel(alt_exception_old_stack_limit)(gp)
#endif /* ALT_STACK_CHECK */
        ldw   sp,  76(sp)
#else /* ALT_EXCEPTION_STACK disabled */
        addi  sp, sp, 76
 20000e4:	dec01304 	addi	sp,sp,76

        /*
         * Return to the interrupted instruction.
         */

        eret
 20000e8:	ef80083a 	eret

020000ec <alt_irq_handler>:
 * instruction is present if the macro ALT_CI_INTERRUPT_VECTOR defined.
 */

void alt_irq_handler (void) __attribute__ ((section (".exceptions")));
void alt_irq_handler (void)
{
 20000ec:	defff904 	addi	sp,sp,-28
 20000f0:	dfc00615 	stw	ra,24(sp)
 20000f4:	df000515 	stw	fp,20(sp)
 20000f8:	df000504 	addi	fp,sp,20
  
  /*
   * Notify the operating system that we are at interrupt level.
   */ 
  
  ALT_OS_INT_ENTER();
 20000fc:	0001883a 	nop
#ifndef NIOS2_EIC_PRESENT
static ALT_INLINE alt_u32 ALT_ALWAYS_INLINE alt_irq_pending (void)
{
  alt_u32 active;

  NIOS2_READ_IPENDING (active);
 2000100:	0005313a 	rdctl	r2,ipending
 2000104:	e0bffe15 	stw	r2,-8(fp)

  return active;
 2000108:	e0bffe17 	ldw	r2,-8(fp)
   * Consider the case where the high priority interupt is asserted during
   * the interrupt entry sequence for a lower priority interrupt to see why
   * this is the case.
   */

  active = alt_irq_pending ();
 200010c:	e0bffb15 	stw	r2,-20(fp)

  do
  {
    i = 0;
 2000110:	e03ffd15 	stw	zero,-12(fp)
    mask = 1;
 2000114:	00800044 	movi	r2,1
 2000118:	e0bffc15 	stw	r2,-16(fp)
     * called to clear the interrupt condition.
     */

    do
    {
      if (active & mask)
 200011c:	e0fffb17 	ldw	r3,-20(fp)
 2000120:	e0bffc17 	ldw	r2,-16(fp)
 2000124:	1884703a 	and	r2,r3,r2
 2000128:	10001726 	beq	r2,zero,2000188 <alt_irq_handler+0x9c>
      { 
#ifdef ALT_ENHANCED_INTERRUPT_API_PRESENT
        alt_irq[i].handler(alt_irq[i].context); 
 200012c:	00c08074 	movhi	r3,513
 2000130:	18cea604 	addi	r3,r3,15000
 2000134:	e0bffd17 	ldw	r2,-12(fp)
 2000138:	100490fa 	slli	r2,r2,3
 200013c:	1885883a 	add	r2,r3,r2
 2000140:	10c00017 	ldw	r3,0(r2)
 2000144:	01008074 	movhi	r4,513
 2000148:	210ea604 	addi	r4,r4,15000
 200014c:	e0bffd17 	ldw	r2,-12(fp)
 2000150:	100490fa 	slli	r2,r2,3
 2000154:	2085883a 	add	r2,r4,r2
 2000158:	10800104 	addi	r2,r2,4
 200015c:	10800017 	ldw	r2,0(r2)
 2000160:	1009883a 	mov	r4,r2
 2000164:	183ee83a 	callr	r3
#else
        alt_irq[i].handler(alt_irq[i].context, i); 
#endif
        break;
 2000168:	0001883a 	nop
#ifndef NIOS2_EIC_PRESENT
static ALT_INLINE alt_u32 ALT_ALWAYS_INLINE alt_irq_pending (void)
{
  alt_u32 active;

  NIOS2_READ_IPENDING (active);
 200016c:	0005313a 	rdctl	r2,ipending
 2000170:	e0bfff15 	stw	r2,-4(fp)

  return active;
 2000174:	e0bfff17 	ldw	r2,-4(fp)
      mask <<= 1;
      i++;

    } while (1);

    active = alt_irq_pending ();
 2000178:	e0bffb15 	stw	r2,-20(fp)
    
  } while (active);
 200017c:	e0bffb17 	ldw	r2,-20(fp)
 2000180:	103fe31e 	bne	r2,zero,2000110 <alt_irq_handler+0x24>

  /*
   * Notify the operating system that interrupt processing is complete.
   */ 

  ALT_OS_INT_EXIT();
 2000184:	00000706 	br	20001a4 <alt_irq_handler+0xb8>
#else
        alt_irq[i].handler(alt_irq[i].context, i); 
#endif
        break;
      }
      mask <<= 1;
 2000188:	e0bffc17 	ldw	r2,-16(fp)
 200018c:	1085883a 	add	r2,r2,r2
 2000190:	e0bffc15 	stw	r2,-16(fp)
      i++;
 2000194:	e0bffd17 	ldw	r2,-12(fp)
 2000198:	10800044 	addi	r2,r2,1
 200019c:	e0bffd15 	stw	r2,-12(fp)

    } while (1);
 20001a0:	003fde06 	br	200011c <alt_irq_handler+0x30>
  /*
   * Notify the operating system that interrupt processing is complete.
   */ 

  ALT_OS_INT_EXIT();
}
 20001a4:	e037883a 	mov	sp,fp
 20001a8:	dfc00117 	ldw	ra,4(sp)
 20001ac:	df000017 	ldw	fp,0(sp)
 20001b0:	dec00204 	addi	sp,sp,8
 20001b4:	f800283a 	ret

Disassembly of section .text:

020001b8 <_start>:

    /* Assume the data cache size is always a power of two. */
#if NIOS2_DCACHE_SIZE > 0x8000
    movhi r2, %hi(NIOS2_DCACHE_SIZE)
#else
    movui r2, NIOS2_DCACHE_SIZE
 20001b8:	00820014 	movui	r2,2048
#endif

0:
    initd 0(r2)
 20001bc:	10000033 	initd	0(r2)
#ifdef NIOS2_ECC_PRESENT
    addi r2, r2, -4
#else
    addi r2, r2, -NIOS2_DCACHE_LINE_SIZE
 20001c0:	10bff804 	addi	r2,r2,-32
#endif
    bgt r2, zero, 0b
 20001c4:	00bffd16 	blt	zero,r2,20001bc <_start+0x4>

    /*
     * Now that the caches are initialized, set up the stack pointer and global pointer.
     * The values provided by the linker are assumed to be correctly aligned.
     */
    movhi sp, %hi(__alt_stack_pointer)
 20001c8:	06c10034 	movhi	sp,1024
    ori sp, sp, %lo(__alt_stack_pointer)
 20001cc:	dec00014 	ori	sp,sp,0
    movhi gp, %hi(_gp)
 20001d0:	06808074 	movhi	gp,513
    ori gp, gp, %lo(_gp)
 20001d4:	d6ae7514 	ori	gp,gp,47572
 */
#ifndef ALT_SIM_OPTIMIZE
    /* Log that the BSS is about to be cleared. */
    ALT_LOG_PUTS(alt_log_msg_bss)

    movhi r2, %hi(__bss_start)
 20001d8:	00808074 	movhi	r2,513
    ori r2, r2, %lo(__bss_start)
 20001dc:	108e8814 	ori	r2,r2,14880

    movhi r3, %hi(__bss_end)
 20001e0:	00c08074 	movhi	r3,513
    ori r3, r3, %lo(__bss_end)
 20001e4:	18cf4a14 	ori	r3,r3,15656

    beq r2, r3, 1f
 20001e8:	10c00326 	beq	r2,r3,20001f8 <_start+0x40>

0:
    stw zero, (r2)
 20001ec:	10000015 	stw	zero,0(r2)
    addi r2, r2, 4
 20001f0:	10800104 	addi	r2,r2,4
    bltu r2, r3, 0b
 20001f4:	10fffd36 	bltu	r2,r3,20001ec <_start+0x34>

    /* Log that alt_main is about to be called. */
    ALT_LOG_PUTS(alt_log_msg_alt_main)

    /* Call the C entry point. It should never return. */
    call alt_main
 20001f8:	200e7180 	call	200e718 <alt_main>

020001fc <alt_after_alt_main>:

    /* Wait in infinite loop in case alt_main does return. */
alt_after_alt_main:
    br alt_after_alt_main
 20001fc:	003fff06 	br	20001fc <alt_after_alt_main>

02000200 <delay_ms>:
u32 POINT_COLOR=0xFF000000; //画笔颜色
u32 BACK_COLOR =0xFFFFFFFF; //背景色

//LCD延迟函数，单位毫秒
void delay_ms(u32 n)
{
 2000200:	defffd04 	addi	sp,sp,-12
 2000204:	dfc00215 	stw	ra,8(sp)
 2000208:	df000115 	stw	fp,4(sp)
 200020c:	df000104 	addi	fp,sp,4
 2000210:	e13fff15 	stw	r4,-4(fp)
     usleep(n*1000);
 2000214:	e0bfff17 	ldw	r2,-4(fp)
 2000218:	1080fa24 	muli	r2,r2,1000
 200021c:	1009883a 	mov	r4,r2
 2000220:	200ea200 	call	200ea20 <usleep>
}
 2000224:	e037883a 	mov	sp,fp
 2000228:	dfc00117 	ldw	ra,4(sp)
 200022c:	df000017 	ldw	fp,0(sp)
 2000230:	dec00204 	addi	sp,sp,8
 2000234:	f800283a 	ret

02000238 <LCD_WR_CMD>:

//LCD写命令
void LCD_WR_CMD(u16 Cmd)
{
 2000238:	defffe04 	addi	sp,sp,-8
 200023c:	df000115 	stw	fp,4(sp)
 2000240:	df000104 	addi	fp,sp,4
 2000244:	e13fff15 	stw	r4,-4(fp)
     IOWR_ALTERA_AVALON_PIO_DATA(PIO_MLCD_RS_BASE,0);              		// 拉低RS
 2000248:	0007883a 	mov	r3,zero
 200024c:	00810034 	movhi	r2,1024
 2000250:	10881804 	addi	r2,r2,8288
 2000254:	10c00035 	stwio	r3,0(r2)
     IOWR_ALTERA_AVALON_PIO_DATA(PIO_MLCD_RD_N_BASE,1);            		// RD设为高电平
 2000258:	00c00044 	movi	r3,1
 200025c:	00810034 	movhi	r2,1024
 2000260:	10882004 	addi	r2,r2,8320
 2000264:	10c00035 	stwio	r3,0(r2)
     IOWR_ALTERA_AVALON_PIO_DATA(PIO_MLCD_WR_N_BASE,0);            		// 拉低WR
 2000268:	0007883a 	mov	r3,zero
 200026c:	00810034 	movhi	r2,1024
 2000270:	10882404 	addi	r2,r2,8336
 2000274:	10c00035 	stwio	r3,0(r2)
     IOWR_ALTERA_AVALON_PIO_DATA(PIO_MLCD_DATA_OUT_BASE,Cmd);      		// 往DATA端口写命令
 2000278:	e0ffff17 	ldw	r3,-4(fp)
 200027c:	00810034 	movhi	r2,1024
 2000280:	10880c04 	addi	r2,r2,8240
 2000284:	10c00035 	stwio	r3,0(r2)
     IOWR_ALTERA_AVALON_PIO_DATA(PIO_MLCD_WR_N_BASE,1);            		// 拉高WR
 2000288:	00c00044 	movi	r3,1
 200028c:	00810034 	movhi	r2,1024
 2000290:	10882404 	addi	r2,r2,8336
 2000294:	10c00035 	stwio	r3,0(r2)
}
 2000298:	e037883a 	mov	sp,fp
 200029c:	df000017 	ldw	fp,0(sp)
 20002a0:	dec00104 	addi	sp,sp,4
 20002a4:	f800283a 	ret

020002a8 <LCD_WR_DATA>:

//LCD写数据
void LCD_WR_DATA(u16 Data)
{
 20002a8:	defffe04 	addi	sp,sp,-8
 20002ac:	df000115 	stw	fp,4(sp)
 20002b0:	df000104 	addi	fp,sp,4
 20002b4:	e13fff15 	stw	r4,-4(fp)
     IOWR_ALTERA_AVALON_PIO_DATA(PIO_MLCD_RS_BASE,1);
 20002b8:	00c00044 	movi	r3,1
 20002bc:	00810034 	movhi	r2,1024
 20002c0:	10881804 	addi	r2,r2,8288
 20002c4:	10c00035 	stwio	r3,0(r2)
     IOWR_ALTERA_AVALON_PIO_DATA(PIO_MLCD_RD_N_BASE,1);
 20002c8:	00c00044 	movi	r3,1
 20002cc:	00810034 	movhi	r2,1024
 20002d0:	10882004 	addi	r2,r2,8320
 20002d4:	10c00035 	stwio	r3,0(r2)
     IOWR_ALTERA_AVALON_PIO_DATA(PIO_MLCD_WR_N_BASE,0);
 20002d8:	0007883a 	mov	r3,zero
 20002dc:	00810034 	movhi	r2,1024
 20002e0:	10882404 	addi	r2,r2,8336
 20002e4:	10c00035 	stwio	r3,0(r2)
     IOWR_ALTERA_AVALON_PIO_DATA(PIO_MLCD_DATA_OUT_BASE,Data);
 20002e8:	e0ffff17 	ldw	r3,-4(fp)
 20002ec:	00810034 	movhi	r2,1024
 20002f0:	10880c04 	addi	r2,r2,8240
 20002f4:	10c00035 	stwio	r3,0(r2)
     IOWR_ALTERA_AVALON_PIO_DATA(PIO_MLCD_WR_N_BASE,1);
 20002f8:	00c00044 	movi	r3,1
 20002fc:	00810034 	movhi	r2,1024
 2000300:	10882404 	addi	r2,r2,8336
 2000304:	10c00035 	stwio	r3,0(r2)
}
 2000308:	e037883a 	mov	sp,fp
 200030c:	df000017 	ldw	fp,0(sp)
 2000310:	dec00104 	addi	sp,sp,4
 2000314:	f800283a 	ret

02000318 <LCD_RD_DATA>:

//LCD读数据
u16 LCD_RD_DATA()
{
 2000318:	defffe04 	addi	sp,sp,-8
 200031c:	df000115 	stw	fp,4(sp)
 2000320:	df000104 	addi	fp,sp,4
     u16 read_data = 0;
 2000324:	e03fff15 	stw	zero,-4(fp)
     IOWR_ALTERA_AVALON_PIO_DATA(PIO_MLCD_DATA_DIR_BASE,0);          // mlcd_data_dir=0 为输入
 2000328:	0007883a 	mov	r3,zero
 200032c:	00810034 	movhi	r2,1024
 2000330:	10880804 	addi	r2,r2,8224
 2000334:	10c00035 	stwio	r3,0(r2)

     IOWR_ALTERA_AVALON_PIO_DATA(PIO_MLCD_RS_BASE,1);
 2000338:	00c00044 	movi	r3,1
 200033c:	00810034 	movhi	r2,1024
 2000340:	10881804 	addi	r2,r2,8288
 2000344:	10c00035 	stwio	r3,0(r2)
     IOWR_ALTERA_AVALON_PIO_DATA(PIO_MLCD_RD_N_BASE,0);
 2000348:	0007883a 	mov	r3,zero
 200034c:	00810034 	movhi	r2,1024
 2000350:	10882004 	addi	r2,r2,8320
 2000354:	10c00035 	stwio	r3,0(r2)
     IOWR_ALTERA_AVALON_PIO_DATA(PIO_MLCD_WR_N_BASE,1);
 2000358:	00c00044 	movi	r3,1
 200035c:	00810034 	movhi	r2,1024
 2000360:	10882404 	addi	r2,r2,8336
 2000364:	10c00035 	stwio	r3,0(r2)
     read_data = IORD_ALTERA_AVALON_PIO_DATA(PIO_MLCD_DATA_IN_BASE);
 2000368:	00810034 	movhi	r2,1024
 200036c:	10881004 	addi	r2,r2,8256
 2000370:	10800037 	ldwio	r2,0(r2)
 2000374:	e0bfff15 	stw	r2,-4(fp)
     IOWR_ALTERA_AVALON_PIO_DATA(PIO_MLCD_RD_N_BASE,1);
 2000378:	00c00044 	movi	r3,1
 200037c:	00810034 	movhi	r2,1024
 2000380:	10882004 	addi	r2,r2,8320
 2000384:	10c00035 	stwio	r3,0(r2)

     IOWR_ALTERA_AVALON_PIO_DATA(PIO_MLCD_DATA_DIR_BASE,1);          // mlcd_data_dir=1 为输出
 2000388:	00c00044 	movi	r3,1
 200038c:	00810034 	movhi	r2,1024
 2000390:	10880804 	addi	r2,r2,8224
 2000394:	10c00035 	stwio	r3,0(r2)
     return read_data;
 2000398:	e0bfff17 	ldw	r2,-4(fp)
}
 200039c:	e037883a 	mov	sp,fp
 20003a0:	df000017 	ldw	fp,0(sp)
 20003a4:	dec00104 	addi	sp,sp,4
 20003a8:	f800283a 	ret

020003ac <LCD_WriteReg>:

//LCD写寄存器数据
void LCD_WriteReg(u16 LCD_Reg,u16 LCD_RegValue)
{
 20003ac:	defffc04 	addi	sp,sp,-16
 20003b0:	dfc00315 	stw	ra,12(sp)
 20003b4:	df000215 	stw	fp,8(sp)
 20003b8:	df000204 	addi	fp,sp,8
 20003bc:	e13ffe15 	stw	r4,-8(fp)
 20003c0:	e17fff15 	stw	r5,-4(fp)
     LCD_WR_CMD(LCD_Reg);                                      // 写入的寄存器
 20003c4:	e13ffe17 	ldw	r4,-8(fp)
 20003c8:	20002380 	call	2000238 <LCD_WR_CMD>
     LCD_WR_DATA(LCD_RegValue);                                // 写入的数据
 20003cc:	e13fff17 	ldw	r4,-4(fp)
 20003d0:	20002a80 	call	20002a8 <LCD_WR_DATA>
}
 20003d4:	e037883a 	mov	sp,fp
 20003d8:	dfc00117 	ldw	ra,4(sp)
 20003dc:	df000017 	ldw	fp,0(sp)
 20003e0:	dec00204 	addi	sp,sp,8
 20003e4:	f800283a 	ret

020003e8 <LCD_ReadReg>:

//LCD读寄存器
u16 LCD_ReadReg(u16 LCD_Reg)
{
 20003e8:	defffd04 	addi	sp,sp,-12
 20003ec:	dfc00215 	stw	ra,8(sp)
 20003f0:	df000115 	stw	fp,4(sp)
 20003f4:	df000104 	addi	fp,sp,4
 20003f8:	e13fff15 	stw	r4,-4(fp)
     LCD_WR_CMD(LCD_Reg);                                      // 要读取的寄存器
 20003fc:	e13fff17 	ldw	r4,-4(fp)
 2000400:	20002380 	call	2000238 <LCD_WR_CMD>
     usleep(5);                                                // 延时5us
 2000404:	01000144 	movi	r4,5
 2000408:	200ea200 	call	200ea20 <usleep>
     return LCD_RD_DATA();                                     // 返回读取的数据
 200040c:	20003180 	call	2000318 <LCD_RD_DATA>
}
 2000410:	e037883a 	mov	sp,fp
 2000414:	dfc00117 	ldw	ra,4(sp)
 2000418:	df000017 	ldw	fp,0(sp)
 200041c:	dec00204 	addi	sp,sp,8
 2000420:	f800283a 	ret

02000424 <LCD_WriteRAM_Prepare>:

//开始写GRAM
void LCD_WriteRAM_Prepare(void)
{
 2000424:	defffe04 	addi	sp,sp,-8
 2000428:	dfc00115 	stw	ra,4(sp)
 200042c:	df000015 	stw	fp,0(sp)
 2000430:	d839883a 	mov	fp,sp
     LCD_WR_CMD(lcddev.wramcmd);
 2000434:	00808074 	movhi	r2,513
 2000438:	108e9f04 	addi	r2,r2,14972
 200043c:	10800417 	ldw	r2,16(r2)
 2000440:	1009883a 	mov	r4,r2
 2000444:	20002380 	call	2000238 <LCD_WR_CMD>
}
 2000448:	e037883a 	mov	sp,fp
 200044c:	dfc00117 	ldw	ra,4(sp)
 2000450:	df000017 	ldw	fp,0(sp)
 2000454:	dec00204 	addi	sp,sp,8
 2000458:	f800283a 	ret

0200045c <LCD_WriteRAM>:

//LCD写GRAM
//RGB_Code:颜色值
void LCD_WriteRAM(u16 RGB_Code)
{
 200045c:	defffd04 	addi	sp,sp,-12
 2000460:	dfc00215 	stw	ra,8(sp)
 2000464:	df000115 	stw	fp,4(sp)
 2000468:	df000104 	addi	fp,sp,4
 200046c:	e13fff15 	stw	r4,-4(fp)
     LCD_WR_DATA(RGB_Code);                                    //写十六位GRAM
 2000470:	e13fff17 	ldw	r4,-4(fp)
 2000474:	20002a80 	call	20002a8 <LCD_WR_DATA>
}
 2000478:	e037883a 	mov	sp,fp
 200047c:	dfc00117 	ldw	ra,4(sp)
 2000480:	df000017 	ldw	fp,0(sp)
 2000484:	dec00204 	addi	sp,sp,8
 2000488:	f800283a 	ret

0200048c <LCD_BGR2RGB>:
//从ILI93xx读出的数据为GBR格式，而我们写入的时候为RGB格式。
//通过该函数转换
//c:GBR格式的颜色值
//返回值：RGB格式的颜色值
u16 LCD_BGR2RGB(u16 c)
{
 200048c:	defffa04 	addi	sp,sp,-24
 2000490:	df000515 	stw	fp,20(sp)
 2000494:	df000504 	addi	fp,sp,20
 2000498:	e13fff15 	stw	r4,-4(fp)
     u16  r,g,b,rgb;
     b=(c>>0)&0x1f;
 200049c:	e0bfff17 	ldw	r2,-4(fp)
 20004a0:	108007cc 	andi	r2,r2,31
 20004a4:	e0bffb15 	stw	r2,-20(fp)
     g=(c>>5)&0x3f;
 20004a8:	e0bfff17 	ldw	r2,-4(fp)
 20004ac:	1004d17a 	srli	r2,r2,5
 20004b0:	10800fcc 	andi	r2,r2,63
 20004b4:	e0bffc15 	stw	r2,-16(fp)
     r=(c>>11)&0x1f;
 20004b8:	e0bfff17 	ldw	r2,-4(fp)
 20004bc:	1004d2fa 	srli	r2,r2,11
 20004c0:	108007cc 	andi	r2,r2,31
 20004c4:	e0bffd15 	stw	r2,-12(fp)
     rgb=(b<<11)+(g<<5)+(r<<0);
 20004c8:	e0bffb17 	ldw	r2,-20(fp)
 20004cc:	100692fa 	slli	r3,r2,11
 20004d0:	e0bffc17 	ldw	r2,-16(fp)
 20004d4:	1004917a 	slli	r2,r2,5
 20004d8:	1887883a 	add	r3,r3,r2
 20004dc:	e0bffd17 	ldw	r2,-12(fp)
 20004e0:	1885883a 	add	r2,r3,r2
 20004e4:	e0bffe15 	stw	r2,-8(fp)
     return(rgb);
 20004e8:	e0bffe17 	ldw	r2,-8(fp)
}
 20004ec:	e037883a 	mov	sp,fp
 20004f0:	df000017 	ldw	fp,0(sp)
 20004f4:	dec00104 	addi	sp,sp,4
 20004f8:	f800283a 	ret

020004fc <LCD_ReadPoint>:

//读取个某点的颜色值
//x,y:坐标
//返回值:此点的颜色
u32 LCD_ReadPoint(u16 x,u16 y)
{
 20004fc:	defff904 	addi	sp,sp,-28
 2000500:	dfc00615 	stw	ra,24(sp)
 2000504:	df000515 	stw	fp,20(sp)
 2000508:	df000504 	addi	fp,sp,20
 200050c:	e13ffe15 	stw	r4,-8(fp)
 2000510:	e17fff15 	stw	r5,-4(fp)
     u16 r=0,g=0,b=0;
 2000514:	e03ffb15 	stw	zero,-20(fp)
 2000518:	e03ffc15 	stw	zero,-16(fp)
 200051c:	e03ffd15 	stw	zero,-12(fp)
     if(x>=lcddev.width||y>=lcddev.height)return 0; //超过了范围,直接返回
 2000520:	00808074 	movhi	r2,513
 2000524:	108e9f04 	addi	r2,r2,14972
 2000528:	10800017 	ldw	r2,0(r2)
 200052c:	e0fffe17 	ldw	r3,-8(fp)
 2000530:	1880052e 	bgeu	r3,r2,2000548 <LCD_ReadPoint+0x4c>
 2000534:	00808074 	movhi	r2,513
 2000538:	108e9f04 	addi	r2,r2,14972
 200053c:	10800117 	ldw	r2,4(r2)
 2000540:	e0ffff17 	ldw	r3,-4(fp)
 2000544:	18800236 	bltu	r3,r2,2000550 <LCD_ReadPoint+0x54>
 2000548:	0005883a 	mov	r2,zero
 200054c:	00003906 	br	2000634 <LCD_ReadPoint+0x138>
     LCD_SetCursor(x,y);
 2000550:	e13ffe17 	ldw	r4,-8(fp)
 2000554:	e17fff17 	ldw	r5,-4(fp)
 2000558:	20007580 	call	2000758 <LCD_SetCursor>
     if(lcddev.id==0X9341||lcddev.id==0X5310||lcddev.id==0X1963)
 200055c:	00808074 	movhi	r2,513
 2000560:	108e9f04 	addi	r2,r2,14972
 2000564:	10c00217 	ldw	r3,8(r2)
 2000568:	00a4d054 	movui	r2,37697
 200056c:	18800a26 	beq	r3,r2,2000598 <LCD_ReadPoint+0x9c>
 2000570:	00808074 	movhi	r2,513
 2000574:	108e9f04 	addi	r2,r2,14972
 2000578:	10800217 	ldw	r2,8(r2)
 200057c:	1094c420 	cmpeqi	r2,r2,21264
 2000580:	1000051e 	bne	r2,zero,2000598 <LCD_ReadPoint+0x9c>
 2000584:	00808074 	movhi	r2,513
 2000588:	108e9f04 	addi	r2,r2,14972
 200058c:	10800217 	ldw	r2,8(r2)
 2000590:	108658d8 	cmpnei	r2,r2,6499
 2000594:	1000031e 	bne	r2,zero,20005a4 <LCD_ReadPoint+0xa8>
          LCD_WR_CMD(0X2E);       //9341/3510/1963 发送读GRAM指令
 2000598:	01000b84 	movi	r4,46
 200059c:	20002380 	call	2000238 <LCD_WR_CMD>
 20005a0:	00000706 	br	20005c0 <LCD_ReadPoint+0xc4>
     else if(lcddev.id==0X5510)
 20005a4:	00808074 	movhi	r2,513
 20005a8:	108e9f04 	addi	r2,r2,14972
 20005ac:	10800217 	ldw	r2,8(r2)
 20005b0:	10954418 	cmpnei	r2,r2,21776
 20005b4:	1000021e 	bne	r2,zero,20005c0 <LCD_ReadPoint+0xc4>
          LCD_WR_CMD(0X2E00);     //5510 发送读GRAM指令
 20005b8:	010b8004 	movi	r4,11776
 20005bc:	20002380 	call	2000238 <LCD_WR_CMD>
     r=LCD_RD_DATA();             //dummy Read
 20005c0:	20003180 	call	2000318 <LCD_RD_DATA>
 20005c4:	e0bffb15 	stw	r2,-20(fp)
     if(lcddev.id==0X1963)
 20005c8:	00808074 	movhi	r2,513
 20005cc:	108e9f04 	addi	r2,r2,14972
 20005d0:	10800217 	ldw	r2,8(r2)
 20005d4:	108658d8 	cmpnei	r2,r2,6499
 20005d8:	1000021e 	bne	r2,zero,20005e4 <LCD_ReadPoint+0xe8>
          return r;               //1963直接读就可以
 20005dc:	e0bffb17 	ldw	r2,-20(fp)
 20005e0:	00001406 	br	2000634 <LCD_ReadPoint+0x138>
     r=LCD_RD_DATA();             //实际坐标颜色
 20005e4:	20003180 	call	2000318 <LCD_RD_DATA>
 20005e8:	e0bffb15 	stw	r2,-20(fp)
     b=LCD_RD_DATA();             //9341/NT35310/NT35510要分2次读出
 20005ec:	20003180 	call	2000318 <LCD_RD_DATA>
 20005f0:	e0bffd15 	stw	r2,-12(fp)
     g=r&0XFF;      //对于9341/5310/5510,第一次读取的是RG的值,R在前,G在后,各占8位
 20005f4:	e0bffb17 	ldw	r2,-20(fp)
 20005f8:	10803fcc 	andi	r2,r2,255
 20005fc:	e0bffc15 	stw	r2,-16(fp)
     g<<=8;
 2000600:	e0bffc17 	ldw	r2,-16(fp)
 2000604:	1004923a 	slli	r2,r2,8
 2000608:	e0bffc15 	stw	r2,-16(fp)
     return (((r>>11)<<11)|((g>>10)<<5)|(b>>11));   //ILI9341/NT35310/NT35510需要公式转换一下
 200060c:	e0fffb17 	ldw	r3,-20(fp)
 2000610:	00be0004 	movi	r2,-2048
 2000614:	1886703a 	and	r3,r3,r2
 2000618:	e0bffc17 	ldw	r2,-16(fp)
 200061c:	1004d2ba 	srli	r2,r2,10
 2000620:	1004917a 	slli	r2,r2,5
 2000624:	1886b03a 	or	r3,r3,r2
 2000628:	e0bffd17 	ldw	r2,-12(fp)
 200062c:	1004d2fa 	srli	r2,r2,11
 2000630:	1884b03a 	or	r2,r3,r2
}
 2000634:	e037883a 	mov	sp,fp
 2000638:	dfc00117 	ldw	ra,4(sp)
 200063c:	df000017 	ldw	fp,0(sp)
 2000640:	dec00204 	addi	sp,sp,8
 2000644:	f800283a 	ret

02000648 <LCD_DisplayOn>:

//LCD开启显示
void LCD_DisplayOn(void)
{
 2000648:	defffe04 	addi	sp,sp,-8
 200064c:	dfc00115 	stw	ra,4(sp)
 2000650:	df000015 	stw	fp,0(sp)
 2000654:	d839883a 	mov	fp,sp
     if(lcddev.id==0X9341||lcddev.id==0X5310||lcddev.id==0X1963)
 2000658:	00808074 	movhi	r2,513
 200065c:	108e9f04 	addi	r2,r2,14972
 2000660:	10c00217 	ldw	r3,8(r2)
 2000664:	00a4d054 	movui	r2,37697
 2000668:	18800a26 	beq	r3,r2,2000694 <LCD_DisplayOn+0x4c>
 200066c:	00808074 	movhi	r2,513
 2000670:	108e9f04 	addi	r2,r2,14972
 2000674:	10800217 	ldw	r2,8(r2)
 2000678:	1094c420 	cmpeqi	r2,r2,21264
 200067c:	1000051e 	bne	r2,zero,2000694 <LCD_DisplayOn+0x4c>
 2000680:	00808074 	movhi	r2,513
 2000684:	108e9f04 	addi	r2,r2,14972
 2000688:	10800217 	ldw	r2,8(r2)
 200068c:	108658d8 	cmpnei	r2,r2,6499
 2000690:	1000031e 	bne	r2,zero,20006a0 <LCD_DisplayOn+0x58>
          LCD_WR_CMD(0X29);     //开启显示
 2000694:	01000a44 	movi	r4,41
 2000698:	20002380 	call	2000238 <LCD_WR_CMD>
 200069c:	00000706 	br	20006bc <LCD_DisplayOn+0x74>
     else if(lcddev.id==0X5510)
 20006a0:	00808074 	movhi	r2,513
 20006a4:	108e9f04 	addi	r2,r2,14972
 20006a8:	10800217 	ldw	r2,8(r2)
 20006ac:	10954418 	cmpnei	r2,r2,21776
 20006b0:	1000021e 	bne	r2,zero,20006bc <LCD_DisplayOn+0x74>
          LCD_WR_CMD(0X2900);   //开启显示
 20006b4:	010a4004 	movi	r4,10496
 20006b8:	20002380 	call	2000238 <LCD_WR_CMD>
}
 20006bc:	e037883a 	mov	sp,fp
 20006c0:	dfc00117 	ldw	ra,4(sp)
 20006c4:	df000017 	ldw	fp,0(sp)
 20006c8:	dec00204 	addi	sp,sp,8
 20006cc:	f800283a 	ret

020006d0 <LCD_DisplayOff>:

//LCD关闭显示
void LCD_DisplayOff(void)
{
 20006d0:	defffe04 	addi	sp,sp,-8
 20006d4:	dfc00115 	stw	ra,4(sp)
 20006d8:	df000015 	stw	fp,0(sp)
 20006dc:	d839883a 	mov	fp,sp
     if(lcddev.id==0X9341||lcddev.id==0X5310||lcddev.id==0X1963)
 20006e0:	00808074 	movhi	r2,513
 20006e4:	108e9f04 	addi	r2,r2,14972
 20006e8:	10c00217 	ldw	r3,8(r2)
 20006ec:	00a4d054 	movui	r2,37697
 20006f0:	18800a26 	beq	r3,r2,200071c <LCD_DisplayOff+0x4c>
 20006f4:	00808074 	movhi	r2,513
 20006f8:	108e9f04 	addi	r2,r2,14972
 20006fc:	10800217 	ldw	r2,8(r2)
 2000700:	1094c420 	cmpeqi	r2,r2,21264
 2000704:	1000051e 	bne	r2,zero,200071c <LCD_DisplayOff+0x4c>
 2000708:	00808074 	movhi	r2,513
 200070c:	108e9f04 	addi	r2,r2,14972
 2000710:	10800217 	ldw	r2,8(r2)
 2000714:	108658d8 	cmpnei	r2,r2,6499
 2000718:	1000031e 	bne	r2,zero,2000728 <LCD_DisplayOff+0x58>
          LCD_WR_CMD(0X28);     //关闭显示
 200071c:	01000a04 	movi	r4,40
 2000720:	20002380 	call	2000238 <LCD_WR_CMD>
 2000724:	00000706 	br	2000744 <LCD_DisplayOff+0x74>
     else if(lcddev.id==0X5510)
 2000728:	00808074 	movhi	r2,513
 200072c:	108e9f04 	addi	r2,r2,14972
 2000730:	10800217 	ldw	r2,8(r2)
 2000734:	10954418 	cmpnei	r2,r2,21776
 2000738:	1000021e 	bne	r2,zero,2000744 <LCD_DisplayOff+0x74>
          LCD_WR_CMD(0X2800);   //关闭显示
 200073c:	010a0004 	movi	r4,10240
 2000740:	20002380 	call	2000238 <LCD_WR_CMD>
}
 2000744:	e037883a 	mov	sp,fp
 2000748:	dfc00117 	ldw	ra,4(sp)
 200074c:	df000017 	ldw	fp,0(sp)
 2000750:	dec00204 	addi	sp,sp,8
 2000754:	f800283a 	ret

02000758 <LCD_SetCursor>:

//设置光标位置(对RGB屏无效)
//Xpos:横坐标
//Ypos:纵坐标
void LCD_SetCursor(u16 Xpos, u16 Ypos)
{
 2000758:	defffc04 	addi	sp,sp,-16
 200075c:	dfc00315 	stw	ra,12(sp)
 2000760:	df000215 	stw	fp,8(sp)
 2000764:	df000204 	addi	fp,sp,8
 2000768:	e13ffe15 	stw	r4,-8(fp)
 200076c:	e17fff15 	stw	r5,-4(fp)
     if(lcddev.id==0X9341||lcddev.id==0X5310){
 2000770:	00808074 	movhi	r2,513
 2000774:	108e9f04 	addi	r2,r2,14972
 2000778:	10c00217 	ldw	r3,8(r2)
 200077c:	00a4d054 	movui	r2,37697
 2000780:	18800526 	beq	r3,r2,2000798 <LCD_SetCursor+0x40>
 2000784:	00808074 	movhi	r2,513
 2000788:	108e9f04 	addi	r2,r2,14972
 200078c:	10800217 	ldw	r2,8(r2)
 2000790:	1094c418 	cmpnei	r2,r2,21264
 2000794:	10001b1e 	bne	r2,zero,2000804 <LCD_SetCursor+0xac>
          LCD_WR_CMD(lcddev.setxcmd);
 2000798:	00808074 	movhi	r2,513
 200079c:	108e9f04 	addi	r2,r2,14972
 20007a0:	10800517 	ldw	r2,20(r2)
 20007a4:	1009883a 	mov	r4,r2
 20007a8:	20002380 	call	2000238 <LCD_WR_CMD>
          LCD_WR_DATA(Xpos>>8);LCD_WR_DATA(Xpos&0XFF);
 20007ac:	e0bffe17 	ldw	r2,-8(fp)
 20007b0:	1004d23a 	srli	r2,r2,8
 20007b4:	1009883a 	mov	r4,r2
 20007b8:	20002a80 	call	20002a8 <LCD_WR_DATA>
 20007bc:	e0bffe17 	ldw	r2,-8(fp)
 20007c0:	10803fcc 	andi	r2,r2,255
 20007c4:	1009883a 	mov	r4,r2
 20007c8:	20002a80 	call	20002a8 <LCD_WR_DATA>
          LCD_WR_CMD(lcddev.setycmd);
 20007cc:	00808074 	movhi	r2,513
 20007d0:	108e9f04 	addi	r2,r2,14972
 20007d4:	10800617 	ldw	r2,24(r2)
 20007d8:	1009883a 	mov	r4,r2
 20007dc:	20002380 	call	2000238 <LCD_WR_CMD>
          LCD_WR_DATA(Ypos>>8);LCD_WR_DATA(Ypos&0XFF);
 20007e0:	e0bfff17 	ldw	r2,-4(fp)
 20007e4:	1004d23a 	srli	r2,r2,8
 20007e8:	1009883a 	mov	r4,r2
 20007ec:	20002a80 	call	20002a8 <LCD_WR_DATA>
 20007f0:	e0bfff17 	ldw	r2,-4(fp)
 20007f4:	10803fcc 	andi	r2,r2,255
 20007f8:	1009883a 	mov	r4,r2
 20007fc:	20002a80 	call	20002a8 <LCD_WR_DATA>
 2000800:	00008506 	br	2000a18 <LCD_SetCursor+0x2c0>
     }else if(lcddev.id==0X1963){
 2000804:	00808074 	movhi	r2,513
 2000808:	108e9f04 	addi	r2,r2,14972
 200080c:	10800217 	ldw	r2,8(r2)
 2000810:	108658d8 	cmpnei	r2,r2,6499
 2000814:	1000551e 	bne	r2,zero,200096c <LCD_SetCursor+0x214>
          if(lcddev.dir==0)//x坐标需要变换
 2000818:	00808074 	movhi	r2,513
 200081c:	108e9f04 	addi	r2,r2,14972
 2000820:	10800303 	ldbu	r2,12(r2)
 2000824:	10803fcc 	andi	r2,r2,255
 2000828:	1000191e 	bne	r2,zero,2000890 <LCD_SetCursor+0x138>
          {
               Xpos=lcddev.width-1-Xpos;
 200082c:	00808074 	movhi	r2,513
 2000830:	108e9f04 	addi	r2,r2,14972
 2000834:	10c00017 	ldw	r3,0(r2)
 2000838:	e0bffe17 	ldw	r2,-8(fp)
 200083c:	1885c83a 	sub	r2,r3,r2
 2000840:	10bfffc4 	addi	r2,r2,-1
 2000844:	e0bffe15 	stw	r2,-8(fp)
               LCD_WR_CMD(lcddev.setxcmd);
 2000848:	00808074 	movhi	r2,513
 200084c:	108e9f04 	addi	r2,r2,14972
 2000850:	10800517 	ldw	r2,20(r2)
 2000854:	1009883a 	mov	r4,r2
 2000858:	20002380 	call	2000238 <LCD_WR_CMD>
               LCD_WR_DATA(0);LCD_WR_DATA(0);
 200085c:	0009883a 	mov	r4,zero
 2000860:	20002a80 	call	20002a8 <LCD_WR_DATA>
 2000864:	0009883a 	mov	r4,zero
 2000868:	20002a80 	call	20002a8 <LCD_WR_DATA>
               LCD_WR_DATA(Xpos>>8);LCD_WR_DATA(Xpos&0XFF);
 200086c:	e0bffe17 	ldw	r2,-8(fp)
 2000870:	1004d23a 	srli	r2,r2,8
 2000874:	1009883a 	mov	r4,r2
 2000878:	20002a80 	call	20002a8 <LCD_WR_DATA>
 200087c:	e0bffe17 	ldw	r2,-8(fp)
 2000880:	10803fcc 	andi	r2,r2,255
 2000884:	1009883a 	mov	r4,r2
 2000888:	20002a80 	call	20002a8 <LCD_WR_DATA>
 200088c:	00001b06 	br	20008fc <LCD_SetCursor+0x1a4>
          }else{
               LCD_WR_CMD(lcddev.setxcmd);
 2000890:	00808074 	movhi	r2,513
 2000894:	108e9f04 	addi	r2,r2,14972
 2000898:	10800517 	ldw	r2,20(r2)
 200089c:	1009883a 	mov	r4,r2
 20008a0:	20002380 	call	2000238 <LCD_WR_CMD>
               LCD_WR_DATA(Xpos>>8);LCD_WR_DATA(Xpos&0XFF);
 20008a4:	e0bffe17 	ldw	r2,-8(fp)
 20008a8:	1004d23a 	srli	r2,r2,8
 20008ac:	1009883a 	mov	r4,r2
 20008b0:	20002a80 	call	20002a8 <LCD_WR_DATA>
 20008b4:	e0bffe17 	ldw	r2,-8(fp)
 20008b8:	10803fcc 	andi	r2,r2,255
 20008bc:	1009883a 	mov	r4,r2
 20008c0:	20002a80 	call	20002a8 <LCD_WR_DATA>
               LCD_WR_DATA((lcddev.width-1)>>8);LCD_WR_DATA((lcddev.width-1)&0XFF);
 20008c4:	00808074 	movhi	r2,513
 20008c8:	108e9f04 	addi	r2,r2,14972
 20008cc:	10800017 	ldw	r2,0(r2)
 20008d0:	10bfffc4 	addi	r2,r2,-1
 20008d4:	1004d23a 	srli	r2,r2,8
 20008d8:	1009883a 	mov	r4,r2
 20008dc:	20002a80 	call	20002a8 <LCD_WR_DATA>
 20008e0:	00808074 	movhi	r2,513
 20008e4:	108e9f04 	addi	r2,r2,14972
 20008e8:	10800017 	ldw	r2,0(r2)
 20008ec:	10bfffc4 	addi	r2,r2,-1
 20008f0:	10803fcc 	andi	r2,r2,255
 20008f4:	1009883a 	mov	r4,r2
 20008f8:	20002a80 	call	20002a8 <LCD_WR_DATA>
          }
          LCD_WR_CMD(lcddev.setycmd);
 20008fc:	00808074 	movhi	r2,513
 2000900:	108e9f04 	addi	r2,r2,14972
 2000904:	10800617 	ldw	r2,24(r2)
 2000908:	1009883a 	mov	r4,r2
 200090c:	20002380 	call	2000238 <LCD_WR_CMD>
          LCD_WR_DATA(Ypos>>8);LCD_WR_DATA(Ypos&0XFF);
 2000910:	e0bfff17 	ldw	r2,-4(fp)
 2000914:	1004d23a 	srli	r2,r2,8
 2000918:	1009883a 	mov	r4,r2
 200091c:	20002a80 	call	20002a8 <LCD_WR_DATA>
 2000920:	e0bfff17 	ldw	r2,-4(fp)
 2000924:	10803fcc 	andi	r2,r2,255
 2000928:	1009883a 	mov	r4,r2
 200092c:	20002a80 	call	20002a8 <LCD_WR_DATA>
          LCD_WR_DATA((lcddev.height-1)>>8);LCD_WR_DATA((lcddev.height-1)&0XFF);
 2000930:	00808074 	movhi	r2,513
 2000934:	108e9f04 	addi	r2,r2,14972
 2000938:	10800117 	ldw	r2,4(r2)
 200093c:	10bfffc4 	addi	r2,r2,-1
 2000940:	1004d23a 	srli	r2,r2,8
 2000944:	1009883a 	mov	r4,r2
 2000948:	20002a80 	call	20002a8 <LCD_WR_DATA>
 200094c:	00808074 	movhi	r2,513
 2000950:	108e9f04 	addi	r2,r2,14972
 2000954:	10800117 	ldw	r2,4(r2)
 2000958:	10bfffc4 	addi	r2,r2,-1
 200095c:	10803fcc 	andi	r2,r2,255
 2000960:	1009883a 	mov	r4,r2
 2000964:	20002a80 	call	20002a8 <LCD_WR_DATA>
 2000968:	00002b06 	br	2000a18 <LCD_SetCursor+0x2c0>

     }else if(lcddev.id==0X5510) {
 200096c:	00808074 	movhi	r2,513
 2000970:	108e9f04 	addi	r2,r2,14972
 2000974:	10800217 	ldw	r2,8(r2)
 2000978:	10954418 	cmpnei	r2,r2,21776
 200097c:	1000261e 	bne	r2,zero,2000a18 <LCD_SetCursor+0x2c0>
          LCD_WR_CMD(lcddev.setxcmd);LCD_WR_DATA(Xpos>>8);
 2000980:	00808074 	movhi	r2,513
 2000984:	108e9f04 	addi	r2,r2,14972
 2000988:	10800517 	ldw	r2,20(r2)
 200098c:	1009883a 	mov	r4,r2
 2000990:	20002380 	call	2000238 <LCD_WR_CMD>
 2000994:	e0bffe17 	ldw	r2,-8(fp)
 2000998:	1004d23a 	srli	r2,r2,8
 200099c:	1009883a 	mov	r4,r2
 20009a0:	20002a80 	call	20002a8 <LCD_WR_DATA>
          LCD_WR_CMD(lcddev.setxcmd+1);LCD_WR_DATA(Xpos&0XFF);
 20009a4:	00808074 	movhi	r2,513
 20009a8:	108e9f04 	addi	r2,r2,14972
 20009ac:	10800517 	ldw	r2,20(r2)
 20009b0:	10800044 	addi	r2,r2,1
 20009b4:	1009883a 	mov	r4,r2
 20009b8:	20002380 	call	2000238 <LCD_WR_CMD>
 20009bc:	e0bffe17 	ldw	r2,-8(fp)
 20009c0:	10803fcc 	andi	r2,r2,255
 20009c4:	1009883a 	mov	r4,r2
 20009c8:	20002a80 	call	20002a8 <LCD_WR_DATA>
          LCD_WR_CMD(lcddev.setycmd);LCD_WR_DATA(Ypos>>8);
 20009cc:	00808074 	movhi	r2,513
 20009d0:	108e9f04 	addi	r2,r2,14972
 20009d4:	10800617 	ldw	r2,24(r2)
 20009d8:	1009883a 	mov	r4,r2
 20009dc:	20002380 	call	2000238 <LCD_WR_CMD>
 20009e0:	e0bfff17 	ldw	r2,-4(fp)
 20009e4:	1004d23a 	srli	r2,r2,8
 20009e8:	1009883a 	mov	r4,r2
 20009ec:	20002a80 	call	20002a8 <LCD_WR_DATA>
          LCD_WR_CMD(lcddev.setycmd+1);LCD_WR_DATA(Ypos&0XFF);
 20009f0:	00808074 	movhi	r2,513
 20009f4:	108e9f04 	addi	r2,r2,14972
 20009f8:	10800617 	ldw	r2,24(r2)
 20009fc:	10800044 	addi	r2,r2,1
 2000a00:	1009883a 	mov	r4,r2
 2000a04:	20002380 	call	2000238 <LCD_WR_CMD>
 2000a08:	e0bfff17 	ldw	r2,-4(fp)
 2000a0c:	10803fcc 	andi	r2,r2,255
 2000a10:	1009883a 	mov	r4,r2
 2000a14:	20002a80 	call	20002a8 <LCD_WR_DATA>
     }
}
 2000a18:	e037883a 	mov	sp,fp
 2000a1c:	dfc00117 	ldw	ra,4(sp)
 2000a20:	df000017 	ldw	fp,0(sp)
 2000a24:	dec00204 	addi	sp,sp,8
 2000a28:	f800283a 	ret

02000a2c <LCD_Scan_Dir>:
//注意:其他函数可能会受到此函数设置的影响(尤其是9341),
//所以,一般设置为L2R_U2D即可,如果设置为其他扫描方式,可能导致显示不正常.
//dir:0~7,代表8个方向(具体定义见lcd.h)
//9341/5310/5510/1963等IC已经实际测试
void LCD_Scan_Dir(u8 dir)
{
 2000a2c:	defffa04 	addi	sp,sp,-24
 2000a30:	dfc00515 	stw	ra,20(sp)
 2000a34:	df000415 	stw	fp,16(sp)
 2000a38:	df000404 	addi	fp,sp,16
 2000a3c:	2005883a 	mov	r2,r4
 2000a40:	e0bfff05 	stb	r2,-4(fp)
    u16 regval=0;
 2000a44:	e03ffc15 	stw	zero,-16(fp)
    u16 dirreg=0;
 2000a48:	e03ffd15 	stw	zero,-12(fp)
    u16 temp;
    if((lcddev.dir==1&&lcddev.id!=0X1963)||(lcddev.dir==0&&lcddev.id==0X1963))//横屏时，对1963不改变扫描方向！竖屏时1963改变方向
 2000a4c:	00808074 	movhi	r2,513
 2000a50:	108e9f04 	addi	r2,r2,14972
 2000a54:	10800303 	ldbu	r2,12(r2)
 2000a58:	10803fcc 	andi	r2,r2,255
 2000a5c:	10800058 	cmpnei	r2,r2,1
 2000a60:	1000051e 	bne	r2,zero,2000a78 <LCD_Scan_Dir+0x4c>
 2000a64:	00808074 	movhi	r2,513
 2000a68:	108e9f04 	addi	r2,r2,14972
 2000a6c:	10800217 	ldw	r2,8(r2)
 2000a70:	108658d8 	cmpnei	r2,r2,6499
 2000a74:	10000a1e 	bne	r2,zero,2000aa0 <LCD_Scan_Dir+0x74>
 2000a78:	00808074 	movhi	r2,513
 2000a7c:	108e9f04 	addi	r2,r2,14972
 2000a80:	10800303 	ldbu	r2,12(r2)
 2000a84:	10803fcc 	andi	r2,r2,255
 2000a88:	10002e1e 	bne	r2,zero,2000b44 <LCD_Scan_Dir+0x118>
 2000a8c:	00808074 	movhi	r2,513
 2000a90:	108e9f04 	addi	r2,r2,14972
 2000a94:	10800217 	ldw	r2,8(r2)
 2000a98:	108658d8 	cmpnei	r2,r2,6499
 2000a9c:	1000291e 	bne	r2,zero,2000b44 <LCD_Scan_Dir+0x118>
    {
         switch(dir) {     //方向转换
 2000aa0:	e0bfff03 	ldbu	r2,-4(fp)
 2000aa4:	10c00228 	cmpgeui	r3,r2,8
 2000aa8:	1800261e 	bne	r3,zero,2000b44 <LCD_Scan_Dir+0x118>
 2000aac:	1085883a 	add	r2,r2,r2
 2000ab0:	1087883a 	add	r3,r2,r2
 2000ab4:	00808034 	movhi	r2,512
 2000ab8:	1082b204 	addi	r2,r2,2760
 2000abc:	1885883a 	add	r2,r3,r2
 2000ac0:	10800017 	ldw	r2,0(r2)
 2000ac4:	1000683a 	jmp	r2
 2000ac8:	02000ae8 	cmpgeui	r8,zero,43
 2000acc:	02000af4 	movhi	r8,43
 2000ad0:	02000b00 	call	2000b0 <__alt_mem_sdram-0x1dfff50>
 2000ad4:	02000b0c 	andi	r8,zero,44
 2000ad8:	02000b18 	cmpnei	r8,zero,44
 2000adc:	02000b24 	muli	r8,zero,44
 2000ae0:	02000b2c 	andhi	r8,zero,44
 2000ae4:	02000b38 	rdprs	r8,zero,44
         case 0:dir=6;break;
 2000ae8:	00800184 	movi	r2,6
 2000aec:	e0bfff05 	stb	r2,-4(fp)
 2000af0:	00001406 	br	2000b44 <LCD_Scan_Dir+0x118>
         case 1:dir=7;break;
 2000af4:	008001c4 	movi	r2,7
 2000af8:	e0bfff05 	stb	r2,-4(fp)
 2000afc:	00001106 	br	2000b44 <LCD_Scan_Dir+0x118>
         case 2:dir=4;break;
 2000b00:	00800104 	movi	r2,4
 2000b04:	e0bfff05 	stb	r2,-4(fp)
 2000b08:	00000e06 	br	2000b44 <LCD_Scan_Dir+0x118>
         case 3:dir=5;break;
 2000b0c:	00800144 	movi	r2,5
 2000b10:	e0bfff05 	stb	r2,-4(fp)
 2000b14:	00000b06 	br	2000b44 <LCD_Scan_Dir+0x118>
         case 4:dir=1;break;
 2000b18:	00800044 	movi	r2,1
 2000b1c:	e0bfff05 	stb	r2,-4(fp)
 2000b20:	00000806 	br	2000b44 <LCD_Scan_Dir+0x118>
         case 5:dir=0;break;
 2000b24:	e03fff05 	stb	zero,-4(fp)
 2000b28:	00000606 	br	2000b44 <LCD_Scan_Dir+0x118>
         case 6:dir=3;break;
 2000b2c:	008000c4 	movi	r2,3
 2000b30:	e0bfff05 	stb	r2,-4(fp)
 2000b34:	00000306 	br	2000b44 <LCD_Scan_Dir+0x118>
         case 7:dir=2;break;
 2000b38:	00800084 	movi	r2,2
 2000b3c:	e0bfff05 	stb	r2,-4(fp)
 2000b40:	0001883a 	nop
         }
    }
    if(lcddev.id==0x9341||lcddev.id==0X5310||lcddev.id==0X5510||lcddev.id==0X1963)//9341/5310/5510/1963,特殊处理
 2000b44:	00808074 	movhi	r2,513
 2000b48:	108e9f04 	addi	r2,r2,14972
 2000b4c:	10c00217 	ldw	r3,8(r2)
 2000b50:	00a4d054 	movui	r2,37697
 2000b54:	18800f26 	beq	r3,r2,2000b94 <LCD_Scan_Dir+0x168>
 2000b58:	00808074 	movhi	r2,513
 2000b5c:	108e9f04 	addi	r2,r2,14972
 2000b60:	10800217 	ldw	r2,8(r2)
 2000b64:	1094c420 	cmpeqi	r2,r2,21264
 2000b68:	10000a1e 	bne	r2,zero,2000b94 <LCD_Scan_Dir+0x168>
 2000b6c:	00808074 	movhi	r2,513
 2000b70:	108e9f04 	addi	r2,r2,14972
 2000b74:	10800217 	ldw	r2,8(r2)
 2000b78:	10954420 	cmpeqi	r2,r2,21776
 2000b7c:	1000051e 	bne	r2,zero,2000b94 <LCD_Scan_Dir+0x168>
 2000b80:	00808074 	movhi	r2,513
 2000b84:	108e9f04 	addi	r2,r2,14972
 2000b88:	10800217 	ldw	r2,8(r2)
 2000b8c:	108658d8 	cmpnei	r2,r2,6499
 2000b90:	1001071e 	bne	r2,zero,2000fb0 <LCD_Scan_Dir+0x584>
    {
        switch(dir) {
 2000b94:	e0bfff03 	ldbu	r2,-4(fp)
 2000b98:	10c00228 	cmpgeui	r3,r2,8
 2000b9c:	18002c1e 	bne	r3,zero,2000c50 <LCD_Scan_Dir+0x224>
 2000ba0:	1085883a 	add	r2,r2,r2
 2000ba4:	1087883a 	add	r3,r2,r2
 2000ba8:	00808034 	movhi	r2,512
 2000bac:	1082ef04 	addi	r2,r2,3004
 2000bb0:	1885883a 	add	r2,r3,r2
 2000bb4:	10800017 	ldw	r2,0(r2)
 2000bb8:	1000683a 	jmp	r2
 2000bbc:	02000c4c 	andi	r8,zero,49
 2000bc0:	02000bdc 	xori	r8,zero,47
 2000bc4:	02000bec 	andhi	r8,zero,47
 2000bc8:	02000bfc 	xorhi	r8,zero,47
 2000bcc:	02000c0c 	andi	r8,zero,48
 2000bd0:	02000c1c 	xori	r8,zero,48
 2000bd4:	02000c2c 	andhi	r8,zero,48
 2000bd8:	02000c3c 	xorhi	r8,zero,48
        case L2R_U2D://从左到右,从上到下
             regval|=(0<<7)|(0<<6)|(0<<5);
             break;
        case L2R_D2U://从左到右,从下到上
             regval|=(1<<7)|(0<<6)|(0<<5);
 2000bdc:	e0bffc17 	ldw	r2,-16(fp)
 2000be0:	10802014 	ori	r2,r2,128
 2000be4:	e0bffc15 	stw	r2,-16(fp)
             break;
 2000be8:	00001906 	br	2000c50 <LCD_Scan_Dir+0x224>
        case R2L_U2D://从右到左,从上到下
             regval|=(0<<7)|(1<<6)|(0<<5);
 2000bec:	e0bffc17 	ldw	r2,-16(fp)
 2000bf0:	10801014 	ori	r2,r2,64
 2000bf4:	e0bffc15 	stw	r2,-16(fp)
             break;
 2000bf8:	00001506 	br	2000c50 <LCD_Scan_Dir+0x224>
        case R2L_D2U://从右到左,从下到上
             regval|=(1<<7)|(1<<6)|(0<<5);
 2000bfc:	e0bffc17 	ldw	r2,-16(fp)
 2000c00:	10803014 	ori	r2,r2,192
 2000c04:	e0bffc15 	stw	r2,-16(fp)
             break;
 2000c08:	00001106 	br	2000c50 <LCD_Scan_Dir+0x224>
        case U2D_L2R://从上到下,从左到右
             regval|=(0<<7)|(0<<6)|(1<<5);
 2000c0c:	e0bffc17 	ldw	r2,-16(fp)
 2000c10:	10800814 	ori	r2,r2,32
 2000c14:	e0bffc15 	stw	r2,-16(fp)
             break;
 2000c18:	00000d06 	br	2000c50 <LCD_Scan_Dir+0x224>
        case U2D_R2L://从上到下,从右到左
             regval|=(0<<7)|(1<<6)|(1<<5);
 2000c1c:	e0bffc17 	ldw	r2,-16(fp)
 2000c20:	10801814 	ori	r2,r2,96
 2000c24:	e0bffc15 	stw	r2,-16(fp)
             break;
 2000c28:	00000906 	br	2000c50 <LCD_Scan_Dir+0x224>
        case D2U_L2R://从下到上,从左到右
             regval|=(1<<7)|(0<<6)|(1<<5);
 2000c2c:	e0bffc17 	ldw	r2,-16(fp)
 2000c30:	10802814 	ori	r2,r2,160
 2000c34:	e0bffc15 	stw	r2,-16(fp)
             break;
 2000c38:	00000506 	br	2000c50 <LCD_Scan_Dir+0x224>
        case D2U_R2L://从下到上,从右到左
             regval|=(1<<7)|(1<<6)|(1<<5);
 2000c3c:	e0bffc17 	ldw	r2,-16(fp)
 2000c40:	10803814 	ori	r2,r2,224
 2000c44:	e0bffc15 	stw	r2,-16(fp)
             break;
 2000c48:	00000106 	br	2000c50 <LCD_Scan_Dir+0x224>
    if(lcddev.id==0x9341||lcddev.id==0X5310||lcddev.id==0X5510||lcddev.id==0X1963)//9341/5310/5510/1963,特殊处理
    {
        switch(dir) {
        case L2R_U2D://从左到右,从上到下
             regval|=(0<<7)|(0<<6)|(0<<5);
             break;
 2000c4c:	0001883a 	nop
             break;
        case D2U_R2L://从下到上,从右到左
             regval|=(1<<7)|(1<<6)|(1<<5);
             break;
        }
        if(lcddev.id==0X5510)
 2000c50:	00808074 	movhi	r2,513
 2000c54:	108e9f04 	addi	r2,r2,14972
 2000c58:	10800217 	ldw	r2,8(r2)
 2000c5c:	10954418 	cmpnei	r2,r2,21776
 2000c60:	1000031e 	bne	r2,zero,2000c70 <LCD_Scan_Dir+0x244>
            dirreg=0X3600;
 2000c64:	008d8004 	movi	r2,13824
 2000c68:	e0bffd15 	stw	r2,-12(fp)
 2000c6c:	00000206 	br	2000c78 <LCD_Scan_Dir+0x24c>
        else dirreg=0X36;
 2000c70:	00800d84 	movi	r2,54
 2000c74:	e0bffd15 	stw	r2,-12(fp)
        if((lcddev.id!=0X5310)&&(lcddev.id!=0X5510)&&(lcddev.id!=0X1963))
 2000c78:	00808074 	movhi	r2,513
 2000c7c:	108e9f04 	addi	r2,r2,14972
 2000c80:	10800217 	ldw	r2,8(r2)
 2000c84:	1094c420 	cmpeqi	r2,r2,21264
 2000c88:	10000d1e 	bne	r2,zero,2000cc0 <LCD_Scan_Dir+0x294>
 2000c8c:	00808074 	movhi	r2,513
 2000c90:	108e9f04 	addi	r2,r2,14972
 2000c94:	10800217 	ldw	r2,8(r2)
 2000c98:	10954420 	cmpeqi	r2,r2,21776
 2000c9c:	1000081e 	bne	r2,zero,2000cc0 <LCD_Scan_Dir+0x294>
 2000ca0:	00808074 	movhi	r2,513
 2000ca4:	108e9f04 	addi	r2,r2,14972
 2000ca8:	10800217 	ldw	r2,8(r2)
 2000cac:	108658e0 	cmpeqi	r2,r2,6499
 2000cb0:	1000031e 	bne	r2,zero,2000cc0 <LCD_Scan_Dir+0x294>
             regval|=0X08;//5310/5510/1963不需要BGR
 2000cb4:	e0bffc17 	ldw	r2,-16(fp)
 2000cb8:	10800214 	ori	r2,r2,8
 2000cbc:	e0bffc15 	stw	r2,-16(fp)
        LCD_WriteReg(dirreg,regval);
 2000cc0:	e13ffd17 	ldw	r4,-12(fp)
 2000cc4:	e17ffc17 	ldw	r5,-16(fp)
 2000cc8:	20003ac0 	call	20003ac <LCD_WriteReg>
        if(lcddev.id!=0X1963)//1963不做坐标处理
 2000ccc:	00808074 	movhi	r2,513
 2000cd0:	108e9f04 	addi	r2,r2,14972
 2000cd4:	10800217 	ldw	r2,8(r2)
 2000cd8:	108658e0 	cmpeqi	r2,r2,6499
 2000cdc:	10002e1e 	bne	r2,zero,2000d98 <LCD_Scan_Dir+0x36c>
        {
            if(regval&0X20) {
 2000ce0:	e0bffc17 	ldw	r2,-16(fp)
 2000ce4:	1080080c 	andi	r2,r2,32
 2000ce8:	10001626 	beq	r2,zero,2000d44 <LCD_Scan_Dir+0x318>
                 if(lcddev.width<lcddev.height) {    //交换X,Y
 2000cec:	00808074 	movhi	r2,513
 2000cf0:	108e9f04 	addi	r2,r2,14972
 2000cf4:	10c00017 	ldw	r3,0(r2)
 2000cf8:	00808074 	movhi	r2,513
 2000cfc:	108e9f04 	addi	r2,r2,14972
 2000d00:	10800117 	ldw	r2,4(r2)
 2000d04:	1880242e 	bgeu	r3,r2,2000d98 <LCD_Scan_Dir+0x36c>
                      temp=lcddev.width;
 2000d08:	00808074 	movhi	r2,513
 2000d0c:	108e9f04 	addi	r2,r2,14972
 2000d10:	10800017 	ldw	r2,0(r2)
 2000d14:	e0bffe15 	stw	r2,-8(fp)
                      lcddev.width=lcddev.height;
 2000d18:	00808074 	movhi	r2,513
 2000d1c:	108e9f04 	addi	r2,r2,14972
 2000d20:	10c00117 	ldw	r3,4(r2)
 2000d24:	00808074 	movhi	r2,513
 2000d28:	108e9f04 	addi	r2,r2,14972
 2000d2c:	10c00015 	stw	r3,0(r2)
                      lcddev.height=temp;
 2000d30:	00808074 	movhi	r2,513
 2000d34:	108e9f04 	addi	r2,r2,14972
 2000d38:	e0fffe17 	ldw	r3,-8(fp)
 2000d3c:	10c00115 	stw	r3,4(r2)
 2000d40:	00001506 	br	2000d98 <LCD_Scan_Dir+0x36c>
                 }
            }else {
                 if(lcddev.width>lcddev.height) {    //交换X,Y
 2000d44:	00808074 	movhi	r2,513
 2000d48:	108e9f04 	addi	r2,r2,14972
 2000d4c:	10800017 	ldw	r2,0(r2)
 2000d50:	00c08074 	movhi	r3,513
 2000d54:	18ce9f04 	addi	r3,r3,14972
 2000d58:	18c00117 	ldw	r3,4(r3)
 2000d5c:	18800e2e 	bgeu	r3,r2,2000d98 <LCD_Scan_Dir+0x36c>
                      temp=lcddev.width;
 2000d60:	00808074 	movhi	r2,513
 2000d64:	108e9f04 	addi	r2,r2,14972
 2000d68:	10800017 	ldw	r2,0(r2)
 2000d6c:	e0bffe15 	stw	r2,-8(fp)
                      lcddev.width=lcddev.height;
 2000d70:	00808074 	movhi	r2,513
 2000d74:	108e9f04 	addi	r2,r2,14972
 2000d78:	10c00117 	ldw	r3,4(r2)
 2000d7c:	00808074 	movhi	r2,513
 2000d80:	108e9f04 	addi	r2,r2,14972
 2000d84:	10c00015 	stw	r3,0(r2)
                      lcddev.height=temp;
 2000d88:	00808074 	movhi	r2,513
 2000d8c:	108e9f04 	addi	r2,r2,14972
 2000d90:	e0fffe17 	ldw	r3,-8(fp)
 2000d94:	10c00115 	stw	r3,4(r2)
                 }
            }
          }
        if(lcddev.id==0X5510)
 2000d98:	00808074 	movhi	r2,513
 2000d9c:	108e9f04 	addi	r2,r2,14972
 2000da0:	10800217 	ldw	r2,8(r2)
 2000da4:	10954418 	cmpnei	r2,r2,21776
 2000da8:	1000531e 	bne	r2,zero,2000ef8 <LCD_Scan_Dir+0x4cc>
        {
             LCD_WR_CMD(lcddev.setxcmd);LCD_WR_DATA(0);
 2000dac:	00808074 	movhi	r2,513
 2000db0:	108e9f04 	addi	r2,r2,14972
 2000db4:	10800517 	ldw	r2,20(r2)
 2000db8:	1009883a 	mov	r4,r2
 2000dbc:	20002380 	call	2000238 <LCD_WR_CMD>
 2000dc0:	0009883a 	mov	r4,zero
 2000dc4:	20002a80 	call	20002a8 <LCD_WR_DATA>
             LCD_WR_CMD(lcddev.setxcmd+1);LCD_WR_DATA(0);
 2000dc8:	00808074 	movhi	r2,513
 2000dcc:	108e9f04 	addi	r2,r2,14972
 2000dd0:	10800517 	ldw	r2,20(r2)
 2000dd4:	10800044 	addi	r2,r2,1
 2000dd8:	1009883a 	mov	r4,r2
 2000ddc:	20002380 	call	2000238 <LCD_WR_CMD>
 2000de0:	0009883a 	mov	r4,zero
 2000de4:	20002a80 	call	20002a8 <LCD_WR_DATA>
             LCD_WR_CMD(lcddev.setxcmd+2);LCD_WR_DATA((lcddev.width-1)>>8);
 2000de8:	00808074 	movhi	r2,513
 2000dec:	108e9f04 	addi	r2,r2,14972
 2000df0:	10800517 	ldw	r2,20(r2)
 2000df4:	10800084 	addi	r2,r2,2
 2000df8:	1009883a 	mov	r4,r2
 2000dfc:	20002380 	call	2000238 <LCD_WR_CMD>
 2000e00:	00808074 	movhi	r2,513
 2000e04:	108e9f04 	addi	r2,r2,14972
 2000e08:	10800017 	ldw	r2,0(r2)
 2000e0c:	10bfffc4 	addi	r2,r2,-1
 2000e10:	1004d23a 	srli	r2,r2,8
 2000e14:	1009883a 	mov	r4,r2
 2000e18:	20002a80 	call	20002a8 <LCD_WR_DATA>
             LCD_WR_CMD(lcddev.setxcmd+3);LCD_WR_DATA((lcddev.width-1)&0XFF);
 2000e1c:	00808074 	movhi	r2,513
 2000e20:	108e9f04 	addi	r2,r2,14972
 2000e24:	10800517 	ldw	r2,20(r2)
 2000e28:	108000c4 	addi	r2,r2,3
 2000e2c:	1009883a 	mov	r4,r2
 2000e30:	20002380 	call	2000238 <LCD_WR_CMD>
 2000e34:	00808074 	movhi	r2,513
 2000e38:	108e9f04 	addi	r2,r2,14972
 2000e3c:	10800017 	ldw	r2,0(r2)
 2000e40:	10bfffc4 	addi	r2,r2,-1
 2000e44:	10803fcc 	andi	r2,r2,255
 2000e48:	1009883a 	mov	r4,r2
 2000e4c:	20002a80 	call	20002a8 <LCD_WR_DATA>
             LCD_WR_CMD(lcddev.setycmd);LCD_WR_DATA(0);
 2000e50:	00808074 	movhi	r2,513
 2000e54:	108e9f04 	addi	r2,r2,14972
 2000e58:	10800617 	ldw	r2,24(r2)
 2000e5c:	1009883a 	mov	r4,r2
 2000e60:	20002380 	call	2000238 <LCD_WR_CMD>
 2000e64:	0009883a 	mov	r4,zero
 2000e68:	20002a80 	call	20002a8 <LCD_WR_DATA>
             LCD_WR_CMD(lcddev.setycmd+1);LCD_WR_DATA(0);
 2000e6c:	00808074 	movhi	r2,513
 2000e70:	108e9f04 	addi	r2,r2,14972
 2000e74:	10800617 	ldw	r2,24(r2)
 2000e78:	10800044 	addi	r2,r2,1
 2000e7c:	1009883a 	mov	r4,r2
 2000e80:	20002380 	call	2000238 <LCD_WR_CMD>
 2000e84:	0009883a 	mov	r4,zero
 2000e88:	20002a80 	call	20002a8 <LCD_WR_DATA>
             LCD_WR_CMD(lcddev.setycmd+2);LCD_WR_DATA((lcddev.height-1)>>8);
 2000e8c:	00808074 	movhi	r2,513
 2000e90:	108e9f04 	addi	r2,r2,14972
 2000e94:	10800617 	ldw	r2,24(r2)
 2000e98:	10800084 	addi	r2,r2,2
 2000e9c:	1009883a 	mov	r4,r2
 2000ea0:	20002380 	call	2000238 <LCD_WR_CMD>
 2000ea4:	00808074 	movhi	r2,513
 2000ea8:	108e9f04 	addi	r2,r2,14972
 2000eac:	10800117 	ldw	r2,4(r2)
 2000eb0:	10bfffc4 	addi	r2,r2,-1
 2000eb4:	1004d23a 	srli	r2,r2,8
 2000eb8:	1009883a 	mov	r4,r2
 2000ebc:	20002a80 	call	20002a8 <LCD_WR_DATA>
             LCD_WR_CMD(lcddev.setycmd+3);LCD_WR_DATA((lcddev.height-1)&0XFF);
 2000ec0:	00808074 	movhi	r2,513
 2000ec4:	108e9f04 	addi	r2,r2,14972
 2000ec8:	10800617 	ldw	r2,24(r2)
 2000ecc:	108000c4 	addi	r2,r2,3
 2000ed0:	1009883a 	mov	r4,r2
 2000ed4:	20002380 	call	2000238 <LCD_WR_CMD>
 2000ed8:	00808074 	movhi	r2,513
 2000edc:	108e9f04 	addi	r2,r2,14972
 2000ee0:	10800117 	ldw	r2,4(r2)
 2000ee4:	10bfffc4 	addi	r2,r2,-1
 2000ee8:	10803fcc 	andi	r2,r2,255
 2000eec:	1009883a 	mov	r4,r2
 2000ef0:	20002a80 	call	20002a8 <LCD_WR_DATA>
 2000ef4:	00002e06 	br	2000fb0 <LCD_Scan_Dir+0x584>
        }else {
             LCD_WR_CMD(lcddev.setxcmd);
 2000ef8:	00808074 	movhi	r2,513
 2000efc:	108e9f04 	addi	r2,r2,14972
 2000f00:	10800517 	ldw	r2,20(r2)
 2000f04:	1009883a 	mov	r4,r2
 2000f08:	20002380 	call	2000238 <LCD_WR_CMD>
             LCD_WR_DATA(0);LCD_WR_DATA(0);
 2000f0c:	0009883a 	mov	r4,zero
 2000f10:	20002a80 	call	20002a8 <LCD_WR_DATA>
 2000f14:	0009883a 	mov	r4,zero
 2000f18:	20002a80 	call	20002a8 <LCD_WR_DATA>
             LCD_WR_DATA((lcddev.width-1)>>8);LCD_WR_DATA((lcddev.width-1)&0XFF);
 2000f1c:	00808074 	movhi	r2,513
 2000f20:	108e9f04 	addi	r2,r2,14972
 2000f24:	10800017 	ldw	r2,0(r2)
 2000f28:	10bfffc4 	addi	r2,r2,-1
 2000f2c:	1004d23a 	srli	r2,r2,8
 2000f30:	1009883a 	mov	r4,r2
 2000f34:	20002a80 	call	20002a8 <LCD_WR_DATA>
 2000f38:	00808074 	movhi	r2,513
 2000f3c:	108e9f04 	addi	r2,r2,14972
 2000f40:	10800017 	ldw	r2,0(r2)
 2000f44:	10bfffc4 	addi	r2,r2,-1
 2000f48:	10803fcc 	andi	r2,r2,255
 2000f4c:	1009883a 	mov	r4,r2
 2000f50:	20002a80 	call	20002a8 <LCD_WR_DATA>
             LCD_WR_CMD(lcddev.setycmd);
 2000f54:	00808074 	movhi	r2,513
 2000f58:	108e9f04 	addi	r2,r2,14972
 2000f5c:	10800617 	ldw	r2,24(r2)
 2000f60:	1009883a 	mov	r4,r2
 2000f64:	20002380 	call	2000238 <LCD_WR_CMD>
             LCD_WR_DATA(0);LCD_WR_DATA(0);
 2000f68:	0009883a 	mov	r4,zero
 2000f6c:	20002a80 	call	20002a8 <LCD_WR_DATA>
 2000f70:	0009883a 	mov	r4,zero
 2000f74:	20002a80 	call	20002a8 <LCD_WR_DATA>
             LCD_WR_DATA((lcddev.height-1)>>8);LCD_WR_DATA((lcddev.height-1)&0XFF);
 2000f78:	00808074 	movhi	r2,513
 2000f7c:	108e9f04 	addi	r2,r2,14972
 2000f80:	10800117 	ldw	r2,4(r2)
 2000f84:	10bfffc4 	addi	r2,r2,-1
 2000f88:	1004d23a 	srli	r2,r2,8
 2000f8c:	1009883a 	mov	r4,r2
 2000f90:	20002a80 	call	20002a8 <LCD_WR_DATA>
 2000f94:	00808074 	movhi	r2,513
 2000f98:	108e9f04 	addi	r2,r2,14972
 2000f9c:	10800117 	ldw	r2,4(r2)
 2000fa0:	10bfffc4 	addi	r2,r2,-1
 2000fa4:	10803fcc 	andi	r2,r2,255
 2000fa8:	1009883a 	mov	r4,r2
 2000fac:	20002a80 	call	20002a8 <LCD_WR_DATA>
        }
    }
}
 2000fb0:	e037883a 	mov	sp,fp
 2000fb4:	dfc00117 	ldw	ra,4(sp)
 2000fb8:	df000017 	ldw	fp,0(sp)
 2000fbc:	dec00204 	addi	sp,sp,8
 2000fc0:	f800283a 	ret

02000fc4 <LCD_DrawPoint>:

//画点
//x,y:坐标
//POINT_COLOR:此点的颜色
void LCD_DrawPoint(u16 x,u16 y)
{
 2000fc4:	defffc04 	addi	sp,sp,-16
 2000fc8:	dfc00315 	stw	ra,12(sp)
 2000fcc:	df000215 	stw	fp,8(sp)
 2000fd0:	df000204 	addi	fp,sp,8
 2000fd4:	e13ffe15 	stw	r4,-8(fp)
 2000fd8:	e17fff15 	stw	r5,-4(fp)
    LCD_SetCursor(x,y);        //设置光标位置
 2000fdc:	e13ffe17 	ldw	r4,-8(fp)
 2000fe0:	e17fff17 	ldw	r5,-4(fp)
 2000fe4:	20007580 	call	2000758 <LCD_SetCursor>
    LCD_WriteRAM_Prepare();    //开始写入GRAM
 2000fe8:	20004240 	call	2000424 <LCD_WriteRAM_Prepare>
    LCD_WR_DATA(POINT_COLOR);
 2000fec:	d0a00017 	ldw	r2,-32768(gp)
 2000ff0:	1009883a 	mov	r4,r2
 2000ff4:	20002a80 	call	20002a8 <LCD_WR_DATA>
}
 2000ff8:	e037883a 	mov	sp,fp
 2000ffc:	dfc00117 	ldw	ra,4(sp)
 2001000:	df000017 	ldw	fp,0(sp)
 2001004:	dec00204 	addi	sp,sp,8
 2001008:	f800283a 	ret

0200100c <LCD_Fast_DrawPoint>:

//快速画点
//x,y:坐标
//color:颜色
void LCD_Fast_DrawPoint(u16 x,u16 y,u32 color)
{
 200100c:	defffb04 	addi	sp,sp,-20
 2001010:	dfc00415 	stw	ra,16(sp)
 2001014:	df000315 	stw	fp,12(sp)
 2001018:	df000304 	addi	fp,sp,12
 200101c:	e13ffd15 	stw	r4,-12(fp)
 2001020:	e17ffe15 	stw	r5,-8(fp)
 2001024:	e1bfff15 	stw	r6,-4(fp)
    if(lcddev.id==0X9341||lcddev.id==0X5310)
 2001028:	00808074 	movhi	r2,513
 200102c:	108e9f04 	addi	r2,r2,14972
 2001030:	10c00217 	ldw	r3,8(r2)
 2001034:	00a4d054 	movui	r2,37697
 2001038:	18800526 	beq	r3,r2,2001050 <LCD_Fast_DrawPoint+0x44>
 200103c:	00808074 	movhi	r2,513
 2001040:	108e9f04 	addi	r2,r2,14972
 2001044:	10800217 	ldw	r2,8(r2)
 2001048:	1094c418 	cmpnei	r2,r2,21264
 200104c:	10001b1e 	bne	r2,zero,20010bc <LCD_Fast_DrawPoint+0xb0>
    {
         LCD_WR_CMD(lcddev.setxcmd);
 2001050:	00808074 	movhi	r2,513
 2001054:	108e9f04 	addi	r2,r2,14972
 2001058:	10800517 	ldw	r2,20(r2)
 200105c:	1009883a 	mov	r4,r2
 2001060:	20002380 	call	2000238 <LCD_WR_CMD>
         LCD_WR_DATA(x>>8);LCD_WR_DATA(x&0XFF);
 2001064:	e0bffd17 	ldw	r2,-12(fp)
 2001068:	1004d23a 	srli	r2,r2,8
 200106c:	1009883a 	mov	r4,r2
 2001070:	20002a80 	call	20002a8 <LCD_WR_DATA>
 2001074:	e0bffd17 	ldw	r2,-12(fp)
 2001078:	10803fcc 	andi	r2,r2,255
 200107c:	1009883a 	mov	r4,r2
 2001080:	20002a80 	call	20002a8 <LCD_WR_DATA>
         LCD_WR_CMD(lcddev.setycmd);
 2001084:	00808074 	movhi	r2,513
 2001088:	108e9f04 	addi	r2,r2,14972
 200108c:	10800617 	ldw	r2,24(r2)
 2001090:	1009883a 	mov	r4,r2
 2001094:	20002380 	call	2000238 <LCD_WR_CMD>
         LCD_WR_DATA(y>>8);LCD_WR_DATA(y&0XFF);
 2001098:	e0bffe17 	ldw	r2,-8(fp)
 200109c:	1004d23a 	srli	r2,r2,8
 20010a0:	1009883a 	mov	r4,r2
 20010a4:	20002a80 	call	20002a8 <LCD_WR_DATA>
 20010a8:	e0bffe17 	ldw	r2,-8(fp)
 20010ac:	10803fcc 	andi	r2,r2,255
 20010b0:	1009883a 	mov	r4,r2
 20010b4:	20002a80 	call	20002a8 <LCD_WR_DATA>
 20010b8:	00006706 	br	2001258 <LCD_Fast_DrawPoint+0x24c>
    }else if(lcddev.id==0X5510)
 20010bc:	00808074 	movhi	r2,513
 20010c0:	108e9f04 	addi	r2,r2,14972
 20010c4:	10800217 	ldw	r2,8(r2)
 20010c8:	10954418 	cmpnei	r2,r2,21776
 20010cc:	1000271e 	bne	r2,zero,200116c <LCD_Fast_DrawPoint+0x160>
    {
         LCD_WR_CMD(lcddev.setxcmd);LCD_WR_DATA(x>>8);
 20010d0:	00808074 	movhi	r2,513
 20010d4:	108e9f04 	addi	r2,r2,14972
 20010d8:	10800517 	ldw	r2,20(r2)
 20010dc:	1009883a 	mov	r4,r2
 20010e0:	20002380 	call	2000238 <LCD_WR_CMD>
 20010e4:	e0bffd17 	ldw	r2,-12(fp)
 20010e8:	1004d23a 	srli	r2,r2,8
 20010ec:	1009883a 	mov	r4,r2
 20010f0:	20002a80 	call	20002a8 <LCD_WR_DATA>
         LCD_WR_CMD(lcddev.setxcmd+1);LCD_WR_DATA(x&0XFF);
 20010f4:	00808074 	movhi	r2,513
 20010f8:	108e9f04 	addi	r2,r2,14972
 20010fc:	10800517 	ldw	r2,20(r2)
 2001100:	10800044 	addi	r2,r2,1
 2001104:	1009883a 	mov	r4,r2
 2001108:	20002380 	call	2000238 <LCD_WR_CMD>
 200110c:	e0bffd17 	ldw	r2,-12(fp)
 2001110:	10803fcc 	andi	r2,r2,255
 2001114:	1009883a 	mov	r4,r2
 2001118:	20002a80 	call	20002a8 <LCD_WR_DATA>
         LCD_WR_CMD(lcddev.setycmd);LCD_WR_DATA(y>>8);
 200111c:	00808074 	movhi	r2,513
 2001120:	108e9f04 	addi	r2,r2,14972
 2001124:	10800617 	ldw	r2,24(r2)
 2001128:	1009883a 	mov	r4,r2
 200112c:	20002380 	call	2000238 <LCD_WR_CMD>
 2001130:	e0bffe17 	ldw	r2,-8(fp)
 2001134:	1004d23a 	srli	r2,r2,8
 2001138:	1009883a 	mov	r4,r2
 200113c:	20002a80 	call	20002a8 <LCD_WR_DATA>
         LCD_WR_CMD(lcddev.setycmd+1);LCD_WR_DATA(y&0XFF);
 2001140:	00808074 	movhi	r2,513
 2001144:	108e9f04 	addi	r2,r2,14972
 2001148:	10800617 	ldw	r2,24(r2)
 200114c:	10800044 	addi	r2,r2,1
 2001150:	1009883a 	mov	r4,r2
 2001154:	20002380 	call	2000238 <LCD_WR_CMD>
 2001158:	e0bffe17 	ldw	r2,-8(fp)
 200115c:	10803fcc 	andi	r2,r2,255
 2001160:	1009883a 	mov	r4,r2
 2001164:	20002a80 	call	20002a8 <LCD_WR_DATA>
 2001168:	00003b06 	br	2001258 <LCD_Fast_DrawPoint+0x24c>
    }else if(lcddev.id==0X1963)
 200116c:	00808074 	movhi	r2,513
 2001170:	108e9f04 	addi	r2,r2,14972
 2001174:	10800217 	ldw	r2,8(r2)
 2001178:	108658d8 	cmpnei	r2,r2,6499
 200117c:	1000361e 	bne	r2,zero,2001258 <LCD_Fast_DrawPoint+0x24c>
    {
         if(lcddev.dir==0)x=lcddev.width-1-x;
 2001180:	00808074 	movhi	r2,513
 2001184:	108e9f04 	addi	r2,r2,14972
 2001188:	10800303 	ldbu	r2,12(r2)
 200118c:	10803fcc 	andi	r2,r2,255
 2001190:	1000071e 	bne	r2,zero,20011b0 <LCD_Fast_DrawPoint+0x1a4>
 2001194:	00808074 	movhi	r2,513
 2001198:	108e9f04 	addi	r2,r2,14972
 200119c:	10c00017 	ldw	r3,0(r2)
 20011a0:	e0bffd17 	ldw	r2,-12(fp)
 20011a4:	1885c83a 	sub	r2,r3,r2
 20011a8:	10bfffc4 	addi	r2,r2,-1
 20011ac:	e0bffd15 	stw	r2,-12(fp)
         LCD_WR_CMD(lcddev.setxcmd);
 20011b0:	00808074 	movhi	r2,513
 20011b4:	108e9f04 	addi	r2,r2,14972
 20011b8:	10800517 	ldw	r2,20(r2)
 20011bc:	1009883a 	mov	r4,r2
 20011c0:	20002380 	call	2000238 <LCD_WR_CMD>
         LCD_WR_DATA(x>>8);LCD_WR_DATA(x&0XFF);
 20011c4:	e0bffd17 	ldw	r2,-12(fp)
 20011c8:	1004d23a 	srli	r2,r2,8
 20011cc:	1009883a 	mov	r4,r2
 20011d0:	20002a80 	call	20002a8 <LCD_WR_DATA>
 20011d4:	e0bffd17 	ldw	r2,-12(fp)
 20011d8:	10803fcc 	andi	r2,r2,255
 20011dc:	1009883a 	mov	r4,r2
 20011e0:	20002a80 	call	20002a8 <LCD_WR_DATA>
         LCD_WR_DATA(x>>8);LCD_WR_DATA(x&0XFF);
 20011e4:	e0bffd17 	ldw	r2,-12(fp)
 20011e8:	1004d23a 	srli	r2,r2,8
 20011ec:	1009883a 	mov	r4,r2
 20011f0:	20002a80 	call	20002a8 <LCD_WR_DATA>
 20011f4:	e0bffd17 	ldw	r2,-12(fp)
 20011f8:	10803fcc 	andi	r2,r2,255
 20011fc:	1009883a 	mov	r4,r2
 2001200:	20002a80 	call	20002a8 <LCD_WR_DATA>
         LCD_WR_CMD(lcddev.setycmd);
 2001204:	00808074 	movhi	r2,513
 2001208:	108e9f04 	addi	r2,r2,14972
 200120c:	10800617 	ldw	r2,24(r2)
 2001210:	1009883a 	mov	r4,r2
 2001214:	20002380 	call	2000238 <LCD_WR_CMD>
         LCD_WR_DATA(y>>8);LCD_WR_DATA(y&0XFF);
 2001218:	e0bffe17 	ldw	r2,-8(fp)
 200121c:	1004d23a 	srli	r2,r2,8
 2001220:	1009883a 	mov	r4,r2
 2001224:	20002a80 	call	20002a8 <LCD_WR_DATA>
 2001228:	e0bffe17 	ldw	r2,-8(fp)
 200122c:	10803fcc 	andi	r2,r2,255
 2001230:	1009883a 	mov	r4,r2
 2001234:	20002a80 	call	20002a8 <LCD_WR_DATA>
         LCD_WR_DATA(y>>8);LCD_WR_DATA(y&0XFF);
 2001238:	e0bffe17 	ldw	r2,-8(fp)
 200123c:	1004d23a 	srli	r2,r2,8
 2001240:	1009883a 	mov	r4,r2
 2001244:	20002a80 	call	20002a8 <LCD_WR_DATA>
 2001248:	e0bffe17 	ldw	r2,-8(fp)
 200124c:	10803fcc 	andi	r2,r2,255
 2001250:	1009883a 	mov	r4,r2
 2001254:	20002a80 	call	20002a8 <LCD_WR_DATA>
    }
    LCD_WR_CMD(lcddev.wramcmd);
 2001258:	00808074 	movhi	r2,513
 200125c:	108e9f04 	addi	r2,r2,14972
 2001260:	10800417 	ldw	r2,16(r2)
 2001264:	1009883a 	mov	r4,r2
 2001268:	20002380 	call	2000238 <LCD_WR_CMD>
    LCD_WR_DATA(color);
 200126c:	e13fff17 	ldw	r4,-4(fp)
 2001270:	20002a80 	call	20002a8 <LCD_WR_DATA>
}
 2001274:	e037883a 	mov	sp,fp
 2001278:	dfc00117 	ldw	ra,4(sp)
 200127c:	df000017 	ldw	fp,0(sp)
 2001280:	dec00204 	addi	sp,sp,8
 2001284:	f800283a 	ret

02001288 <LCD_SSD_BackLightSet>:

//SSD1963 背光设置
//pwm:背光等级,0~100.越大越亮.
void LCD_SSD_BackLightSet(u8 pwm)
{
 2001288:	defffd04 	addi	sp,sp,-12
 200128c:	dfc00215 	stw	ra,8(sp)
 2001290:	df000115 	stw	fp,4(sp)
 2001294:	df000104 	addi	fp,sp,4
 2001298:	2005883a 	mov	r2,r4
 200129c:	e0bfff05 	stb	r2,-4(fp)
    LCD_WR_CMD(0xBE);  //配置PWM输出
 20012a0:	01002f84 	movi	r4,190
 20012a4:	20002380 	call	2000238 <LCD_WR_CMD>
    LCD_WR_DATA(0x05); //1设置PWM频率
 20012a8:	01000144 	movi	r4,5
 20012ac:	20002a80 	call	20002a8 <LCD_WR_DATA>
    LCD_WR_DATA(pwm*2.55);//2设置PWM占空比
 20012b0:	e0bfff03 	ldbu	r2,-4(fp)
 20012b4:	1009883a 	mov	r4,r2
 20012b8:	20057e00 	call	20057e0 <__floatsidf>
 20012bc:	100b883a 	mov	r5,r2
 20012c0:	180d883a 	mov	r6,r3
 20012c4:	2809883a 	mov	r4,r5
 20012c8:	300b883a 	mov	r5,r6
 20012cc:	019999b4 	movhi	r6,26214
 20012d0:	31999984 	addi	r6,r6,26214
 20012d4:	01d00134 	movhi	r7,16388
 20012d8:	39d99984 	addi	r7,r7,26214
 20012dc:	20054980 	call	2005498 <__muldf3>
 20012e0:	1009883a 	mov	r4,r2
 20012e4:	180b883a 	mov	r5,r3
 20012e8:	2005883a 	mov	r2,r4
 20012ec:	2807883a 	mov	r3,r5
 20012f0:	1009883a 	mov	r4,r2
 20012f4:	180b883a 	mov	r5,r3
 20012f8:	200500c0 	call	200500c <__fixunsdfsi>
 20012fc:	1009883a 	mov	r4,r2
 2001300:	20002a80 	call	20002a8 <LCD_WR_DATA>
    LCD_WR_DATA(0x01); //3设置C
 2001304:	01000044 	movi	r4,1
 2001308:	20002a80 	call	20002a8 <LCD_WR_DATA>
    LCD_WR_DATA(0xFF); //4设置D
 200130c:	01003fc4 	movi	r4,255
 2001310:	20002a80 	call	20002a8 <LCD_WR_DATA>
    LCD_WR_DATA(0x00); //5设置E
 2001314:	0009883a 	mov	r4,zero
 2001318:	20002a80 	call	20002a8 <LCD_WR_DATA>
    LCD_WR_DATA(0x00); //6设置F
 200131c:	0009883a 	mov	r4,zero
 2001320:	20002a80 	call	20002a8 <LCD_WR_DATA>
}
 2001324:	e037883a 	mov	sp,fp
 2001328:	dfc00117 	ldw	ra,4(sp)
 200132c:	df000017 	ldw	fp,0(sp)
 2001330:	dec00204 	addi	sp,sp,8
 2001334:	f800283a 	ret

02001338 <LCD_Display_Dir>:

//设置LCD显示方向
//dir:0,竖屏；1,横屏
void LCD_Display_Dir(u8 dir)
{
 2001338:	defffd04 	addi	sp,sp,-12
 200133c:	dfc00215 	stw	ra,8(sp)
 2001340:	df000115 	stw	fp,4(sp)
 2001344:	df000104 	addi	fp,sp,4
 2001348:	2005883a 	mov	r2,r4
 200134c:	e0bfff05 	stb	r2,-4(fp)
    lcddev.dir=dir;        //横屏/竖屏
 2001350:	00808074 	movhi	r2,513
 2001354:	108e9f04 	addi	r2,r2,14972
 2001358:	e0ffff03 	ldbu	r3,-4(fp)
 200135c:	10c00305 	stb	r3,12(r2)
    if(dir==0) {           //竖屏
 2001360:	e0bfff03 	ldbu	r2,-4(fp)
 2001364:	1000611e 	bne	r2,zero,20014ec <LCD_Display_Dir+0x1b4>
        lcddev.width=240;
 2001368:	00808074 	movhi	r2,513
 200136c:	108e9f04 	addi	r2,r2,14972
 2001370:	00c03c04 	movi	r3,240
 2001374:	10c00015 	stw	r3,0(r2)
        lcddev.height=320;
 2001378:	00808074 	movhi	r2,513
 200137c:	108e9f04 	addi	r2,r2,14972
 2001380:	00c05004 	movi	r3,320
 2001384:	10c00115 	stw	r3,4(r2)
        if(lcddev.id==0X9341||lcddev.id==0X5310) {
 2001388:	00808074 	movhi	r2,513
 200138c:	108e9f04 	addi	r2,r2,14972
 2001390:	10c00217 	ldw	r3,8(r2)
 2001394:	00a4d054 	movui	r2,37697
 2001398:	18800526 	beq	r3,r2,20013b0 <LCD_Display_Dir+0x78>
 200139c:	00808074 	movhi	r2,513
 20013a0:	108e9f04 	addi	r2,r2,14972
 20013a4:	10800217 	ldw	r2,8(r2)
 20013a8:	1094c418 	cmpnei	r2,r2,21264
 20013ac:	10001b1e 	bne	r2,zero,200141c <LCD_Display_Dir+0xe4>
             lcddev.wramcmd=0X2C;
 20013b0:	00808074 	movhi	r2,513
 20013b4:	108e9f04 	addi	r2,r2,14972
 20013b8:	00c00b04 	movi	r3,44
 20013bc:	10c00415 	stw	r3,16(r2)
             lcddev.setxcmd=0X2A;
 20013c0:	00808074 	movhi	r2,513
 20013c4:	108e9f04 	addi	r2,r2,14972
 20013c8:	00c00a84 	movi	r3,42
 20013cc:	10c00515 	stw	r3,20(r2)
             lcddev.setycmd=0X2B;
 20013d0:	00808074 	movhi	r2,513
 20013d4:	108e9f04 	addi	r2,r2,14972
 20013d8:	00c00ac4 	movi	r3,43
 20013dc:	10c00615 	stw	r3,24(r2)
             if(lcddev.id==0X5310) {
 20013e0:	00808074 	movhi	r2,513
 20013e4:	108e9f04 	addi	r2,r2,14972
 20013e8:	10800217 	ldw	r2,8(r2)
 20013ec:	1094c418 	cmpnei	r2,r2,21264
 20013f0:	10009f1e 	bne	r2,zero,2001670 <LCD_Display_Dir+0x338>
                  lcddev.width=320;
 20013f4:	00808074 	movhi	r2,513
 20013f8:	108e9f04 	addi	r2,r2,14972
 20013fc:	00c05004 	movi	r3,320
 2001400:	10c00015 	stw	r3,0(r2)
                  lcddev.height=480;
 2001404:	00808074 	movhi	r2,513
 2001408:	108e9f04 	addi	r2,r2,14972
 200140c:	00c07804 	movi	r3,480
 2001410:	10c00115 	stw	r3,4(r2)
        lcddev.height=320;
        if(lcddev.id==0X9341||lcddev.id==0X5310) {
             lcddev.wramcmd=0X2C;
             lcddev.setxcmd=0X2A;
             lcddev.setycmd=0X2B;
             if(lcddev.id==0X5310) {
 2001414:	0001883a 	nop
 2001418:	00009506 	br	2001670 <LCD_Display_Dir+0x338>
                  lcddev.width=320;
                  lcddev.height=480;
             }
        }else if(lcddev.id==0x5510) {
 200141c:	00808074 	movhi	r2,513
 2001420:	108e9f04 	addi	r2,r2,14972
 2001424:	10800217 	ldw	r2,8(r2)
 2001428:	10954418 	cmpnei	r2,r2,21776
 200142c:	1000151e 	bne	r2,zero,2001484 <LCD_Display_Dir+0x14c>
             lcddev.wramcmd=0X2C00;
 2001430:	00808074 	movhi	r2,513
 2001434:	108e9f04 	addi	r2,r2,14972
 2001438:	00cb0004 	movi	r3,11264
 200143c:	10c00415 	stw	r3,16(r2)
             lcddev.setxcmd=0X2A00;
 2001440:	00808074 	movhi	r2,513
 2001444:	108e9f04 	addi	r2,r2,14972
 2001448:	00ca8004 	movi	r3,10752
 200144c:	10c00515 	stw	r3,20(r2)
             lcddev.setycmd=0X2B00;
 2001450:	00808074 	movhi	r2,513
 2001454:	108e9f04 	addi	r2,r2,14972
 2001458:	00cac004 	movi	r3,11008
 200145c:	10c00615 	stw	r3,24(r2)
             lcddev.width=480;
 2001460:	00808074 	movhi	r2,513
 2001464:	108e9f04 	addi	r2,r2,14972
 2001468:	00c07804 	movi	r3,480
 200146c:	10c00015 	stw	r3,0(r2)
             lcddev.height=800;
 2001470:	00808074 	movhi	r2,513
 2001474:	108e9f04 	addi	r2,r2,14972
 2001478:	00c0c804 	movi	r3,800
 200147c:	10c00115 	stw	r3,4(r2)
        }else if(lcddev.id==0X1963) {
             lcddev.wramcmd=0X2C;     //设置写入GRAM的指令
             lcddev.setxcmd=0X2B;     //设置写X坐标指令
             lcddev.setycmd=0X2A;     //设置写Y坐标指令
             lcddev.width=480;        //设置宽度480
             lcddev.height=800;       //设置高度800
 2001480:	00007a06 	br	200166c <LCD_Display_Dir+0x334>
             lcddev.wramcmd=0X2C00;
             lcddev.setxcmd=0X2A00;
             lcddev.setycmd=0X2B00;
             lcddev.width=480;
             lcddev.height=800;
        }else if(lcddev.id==0X1963) {
 2001484:	00808074 	movhi	r2,513
 2001488:	108e9f04 	addi	r2,r2,14972
 200148c:	10800217 	ldw	r2,8(r2)
 2001490:	108658d8 	cmpnei	r2,r2,6499
 2001494:	1000751e 	bne	r2,zero,200166c <LCD_Display_Dir+0x334>
             lcddev.wramcmd=0X2C;     //设置写入GRAM的指令
 2001498:	00808074 	movhi	r2,513
 200149c:	108e9f04 	addi	r2,r2,14972
 20014a0:	00c00b04 	movi	r3,44
 20014a4:	10c00415 	stw	r3,16(r2)
             lcddev.setxcmd=0X2B;     //设置写X坐标指令
 20014a8:	00808074 	movhi	r2,513
 20014ac:	108e9f04 	addi	r2,r2,14972
 20014b0:	00c00ac4 	movi	r3,43
 20014b4:	10c00515 	stw	r3,20(r2)
             lcddev.setycmd=0X2A;     //设置写Y坐标指令
 20014b8:	00808074 	movhi	r2,513
 20014bc:	108e9f04 	addi	r2,r2,14972
 20014c0:	00c00a84 	movi	r3,42
 20014c4:	10c00615 	stw	r3,24(r2)
             lcddev.width=480;        //设置宽度480
 20014c8:	00808074 	movhi	r2,513
 20014cc:	108e9f04 	addi	r2,r2,14972
 20014d0:	00c07804 	movi	r3,480
 20014d4:	10c00015 	stw	r3,0(r2)
             lcddev.height=800;       //设置高度800
 20014d8:	00808074 	movhi	r2,513
 20014dc:	108e9f04 	addi	r2,r2,14972
 20014e0:	00c0c804 	movi	r3,800
 20014e4:	10c00115 	stw	r3,4(r2)
 20014e8:	00006006 	br	200166c <LCD_Display_Dir+0x334>
        }
    }else {                //横屏
        lcddev.width=320;
 20014ec:	00808074 	movhi	r2,513
 20014f0:	108e9f04 	addi	r2,r2,14972
 20014f4:	00c05004 	movi	r3,320
 20014f8:	10c00015 	stw	r3,0(r2)
        lcddev.height=240;
 20014fc:	00808074 	movhi	r2,513
 2001500:	108e9f04 	addi	r2,r2,14972
 2001504:	00c03c04 	movi	r3,240
 2001508:	10c00115 	stw	r3,4(r2)
        if(lcddev.id==0X9341||lcddev.id==0X5310)
 200150c:	00808074 	movhi	r2,513
 2001510:	108e9f04 	addi	r2,r2,14972
 2001514:	10c00217 	ldw	r3,8(r2)
 2001518:	00a4d054 	movui	r2,37697
 200151c:	18800526 	beq	r3,r2,2001534 <LCD_Display_Dir+0x1fc>
 2001520:	00808074 	movhi	r2,513
 2001524:	108e9f04 	addi	r2,r2,14972
 2001528:	10800217 	ldw	r2,8(r2)
 200152c:	1094c418 	cmpnei	r2,r2,21264
 2001530:	10000d1e 	bne	r2,zero,2001568 <LCD_Display_Dir+0x230>
        {
             lcddev.wramcmd=0X2C;
 2001534:	00808074 	movhi	r2,513
 2001538:	108e9f04 	addi	r2,r2,14972
 200153c:	00c00b04 	movi	r3,44
 2001540:	10c00415 	stw	r3,16(r2)
             lcddev.setxcmd=0X2A;
 2001544:	00808074 	movhi	r2,513
 2001548:	108e9f04 	addi	r2,r2,14972
 200154c:	00c00a84 	movi	r3,42
 2001550:	10c00515 	stw	r3,20(r2)
             lcddev.setycmd=0X2B;
 2001554:	00808074 	movhi	r2,513
 2001558:	108e9f04 	addi	r2,r2,14972
 200155c:	00c00ac4 	movi	r3,43
 2001560:	10c00615 	stw	r3,24(r2)
 2001564:	00003306 	br	2001634 <LCD_Display_Dir+0x2fc>
        }else if(lcddev.id==0x5510)
 2001568:	00808074 	movhi	r2,513
 200156c:	108e9f04 	addi	r2,r2,14972
 2001570:	10800217 	ldw	r2,8(r2)
 2001574:	10954418 	cmpnei	r2,r2,21776
 2001578:	1000151e 	bne	r2,zero,20015d0 <LCD_Display_Dir+0x298>
        {
             lcddev.wramcmd=0X2C00;
 200157c:	00808074 	movhi	r2,513
 2001580:	108e9f04 	addi	r2,r2,14972
 2001584:	00cb0004 	movi	r3,11264
 2001588:	10c00415 	stw	r3,16(r2)
             lcddev.setxcmd=0X2A00;
 200158c:	00808074 	movhi	r2,513
 2001590:	108e9f04 	addi	r2,r2,14972
 2001594:	00ca8004 	movi	r3,10752
 2001598:	10c00515 	stw	r3,20(r2)
             lcddev.setycmd=0X2B00;
 200159c:	00808074 	movhi	r2,513
 20015a0:	108e9f04 	addi	r2,r2,14972
 20015a4:	00cac004 	movi	r3,11008
 20015a8:	10c00615 	stw	r3,24(r2)
             lcddev.width=800;
 20015ac:	00808074 	movhi	r2,513
 20015b0:	108e9f04 	addi	r2,r2,14972
 20015b4:	00c0c804 	movi	r3,800
 20015b8:	10c00015 	stw	r3,0(r2)
             lcddev.height=480;
 20015bc:	00808074 	movhi	r2,513
 20015c0:	108e9f04 	addi	r2,r2,14972
 20015c4:	00c07804 	movi	r3,480
 20015c8:	10c00115 	stw	r3,4(r2)
 20015cc:	00001906 	br	2001634 <LCD_Display_Dir+0x2fc>
        }else if(lcddev.id==0X1963)
 20015d0:	00808074 	movhi	r2,513
 20015d4:	108e9f04 	addi	r2,r2,14972
 20015d8:	10800217 	ldw	r2,8(r2)
 20015dc:	108658d8 	cmpnei	r2,r2,6499
 20015e0:	1000141e 	bne	r2,zero,2001634 <LCD_Display_Dir+0x2fc>
        {
             lcddev.wramcmd=0X2C;     //设置写入GRAM的指令
 20015e4:	00808074 	movhi	r2,513
 20015e8:	108e9f04 	addi	r2,r2,14972
 20015ec:	00c00b04 	movi	r3,44
 20015f0:	10c00415 	stw	r3,16(r2)
             lcddev.setxcmd=0X2A;     //设置写X坐标指令
 20015f4:	00808074 	movhi	r2,513
 20015f8:	108e9f04 	addi	r2,r2,14972
 20015fc:	00c00a84 	movi	r3,42
 2001600:	10c00515 	stw	r3,20(r2)
             lcddev.setycmd=0X2B;     //设置写Y坐标指令
 2001604:	00808074 	movhi	r2,513
 2001608:	108e9f04 	addi	r2,r2,14972
 200160c:	00c00ac4 	movi	r3,43
 2001610:	10c00615 	stw	r3,24(r2)
             lcddev.width=800;        //设置宽度800
 2001614:	00808074 	movhi	r2,513
 2001618:	108e9f04 	addi	r2,r2,14972
 200161c:	00c0c804 	movi	r3,800
 2001620:	10c00015 	stw	r3,0(r2)
             lcddev.height=480;       //设置高度480
 2001624:	00808074 	movhi	r2,513
 2001628:	108e9f04 	addi	r2,r2,14972
 200162c:	00c07804 	movi	r3,480
 2001630:	10c00115 	stw	r3,4(r2)
        }
        if(lcddev.id==0X5310)
 2001634:	00808074 	movhi	r2,513
 2001638:	108e9f04 	addi	r2,r2,14972
 200163c:	10800217 	ldw	r2,8(r2)
 2001640:	1094c418 	cmpnei	r2,r2,21264
 2001644:	10000a1e 	bne	r2,zero,2001670 <LCD_Display_Dir+0x338>
        {
             lcddev.width=480;
 2001648:	00808074 	movhi	r2,513
 200164c:	108e9f04 	addi	r2,r2,14972
 2001650:	00c07804 	movi	r3,480
 2001654:	10c00015 	stw	r3,0(r2)
             lcddev.height=320;
 2001658:	00808074 	movhi	r2,513
 200165c:	108e9f04 	addi	r2,r2,14972
 2001660:	00c05004 	movi	r3,320
 2001664:	10c00115 	stw	r3,4(r2)
 2001668:	00000106 	br	2001670 <LCD_Display_Dir+0x338>
        }else if(lcddev.id==0X1963) {
             lcddev.wramcmd=0X2C;     //设置写入GRAM的指令
             lcddev.setxcmd=0X2B;     //设置写X坐标指令
             lcddev.setycmd=0X2A;     //设置写Y坐标指令
             lcddev.width=480;        //设置宽度480
             lcddev.height=800;       //设置高度800
 200166c:	0001883a 	nop
        {
             lcddev.width=480;
             lcddev.height=320;
        }
    }
    LCD_Scan_Dir(DFT_SCAN_DIR);    //默认扫描方向
 2001670:	0009883a 	mov	r4,zero
 2001674:	2000a2c0 	call	2000a2c <LCD_Scan_Dir>
}
 2001678:	e037883a 	mov	sp,fp
 200167c:	dfc00117 	ldw	ra,4(sp)
 2001680:	df000017 	ldw	fp,0(sp)
 2001684:	dec00204 	addi	sp,sp,8
 2001688:	f800283a 	ret

0200168c <LCD_Set_Window>:
//设置窗口(对RGB屏无效),并自动设置画点坐标到窗口左上角(sx,sy).
//sx,sy:窗口起始坐标(左上角)
//width,height:窗口宽度和高度,必须大于0!!
//窗体大小:width*height.
void LCD_Set_Window(u16 sx,u16 sy,u16 width,u16 height)
{
 200168c:	defff804 	addi	sp,sp,-32
 2001690:	dfc00715 	stw	ra,28(sp)
 2001694:	df000615 	stw	fp,24(sp)
 2001698:	df000604 	addi	fp,sp,24
 200169c:	e13ffc15 	stw	r4,-16(fp)
 20016a0:	e17ffd15 	stw	r5,-12(fp)
 20016a4:	e1bffe15 	stw	r6,-8(fp)
 20016a8:	e1ffff15 	stw	r7,-4(fp)
    u16 twidth,theight;
    twidth=sx+width-1;
 20016ac:	e0fffc17 	ldw	r3,-16(fp)
 20016b0:	e0bffe17 	ldw	r2,-8(fp)
 20016b4:	1885883a 	add	r2,r3,r2
 20016b8:	10bfffc4 	addi	r2,r2,-1
 20016bc:	e0bffa15 	stw	r2,-24(fp)
    theight=sy+height-1;
 20016c0:	e0fffd17 	ldw	r3,-12(fp)
 20016c4:	e0bfff17 	ldw	r2,-4(fp)
 20016c8:	1885883a 	add	r2,r3,r2
 20016cc:	10bfffc4 	addi	r2,r2,-1
 20016d0:	e0bffb15 	stw	r2,-20(fp)
    if(lcddev.id==0X9341||lcddev.id==0X5310||(lcddev.dir==1&&lcddev.id==0X1963)) {
 20016d4:	00808074 	movhi	r2,513
 20016d8:	108e9f04 	addi	r2,r2,14972
 20016dc:	10c00217 	ldw	r3,8(r2)
 20016e0:	00a4d054 	movui	r2,37697
 20016e4:	18801026 	beq	r3,r2,2001728 <LCD_Set_Window+0x9c>
 20016e8:	00808074 	movhi	r2,513
 20016ec:	108e9f04 	addi	r2,r2,14972
 20016f0:	10800217 	ldw	r2,8(r2)
 20016f4:	1094c420 	cmpeqi	r2,r2,21264
 20016f8:	10000b1e 	bne	r2,zero,2001728 <LCD_Set_Window+0x9c>
 20016fc:	00808074 	movhi	r2,513
 2001700:	108e9f04 	addi	r2,r2,14972
 2001704:	10800303 	ldbu	r2,12(r2)
 2001708:	10803fcc 	andi	r2,r2,255
 200170c:	10800058 	cmpnei	r2,r2,1
 2001710:	1000301e 	bne	r2,zero,20017d4 <LCD_Set_Window+0x148>
 2001714:	00808074 	movhi	r2,513
 2001718:	108e9f04 	addi	r2,r2,14972
 200171c:	10800217 	ldw	r2,8(r2)
 2001720:	108658d8 	cmpnei	r2,r2,6499
 2001724:	10002b1e 	bne	r2,zero,20017d4 <LCD_Set_Window+0x148>
        LCD_WR_CMD(lcddev.setxcmd);
 2001728:	00808074 	movhi	r2,513
 200172c:	108e9f04 	addi	r2,r2,14972
 2001730:	10800517 	ldw	r2,20(r2)
 2001734:	1009883a 	mov	r4,r2
 2001738:	20002380 	call	2000238 <LCD_WR_CMD>
        LCD_WR_DATA(sx>>8);
 200173c:	e0bffc17 	ldw	r2,-16(fp)
 2001740:	1004d23a 	srli	r2,r2,8
 2001744:	1009883a 	mov	r4,r2
 2001748:	20002a80 	call	20002a8 <LCD_WR_DATA>
        LCD_WR_DATA(sx&0XFF);
 200174c:	e0bffc17 	ldw	r2,-16(fp)
 2001750:	10803fcc 	andi	r2,r2,255
 2001754:	1009883a 	mov	r4,r2
 2001758:	20002a80 	call	20002a8 <LCD_WR_DATA>
        LCD_WR_DATA(twidth>>8);
 200175c:	e0bffa17 	ldw	r2,-24(fp)
 2001760:	1004d23a 	srli	r2,r2,8
 2001764:	1009883a 	mov	r4,r2
 2001768:	20002a80 	call	20002a8 <LCD_WR_DATA>
        LCD_WR_DATA(twidth&0XFF);
 200176c:	e0bffa17 	ldw	r2,-24(fp)
 2001770:	10803fcc 	andi	r2,r2,255
 2001774:	1009883a 	mov	r4,r2
 2001778:	20002a80 	call	20002a8 <LCD_WR_DATA>
        LCD_WR_CMD(lcddev.setycmd);
 200177c:	00808074 	movhi	r2,513
 2001780:	108e9f04 	addi	r2,r2,14972
 2001784:	10800617 	ldw	r2,24(r2)
 2001788:	1009883a 	mov	r4,r2
 200178c:	20002380 	call	2000238 <LCD_WR_CMD>
        LCD_WR_DATA(sy>>8);
 2001790:	e0bffd17 	ldw	r2,-12(fp)
 2001794:	1004d23a 	srli	r2,r2,8
 2001798:	1009883a 	mov	r4,r2
 200179c:	20002a80 	call	20002a8 <LCD_WR_DATA>
        LCD_WR_DATA(sy&0XFF);
 20017a0:	e0bffd17 	ldw	r2,-12(fp)
 20017a4:	10803fcc 	andi	r2,r2,255
 20017a8:	1009883a 	mov	r4,r2
 20017ac:	20002a80 	call	20002a8 <LCD_WR_DATA>
        LCD_WR_DATA(theight>>8);
 20017b0:	e0bffb17 	ldw	r2,-20(fp)
 20017b4:	1004d23a 	srli	r2,r2,8
 20017b8:	1009883a 	mov	r4,r2
 20017bc:	20002a80 	call	20002a8 <LCD_WR_DATA>
        LCD_WR_DATA(theight&0XFF);
 20017c0:	e0bffb17 	ldw	r2,-20(fp)
 20017c4:	10803fcc 	andi	r2,r2,255
 20017c8:	1009883a 	mov	r4,r2
 20017cc:	20002a80 	call	20002a8 <LCD_WR_DATA>
 20017d0:	00009606 	br	2001a2c <LCD_Set_Window+0x3a0>
    }else if(lcddev.id==0X1963)//1963竖屏特殊处理
 20017d4:	00808074 	movhi	r2,513
 20017d8:	108e9f04 	addi	r2,r2,14972
 20017dc:	10800217 	ldw	r2,8(r2)
 20017e0:	108658d8 	cmpnei	r2,r2,6499
 20017e4:	10003e1e 	bne	r2,zero,20018e0 <LCD_Set_Window+0x254>
    {
        sx=lcddev.width-width-sx;
 20017e8:	00808074 	movhi	r2,513
 20017ec:	108e9f04 	addi	r2,r2,14972
 20017f0:	10c00017 	ldw	r3,0(r2)
 20017f4:	e0bffe17 	ldw	r2,-8(fp)
 20017f8:	1887c83a 	sub	r3,r3,r2
 20017fc:	e0bffc17 	ldw	r2,-16(fp)
 2001800:	1885c83a 	sub	r2,r3,r2
 2001804:	e0bffc15 	stw	r2,-16(fp)
        height=sy+height-1;
 2001808:	e0fffd17 	ldw	r3,-12(fp)
 200180c:	e0bfff17 	ldw	r2,-4(fp)
 2001810:	1885883a 	add	r2,r3,r2
 2001814:	10bfffc4 	addi	r2,r2,-1
 2001818:	e0bfff15 	stw	r2,-4(fp)
        LCD_WR_CMD(lcddev.setxcmd);
 200181c:	00808074 	movhi	r2,513
 2001820:	108e9f04 	addi	r2,r2,14972
 2001824:	10800517 	ldw	r2,20(r2)
 2001828:	1009883a 	mov	r4,r2
 200182c:	20002380 	call	2000238 <LCD_WR_CMD>
        LCD_WR_DATA(sx>>8);
 2001830:	e0bffc17 	ldw	r2,-16(fp)
 2001834:	1004d23a 	srli	r2,r2,8
 2001838:	1009883a 	mov	r4,r2
 200183c:	20002a80 	call	20002a8 <LCD_WR_DATA>
        LCD_WR_DATA(sx&0XFF);
 2001840:	e0bffc17 	ldw	r2,-16(fp)
 2001844:	10803fcc 	andi	r2,r2,255
 2001848:	1009883a 	mov	r4,r2
 200184c:	20002a80 	call	20002a8 <LCD_WR_DATA>
        LCD_WR_DATA((sx+width-1)>>8);
 2001850:	e0fffc17 	ldw	r3,-16(fp)
 2001854:	e0bffe17 	ldw	r2,-8(fp)
 2001858:	1885883a 	add	r2,r3,r2
 200185c:	10bfffc4 	addi	r2,r2,-1
 2001860:	1004d23a 	srli	r2,r2,8
 2001864:	1009883a 	mov	r4,r2
 2001868:	20002a80 	call	20002a8 <LCD_WR_DATA>
        LCD_WR_DATA((sx+width-1)&0XFF);
 200186c:	e0fffc17 	ldw	r3,-16(fp)
 2001870:	e0bffe17 	ldw	r2,-8(fp)
 2001874:	1885883a 	add	r2,r3,r2
 2001878:	10bfffc4 	addi	r2,r2,-1
 200187c:	10803fcc 	andi	r2,r2,255
 2001880:	1009883a 	mov	r4,r2
 2001884:	20002a80 	call	20002a8 <LCD_WR_DATA>
        LCD_WR_CMD(lcddev.setycmd);
 2001888:	00808074 	movhi	r2,513
 200188c:	108e9f04 	addi	r2,r2,14972
 2001890:	10800617 	ldw	r2,24(r2)
 2001894:	1009883a 	mov	r4,r2
 2001898:	20002380 	call	2000238 <LCD_WR_CMD>
        LCD_WR_DATA(sy>>8);
 200189c:	e0bffd17 	ldw	r2,-12(fp)
 20018a0:	1004d23a 	srli	r2,r2,8
 20018a4:	1009883a 	mov	r4,r2
 20018a8:	20002a80 	call	20002a8 <LCD_WR_DATA>
        LCD_WR_DATA(sy&0XFF);
 20018ac:	e0bffd17 	ldw	r2,-12(fp)
 20018b0:	10803fcc 	andi	r2,r2,255
 20018b4:	1009883a 	mov	r4,r2
 20018b8:	20002a80 	call	20002a8 <LCD_WR_DATA>
        LCD_WR_DATA(height>>8);
 20018bc:	e0bfff17 	ldw	r2,-4(fp)
 20018c0:	1004d23a 	srli	r2,r2,8
 20018c4:	1009883a 	mov	r4,r2
 20018c8:	20002a80 	call	20002a8 <LCD_WR_DATA>
        LCD_WR_DATA(height&0XFF);
 20018cc:	e0bfff17 	ldw	r2,-4(fp)
 20018d0:	10803fcc 	andi	r2,r2,255
 20018d4:	1009883a 	mov	r4,r2
 20018d8:	20002a80 	call	20002a8 <LCD_WR_DATA>
 20018dc:	00005306 	br	2001a2c <LCD_Set_Window+0x3a0>
    }else if(lcddev.id==0X5510)
 20018e0:	00808074 	movhi	r2,513
 20018e4:	108e9f04 	addi	r2,r2,14972
 20018e8:	10800217 	ldw	r2,8(r2)
 20018ec:	10954418 	cmpnei	r2,r2,21776
 20018f0:	10004e1e 	bne	r2,zero,2001a2c <LCD_Set_Window+0x3a0>
    {
        LCD_WR_CMD(lcddev.setxcmd);LCD_WR_DATA(sx>>8);
 20018f4:	00808074 	movhi	r2,513
 20018f8:	108e9f04 	addi	r2,r2,14972
 20018fc:	10800517 	ldw	r2,20(r2)
 2001900:	1009883a 	mov	r4,r2
 2001904:	20002380 	call	2000238 <LCD_WR_CMD>
 2001908:	e0bffc17 	ldw	r2,-16(fp)
 200190c:	1004d23a 	srli	r2,r2,8
 2001910:	1009883a 	mov	r4,r2
 2001914:	20002a80 	call	20002a8 <LCD_WR_DATA>
        LCD_WR_CMD(lcddev.setxcmd+1);LCD_WR_DATA(sx&0XFF);
 2001918:	00808074 	movhi	r2,513
 200191c:	108e9f04 	addi	r2,r2,14972
 2001920:	10800517 	ldw	r2,20(r2)
 2001924:	10800044 	addi	r2,r2,1
 2001928:	1009883a 	mov	r4,r2
 200192c:	20002380 	call	2000238 <LCD_WR_CMD>
 2001930:	e0bffc17 	ldw	r2,-16(fp)
 2001934:	10803fcc 	andi	r2,r2,255
 2001938:	1009883a 	mov	r4,r2
 200193c:	20002a80 	call	20002a8 <LCD_WR_DATA>
        LCD_WR_CMD(lcddev.setxcmd+2);LCD_WR_DATA(twidth>>8);
 2001940:	00808074 	movhi	r2,513
 2001944:	108e9f04 	addi	r2,r2,14972
 2001948:	10800517 	ldw	r2,20(r2)
 200194c:	10800084 	addi	r2,r2,2
 2001950:	1009883a 	mov	r4,r2
 2001954:	20002380 	call	2000238 <LCD_WR_CMD>
 2001958:	e0bffa17 	ldw	r2,-24(fp)
 200195c:	1004d23a 	srli	r2,r2,8
 2001960:	1009883a 	mov	r4,r2
 2001964:	20002a80 	call	20002a8 <LCD_WR_DATA>
        LCD_WR_CMD(lcddev.setxcmd+3);LCD_WR_DATA(twidth&0XFF);
 2001968:	00808074 	movhi	r2,513
 200196c:	108e9f04 	addi	r2,r2,14972
 2001970:	10800517 	ldw	r2,20(r2)
 2001974:	108000c4 	addi	r2,r2,3
 2001978:	1009883a 	mov	r4,r2
 200197c:	20002380 	call	2000238 <LCD_WR_CMD>
 2001980:	e0bffa17 	ldw	r2,-24(fp)
 2001984:	10803fcc 	andi	r2,r2,255
 2001988:	1009883a 	mov	r4,r2
 200198c:	20002a80 	call	20002a8 <LCD_WR_DATA>
        LCD_WR_CMD(lcddev.setycmd);LCD_WR_DATA(sy>>8);
 2001990:	00808074 	movhi	r2,513
 2001994:	108e9f04 	addi	r2,r2,14972
 2001998:	10800617 	ldw	r2,24(r2)
 200199c:	1009883a 	mov	r4,r2
 20019a0:	20002380 	call	2000238 <LCD_WR_CMD>
 20019a4:	e0bffd17 	ldw	r2,-12(fp)
 20019a8:	1004d23a 	srli	r2,r2,8
 20019ac:	1009883a 	mov	r4,r2
 20019b0:	20002a80 	call	20002a8 <LCD_WR_DATA>
        LCD_WR_CMD(lcddev.setycmd+1);LCD_WR_DATA(sy&0XFF);
 20019b4:	00808074 	movhi	r2,513
 20019b8:	108e9f04 	addi	r2,r2,14972
 20019bc:	10800617 	ldw	r2,24(r2)
 20019c0:	10800044 	addi	r2,r2,1
 20019c4:	1009883a 	mov	r4,r2
 20019c8:	20002380 	call	2000238 <LCD_WR_CMD>
 20019cc:	e0bffd17 	ldw	r2,-12(fp)
 20019d0:	10803fcc 	andi	r2,r2,255
 20019d4:	1009883a 	mov	r4,r2
 20019d8:	20002a80 	call	20002a8 <LCD_WR_DATA>
        LCD_WR_CMD(lcddev.setycmd+2);LCD_WR_DATA(theight>>8);
 20019dc:	00808074 	movhi	r2,513
 20019e0:	108e9f04 	addi	r2,r2,14972
 20019e4:	10800617 	ldw	r2,24(r2)
 20019e8:	10800084 	addi	r2,r2,2
 20019ec:	1009883a 	mov	r4,r2
 20019f0:	20002380 	call	2000238 <LCD_WR_CMD>
 20019f4:	e0bffb17 	ldw	r2,-20(fp)
 20019f8:	1004d23a 	srli	r2,r2,8
 20019fc:	1009883a 	mov	r4,r2
 2001a00:	20002a80 	call	20002a8 <LCD_WR_DATA>
        LCD_WR_CMD(lcddev.setycmd+3);LCD_WR_DATA(theight&0XFF);
 2001a04:	00808074 	movhi	r2,513
 2001a08:	108e9f04 	addi	r2,r2,14972
 2001a0c:	10800617 	ldw	r2,24(r2)
 2001a10:	108000c4 	addi	r2,r2,3
 2001a14:	1009883a 	mov	r4,r2
 2001a18:	20002380 	call	2000238 <LCD_WR_CMD>
 2001a1c:	e0bffb17 	ldw	r2,-20(fp)
 2001a20:	10803fcc 	andi	r2,r2,255
 2001a24:	1009883a 	mov	r4,r2
 2001a28:	20002a80 	call	20002a8 <LCD_WR_DATA>
    }
}
 2001a2c:	e037883a 	mov	sp,fp
 2001a30:	dfc00117 	ldw	ra,4(sp)
 2001a34:	df000017 	ldw	fp,0(sp)
 2001a38:	dec00204 	addi	sp,sp,8
 2001a3c:	f800283a 	ret

02001a40 <MCULCD_Init>:

//TFTLCD初始化
void MCULCD_Init(void)
{
 2001a40:	defffd04 	addi	sp,sp,-12
 2001a44:	dfc00215 	stw	ra,8(sp)
 2001a48:	df000115 	stw	fp,4(sp)
 2001a4c:	dc000015 	stw	r16,0(sp)
 2001a50:	d839883a 	mov	fp,sp
	//拉低初始化完成引脚
	IOWR_ALTERA_AVALON_PIO_DATA(PIO_LCD_INIT_DONE_BASE,0);
 2001a54:	0007883a 	mov	r3,zero
 2001a58:	00810034 	movhi	r2,1024
 2001a5c:	10880404 	addi	r2,r2,8208
 2001a60:	10c00035 	stwio	r3,0(r2)
	//TFTLCD 复位
	IOWR_ALTERA_AVALON_PIO_DATA(PIO_MLCD_RST_N_BASE,0);
 2001a64:	0007883a 	mov	r3,zero
 2001a68:	00810034 	movhi	r2,1024
 2001a6c:	10881c04 	addi	r2,r2,8304
 2001a70:	10c00035 	stwio	r3,0(r2)
	delay_ms(100);
 2001a74:	01001904 	movi	r4,100
 2001a78:	20002000 	call	2000200 <delay_ms>
	IOWR_ALTERA_AVALON_PIO_DATA(PIO_MLCD_RST_N_BASE,1);
 2001a7c:	00c00044 	movi	r3,1
 2001a80:	00810034 	movhi	r2,1024
 2001a84:	10881c04 	addi	r2,r2,8304
 2001a88:	10c00035 	stwio	r3,0(r2)
	IOWR_ALTERA_AVALON_PIO_DATA(PIO_MLCD_CS_N_BASE,1);
 2001a8c:	00c00044 	movi	r3,1
 2001a90:	00810034 	movhi	r2,1024
 2001a94:	10882804 	addi	r2,r2,8352
 2001a98:	10c00035 	stwio	r3,0(r2)
	IOWR_ALTERA_AVALON_PIO_DATA(PIO_MLCD_RD_N_BASE,1);
 2001a9c:	00c00044 	movi	r3,1
 2001aa0:	00810034 	movhi	r2,1024
 2001aa4:	10882004 	addi	r2,r2,8320
 2001aa8:	10c00035 	stwio	r3,0(r2)
	IOWR_ALTERA_AVALON_PIO_DATA(PIO_MLCD_WR_N_BASE,1);
 2001aac:	00c00044 	movi	r3,1
 2001ab0:	00810034 	movhi	r2,1024
 2001ab4:	10882404 	addi	r2,r2,8336
 2001ab8:	10c00035 	stwio	r3,0(r2)
	IOWR_ALTERA_AVALON_PIO_DATA(PIO_MLCD_CS_N_BASE,0);
 2001abc:	0007883a 	mov	r3,zero
 2001ac0:	00810034 	movhi	r2,1024
 2001ac4:	10882804 	addi	r2,r2,8352
 2001ac8:	10c00035 	stwio	r3,0(r2)
	//mlcd_data_dir=1为输出
	IOWR_ALTERA_AVALON_PIO_DATA(PIO_MLCD_DATA_DIR_BASE,1);
 2001acc:	00c00044 	movi	r3,1
 2001ad0:	00810034 	movhi	r2,1024
 2001ad4:	10880804 	addi	r2,r2,8224
 2001ad8:	10c00035 	stwio	r3,0(r2)
	delay_ms(50);
 2001adc:	01000c84 	movi	r4,50
 2001ae0:	20002000 	call	2000200 <delay_ms>

    //尝试9341 ID的读取
    LCD_WR_CMD(0XD3);
 2001ae4:	010034c4 	movi	r4,211
 2001ae8:	20002380 	call	2000238 <LCD_WR_CMD>
    lcddev.id=LCD_RD_DATA();            //dummy read
 2001aec:	20003180 	call	2000318 <LCD_RD_DATA>
 2001af0:	00c08074 	movhi	r3,513
 2001af4:	18ce9f04 	addi	r3,r3,14972
 2001af8:	18800215 	stw	r2,8(r3)
    lcddev.id=LCD_RD_DATA();            //读到0X00
 2001afc:	20003180 	call	2000318 <LCD_RD_DATA>
 2001b00:	00c08074 	movhi	r3,513
 2001b04:	18ce9f04 	addi	r3,r3,14972
 2001b08:	18800215 	stw	r2,8(r3)
    lcddev.id=LCD_RD_DATA();            //读取93
 2001b0c:	20003180 	call	2000318 <LCD_RD_DATA>
 2001b10:	00c08074 	movhi	r3,513
 2001b14:	18ce9f04 	addi	r3,r3,14972
 2001b18:	18800215 	stw	r2,8(r3)
    lcddev.id<<=8;
 2001b1c:	00808074 	movhi	r2,513
 2001b20:	108e9f04 	addi	r2,r2,14972
 2001b24:	10800217 	ldw	r2,8(r2)
 2001b28:	1006923a 	slli	r3,r2,8
 2001b2c:	00808074 	movhi	r2,513
 2001b30:	108e9f04 	addi	r2,r2,14972
 2001b34:	10c00215 	stw	r3,8(r2)
    lcddev.id|=LCD_RD_DATA();           //读取41
 2001b38:	00808074 	movhi	r2,513
 2001b3c:	108e9f04 	addi	r2,r2,14972
 2001b40:	14000217 	ldw	r16,8(r2)
 2001b44:	20003180 	call	2000318 <LCD_RD_DATA>
 2001b48:	8086b03a 	or	r3,r16,r2
 2001b4c:	00808074 	movhi	r2,513
 2001b50:	108e9f04 	addi	r2,r2,14972
 2001b54:	10c00215 	stw	r3,8(r2)
    if(lcddev.id!=0X9341)               //非9341,尝试看看是不是NT35310
 2001b58:	00808074 	movhi	r2,513
 2001b5c:	108e9f04 	addi	r2,r2,14972
 2001b60:	10c00217 	ldw	r3,8(r2)
 2001b64:	00a4d054 	movui	r2,37697
 2001b68:	18806f26 	beq	r3,r2,2001d28 <MCULCD_Init+0x2e8>
    {
        LCD_WR_CMD(0XD4);
 2001b6c:	01003504 	movi	r4,212
 2001b70:	20002380 	call	2000238 <LCD_WR_CMD>
        lcddev.id=LCD_RD_DATA();       //dummy read
 2001b74:	20003180 	call	2000318 <LCD_RD_DATA>
 2001b78:	00c08074 	movhi	r3,513
 2001b7c:	18ce9f04 	addi	r3,r3,14972
 2001b80:	18800215 	stw	r2,8(r3)
        lcddev.id=LCD_RD_DATA();       //读回0X01
 2001b84:	20003180 	call	2000318 <LCD_RD_DATA>
 2001b88:	00c08074 	movhi	r3,513
 2001b8c:	18ce9f04 	addi	r3,r3,14972
 2001b90:	18800215 	stw	r2,8(r3)
        lcddev.id=LCD_RD_DATA();       //读回0X53
 2001b94:	20003180 	call	2000318 <LCD_RD_DATA>
 2001b98:	00c08074 	movhi	r3,513
 2001b9c:	18ce9f04 	addi	r3,r3,14972
 2001ba0:	18800215 	stw	r2,8(r3)
        lcddev.id<<=8;
 2001ba4:	00808074 	movhi	r2,513
 2001ba8:	108e9f04 	addi	r2,r2,14972
 2001bac:	10800217 	ldw	r2,8(r2)
 2001bb0:	1006923a 	slli	r3,r2,8
 2001bb4:	00808074 	movhi	r2,513
 2001bb8:	108e9f04 	addi	r2,r2,14972
 2001bbc:	10c00215 	stw	r3,8(r2)
        lcddev.id|=LCD_RD_DATA();      //这里读回0X10
 2001bc0:	00808074 	movhi	r2,513
 2001bc4:	108e9f04 	addi	r2,r2,14972
 2001bc8:	14000217 	ldw	r16,8(r2)
 2001bcc:	20003180 	call	2000318 <LCD_RD_DATA>
 2001bd0:	8086b03a 	or	r3,r16,r2
 2001bd4:	00808074 	movhi	r2,513
 2001bd8:	108e9f04 	addi	r2,r2,14972
 2001bdc:	10c00215 	stw	r3,8(r2)
        if(lcddev.id!=0X5310)          //也不是NT35310,尝试看看是不是NT35510
 2001be0:	00808074 	movhi	r2,513
 2001be4:	108e9f04 	addi	r2,r2,14972
 2001be8:	10800217 	ldw	r2,8(r2)
 2001bec:	1094c420 	cmpeqi	r2,r2,21264
 2001bf0:	10004d1e 	bne	r2,zero,2001d28 <MCULCD_Init+0x2e8>
        {
            LCD_WR_CMD(0XDA00);
 2001bf4:	01368014 	movui	r4,55808
 2001bf8:	20002380 	call	2000238 <LCD_WR_CMD>
            lcddev.id=LCD_RD_DATA();  //读回0X00
 2001bfc:	20003180 	call	2000318 <LCD_RD_DATA>
 2001c00:	00c08074 	movhi	r3,513
 2001c04:	18ce9f04 	addi	r3,r3,14972
 2001c08:	18800215 	stw	r2,8(r3)
            LCD_WR_CMD(0XDB00);
 2001c0c:	0136c014 	movui	r4,56064
 2001c10:	20002380 	call	2000238 <LCD_WR_CMD>
            lcddev.id=LCD_RD_DATA();  //读回0X80
 2001c14:	20003180 	call	2000318 <LCD_RD_DATA>
 2001c18:	00c08074 	movhi	r3,513
 2001c1c:	18ce9f04 	addi	r3,r3,14972
 2001c20:	18800215 	stw	r2,8(r3)
            lcddev.id<<=8;
 2001c24:	00808074 	movhi	r2,513
 2001c28:	108e9f04 	addi	r2,r2,14972
 2001c2c:	10800217 	ldw	r2,8(r2)
 2001c30:	1006923a 	slli	r3,r2,8
 2001c34:	00808074 	movhi	r2,513
 2001c38:	108e9f04 	addi	r2,r2,14972
 2001c3c:	10c00215 	stw	r3,8(r2)
            LCD_WR_CMD(0XDC00);
 2001c40:	01370014 	movui	r4,56320
 2001c44:	20002380 	call	2000238 <LCD_WR_CMD>
            lcddev.id|=LCD_RD_DATA(); //读回0X00
 2001c48:	00808074 	movhi	r2,513
 2001c4c:	108e9f04 	addi	r2,r2,14972
 2001c50:	14000217 	ldw	r16,8(r2)
 2001c54:	20003180 	call	2000318 <LCD_RD_DATA>
 2001c58:	8086b03a 	or	r3,r16,r2
 2001c5c:	00808074 	movhi	r2,513
 2001c60:	108e9f04 	addi	r2,r2,14972
 2001c64:	10c00215 	stw	r3,8(r2)
            if(lcddev.id==0x8000)
 2001c68:	00808074 	movhi	r2,513
 2001c6c:	108e9f04 	addi	r2,r2,14972
 2001c70:	10c00217 	ldw	r3,8(r2)
 2001c74:	00a00014 	movui	r2,32768
 2001c78:	1880041e 	bne	r3,r2,2001c8c <MCULCD_Init+0x24c>
                lcddev.id=0x5510;//NT35510读回的ID是8000H,为方便区分,我们强制设置为5510
 2001c7c:	00808074 	movhi	r2,513
 2001c80:	108e9f04 	addi	r2,r2,14972
 2001c84:	00d54404 	movi	r3,21776
 2001c88:	10c00215 	stw	r3,8(r2)
            if(lcddev.id!=0X5510)     //也不是NT5510,尝试看看是不是SSD1963
 2001c8c:	00808074 	movhi	r2,513
 2001c90:	108e9f04 	addi	r2,r2,14972
 2001c94:	10800217 	ldw	r2,8(r2)
 2001c98:	10954420 	cmpeqi	r2,r2,21776
 2001c9c:	1000221e 	bne	r2,zero,2001d28 <MCULCD_Init+0x2e8>
            {
                LCD_WR_CMD(0XA1);
 2001ca0:	01002844 	movi	r4,161
 2001ca4:	20002380 	call	2000238 <LCD_WR_CMD>
                lcddev.id=LCD_RD_DATA();
 2001ca8:	20003180 	call	2000318 <LCD_RD_DATA>
 2001cac:	00c08074 	movhi	r3,513
 2001cb0:	18ce9f04 	addi	r3,r3,14972
 2001cb4:	18800215 	stw	r2,8(r3)
                lcddev.id=LCD_RD_DATA();    //读回0X57
 2001cb8:	20003180 	call	2000318 <LCD_RD_DATA>
 2001cbc:	00c08074 	movhi	r3,513
 2001cc0:	18ce9f04 	addi	r3,r3,14972
 2001cc4:	18800215 	stw	r2,8(r3)
                lcddev.id<<=8;
 2001cc8:	00808074 	movhi	r2,513
 2001ccc:	108e9f04 	addi	r2,r2,14972
 2001cd0:	10800217 	ldw	r2,8(r2)
 2001cd4:	1006923a 	slli	r3,r2,8
 2001cd8:	00808074 	movhi	r2,513
 2001cdc:	108e9f04 	addi	r2,r2,14972
 2001ce0:	10c00215 	stw	r3,8(r2)
                lcddev.id|=LCD_RD_DATA();   //读回0X61
 2001ce4:	00808074 	movhi	r2,513
 2001ce8:	108e9f04 	addi	r2,r2,14972
 2001cec:	14000217 	ldw	r16,8(r2)
 2001cf0:	20003180 	call	2000318 <LCD_RD_DATA>
 2001cf4:	8086b03a 	or	r3,r16,r2
 2001cf8:	00808074 	movhi	r2,513
 2001cfc:	108e9f04 	addi	r2,r2,14972
 2001d00:	10c00215 	stw	r3,8(r2)
                if(lcddev.id==0X5761)
 2001d04:	00808074 	movhi	r2,513
 2001d08:	108e9f04 	addi	r2,r2,14972
 2001d0c:	10800217 	ldw	r2,8(r2)
 2001d10:	1095d858 	cmpnei	r2,r2,22369
 2001d14:	1000041e 	bne	r2,zero,2001d28 <MCULCD_Init+0x2e8>
                    lcddev.id=0X1963;//SSD1963读回的ID是5761H,为方便区分,我们强制设置为1963
 2001d18:	00808074 	movhi	r2,513
 2001d1c:	108e9f04 	addi	r2,r2,14972
 2001d20:	00c658c4 	movi	r3,6499
 2001d24:	10c00215 	stw	r3,8(r2)
            }
        }
    }
    printf(" LCD ID:%x\r\n",lcddev.id); //打印LCD ID
 2001d28:	00808074 	movhi	r2,513
 2001d2c:	108e9f04 	addi	r2,r2,14972
 2001d30:	10800217 	ldw	r2,8(r2)
 2001d34:	01008074 	movhi	r4,513
 2001d38:	2106ed04 	addi	r4,r4,7092
 2001d3c:	100b883a 	mov	r5,r2
 2001d40:	2005f400 	call	2005f40 <printf>
    if(lcddev.id==0X9341) {             //9341初始化
 2001d44:	00808074 	movhi	r2,513
 2001d48:	108e9f04 	addi	r2,r2,14972
 2001d4c:	10c00217 	ldw	r3,8(r2)
 2001d50:	00a4d054 	movui	r2,37697
 2001d54:	1880b91e 	bne	r3,r2,200203c <MCULCD_Init+0x5fc>
        LCD_WR_CMD(0xCF);
 2001d58:	010033c4 	movi	r4,207
 2001d5c:	20002380 	call	2000238 <LCD_WR_CMD>
        LCD_WR_DATA(0x00);
 2001d60:	0009883a 	mov	r4,zero
 2001d64:	20002a80 	call	20002a8 <LCD_WR_DATA>
        LCD_WR_DATA(0xC1);
 2001d68:	01003044 	movi	r4,193
 2001d6c:	20002a80 	call	20002a8 <LCD_WR_DATA>
        LCD_WR_DATA(0X30);
 2001d70:	01000c04 	movi	r4,48
 2001d74:	20002a80 	call	20002a8 <LCD_WR_DATA>
        LCD_WR_CMD(0xED);
 2001d78:	01003b44 	movi	r4,237
 2001d7c:	20002380 	call	2000238 <LCD_WR_CMD>
        LCD_WR_DATA(0x64);
 2001d80:	01001904 	movi	r4,100
 2001d84:	20002a80 	call	20002a8 <LCD_WR_DATA>
        LCD_WR_DATA(0x03);
 2001d88:	010000c4 	movi	r4,3
 2001d8c:	20002a80 	call	20002a8 <LCD_WR_DATA>
        LCD_WR_DATA(0X12);
 2001d90:	01000484 	movi	r4,18
 2001d94:	20002a80 	call	20002a8 <LCD_WR_DATA>
        LCD_WR_DATA(0X81);
 2001d98:	01002044 	movi	r4,129
 2001d9c:	20002a80 	call	20002a8 <LCD_WR_DATA>
        LCD_WR_CMD(0xE8);
 2001da0:	01003a04 	movi	r4,232
 2001da4:	20002380 	call	2000238 <LCD_WR_CMD>
        LCD_WR_DATA(0x85);
 2001da8:	01002144 	movi	r4,133
 2001dac:	20002a80 	call	20002a8 <LCD_WR_DATA>
        LCD_WR_DATA(0x10);
 2001db0:	01000404 	movi	r4,16
 2001db4:	20002a80 	call	20002a8 <LCD_WR_DATA>
        LCD_WR_DATA(0x7A);
 2001db8:	01001e84 	movi	r4,122
 2001dbc:	20002a80 	call	20002a8 <LCD_WR_DATA>
        LCD_WR_CMD(0xCB);
 2001dc0:	010032c4 	movi	r4,203
 2001dc4:	20002380 	call	2000238 <LCD_WR_CMD>
        LCD_WR_DATA(0x39);
 2001dc8:	01000e44 	movi	r4,57
 2001dcc:	20002a80 	call	20002a8 <LCD_WR_DATA>
        LCD_WR_DATA(0x2C);
 2001dd0:	01000b04 	movi	r4,44
 2001dd4:	20002a80 	call	20002a8 <LCD_WR_DATA>
        LCD_WR_DATA(0x00);
 2001dd8:	0009883a 	mov	r4,zero
 2001ddc:	20002a80 	call	20002a8 <LCD_WR_DATA>
        LCD_WR_DATA(0x34);
 2001de0:	01000d04 	movi	r4,52
 2001de4:	20002a80 	call	20002a8 <LCD_WR_DATA>
        LCD_WR_DATA(0x02);
 2001de8:	01000084 	movi	r4,2
 2001dec:	20002a80 	call	20002a8 <LCD_WR_DATA>
        LCD_WR_CMD(0xF7);
 2001df0:	01003dc4 	movi	r4,247
 2001df4:	20002380 	call	2000238 <LCD_WR_CMD>
        LCD_WR_DATA(0x20);
 2001df8:	01000804 	movi	r4,32
 2001dfc:	20002a80 	call	20002a8 <LCD_WR_DATA>
        LCD_WR_CMD(0xEA);
 2001e00:	01003a84 	movi	r4,234
 2001e04:	20002380 	call	2000238 <LCD_WR_CMD>
        LCD_WR_DATA(0x00);
 2001e08:	0009883a 	mov	r4,zero
 2001e0c:	20002a80 	call	20002a8 <LCD_WR_DATA>
        LCD_WR_DATA(0x00);
 2001e10:	0009883a 	mov	r4,zero
 2001e14:	20002a80 	call	20002a8 <LCD_WR_DATA>
        LCD_WR_CMD(0xC0);    //Power control
 2001e18:	01003004 	movi	r4,192
 2001e1c:	20002380 	call	2000238 <LCD_WR_CMD>
        LCD_WR_DATA(0x1B);   //VRH[5:0]
 2001e20:	010006c4 	movi	r4,27
 2001e24:	20002a80 	call	20002a8 <LCD_WR_DATA>
        LCD_WR_CMD(0xC1);    //Power control
 2001e28:	01003044 	movi	r4,193
 2001e2c:	20002380 	call	2000238 <LCD_WR_CMD>
        LCD_WR_DATA(0x01);   //SAP[2:0];BT[3:0]
 2001e30:	01000044 	movi	r4,1
 2001e34:	20002a80 	call	20002a8 <LCD_WR_DATA>
        LCD_WR_CMD(0xC5);    //VCM control
 2001e38:	01003144 	movi	r4,197
 2001e3c:	20002380 	call	2000238 <LCD_WR_CMD>
        LCD_WR_DATA(0x30);   //3F
 2001e40:	01000c04 	movi	r4,48
 2001e44:	20002a80 	call	20002a8 <LCD_WR_DATA>
        LCD_WR_DATA(0x30);   //3C
 2001e48:	01000c04 	movi	r4,48
 2001e4c:	20002a80 	call	20002a8 <LCD_WR_DATA>
        LCD_WR_CMD(0xC7);    //VCM control2
 2001e50:	010031c4 	movi	r4,199
 2001e54:	20002380 	call	2000238 <LCD_WR_CMD>
        LCD_WR_DATA(0XB7);
 2001e58:	01002dc4 	movi	r4,183
 2001e5c:	20002a80 	call	20002a8 <LCD_WR_DATA>
        LCD_WR_CMD(0x36);    // Memory Access Control
 2001e60:	01000d84 	movi	r4,54
 2001e64:	20002380 	call	2000238 <LCD_WR_CMD>
        LCD_WR_DATA(0x48);
 2001e68:	01001204 	movi	r4,72
 2001e6c:	20002a80 	call	20002a8 <LCD_WR_DATA>
        LCD_WR_CMD(0x3A);
 2001e70:	01000e84 	movi	r4,58
 2001e74:	20002380 	call	2000238 <LCD_WR_CMD>
        LCD_WR_DATA(0x55);
 2001e78:	01001544 	movi	r4,85
 2001e7c:	20002a80 	call	20002a8 <LCD_WR_DATA>
        LCD_WR_CMD(0xB1);
 2001e80:	01002c44 	movi	r4,177
 2001e84:	20002380 	call	2000238 <LCD_WR_CMD>
        LCD_WR_DATA(0x00);
 2001e88:	0009883a 	mov	r4,zero
 2001e8c:	20002a80 	call	20002a8 <LCD_WR_DATA>
        LCD_WR_DATA(0x1A);
 2001e90:	01000684 	movi	r4,26
 2001e94:	20002a80 	call	20002a8 <LCD_WR_DATA>
        LCD_WR_CMD(0xB6);    // Display Function Control
 2001e98:	01002d84 	movi	r4,182
 2001e9c:	20002380 	call	2000238 <LCD_WR_CMD>
        LCD_WR_DATA(0x0A);
 2001ea0:	01000284 	movi	r4,10
 2001ea4:	20002a80 	call	20002a8 <LCD_WR_DATA>
        LCD_WR_DATA(0xA2);
 2001ea8:	01002884 	movi	r4,162
 2001eac:	20002a80 	call	20002a8 <LCD_WR_DATA>
        LCD_WR_CMD(0xF2);    // 3Gamma Function Disable
 2001eb0:	01003c84 	movi	r4,242
 2001eb4:	20002380 	call	2000238 <LCD_WR_CMD>
        LCD_WR_DATA(0x00);
 2001eb8:	0009883a 	mov	r4,zero
 2001ebc:	20002a80 	call	20002a8 <LCD_WR_DATA>
        LCD_WR_CMD(0x26);    //Gamma curve selected
 2001ec0:	01000984 	movi	r4,38
 2001ec4:	20002380 	call	2000238 <LCD_WR_CMD>
        LCD_WR_DATA(0x01);
 2001ec8:	01000044 	movi	r4,1
 2001ecc:	20002a80 	call	20002a8 <LCD_WR_DATA>
        LCD_WR_CMD(0xE0);    //Set Gamma
 2001ed0:	01003804 	movi	r4,224
 2001ed4:	20002380 	call	2000238 <LCD_WR_CMD>
        LCD_WR_DATA(0x0F);
 2001ed8:	010003c4 	movi	r4,15
 2001edc:	20002a80 	call	20002a8 <LCD_WR_DATA>
        LCD_WR_DATA(0x2A);
 2001ee0:	01000a84 	movi	r4,42
 2001ee4:	20002a80 	call	20002a8 <LCD_WR_DATA>
        LCD_WR_DATA(0x28);
 2001ee8:	01000a04 	movi	r4,40
 2001eec:	20002a80 	call	20002a8 <LCD_WR_DATA>
        LCD_WR_DATA(0x08);
 2001ef0:	01000204 	movi	r4,8
 2001ef4:	20002a80 	call	20002a8 <LCD_WR_DATA>
        LCD_WR_DATA(0x0E);
 2001ef8:	01000384 	movi	r4,14
 2001efc:	20002a80 	call	20002a8 <LCD_WR_DATA>
        LCD_WR_DATA(0x08);
 2001f00:	01000204 	movi	r4,8
 2001f04:	20002a80 	call	20002a8 <LCD_WR_DATA>
        LCD_WR_DATA(0x54);
 2001f08:	01001504 	movi	r4,84
 2001f0c:	20002a80 	call	20002a8 <LCD_WR_DATA>
        LCD_WR_DATA(0XA9);
 2001f10:	01002a44 	movi	r4,169
 2001f14:	20002a80 	call	20002a8 <LCD_WR_DATA>
        LCD_WR_DATA(0x43);
 2001f18:	010010c4 	movi	r4,67
 2001f1c:	20002a80 	call	20002a8 <LCD_WR_DATA>
        LCD_WR_DATA(0x0A);
 2001f20:	01000284 	movi	r4,10
 2001f24:	20002a80 	call	20002a8 <LCD_WR_DATA>
        LCD_WR_DATA(0x0F);
 2001f28:	010003c4 	movi	r4,15
 2001f2c:	20002a80 	call	20002a8 <LCD_WR_DATA>
        LCD_WR_DATA(0x00);
 2001f30:	0009883a 	mov	r4,zero
 2001f34:	20002a80 	call	20002a8 <LCD_WR_DATA>
        LCD_WR_DATA(0x00);
 2001f38:	0009883a 	mov	r4,zero
 2001f3c:	20002a80 	call	20002a8 <LCD_WR_DATA>
        LCD_WR_DATA(0x00);
 2001f40:	0009883a 	mov	r4,zero
 2001f44:	20002a80 	call	20002a8 <LCD_WR_DATA>
        LCD_WR_DATA(0x00);
 2001f48:	0009883a 	mov	r4,zero
 2001f4c:	20002a80 	call	20002a8 <LCD_WR_DATA>
        LCD_WR_CMD(0XE1);    //Set Gamma
 2001f50:	01003844 	movi	r4,225
 2001f54:	20002380 	call	2000238 <LCD_WR_CMD>
        LCD_WR_DATA(0x00);
 2001f58:	0009883a 	mov	r4,zero
 2001f5c:	20002a80 	call	20002a8 <LCD_WR_DATA>
        LCD_WR_DATA(0x15);
 2001f60:	01000544 	movi	r4,21
 2001f64:	20002a80 	call	20002a8 <LCD_WR_DATA>
        LCD_WR_DATA(0x17);
 2001f68:	010005c4 	movi	r4,23
 2001f6c:	20002a80 	call	20002a8 <LCD_WR_DATA>
        LCD_WR_DATA(0x07);
 2001f70:	010001c4 	movi	r4,7
 2001f74:	20002a80 	call	20002a8 <LCD_WR_DATA>
        LCD_WR_DATA(0x11);
 2001f78:	01000444 	movi	r4,17
 2001f7c:	20002a80 	call	20002a8 <LCD_WR_DATA>
        LCD_WR_DATA(0x06);
 2001f80:	01000184 	movi	r4,6
 2001f84:	20002a80 	call	20002a8 <LCD_WR_DATA>
        LCD_WR_DATA(0x2B);
 2001f88:	01000ac4 	movi	r4,43
 2001f8c:	20002a80 	call	20002a8 <LCD_WR_DATA>
        LCD_WR_DATA(0x56);
 2001f90:	01001584 	movi	r4,86
 2001f94:	20002a80 	call	20002a8 <LCD_WR_DATA>
        LCD_WR_DATA(0x3C);
 2001f98:	01000f04 	movi	r4,60
 2001f9c:	20002a80 	call	20002a8 <LCD_WR_DATA>
        LCD_WR_DATA(0x05);
 2001fa0:	01000144 	movi	r4,5
 2001fa4:	20002a80 	call	20002a8 <LCD_WR_DATA>
        LCD_WR_DATA(0x10);
 2001fa8:	01000404 	movi	r4,16
 2001fac:	20002a80 	call	20002a8 <LCD_WR_DATA>
        LCD_WR_DATA(0x0F);
 2001fb0:	010003c4 	movi	r4,15
 2001fb4:	20002a80 	call	20002a8 <LCD_WR_DATA>
        LCD_WR_DATA(0x3F);
 2001fb8:	01000fc4 	movi	r4,63
 2001fbc:	20002a80 	call	20002a8 <LCD_WR_DATA>
        LCD_WR_DATA(0x3F);
 2001fc0:	01000fc4 	movi	r4,63
 2001fc4:	20002a80 	call	20002a8 <LCD_WR_DATA>
        LCD_WR_DATA(0x0F);
 2001fc8:	010003c4 	movi	r4,15
 2001fcc:	20002a80 	call	20002a8 <LCD_WR_DATA>
        LCD_WR_CMD(0x2B);
 2001fd0:	01000ac4 	movi	r4,43
 2001fd4:	20002380 	call	2000238 <LCD_WR_CMD>
        LCD_WR_DATA(0x00);
 2001fd8:	0009883a 	mov	r4,zero
 2001fdc:	20002a80 	call	20002a8 <LCD_WR_DATA>
        LCD_WR_DATA(0x00);
 2001fe0:	0009883a 	mov	r4,zero
 2001fe4:	20002a80 	call	20002a8 <LCD_WR_DATA>
        LCD_WR_DATA(0x01);
 2001fe8:	01000044 	movi	r4,1
 2001fec:	20002a80 	call	20002a8 <LCD_WR_DATA>
        LCD_WR_DATA(0x3f);
 2001ff0:	01000fc4 	movi	r4,63
 2001ff4:	20002a80 	call	20002a8 <LCD_WR_DATA>
        LCD_WR_CMD(0x2A);
 2001ff8:	01000a84 	movi	r4,42
 2001ffc:	20002380 	call	2000238 <LCD_WR_CMD>
        LCD_WR_DATA(0x00);
 2002000:	0009883a 	mov	r4,zero
 2002004:	20002a80 	call	20002a8 <LCD_WR_DATA>
        LCD_WR_DATA(0x00);
 2002008:	0009883a 	mov	r4,zero
 200200c:	20002a80 	call	20002a8 <LCD_WR_DATA>
        LCD_WR_DATA(0x00);
 2002010:	0009883a 	mov	r4,zero
 2002014:	20002a80 	call	20002a8 <LCD_WR_DATA>
        LCD_WR_DATA(0xef);
 2002018:	01003bc4 	movi	r4,239
 200201c:	20002a80 	call	20002a8 <LCD_WR_DATA>
        LCD_WR_CMD(0x11); //Exit Sleep
 2002020:	01000444 	movi	r4,17
 2002024:	20002380 	call	2000238 <LCD_WR_CMD>
        delay_ms(120);
 2002028:	01001e04 	movi	r4,120
 200202c:	20002000 	call	2000200 <delay_ms>
        LCD_WR_CMD(0x29); //display on
 2002030:	01000a44 	movi	r4,41
 2002034:	20002380 	call	2000238 <LCD_WR_CMD>
 2002038:	000a0006 	br	200483c <MCULCD_Init+0x2dfc>
    }else if(lcddev.id==0x5310) {
 200203c:	00808074 	movhi	r2,513
 2002040:	108e9f04 	addi	r2,r2,14972
 2002044:	10800217 	ldw	r2,8(r2)
 2002048:	1094c418 	cmpnei	r2,r2,21264
 200204c:	1004fb1e 	bne	r2,zero,200343c <MCULCD_Init+0x19fc>
        LCD_WR_CMD(0xED);
 2002050:	01003b44 	movi	r4,237
 2002054:	20002380 	call	2000238 <LCD_WR_CMD>
        LCD_WR_DATA(0x01);
 2002058:	01000044 	movi	r4,1
 200205c:	20002a80 	call	20002a8 <LCD_WR_DATA>
        LCD_WR_DATA(0xFE);
 2002060:	01003f84 	movi	r4,254
 2002064:	20002a80 	call	20002a8 <LCD_WR_DATA>

        LCD_WR_CMD(0xEE);
 2002068:	01003b84 	movi	r4,238
 200206c:	20002380 	call	2000238 <LCD_WR_CMD>
        LCD_WR_DATA(0xDE);
 2002070:	01003784 	movi	r4,222
 2002074:	20002a80 	call	20002a8 <LCD_WR_DATA>
        LCD_WR_DATA(0x21);
 2002078:	01000844 	movi	r4,33
 200207c:	20002a80 	call	20002a8 <LCD_WR_DATA>

        LCD_WR_CMD(0xF1);
 2002080:	01003c44 	movi	r4,241
 2002084:	20002380 	call	2000238 <LCD_WR_CMD>
        LCD_WR_DATA(0x01);
 2002088:	01000044 	movi	r4,1
 200208c:	20002a80 	call	20002a8 <LCD_WR_DATA>
        LCD_WR_CMD(0xDF);
 2002090:	010037c4 	movi	r4,223
 2002094:	20002380 	call	2000238 <LCD_WR_CMD>
        LCD_WR_DATA(0x10);
 2002098:	01000404 	movi	r4,16
 200209c:	20002a80 	call	20002a8 <LCD_WR_DATA>

        //VCOMvoltage//
        LCD_WR_CMD(0xC4);
 20020a0:	01003104 	movi	r4,196
 20020a4:	20002380 	call	2000238 <LCD_WR_CMD>
        LCD_WR_DATA(0x8F);      //5f
 20020a8:	010023c4 	movi	r4,143
 20020ac:	20002a80 	call	20002a8 <LCD_WR_DATA>

        LCD_WR_CMD(0xC6);
 20020b0:	01003184 	movi	r4,198
 20020b4:	20002380 	call	2000238 <LCD_WR_CMD>
        LCD_WR_DATA(0x00);
 20020b8:	0009883a 	mov	r4,zero
 20020bc:	20002a80 	call	20002a8 <LCD_WR_DATA>
        LCD_WR_DATA(0xE2);
 20020c0:	01003884 	movi	r4,226
 20020c4:	20002a80 	call	20002a8 <LCD_WR_DATA>
        LCD_WR_DATA(0xE2);
 20020c8:	01003884 	movi	r4,226
 20020cc:	20002a80 	call	20002a8 <LCD_WR_DATA>
        LCD_WR_DATA(0xE2);
 20020d0:	01003884 	movi	r4,226
 20020d4:	20002a80 	call	20002a8 <LCD_WR_DATA>
        LCD_WR_CMD(0xBF);
 20020d8:	01002fc4 	movi	r4,191
 20020dc:	20002380 	call	2000238 <LCD_WR_CMD>
        LCD_WR_DATA(0xAA);
 20020e0:	01002a84 	movi	r4,170
 20020e4:	20002a80 	call	20002a8 <LCD_WR_DATA>

        LCD_WR_CMD(0xB0);
 20020e8:	01002c04 	movi	r4,176
 20020ec:	20002380 	call	2000238 <LCD_WR_CMD>
        LCD_WR_DATA(0x0D);
 20020f0:	01000344 	movi	r4,13
 20020f4:	20002a80 	call	20002a8 <LCD_WR_DATA>
        LCD_WR_DATA(0x00);
 20020f8:	0009883a 	mov	r4,zero
 20020fc:	20002a80 	call	20002a8 <LCD_WR_DATA>
        LCD_WR_DATA(0x0D);
 2002100:	01000344 	movi	r4,13
 2002104:	20002a80 	call	20002a8 <LCD_WR_DATA>
        LCD_WR_DATA(0x00);
 2002108:	0009883a 	mov	r4,zero
 200210c:	20002a80 	call	20002a8 <LCD_WR_DATA>
        LCD_WR_DATA(0x11);
 2002110:	01000444 	movi	r4,17
 2002114:	20002a80 	call	20002a8 <LCD_WR_DATA>
        LCD_WR_DATA(0x00);
 2002118:	0009883a 	mov	r4,zero
 200211c:	20002a80 	call	20002a8 <LCD_WR_DATA>
        LCD_WR_DATA(0x19);
 2002120:	01000644 	movi	r4,25
 2002124:	20002a80 	call	20002a8 <LCD_WR_DATA>
        LCD_WR_DATA(0x00);
 2002128:	0009883a 	mov	r4,zero
 200212c:	20002a80 	call	20002a8 <LCD_WR_DATA>
        LCD_WR_DATA(0x21);
 2002130:	01000844 	movi	r4,33
 2002134:	20002a80 	call	20002a8 <LCD_WR_DATA>
        LCD_WR_DATA(0x00);
 2002138:	0009883a 	mov	r4,zero
 200213c:	20002a80 	call	20002a8 <LCD_WR_DATA>
        LCD_WR_DATA(0x2D);
 2002140:	01000b44 	movi	r4,45
 2002144:	20002a80 	call	20002a8 <LCD_WR_DATA>
        LCD_WR_DATA(0x00);
 2002148:	0009883a 	mov	r4,zero
 200214c:	20002a80 	call	20002a8 <LCD_WR_DATA>
        LCD_WR_DATA(0x3D);
 2002150:	01000f44 	movi	r4,61
 2002154:	20002a80 	call	20002a8 <LCD_WR_DATA>
        LCD_WR_DATA(0x00);
 2002158:	0009883a 	mov	r4,zero
 200215c:	20002a80 	call	20002a8 <LCD_WR_DATA>
        LCD_WR_DATA(0x5D);
 2002160:	01001744 	movi	r4,93
 2002164:	20002a80 	call	20002a8 <LCD_WR_DATA>
        LCD_WR_DATA(0x00);
 2002168:	0009883a 	mov	r4,zero
 200216c:	20002a80 	call	20002a8 <LCD_WR_DATA>
        LCD_WR_DATA(0x5D);
 2002170:	01001744 	movi	r4,93
 2002174:	20002a80 	call	20002a8 <LCD_WR_DATA>
        LCD_WR_DATA(0x00);
 2002178:	0009883a 	mov	r4,zero
 200217c:	20002a80 	call	20002a8 <LCD_WR_DATA>

        LCD_WR_CMD(0xB1);
 2002180:	01002c44 	movi	r4,177
 2002184:	20002380 	call	2000238 <LCD_WR_CMD>
        LCD_WR_DATA(0x80);
 2002188:	01002004 	movi	r4,128
 200218c:	20002a80 	call	20002a8 <LCD_WR_DATA>
        LCD_WR_DATA(0x00);
 2002190:	0009883a 	mov	r4,zero
 2002194:	20002a80 	call	20002a8 <LCD_WR_DATA>
        LCD_WR_DATA(0x8B);
 2002198:	010022c4 	movi	r4,139
 200219c:	20002a80 	call	20002a8 <LCD_WR_DATA>
        LCD_WR_DATA(0x00);
 20021a0:	0009883a 	mov	r4,zero
 20021a4:	20002a80 	call	20002a8 <LCD_WR_DATA>
        LCD_WR_DATA(0x96);
 20021a8:	01002584 	movi	r4,150
 20021ac:	20002a80 	call	20002a8 <LCD_WR_DATA>
        LCD_WR_DATA(0x00);
 20021b0:	0009883a 	mov	r4,zero
 20021b4:	20002a80 	call	20002a8 <LCD_WR_DATA>

        LCD_WR_CMD(0xB2);
 20021b8:	01002c84 	movi	r4,178
 20021bc:	20002380 	call	2000238 <LCD_WR_CMD>
        LCD_WR_DATA(0x00);
 20021c0:	0009883a 	mov	r4,zero
 20021c4:	20002a80 	call	20002a8 <LCD_WR_DATA>
        LCD_WR_DATA(0x00);
 20021c8:	0009883a 	mov	r4,zero
 20021cc:	20002a80 	call	20002a8 <LCD_WR_DATA>
        LCD_WR_DATA(0x02);
 20021d0:	01000084 	movi	r4,2
 20021d4:	20002a80 	call	20002a8 <LCD_WR_DATA>
        LCD_WR_DATA(0x00);
 20021d8:	0009883a 	mov	r4,zero
 20021dc:	20002a80 	call	20002a8 <LCD_WR_DATA>
        LCD_WR_DATA(0x03);
 20021e0:	010000c4 	movi	r4,3
 20021e4:	20002a80 	call	20002a8 <LCD_WR_DATA>
        LCD_WR_DATA(0x00);
 20021e8:	0009883a 	mov	r4,zero
 20021ec:	20002a80 	call	20002a8 <LCD_WR_DATA>

        LCD_WR_CMD(0xB3);
 20021f0:	01002cc4 	movi	r4,179
 20021f4:	20002380 	call	2000238 <LCD_WR_CMD>
        LCD_WR_DATA(0x00);
 20021f8:	0009883a 	mov	r4,zero
 20021fc:	20002a80 	call	20002a8 <LCD_WR_DATA>
        LCD_WR_DATA(0x00);
 2002200:	0009883a 	mov	r4,zero
 2002204:	20002a80 	call	20002a8 <LCD_WR_DATA>
        LCD_WR_DATA(0x00);
 2002208:	0009883a 	mov	r4,zero
 200220c:	20002a80 	call	20002a8 <LCD_WR_DATA>
        LCD_WR_DATA(0x00);
 2002210:	0009883a 	mov	r4,zero
 2002214:	20002a80 	call	20002a8 <LCD_WR_DATA>
        LCD_WR_DATA(0x00);
 2002218:	0009883a 	mov	r4,zero
 200221c:	20002a80 	call	20002a8 <LCD_WR_DATA>
        LCD_WR_DATA(0x00);
 2002220:	0009883a 	mov	r4,zero
 2002224:	20002a80 	call	20002a8 <LCD_WR_DATA>
        LCD_WR_DATA(0x00);
 2002228:	0009883a 	mov	r4,zero
 200222c:	20002a80 	call	20002a8 <LCD_WR_DATA>
        LCD_WR_DATA(0x00);
 2002230:	0009883a 	mov	r4,zero
 2002234:	20002a80 	call	20002a8 <LCD_WR_DATA>
        LCD_WR_DATA(0x00);
 2002238:	0009883a 	mov	r4,zero
 200223c:	20002a80 	call	20002a8 <LCD_WR_DATA>
        LCD_WR_DATA(0x00);
 2002240:	0009883a 	mov	r4,zero
 2002244:	20002a80 	call	20002a8 <LCD_WR_DATA>
        LCD_WR_DATA(0x00);
 2002248:	0009883a 	mov	r4,zero
 200224c:	20002a80 	call	20002a8 <LCD_WR_DATA>
        LCD_WR_DATA(0x00);
 2002250:	0009883a 	mov	r4,zero
 2002254:	20002a80 	call	20002a8 <LCD_WR_DATA>
        LCD_WR_DATA(0x00);
 2002258:	0009883a 	mov	r4,zero
 200225c:	20002a80 	call	20002a8 <LCD_WR_DATA>
        LCD_WR_DATA(0x00);
 2002260:	0009883a 	mov	r4,zero
 2002264:	20002a80 	call	20002a8 <LCD_WR_DATA>
        LCD_WR_DATA(0x00);
 2002268:	0009883a 	mov	r4,zero
 200226c:	20002a80 	call	20002a8 <LCD_WR_DATA>
        LCD_WR_DATA(0x00);
 2002270:	0009883a 	mov	r4,zero
 2002274:	20002a80 	call	20002a8 <LCD_WR_DATA>
        LCD_WR_DATA(0x00);
 2002278:	0009883a 	mov	r4,zero
 200227c:	20002a80 	call	20002a8 <LCD_WR_DATA>
        LCD_WR_DATA(0x00);
 2002280:	0009883a 	mov	r4,zero
 2002284:	20002a80 	call	20002a8 <LCD_WR_DATA>
        LCD_WR_DATA(0x00);
 2002288:	0009883a 	mov	r4,zero
 200228c:	20002a80 	call	20002a8 <LCD_WR_DATA>
        LCD_WR_DATA(0x00);
 2002290:	0009883a 	mov	r4,zero
 2002294:	20002a80 	call	20002a8 <LCD_WR_DATA>
        LCD_WR_DATA(0x00);
 2002298:	0009883a 	mov	r4,zero
 200229c:	20002a80 	call	20002a8 <LCD_WR_DATA>
        LCD_WR_DATA(0x00);
 20022a0:	0009883a 	mov	r4,zero
 20022a4:	20002a80 	call	20002a8 <LCD_WR_DATA>
        LCD_WR_DATA(0x00);
 20022a8:	0009883a 	mov	r4,zero
 20022ac:	20002a80 	call	20002a8 <LCD_WR_DATA>
        LCD_WR_DATA(0x00);
 20022b0:	0009883a 	mov	r4,zero
 20022b4:	20002a80 	call	20002a8 <LCD_WR_DATA>

        LCD_WR_CMD(0xB4);
 20022b8:	01002d04 	movi	r4,180
 20022bc:	20002380 	call	2000238 <LCD_WR_CMD>
        LCD_WR_DATA(0x8B);
 20022c0:	010022c4 	movi	r4,139
 20022c4:	20002a80 	call	20002a8 <LCD_WR_DATA>
        LCD_WR_DATA(0x00);
 20022c8:	0009883a 	mov	r4,zero
 20022cc:	20002a80 	call	20002a8 <LCD_WR_DATA>
        LCD_WR_DATA(0x96);
 20022d0:	01002584 	movi	r4,150
 20022d4:	20002a80 	call	20002a8 <LCD_WR_DATA>
        LCD_WR_DATA(0x00);
 20022d8:	0009883a 	mov	r4,zero
 20022dc:	20002a80 	call	20002a8 <LCD_WR_DATA>
        LCD_WR_DATA(0xA1);
 20022e0:	01002844 	movi	r4,161
 20022e4:	20002a80 	call	20002a8 <LCD_WR_DATA>
        LCD_WR_DATA(0x00);
 20022e8:	0009883a 	mov	r4,zero
 20022ec:	20002a80 	call	20002a8 <LCD_WR_DATA>

        LCD_WR_CMD(0xB5);
 20022f0:	01002d44 	movi	r4,181
 20022f4:	20002380 	call	2000238 <LCD_WR_CMD>
        LCD_WR_DATA(0x02);
 20022f8:	01000084 	movi	r4,2
 20022fc:	20002a80 	call	20002a8 <LCD_WR_DATA>
        LCD_WR_DATA(0x00);
 2002300:	0009883a 	mov	r4,zero
 2002304:	20002a80 	call	20002a8 <LCD_WR_DATA>
        LCD_WR_DATA(0x03);
 2002308:	010000c4 	movi	r4,3
 200230c:	20002a80 	call	20002a8 <LCD_WR_DATA>
        LCD_WR_DATA(0x00);
 2002310:	0009883a 	mov	r4,zero
 2002314:	20002a80 	call	20002a8 <LCD_WR_DATA>
        LCD_WR_DATA(0x04);
 2002318:	01000104 	movi	r4,4
 200231c:	20002a80 	call	20002a8 <LCD_WR_DATA>
        LCD_WR_DATA(0x00);
 2002320:	0009883a 	mov	r4,zero
 2002324:	20002a80 	call	20002a8 <LCD_WR_DATA>

        LCD_WR_CMD(0xB6);
 2002328:	01002d84 	movi	r4,182
 200232c:	20002380 	call	2000238 <LCD_WR_CMD>
        LCD_WR_DATA(0x00);
 2002330:	0009883a 	mov	r4,zero
 2002334:	20002a80 	call	20002a8 <LCD_WR_DATA>
        LCD_WR_DATA(0x00);
 2002338:	0009883a 	mov	r4,zero
 200233c:	20002a80 	call	20002a8 <LCD_WR_DATA>

        LCD_WR_CMD(0xB7);
 2002340:	01002dc4 	movi	r4,183
 2002344:	20002380 	call	2000238 <LCD_WR_CMD>
        LCD_WR_DATA(0x00);
 2002348:	0009883a 	mov	r4,zero
 200234c:	20002a80 	call	20002a8 <LCD_WR_DATA>
        LCD_WR_DATA(0x00);
 2002350:	0009883a 	mov	r4,zero
 2002354:	20002a80 	call	20002a8 <LCD_WR_DATA>
        LCD_WR_DATA(0x3F);
 2002358:	01000fc4 	movi	r4,63
 200235c:	20002a80 	call	20002a8 <LCD_WR_DATA>
        LCD_WR_DATA(0x00);
 2002360:	0009883a 	mov	r4,zero
 2002364:	20002a80 	call	20002a8 <LCD_WR_DATA>
        LCD_WR_DATA(0x5E);
 2002368:	01001784 	movi	r4,94
 200236c:	20002a80 	call	20002a8 <LCD_WR_DATA>
        LCD_WR_DATA(0x00);
 2002370:	0009883a 	mov	r4,zero
 2002374:	20002a80 	call	20002a8 <LCD_WR_DATA>
        LCD_WR_DATA(0x64);
 2002378:	01001904 	movi	r4,100
 200237c:	20002a80 	call	20002a8 <LCD_WR_DATA>
        LCD_WR_DATA(0x00);
 2002380:	0009883a 	mov	r4,zero
 2002384:	20002a80 	call	20002a8 <LCD_WR_DATA>
        LCD_WR_DATA(0x8C);
 2002388:	01002304 	movi	r4,140
 200238c:	20002a80 	call	20002a8 <LCD_WR_DATA>
        LCD_WR_DATA(0x00);
 2002390:	0009883a 	mov	r4,zero
 2002394:	20002a80 	call	20002a8 <LCD_WR_DATA>
        LCD_WR_DATA(0xAC);
 2002398:	01002b04 	movi	r4,172
 200239c:	20002a80 	call	20002a8 <LCD_WR_DATA>
        LCD_WR_DATA(0x00);
 20023a0:	0009883a 	mov	r4,zero
 20023a4:	20002a80 	call	20002a8 <LCD_WR_DATA>
        LCD_WR_DATA(0xDC);
 20023a8:	01003704 	movi	r4,220
 20023ac:	20002a80 	call	20002a8 <LCD_WR_DATA>
        LCD_WR_DATA(0x00);
 20023b0:	0009883a 	mov	r4,zero
 20023b4:	20002a80 	call	20002a8 <LCD_WR_DATA>
        LCD_WR_DATA(0x70);
 20023b8:	01001c04 	movi	r4,112
 20023bc:	20002a80 	call	20002a8 <LCD_WR_DATA>
        LCD_WR_DATA(0x00);
 20023c0:	0009883a 	mov	r4,zero
 20023c4:	20002a80 	call	20002a8 <LCD_WR_DATA>
        LCD_WR_DATA(0x90);
 20023c8:	01002404 	movi	r4,144
 20023cc:	20002a80 	call	20002a8 <LCD_WR_DATA>
        LCD_WR_DATA(0x00);
 20023d0:	0009883a 	mov	r4,zero
 20023d4:	20002a80 	call	20002a8 <LCD_WR_DATA>
        LCD_WR_DATA(0xEB);
 20023d8:	01003ac4 	movi	r4,235
 20023dc:	20002a80 	call	20002a8 <LCD_WR_DATA>
        LCD_WR_DATA(0x00);
 20023e0:	0009883a 	mov	r4,zero
 20023e4:	20002a80 	call	20002a8 <LCD_WR_DATA>
        LCD_WR_DATA(0xDC);
 20023e8:	01003704 	movi	r4,220
 20023ec:	20002a80 	call	20002a8 <LCD_WR_DATA>
        LCD_WR_DATA(0x00);
 20023f0:	0009883a 	mov	r4,zero
 20023f4:	20002a80 	call	20002a8 <LCD_WR_DATA>

        LCD_WR_CMD(0xB8);
 20023f8:	01002e04 	movi	r4,184
 20023fc:	20002380 	call	2000238 <LCD_WR_CMD>
        LCD_WR_DATA(0x00);
 2002400:	0009883a 	mov	r4,zero
 2002404:	20002a80 	call	20002a8 <LCD_WR_DATA>
        LCD_WR_DATA(0x00);
 2002408:	0009883a 	mov	r4,zero
 200240c:	20002a80 	call	20002a8 <LCD_WR_DATA>
        LCD_WR_DATA(0x00);
 2002410:	0009883a 	mov	r4,zero
 2002414:	20002a80 	call	20002a8 <LCD_WR_DATA>
        LCD_WR_DATA(0x00);
 2002418:	0009883a 	mov	r4,zero
 200241c:	20002a80 	call	20002a8 <LCD_WR_DATA>
        LCD_WR_DATA(0x00);
 2002420:	0009883a 	mov	r4,zero
 2002424:	20002a80 	call	20002a8 <LCD_WR_DATA>
        LCD_WR_DATA(0x00);
 2002428:	0009883a 	mov	r4,zero
 200242c:	20002a80 	call	20002a8 <LCD_WR_DATA>
        LCD_WR_DATA(0x00);
 2002430:	0009883a 	mov	r4,zero
 2002434:	20002a80 	call	20002a8 <LCD_WR_DATA>
        LCD_WR_DATA(0x00);
 2002438:	0009883a 	mov	r4,zero
 200243c:	20002a80 	call	20002a8 <LCD_WR_DATA>

        LCD_WR_CMD(0xBA);
 2002440:	01002e84 	movi	r4,186
 2002444:	20002380 	call	2000238 <LCD_WR_CMD>
        LCD_WR_DATA(0x24);
 2002448:	01000904 	movi	r4,36
 200244c:	20002a80 	call	20002a8 <LCD_WR_DATA>
        LCD_WR_DATA(0x00);
 2002450:	0009883a 	mov	r4,zero
 2002454:	20002a80 	call	20002a8 <LCD_WR_DATA>
        LCD_WR_DATA(0x00);
 2002458:	0009883a 	mov	r4,zero
 200245c:	20002a80 	call	20002a8 <LCD_WR_DATA>
        LCD_WR_DATA(0x00);
 2002460:	0009883a 	mov	r4,zero
 2002464:	20002a80 	call	20002a8 <LCD_WR_DATA>

        LCD_WR_CMD(0xC1);
 2002468:	01003044 	movi	r4,193
 200246c:	20002380 	call	2000238 <LCD_WR_CMD>
        LCD_WR_DATA(0x20);
 2002470:	01000804 	movi	r4,32
 2002474:	20002a80 	call	20002a8 <LCD_WR_DATA>
        LCD_WR_DATA(0x00);
 2002478:	0009883a 	mov	r4,zero
 200247c:	20002a80 	call	20002a8 <LCD_WR_DATA>
        LCD_WR_DATA(0x54);
 2002480:	01001504 	movi	r4,84
 2002484:	20002a80 	call	20002a8 <LCD_WR_DATA>
        LCD_WR_DATA(0x00);
 2002488:	0009883a 	mov	r4,zero
 200248c:	20002a80 	call	20002a8 <LCD_WR_DATA>
        LCD_WR_DATA(0xFF);
 2002490:	01003fc4 	movi	r4,255
 2002494:	20002a80 	call	20002a8 <LCD_WR_DATA>
        LCD_WR_DATA(0x00);
 2002498:	0009883a 	mov	r4,zero
 200249c:	20002a80 	call	20002a8 <LCD_WR_DATA>

        LCD_WR_CMD(0xC2);
 20024a0:	01003084 	movi	r4,194
 20024a4:	20002380 	call	2000238 <LCD_WR_CMD>
        LCD_WR_DATA(0x0A);
 20024a8:	01000284 	movi	r4,10
 20024ac:	20002a80 	call	20002a8 <LCD_WR_DATA>
        LCD_WR_DATA(0x00);
 20024b0:	0009883a 	mov	r4,zero
 20024b4:	20002a80 	call	20002a8 <LCD_WR_DATA>
        LCD_WR_DATA(0x04);
 20024b8:	01000104 	movi	r4,4
 20024bc:	20002a80 	call	20002a8 <LCD_WR_DATA>
        LCD_WR_DATA(0x00);
 20024c0:	0009883a 	mov	r4,zero
 20024c4:	20002a80 	call	20002a8 <LCD_WR_DATA>

        LCD_WR_CMD(0xC3);
 20024c8:	010030c4 	movi	r4,195
 20024cc:	20002380 	call	2000238 <LCD_WR_CMD>
        LCD_WR_DATA(0x3C);
 20024d0:	01000f04 	movi	r4,60
 20024d4:	20002a80 	call	20002a8 <LCD_WR_DATA>
        LCD_WR_DATA(0x00);
 20024d8:	0009883a 	mov	r4,zero
 20024dc:	20002a80 	call	20002a8 <LCD_WR_DATA>
        LCD_WR_DATA(0x3A);
 20024e0:	01000e84 	movi	r4,58
 20024e4:	20002a80 	call	20002a8 <LCD_WR_DATA>
        LCD_WR_DATA(0x00);
 20024e8:	0009883a 	mov	r4,zero
 20024ec:	20002a80 	call	20002a8 <LCD_WR_DATA>
        LCD_WR_DATA(0x39);
 20024f0:	01000e44 	movi	r4,57
 20024f4:	20002a80 	call	20002a8 <LCD_WR_DATA>
        LCD_WR_DATA(0x00);
 20024f8:	0009883a 	mov	r4,zero
 20024fc:	20002a80 	call	20002a8 <LCD_WR_DATA>
        LCD_WR_DATA(0x37);
 2002500:	01000dc4 	movi	r4,55
 2002504:	20002a80 	call	20002a8 <LCD_WR_DATA>
        LCD_WR_DATA(0x00);
 2002508:	0009883a 	mov	r4,zero
 200250c:	20002a80 	call	20002a8 <LCD_WR_DATA>
        LCD_WR_DATA(0x3C);
 2002510:	01000f04 	movi	r4,60
 2002514:	20002a80 	call	20002a8 <LCD_WR_DATA>
        LCD_WR_DATA(0x00);
 2002518:	0009883a 	mov	r4,zero
 200251c:	20002a80 	call	20002a8 <LCD_WR_DATA>
        LCD_WR_DATA(0x36);
 2002520:	01000d84 	movi	r4,54
 2002524:	20002a80 	call	20002a8 <LCD_WR_DATA>
        LCD_WR_DATA(0x00);
 2002528:	0009883a 	mov	r4,zero
 200252c:	20002a80 	call	20002a8 <LCD_WR_DATA>
        LCD_WR_DATA(0x32);
 2002530:	01000c84 	movi	r4,50
 2002534:	20002a80 	call	20002a8 <LCD_WR_DATA>
        LCD_WR_DATA(0x00);
 2002538:	0009883a 	mov	r4,zero
 200253c:	20002a80 	call	20002a8 <LCD_WR_DATA>
        LCD_WR_DATA(0x2F);
 2002540:	01000bc4 	movi	r4,47
 2002544:	20002a80 	call	20002a8 <LCD_WR_DATA>
        LCD_WR_DATA(0x00);
 2002548:	0009883a 	mov	r4,zero
 200254c:	20002a80 	call	20002a8 <LCD_WR_DATA>
        LCD_WR_DATA(0x2C);
 2002550:	01000b04 	movi	r4,44
 2002554:	20002a80 	call	20002a8 <LCD_WR_DATA>
        LCD_WR_DATA(0x00);
 2002558:	0009883a 	mov	r4,zero
 200255c:	20002a80 	call	20002a8 <LCD_WR_DATA>
        LCD_WR_DATA(0x29);
 2002560:	01000a44 	movi	r4,41
 2002564:	20002a80 	call	20002a8 <LCD_WR_DATA>
        LCD_WR_DATA(0x00);
 2002568:	0009883a 	mov	r4,zero
 200256c:	20002a80 	call	20002a8 <LCD_WR_DATA>
        LCD_WR_DATA(0x26);
 2002570:	01000984 	movi	r4,38
 2002574:	20002a80 	call	20002a8 <LCD_WR_DATA>
        LCD_WR_DATA(0x00);
 2002578:	0009883a 	mov	r4,zero
 200257c:	20002a80 	call	20002a8 <LCD_WR_DATA>
        LCD_WR_DATA(0x24);
 2002580:	01000904 	movi	r4,36
 2002584:	20002a80 	call	20002a8 <LCD_WR_DATA>
        LCD_WR_DATA(0x00);
 2002588:	0009883a 	mov	r4,zero
 200258c:	20002a80 	call	20002a8 <LCD_WR_DATA>
        LCD_WR_DATA(0x24);
 2002590:	01000904 	movi	r4,36
 2002594:	20002a80 	call	20002a8 <LCD_WR_DATA>
        LCD_WR_DATA(0x00);
 2002598:	0009883a 	mov	r4,zero
 200259c:	20002a80 	call	20002a8 <LCD_WR_DATA>
        LCD_WR_DATA(0x23);
 20025a0:	010008c4 	movi	r4,35
 20025a4:	20002a80 	call	20002a8 <LCD_WR_DATA>
        LCD_WR_DATA(0x00);
 20025a8:	0009883a 	mov	r4,zero
 20025ac:	20002a80 	call	20002a8 <LCD_WR_DATA>
        LCD_WR_DATA(0x3C);
 20025b0:	01000f04 	movi	r4,60
 20025b4:	20002a80 	call	20002a8 <LCD_WR_DATA>
        LCD_WR_DATA(0x00);
 20025b8:	0009883a 	mov	r4,zero
 20025bc:	20002a80 	call	20002a8 <LCD_WR_DATA>
        LCD_WR_DATA(0x36);
 20025c0:	01000d84 	movi	r4,54
 20025c4:	20002a80 	call	20002a8 <LCD_WR_DATA>
        LCD_WR_DATA(0x00);
 20025c8:	0009883a 	mov	r4,zero
 20025cc:	20002a80 	call	20002a8 <LCD_WR_DATA>
        LCD_WR_DATA(0x32);
 20025d0:	01000c84 	movi	r4,50
 20025d4:	20002a80 	call	20002a8 <LCD_WR_DATA>
        LCD_WR_DATA(0x00);
 20025d8:	0009883a 	mov	r4,zero
 20025dc:	20002a80 	call	20002a8 <LCD_WR_DATA>
        LCD_WR_DATA(0x2F);
 20025e0:	01000bc4 	movi	r4,47
 20025e4:	20002a80 	call	20002a8 <LCD_WR_DATA>
        LCD_WR_DATA(0x00);
 20025e8:	0009883a 	mov	r4,zero
 20025ec:	20002a80 	call	20002a8 <LCD_WR_DATA>
        LCD_WR_DATA(0x2C);
 20025f0:	01000b04 	movi	r4,44
 20025f4:	20002a80 	call	20002a8 <LCD_WR_DATA>
        LCD_WR_DATA(0x00);
 20025f8:	0009883a 	mov	r4,zero
 20025fc:	20002a80 	call	20002a8 <LCD_WR_DATA>
        LCD_WR_DATA(0x29);
 2002600:	01000a44 	movi	r4,41
 2002604:	20002a80 	call	20002a8 <LCD_WR_DATA>
        LCD_WR_DATA(0x00);
 2002608:	0009883a 	mov	r4,zero
 200260c:	20002a80 	call	20002a8 <LCD_WR_DATA>
        LCD_WR_DATA(0x26);
 2002610:	01000984 	movi	r4,38
 2002614:	20002a80 	call	20002a8 <LCD_WR_DATA>
        LCD_WR_DATA(0x00);
 2002618:	0009883a 	mov	r4,zero
 200261c:	20002a80 	call	20002a8 <LCD_WR_DATA>
        LCD_WR_DATA(0x24);
 2002620:	01000904 	movi	r4,36
 2002624:	20002a80 	call	20002a8 <LCD_WR_DATA>
        LCD_WR_DATA(0x00);
 2002628:	0009883a 	mov	r4,zero
 200262c:	20002a80 	call	20002a8 <LCD_WR_DATA>
        LCD_WR_DATA(0x24);
 2002630:	01000904 	movi	r4,36
 2002634:	20002a80 	call	20002a8 <LCD_WR_DATA>
        LCD_WR_DATA(0x00);
 2002638:	0009883a 	mov	r4,zero
 200263c:	20002a80 	call	20002a8 <LCD_WR_DATA>
        LCD_WR_DATA(0x23);
 2002640:	010008c4 	movi	r4,35
 2002644:	20002a80 	call	20002a8 <LCD_WR_DATA>
        LCD_WR_DATA(0x00);
 2002648:	0009883a 	mov	r4,zero
 200264c:	20002a80 	call	20002a8 <LCD_WR_DATA>

        LCD_WR_CMD(0xC4);
 2002650:	01003104 	movi	r4,196
 2002654:	20002380 	call	2000238 <LCD_WR_CMD>
        LCD_WR_DATA(0x62);
 2002658:	01001884 	movi	r4,98
 200265c:	20002a80 	call	20002a8 <LCD_WR_DATA>
        LCD_WR_DATA(0x00);
 2002660:	0009883a 	mov	r4,zero
 2002664:	20002a80 	call	20002a8 <LCD_WR_DATA>
        LCD_WR_DATA(0x05);
 2002668:	01000144 	movi	r4,5
 200266c:	20002a80 	call	20002a8 <LCD_WR_DATA>
        LCD_WR_DATA(0x00);
 2002670:	0009883a 	mov	r4,zero
 2002674:	20002a80 	call	20002a8 <LCD_WR_DATA>
        LCD_WR_DATA(0x84);
 2002678:	01002104 	movi	r4,132
 200267c:	20002a80 	call	20002a8 <LCD_WR_DATA>
        LCD_WR_DATA(0x00);
 2002680:	0009883a 	mov	r4,zero
 2002684:	20002a80 	call	20002a8 <LCD_WR_DATA>
        LCD_WR_DATA(0xF0);
 2002688:	01003c04 	movi	r4,240
 200268c:	20002a80 	call	20002a8 <LCD_WR_DATA>
        LCD_WR_DATA(0x00);
 2002690:	0009883a 	mov	r4,zero
 2002694:	20002a80 	call	20002a8 <LCD_WR_DATA>
        LCD_WR_DATA(0x18);
 2002698:	01000604 	movi	r4,24
 200269c:	20002a80 	call	20002a8 <LCD_WR_DATA>
        LCD_WR_DATA(0x00);
 20026a0:	0009883a 	mov	r4,zero
 20026a4:	20002a80 	call	20002a8 <LCD_WR_DATA>
        LCD_WR_DATA(0xA4);
 20026a8:	01002904 	movi	r4,164
 20026ac:	20002a80 	call	20002a8 <LCD_WR_DATA>
        LCD_WR_DATA(0x00);
 20026b0:	0009883a 	mov	r4,zero
 20026b4:	20002a80 	call	20002a8 <LCD_WR_DATA>
        LCD_WR_DATA(0x18);
 20026b8:	01000604 	movi	r4,24
 20026bc:	20002a80 	call	20002a8 <LCD_WR_DATA>
        LCD_WR_DATA(0x00);
 20026c0:	0009883a 	mov	r4,zero
 20026c4:	20002a80 	call	20002a8 <LCD_WR_DATA>
        LCD_WR_DATA(0x50);
 20026c8:	01001404 	movi	r4,80
 20026cc:	20002a80 	call	20002a8 <LCD_WR_DATA>
        LCD_WR_DATA(0x00);
 20026d0:	0009883a 	mov	r4,zero
 20026d4:	20002a80 	call	20002a8 <LCD_WR_DATA>
        LCD_WR_DATA(0x0C);
 20026d8:	01000304 	movi	r4,12
 20026dc:	20002a80 	call	20002a8 <LCD_WR_DATA>
        LCD_WR_DATA(0x00);
 20026e0:	0009883a 	mov	r4,zero
 20026e4:	20002a80 	call	20002a8 <LCD_WR_DATA>
        LCD_WR_DATA(0x17);
 20026e8:	010005c4 	movi	r4,23
 20026ec:	20002a80 	call	20002a8 <LCD_WR_DATA>
        LCD_WR_DATA(0x00);
 20026f0:	0009883a 	mov	r4,zero
 20026f4:	20002a80 	call	20002a8 <LCD_WR_DATA>
        LCD_WR_DATA(0x95);
 20026f8:	01002544 	movi	r4,149
 20026fc:	20002a80 	call	20002a8 <LCD_WR_DATA>
        LCD_WR_DATA(0x00);
 2002700:	0009883a 	mov	r4,zero
 2002704:	20002a80 	call	20002a8 <LCD_WR_DATA>
        LCD_WR_DATA(0xF3);
 2002708:	01003cc4 	movi	r4,243
 200270c:	20002a80 	call	20002a8 <LCD_WR_DATA>
        LCD_WR_DATA(0x00);
 2002710:	0009883a 	mov	r4,zero
 2002714:	20002a80 	call	20002a8 <LCD_WR_DATA>
        LCD_WR_DATA(0xE6);
 2002718:	01003984 	movi	r4,230
 200271c:	20002a80 	call	20002a8 <LCD_WR_DATA>
        LCD_WR_DATA(0x00);
 2002720:	0009883a 	mov	r4,zero
 2002724:	20002a80 	call	20002a8 <LCD_WR_DATA>

        LCD_WR_CMD(0xC5);
 2002728:	01003144 	movi	r4,197
 200272c:	20002380 	call	2000238 <LCD_WR_CMD>
        LCD_WR_DATA(0x32);
 2002730:	01000c84 	movi	r4,50
 2002734:	20002a80 	call	20002a8 <LCD_WR_DATA>
        LCD_WR_DATA(0x00);
 2002738:	0009883a 	mov	r4,zero
 200273c:	20002a80 	call	20002a8 <LCD_WR_DATA>
        LCD_WR_DATA(0x44);
 2002740:	01001104 	movi	r4,68
 2002744:	20002a80 	call	20002a8 <LCD_WR_DATA>
        LCD_WR_DATA(0x00);
 2002748:	0009883a 	mov	r4,zero
 200274c:	20002a80 	call	20002a8 <LCD_WR_DATA>
        LCD_WR_DATA(0x65);
 2002750:	01001944 	movi	r4,101
 2002754:	20002a80 	call	20002a8 <LCD_WR_DATA>
        LCD_WR_DATA(0x00);
 2002758:	0009883a 	mov	r4,zero
 200275c:	20002a80 	call	20002a8 <LCD_WR_DATA>
        LCD_WR_DATA(0x76);
 2002760:	01001d84 	movi	r4,118
 2002764:	20002a80 	call	20002a8 <LCD_WR_DATA>
        LCD_WR_DATA(0x00);
 2002768:	0009883a 	mov	r4,zero
 200276c:	20002a80 	call	20002a8 <LCD_WR_DATA>
        LCD_WR_DATA(0x88);
 2002770:	01002204 	movi	r4,136
 2002774:	20002a80 	call	20002a8 <LCD_WR_DATA>
        LCD_WR_DATA(0x00);
 2002778:	0009883a 	mov	r4,zero
 200277c:	20002a80 	call	20002a8 <LCD_WR_DATA>

        LCD_WR_CMD(0xC6);
 2002780:	01003184 	movi	r4,198
 2002784:	20002380 	call	2000238 <LCD_WR_CMD>
        LCD_WR_DATA(0x20);
 2002788:	01000804 	movi	r4,32
 200278c:	20002a80 	call	20002a8 <LCD_WR_DATA>
        LCD_WR_DATA(0x00);
 2002790:	0009883a 	mov	r4,zero
 2002794:	20002a80 	call	20002a8 <LCD_WR_DATA>
        LCD_WR_DATA(0x17);
 2002798:	010005c4 	movi	r4,23
 200279c:	20002a80 	call	20002a8 <LCD_WR_DATA>
        LCD_WR_DATA(0x00);
 20027a0:	0009883a 	mov	r4,zero
 20027a4:	20002a80 	call	20002a8 <LCD_WR_DATA>
        LCD_WR_DATA(0x01);
 20027a8:	01000044 	movi	r4,1
 20027ac:	20002a80 	call	20002a8 <LCD_WR_DATA>
        LCD_WR_DATA(0x00);
 20027b0:	0009883a 	mov	r4,zero
 20027b4:	20002a80 	call	20002a8 <LCD_WR_DATA>

        LCD_WR_CMD(0xC7);
 20027b8:	010031c4 	movi	r4,199
 20027bc:	20002380 	call	2000238 <LCD_WR_CMD>
        LCD_WR_DATA(0x00);
 20027c0:	0009883a 	mov	r4,zero
 20027c4:	20002a80 	call	20002a8 <LCD_WR_DATA>
        LCD_WR_DATA(0x00);
 20027c8:	0009883a 	mov	r4,zero
 20027cc:	20002a80 	call	20002a8 <LCD_WR_DATA>
        LCD_WR_DATA(0x00);
 20027d0:	0009883a 	mov	r4,zero
 20027d4:	20002a80 	call	20002a8 <LCD_WR_DATA>
        LCD_WR_DATA(0x00);
 20027d8:	0009883a 	mov	r4,zero
 20027dc:	20002a80 	call	20002a8 <LCD_WR_DATA>

        LCD_WR_CMD(0xC8);
 20027e0:	01003204 	movi	r4,200
 20027e4:	20002380 	call	2000238 <LCD_WR_CMD>
        LCD_WR_DATA(0x00);
 20027e8:	0009883a 	mov	r4,zero
 20027ec:	20002a80 	call	20002a8 <LCD_WR_DATA>
        LCD_WR_DATA(0x00);
 20027f0:	0009883a 	mov	r4,zero
 20027f4:	20002a80 	call	20002a8 <LCD_WR_DATA>
        LCD_WR_DATA(0x00);
 20027f8:	0009883a 	mov	r4,zero
 20027fc:	20002a80 	call	20002a8 <LCD_WR_DATA>
        LCD_WR_DATA(0x00);
 2002800:	0009883a 	mov	r4,zero
 2002804:	20002a80 	call	20002a8 <LCD_WR_DATA>

        LCD_WR_CMD(0xC9);
 2002808:	01003244 	movi	r4,201
 200280c:	20002380 	call	2000238 <LCD_WR_CMD>
        LCD_WR_DATA(0x00);
 2002810:	0009883a 	mov	r4,zero
 2002814:	20002a80 	call	20002a8 <LCD_WR_DATA>
        LCD_WR_DATA(0x00);
 2002818:	0009883a 	mov	r4,zero
 200281c:	20002a80 	call	20002a8 <LCD_WR_DATA>
        LCD_WR_DATA(0x00);
 2002820:	0009883a 	mov	r4,zero
 2002824:	20002a80 	call	20002a8 <LCD_WR_DATA>
        LCD_WR_DATA(0x00);
 2002828:	0009883a 	mov	r4,zero
 200282c:	20002a80 	call	20002a8 <LCD_WR_DATA>
        LCD_WR_DATA(0x00);
 2002830:	0009883a 	mov	r4,zero
 2002834:	20002a80 	call	20002a8 <LCD_WR_DATA>
        LCD_WR_DATA(0x00);
 2002838:	0009883a 	mov	r4,zero
 200283c:	20002a80 	call	20002a8 <LCD_WR_DATA>
        LCD_WR_DATA(0x00);
 2002840:	0009883a 	mov	r4,zero
 2002844:	20002a80 	call	20002a8 <LCD_WR_DATA>
        LCD_WR_DATA(0x00);
 2002848:	0009883a 	mov	r4,zero
 200284c:	20002a80 	call	20002a8 <LCD_WR_DATA>
        LCD_WR_DATA(0x00);
 2002850:	0009883a 	mov	r4,zero
 2002854:	20002a80 	call	20002a8 <LCD_WR_DATA>
        LCD_WR_DATA(0x00);
 2002858:	0009883a 	mov	r4,zero
 200285c:	20002a80 	call	20002a8 <LCD_WR_DATA>
        LCD_WR_DATA(0x00);
 2002860:	0009883a 	mov	r4,zero
 2002864:	20002a80 	call	20002a8 <LCD_WR_DATA>
        LCD_WR_DATA(0x00);
 2002868:	0009883a 	mov	r4,zero
 200286c:	20002a80 	call	20002a8 <LCD_WR_DATA>
        LCD_WR_DATA(0x00);
 2002870:	0009883a 	mov	r4,zero
 2002874:	20002a80 	call	20002a8 <LCD_WR_DATA>
        LCD_WR_DATA(0x00);
 2002878:	0009883a 	mov	r4,zero
 200287c:	20002a80 	call	20002a8 <LCD_WR_DATA>
        LCD_WR_DATA(0x00);
 2002880:	0009883a 	mov	r4,zero
 2002884:	20002a80 	call	20002a8 <LCD_WR_DATA>
        LCD_WR_DATA(0x00);
 2002888:	0009883a 	mov	r4,zero
 200288c:	20002a80 	call	20002a8 <LCD_WR_DATA>

        LCD_WR_CMD(0xE0);
 2002890:	01003804 	movi	r4,224
 2002894:	20002380 	call	2000238 <LCD_WR_CMD>
        LCD_WR_DATA(0x16);
 2002898:	01000584 	movi	r4,22
 200289c:	20002a80 	call	20002a8 <LCD_WR_DATA>
        LCD_WR_DATA(0x00);
 20028a0:	0009883a 	mov	r4,zero
 20028a4:	20002a80 	call	20002a8 <LCD_WR_DATA>
        LCD_WR_DATA(0x1C);
 20028a8:	01000704 	movi	r4,28
 20028ac:	20002a80 	call	20002a8 <LCD_WR_DATA>
        LCD_WR_DATA(0x00);
 20028b0:	0009883a 	mov	r4,zero
 20028b4:	20002a80 	call	20002a8 <LCD_WR_DATA>
        LCD_WR_DATA(0x21);
 20028b8:	01000844 	movi	r4,33
 20028bc:	20002a80 	call	20002a8 <LCD_WR_DATA>
        LCD_WR_DATA(0x00);
 20028c0:	0009883a 	mov	r4,zero
 20028c4:	20002a80 	call	20002a8 <LCD_WR_DATA>
        LCD_WR_DATA(0x36);
 20028c8:	01000d84 	movi	r4,54
 20028cc:	20002a80 	call	20002a8 <LCD_WR_DATA>
        LCD_WR_DATA(0x00);
 20028d0:	0009883a 	mov	r4,zero
 20028d4:	20002a80 	call	20002a8 <LCD_WR_DATA>
        LCD_WR_DATA(0x46);
 20028d8:	01001184 	movi	r4,70
 20028dc:	20002a80 	call	20002a8 <LCD_WR_DATA>
        LCD_WR_DATA(0x00);
 20028e0:	0009883a 	mov	r4,zero
 20028e4:	20002a80 	call	20002a8 <LCD_WR_DATA>
        LCD_WR_DATA(0x52);
 20028e8:	01001484 	movi	r4,82
 20028ec:	20002a80 	call	20002a8 <LCD_WR_DATA>
        LCD_WR_DATA(0x00);
 20028f0:	0009883a 	mov	r4,zero
 20028f4:	20002a80 	call	20002a8 <LCD_WR_DATA>
        LCD_WR_DATA(0x64);
 20028f8:	01001904 	movi	r4,100
 20028fc:	20002a80 	call	20002a8 <LCD_WR_DATA>
        LCD_WR_DATA(0x00);
 2002900:	0009883a 	mov	r4,zero
 2002904:	20002a80 	call	20002a8 <LCD_WR_DATA>
        LCD_WR_DATA(0x7A);
 2002908:	01001e84 	movi	r4,122
 200290c:	20002a80 	call	20002a8 <LCD_WR_DATA>
        LCD_WR_DATA(0x00);
 2002910:	0009883a 	mov	r4,zero
 2002914:	20002a80 	call	20002a8 <LCD_WR_DATA>
        LCD_WR_DATA(0x8B);
 2002918:	010022c4 	movi	r4,139
 200291c:	20002a80 	call	20002a8 <LCD_WR_DATA>
        LCD_WR_DATA(0x00);
 2002920:	0009883a 	mov	r4,zero
 2002924:	20002a80 	call	20002a8 <LCD_WR_DATA>
        LCD_WR_DATA(0x99);
 2002928:	01002644 	movi	r4,153
 200292c:	20002a80 	call	20002a8 <LCD_WR_DATA>
        LCD_WR_DATA(0x00);
 2002930:	0009883a 	mov	r4,zero
 2002934:	20002a80 	call	20002a8 <LCD_WR_DATA>
        LCD_WR_DATA(0xA8);
 2002938:	01002a04 	movi	r4,168
 200293c:	20002a80 	call	20002a8 <LCD_WR_DATA>
        LCD_WR_DATA(0x00);
 2002940:	0009883a 	mov	r4,zero
 2002944:	20002a80 	call	20002a8 <LCD_WR_DATA>
        LCD_WR_DATA(0xB9);
 2002948:	01002e44 	movi	r4,185
 200294c:	20002a80 	call	20002a8 <LCD_WR_DATA>
        LCD_WR_DATA(0x00);
 2002950:	0009883a 	mov	r4,zero
 2002954:	20002a80 	call	20002a8 <LCD_WR_DATA>
        LCD_WR_DATA(0xC4);
 2002958:	01003104 	movi	r4,196
 200295c:	20002a80 	call	20002a8 <LCD_WR_DATA>
        LCD_WR_DATA(0x00);
 2002960:	0009883a 	mov	r4,zero
 2002964:	20002a80 	call	20002a8 <LCD_WR_DATA>
        LCD_WR_DATA(0xCA);
 2002968:	01003284 	movi	r4,202
 200296c:	20002a80 	call	20002a8 <LCD_WR_DATA>
        LCD_WR_DATA(0x00);
 2002970:	0009883a 	mov	r4,zero
 2002974:	20002a80 	call	20002a8 <LCD_WR_DATA>
        LCD_WR_DATA(0xD2);
 2002978:	01003484 	movi	r4,210
 200297c:	20002a80 	call	20002a8 <LCD_WR_DATA>
        LCD_WR_DATA(0x00);
 2002980:	0009883a 	mov	r4,zero
 2002984:	20002a80 	call	20002a8 <LCD_WR_DATA>
        LCD_WR_DATA(0xD9);
 2002988:	01003644 	movi	r4,217
 200298c:	20002a80 	call	20002a8 <LCD_WR_DATA>
        LCD_WR_DATA(0x00);
 2002990:	0009883a 	mov	r4,zero
 2002994:	20002a80 	call	20002a8 <LCD_WR_DATA>
        LCD_WR_DATA(0xE0);
 2002998:	01003804 	movi	r4,224
 200299c:	20002a80 	call	20002a8 <LCD_WR_DATA>
        LCD_WR_DATA(0x00);
 20029a0:	0009883a 	mov	r4,zero
 20029a4:	20002a80 	call	20002a8 <LCD_WR_DATA>
        LCD_WR_DATA(0xF3);
 20029a8:	01003cc4 	movi	r4,243
 20029ac:	20002a80 	call	20002a8 <LCD_WR_DATA>
        LCD_WR_DATA(0x00);
 20029b0:	0009883a 	mov	r4,zero
 20029b4:	20002a80 	call	20002a8 <LCD_WR_DATA>

        LCD_WR_CMD(0xE1);
 20029b8:	01003844 	movi	r4,225
 20029bc:	20002380 	call	2000238 <LCD_WR_CMD>
        LCD_WR_DATA(0x16);
 20029c0:	01000584 	movi	r4,22
 20029c4:	20002a80 	call	20002a8 <LCD_WR_DATA>
        LCD_WR_DATA(0x00);
 20029c8:	0009883a 	mov	r4,zero
 20029cc:	20002a80 	call	20002a8 <LCD_WR_DATA>
        LCD_WR_DATA(0x1C);
 20029d0:	01000704 	movi	r4,28
 20029d4:	20002a80 	call	20002a8 <LCD_WR_DATA>
        LCD_WR_DATA(0x00);
 20029d8:	0009883a 	mov	r4,zero
 20029dc:	20002a80 	call	20002a8 <LCD_WR_DATA>
        LCD_WR_DATA(0x22);
 20029e0:	01000884 	movi	r4,34
 20029e4:	20002a80 	call	20002a8 <LCD_WR_DATA>
        LCD_WR_DATA(0x00);
 20029e8:	0009883a 	mov	r4,zero
 20029ec:	20002a80 	call	20002a8 <LCD_WR_DATA>
        LCD_WR_DATA(0x36);
 20029f0:	01000d84 	movi	r4,54
 20029f4:	20002a80 	call	20002a8 <LCD_WR_DATA>
        LCD_WR_DATA(0x00);
 20029f8:	0009883a 	mov	r4,zero
 20029fc:	20002a80 	call	20002a8 <LCD_WR_DATA>
        LCD_WR_DATA(0x45);
 2002a00:	01001144 	movi	r4,69
 2002a04:	20002a80 	call	20002a8 <LCD_WR_DATA>
        LCD_WR_DATA(0x00);
 2002a08:	0009883a 	mov	r4,zero
 2002a0c:	20002a80 	call	20002a8 <LCD_WR_DATA>
        LCD_WR_DATA(0x52);
 2002a10:	01001484 	movi	r4,82
 2002a14:	20002a80 	call	20002a8 <LCD_WR_DATA>
        LCD_WR_DATA(0x00);
 2002a18:	0009883a 	mov	r4,zero
 2002a1c:	20002a80 	call	20002a8 <LCD_WR_DATA>
        LCD_WR_DATA(0x64);
 2002a20:	01001904 	movi	r4,100
 2002a24:	20002a80 	call	20002a8 <LCD_WR_DATA>
        LCD_WR_DATA(0x00);
 2002a28:	0009883a 	mov	r4,zero
 2002a2c:	20002a80 	call	20002a8 <LCD_WR_DATA>
        LCD_WR_DATA(0x7A);
 2002a30:	01001e84 	movi	r4,122
 2002a34:	20002a80 	call	20002a8 <LCD_WR_DATA>
        LCD_WR_DATA(0x00);
 2002a38:	0009883a 	mov	r4,zero
 2002a3c:	20002a80 	call	20002a8 <LCD_WR_DATA>
        LCD_WR_DATA(0x8B);
 2002a40:	010022c4 	movi	r4,139
 2002a44:	20002a80 	call	20002a8 <LCD_WR_DATA>
        LCD_WR_DATA(0x00);
 2002a48:	0009883a 	mov	r4,zero
 2002a4c:	20002a80 	call	20002a8 <LCD_WR_DATA>
        LCD_WR_DATA(0x99);
 2002a50:	01002644 	movi	r4,153
 2002a54:	20002a80 	call	20002a8 <LCD_WR_DATA>
        LCD_WR_DATA(0x00);
 2002a58:	0009883a 	mov	r4,zero
 2002a5c:	20002a80 	call	20002a8 <LCD_WR_DATA>
        LCD_WR_DATA(0xA8);
 2002a60:	01002a04 	movi	r4,168
 2002a64:	20002a80 	call	20002a8 <LCD_WR_DATA>
        LCD_WR_DATA(0x00);
 2002a68:	0009883a 	mov	r4,zero
 2002a6c:	20002a80 	call	20002a8 <LCD_WR_DATA>
        LCD_WR_DATA(0xB9);
 2002a70:	01002e44 	movi	r4,185
 2002a74:	20002a80 	call	20002a8 <LCD_WR_DATA>
        LCD_WR_DATA(0x00);
 2002a78:	0009883a 	mov	r4,zero
 2002a7c:	20002a80 	call	20002a8 <LCD_WR_DATA>
        LCD_WR_DATA(0xC4);
 2002a80:	01003104 	movi	r4,196
 2002a84:	20002a80 	call	20002a8 <LCD_WR_DATA>
        LCD_WR_DATA(0x00);
 2002a88:	0009883a 	mov	r4,zero
 2002a8c:	20002a80 	call	20002a8 <LCD_WR_DATA>
        LCD_WR_DATA(0xCA);
 2002a90:	01003284 	movi	r4,202
 2002a94:	20002a80 	call	20002a8 <LCD_WR_DATA>
        LCD_WR_DATA(0x00);
 2002a98:	0009883a 	mov	r4,zero
 2002a9c:	20002a80 	call	20002a8 <LCD_WR_DATA>
        LCD_WR_DATA(0xD2);
 2002aa0:	01003484 	movi	r4,210
 2002aa4:	20002a80 	call	20002a8 <LCD_WR_DATA>
        LCD_WR_DATA(0x00);
 2002aa8:	0009883a 	mov	r4,zero
 2002aac:	20002a80 	call	20002a8 <LCD_WR_DATA>
        LCD_WR_DATA(0xD8);
 2002ab0:	01003604 	movi	r4,216
 2002ab4:	20002a80 	call	20002a8 <LCD_WR_DATA>
        LCD_WR_DATA(0x00);
 2002ab8:	0009883a 	mov	r4,zero
 2002abc:	20002a80 	call	20002a8 <LCD_WR_DATA>
        LCD_WR_DATA(0xE0);
 2002ac0:	01003804 	movi	r4,224
 2002ac4:	20002a80 	call	20002a8 <LCD_WR_DATA>
        LCD_WR_DATA(0x00);
 2002ac8:	0009883a 	mov	r4,zero
 2002acc:	20002a80 	call	20002a8 <LCD_WR_DATA>
        LCD_WR_DATA(0xF3);
 2002ad0:	01003cc4 	movi	r4,243
 2002ad4:	20002a80 	call	20002a8 <LCD_WR_DATA>
        LCD_WR_DATA(0x00);
 2002ad8:	0009883a 	mov	r4,zero
 2002adc:	20002a80 	call	20002a8 <LCD_WR_DATA>

        LCD_WR_CMD(0xE2);
 2002ae0:	01003884 	movi	r4,226
 2002ae4:	20002380 	call	2000238 <LCD_WR_CMD>
        LCD_WR_DATA(0x05);
 2002ae8:	01000144 	movi	r4,5
 2002aec:	20002a80 	call	20002a8 <LCD_WR_DATA>
        LCD_WR_DATA(0x00);
 2002af0:	0009883a 	mov	r4,zero
 2002af4:	20002a80 	call	20002a8 <LCD_WR_DATA>
        LCD_WR_DATA(0x0B);
 2002af8:	010002c4 	movi	r4,11
 2002afc:	20002a80 	call	20002a8 <LCD_WR_DATA>
        LCD_WR_DATA(0x00);
 2002b00:	0009883a 	mov	r4,zero
 2002b04:	20002a80 	call	20002a8 <LCD_WR_DATA>
        LCD_WR_DATA(0x1B);
 2002b08:	010006c4 	movi	r4,27
 2002b0c:	20002a80 	call	20002a8 <LCD_WR_DATA>
        LCD_WR_DATA(0x00);
 2002b10:	0009883a 	mov	r4,zero
 2002b14:	20002a80 	call	20002a8 <LCD_WR_DATA>
        LCD_WR_DATA(0x34);
 2002b18:	01000d04 	movi	r4,52
 2002b1c:	20002a80 	call	20002a8 <LCD_WR_DATA>
        LCD_WR_DATA(0x00);
 2002b20:	0009883a 	mov	r4,zero
 2002b24:	20002a80 	call	20002a8 <LCD_WR_DATA>
        LCD_WR_DATA(0x44);
 2002b28:	01001104 	movi	r4,68
 2002b2c:	20002a80 	call	20002a8 <LCD_WR_DATA>
        LCD_WR_DATA(0x00);
 2002b30:	0009883a 	mov	r4,zero
 2002b34:	20002a80 	call	20002a8 <LCD_WR_DATA>
        LCD_WR_DATA(0x4F);
 2002b38:	010013c4 	movi	r4,79
 2002b3c:	20002a80 	call	20002a8 <LCD_WR_DATA>
        LCD_WR_DATA(0x00);
 2002b40:	0009883a 	mov	r4,zero
 2002b44:	20002a80 	call	20002a8 <LCD_WR_DATA>
        LCD_WR_DATA(0x61);
 2002b48:	01001844 	movi	r4,97
 2002b4c:	20002a80 	call	20002a8 <LCD_WR_DATA>
        LCD_WR_DATA(0x00);
 2002b50:	0009883a 	mov	r4,zero
 2002b54:	20002a80 	call	20002a8 <LCD_WR_DATA>
        LCD_WR_DATA(0x79);
 2002b58:	01001e44 	movi	r4,121
 2002b5c:	20002a80 	call	20002a8 <LCD_WR_DATA>
        LCD_WR_DATA(0x00);
 2002b60:	0009883a 	mov	r4,zero
 2002b64:	20002a80 	call	20002a8 <LCD_WR_DATA>
        LCD_WR_DATA(0x88);
 2002b68:	01002204 	movi	r4,136
 2002b6c:	20002a80 	call	20002a8 <LCD_WR_DATA>
        LCD_WR_DATA(0x00);
 2002b70:	0009883a 	mov	r4,zero
 2002b74:	20002a80 	call	20002a8 <LCD_WR_DATA>
        LCD_WR_DATA(0x97);
 2002b78:	010025c4 	movi	r4,151
 2002b7c:	20002a80 	call	20002a8 <LCD_WR_DATA>
        LCD_WR_DATA(0x00);
 2002b80:	0009883a 	mov	r4,zero
 2002b84:	20002a80 	call	20002a8 <LCD_WR_DATA>
        LCD_WR_DATA(0xA6);
 2002b88:	01002984 	movi	r4,166
 2002b8c:	20002a80 	call	20002a8 <LCD_WR_DATA>
        LCD_WR_DATA(0x00);
 2002b90:	0009883a 	mov	r4,zero
 2002b94:	20002a80 	call	20002a8 <LCD_WR_DATA>
        LCD_WR_DATA(0xB7);
 2002b98:	01002dc4 	movi	r4,183
 2002b9c:	20002a80 	call	20002a8 <LCD_WR_DATA>
        LCD_WR_DATA(0x00);
 2002ba0:	0009883a 	mov	r4,zero
 2002ba4:	20002a80 	call	20002a8 <LCD_WR_DATA>
        LCD_WR_DATA(0xC2);
 2002ba8:	01003084 	movi	r4,194
 2002bac:	20002a80 	call	20002a8 <LCD_WR_DATA>
        LCD_WR_DATA(0x00);
 2002bb0:	0009883a 	mov	r4,zero
 2002bb4:	20002a80 	call	20002a8 <LCD_WR_DATA>
        LCD_WR_DATA(0xC7);
 2002bb8:	010031c4 	movi	r4,199
 2002bbc:	20002a80 	call	20002a8 <LCD_WR_DATA>
        LCD_WR_DATA(0x00);
 2002bc0:	0009883a 	mov	r4,zero
 2002bc4:	20002a80 	call	20002a8 <LCD_WR_DATA>
        LCD_WR_DATA(0xD1);
 2002bc8:	01003444 	movi	r4,209
 2002bcc:	20002a80 	call	20002a8 <LCD_WR_DATA>
        LCD_WR_DATA(0x00);
 2002bd0:	0009883a 	mov	r4,zero
 2002bd4:	20002a80 	call	20002a8 <LCD_WR_DATA>
        LCD_WR_DATA(0xD6);
 2002bd8:	01003584 	movi	r4,214
 2002bdc:	20002a80 	call	20002a8 <LCD_WR_DATA>
        LCD_WR_DATA(0x00);
 2002be0:	0009883a 	mov	r4,zero
 2002be4:	20002a80 	call	20002a8 <LCD_WR_DATA>
        LCD_WR_DATA(0xDD);
 2002be8:	01003744 	movi	r4,221
 2002bec:	20002a80 	call	20002a8 <LCD_WR_DATA>
        LCD_WR_DATA(0x00);
 2002bf0:	0009883a 	mov	r4,zero
 2002bf4:	20002a80 	call	20002a8 <LCD_WR_DATA>
        LCD_WR_DATA(0xF3);
 2002bf8:	01003cc4 	movi	r4,243
 2002bfc:	20002a80 	call	20002a8 <LCD_WR_DATA>
        LCD_WR_DATA(0x00);
 2002c00:	0009883a 	mov	r4,zero
 2002c04:	20002a80 	call	20002a8 <LCD_WR_DATA>
        LCD_WR_CMD(0xE3);
 2002c08:	010038c4 	movi	r4,227
 2002c0c:	20002380 	call	2000238 <LCD_WR_CMD>
        LCD_WR_DATA(0x05);
 2002c10:	01000144 	movi	r4,5
 2002c14:	20002a80 	call	20002a8 <LCD_WR_DATA>
        LCD_WR_DATA(0x00);
 2002c18:	0009883a 	mov	r4,zero
 2002c1c:	20002a80 	call	20002a8 <LCD_WR_DATA>
        LCD_WR_DATA(0xA);
 2002c20:	01000284 	movi	r4,10
 2002c24:	20002a80 	call	20002a8 <LCD_WR_DATA>
        LCD_WR_DATA(0x00);
 2002c28:	0009883a 	mov	r4,zero
 2002c2c:	20002a80 	call	20002a8 <LCD_WR_DATA>
        LCD_WR_DATA(0x1C);
 2002c30:	01000704 	movi	r4,28
 2002c34:	20002a80 	call	20002a8 <LCD_WR_DATA>
        LCD_WR_DATA(0x00);
 2002c38:	0009883a 	mov	r4,zero
 2002c3c:	20002a80 	call	20002a8 <LCD_WR_DATA>
        LCD_WR_DATA(0x33);
 2002c40:	01000cc4 	movi	r4,51
 2002c44:	20002a80 	call	20002a8 <LCD_WR_DATA>
        LCD_WR_DATA(0x00);
 2002c48:	0009883a 	mov	r4,zero
 2002c4c:	20002a80 	call	20002a8 <LCD_WR_DATA>
        LCD_WR_DATA(0x44);
 2002c50:	01001104 	movi	r4,68
 2002c54:	20002a80 	call	20002a8 <LCD_WR_DATA>
        LCD_WR_DATA(0x00);
 2002c58:	0009883a 	mov	r4,zero
 2002c5c:	20002a80 	call	20002a8 <LCD_WR_DATA>
        LCD_WR_DATA(0x50);
 2002c60:	01001404 	movi	r4,80
 2002c64:	20002a80 	call	20002a8 <LCD_WR_DATA>
        LCD_WR_DATA(0x00);
 2002c68:	0009883a 	mov	r4,zero
 2002c6c:	20002a80 	call	20002a8 <LCD_WR_DATA>
        LCD_WR_DATA(0x62);
 2002c70:	01001884 	movi	r4,98
 2002c74:	20002a80 	call	20002a8 <LCD_WR_DATA>
        LCD_WR_DATA(0x00);
 2002c78:	0009883a 	mov	r4,zero
 2002c7c:	20002a80 	call	20002a8 <LCD_WR_DATA>
        LCD_WR_DATA(0x78);
 2002c80:	01001e04 	movi	r4,120
 2002c84:	20002a80 	call	20002a8 <LCD_WR_DATA>
        LCD_WR_DATA(0x00);
 2002c88:	0009883a 	mov	r4,zero
 2002c8c:	20002a80 	call	20002a8 <LCD_WR_DATA>
        LCD_WR_DATA(0x88);
 2002c90:	01002204 	movi	r4,136
 2002c94:	20002a80 	call	20002a8 <LCD_WR_DATA>
        LCD_WR_DATA(0x00);
 2002c98:	0009883a 	mov	r4,zero
 2002c9c:	20002a80 	call	20002a8 <LCD_WR_DATA>
        LCD_WR_DATA(0x97);
 2002ca0:	010025c4 	movi	r4,151
 2002ca4:	20002a80 	call	20002a8 <LCD_WR_DATA>
        LCD_WR_DATA(0x00);
 2002ca8:	0009883a 	mov	r4,zero
 2002cac:	20002a80 	call	20002a8 <LCD_WR_DATA>
        LCD_WR_DATA(0xA6);
 2002cb0:	01002984 	movi	r4,166
 2002cb4:	20002a80 	call	20002a8 <LCD_WR_DATA>
        LCD_WR_DATA(0x00);
 2002cb8:	0009883a 	mov	r4,zero
 2002cbc:	20002a80 	call	20002a8 <LCD_WR_DATA>
        LCD_WR_DATA(0xB7);
 2002cc0:	01002dc4 	movi	r4,183
 2002cc4:	20002a80 	call	20002a8 <LCD_WR_DATA>
        LCD_WR_DATA(0x00);
 2002cc8:	0009883a 	mov	r4,zero
 2002ccc:	20002a80 	call	20002a8 <LCD_WR_DATA>
        LCD_WR_DATA(0xC2);
 2002cd0:	01003084 	movi	r4,194
 2002cd4:	20002a80 	call	20002a8 <LCD_WR_DATA>
        LCD_WR_DATA(0x00);
 2002cd8:	0009883a 	mov	r4,zero
 2002cdc:	20002a80 	call	20002a8 <LCD_WR_DATA>
        LCD_WR_DATA(0xC7);
 2002ce0:	010031c4 	movi	r4,199
 2002ce4:	20002a80 	call	20002a8 <LCD_WR_DATA>
        LCD_WR_DATA(0x00);
 2002ce8:	0009883a 	mov	r4,zero
 2002cec:	20002a80 	call	20002a8 <LCD_WR_DATA>
        LCD_WR_DATA(0xD1);
 2002cf0:	01003444 	movi	r4,209
 2002cf4:	20002a80 	call	20002a8 <LCD_WR_DATA>
        LCD_WR_DATA(0x00);
 2002cf8:	0009883a 	mov	r4,zero
 2002cfc:	20002a80 	call	20002a8 <LCD_WR_DATA>
        LCD_WR_DATA(0xD5);
 2002d00:	01003544 	movi	r4,213
 2002d04:	20002a80 	call	20002a8 <LCD_WR_DATA>
        LCD_WR_DATA(0x00);
 2002d08:	0009883a 	mov	r4,zero
 2002d0c:	20002a80 	call	20002a8 <LCD_WR_DATA>
        LCD_WR_DATA(0xDD);
 2002d10:	01003744 	movi	r4,221
 2002d14:	20002a80 	call	20002a8 <LCD_WR_DATA>
        LCD_WR_DATA(0x00);
 2002d18:	0009883a 	mov	r4,zero
 2002d1c:	20002a80 	call	20002a8 <LCD_WR_DATA>
        LCD_WR_DATA(0xF3);
 2002d20:	01003cc4 	movi	r4,243
 2002d24:	20002a80 	call	20002a8 <LCD_WR_DATA>
        LCD_WR_DATA(0x00);
 2002d28:	0009883a 	mov	r4,zero
 2002d2c:	20002a80 	call	20002a8 <LCD_WR_DATA>

        LCD_WR_CMD(0xE4);
 2002d30:	01003904 	movi	r4,228
 2002d34:	20002380 	call	2000238 <LCD_WR_CMD>
        LCD_WR_DATA(0x01);
 2002d38:	01000044 	movi	r4,1
 2002d3c:	20002a80 	call	20002a8 <LCD_WR_DATA>
        LCD_WR_DATA(0x00);
 2002d40:	0009883a 	mov	r4,zero
 2002d44:	20002a80 	call	20002a8 <LCD_WR_DATA>
        LCD_WR_DATA(0x01);
 2002d48:	01000044 	movi	r4,1
 2002d4c:	20002a80 	call	20002a8 <LCD_WR_DATA>
        LCD_WR_DATA(0x00);
 2002d50:	0009883a 	mov	r4,zero
 2002d54:	20002a80 	call	20002a8 <LCD_WR_DATA>
        LCD_WR_DATA(0x02);
 2002d58:	01000084 	movi	r4,2
 2002d5c:	20002a80 	call	20002a8 <LCD_WR_DATA>
        LCD_WR_DATA(0x00);
 2002d60:	0009883a 	mov	r4,zero
 2002d64:	20002a80 	call	20002a8 <LCD_WR_DATA>
        LCD_WR_DATA(0x2A);
 2002d68:	01000a84 	movi	r4,42
 2002d6c:	20002a80 	call	20002a8 <LCD_WR_DATA>
        LCD_WR_DATA(0x00);
 2002d70:	0009883a 	mov	r4,zero
 2002d74:	20002a80 	call	20002a8 <LCD_WR_DATA>
        LCD_WR_DATA(0x3C);
 2002d78:	01000f04 	movi	r4,60
 2002d7c:	20002a80 	call	20002a8 <LCD_WR_DATA>
        LCD_WR_DATA(0x00);
 2002d80:	0009883a 	mov	r4,zero
 2002d84:	20002a80 	call	20002a8 <LCD_WR_DATA>
        LCD_WR_DATA(0x4B);
 2002d88:	010012c4 	movi	r4,75
 2002d8c:	20002a80 	call	20002a8 <LCD_WR_DATA>
        LCD_WR_DATA(0x00);
 2002d90:	0009883a 	mov	r4,zero
 2002d94:	20002a80 	call	20002a8 <LCD_WR_DATA>
        LCD_WR_DATA(0x5D);
 2002d98:	01001744 	movi	r4,93
 2002d9c:	20002a80 	call	20002a8 <LCD_WR_DATA>
        LCD_WR_DATA(0x00);
 2002da0:	0009883a 	mov	r4,zero
 2002da4:	20002a80 	call	20002a8 <LCD_WR_DATA>
        LCD_WR_DATA(0x74);
 2002da8:	01001d04 	movi	r4,116
 2002dac:	20002a80 	call	20002a8 <LCD_WR_DATA>
        LCD_WR_DATA(0x00);
 2002db0:	0009883a 	mov	r4,zero
 2002db4:	20002a80 	call	20002a8 <LCD_WR_DATA>
        LCD_WR_DATA(0x84);
 2002db8:	01002104 	movi	r4,132
 2002dbc:	20002a80 	call	20002a8 <LCD_WR_DATA>
        LCD_WR_DATA(0x00);
 2002dc0:	0009883a 	mov	r4,zero
 2002dc4:	20002a80 	call	20002a8 <LCD_WR_DATA>
        LCD_WR_DATA(0x93);
 2002dc8:	010024c4 	movi	r4,147
 2002dcc:	20002a80 	call	20002a8 <LCD_WR_DATA>
        LCD_WR_DATA(0x00);
 2002dd0:	0009883a 	mov	r4,zero
 2002dd4:	20002a80 	call	20002a8 <LCD_WR_DATA>
        LCD_WR_DATA(0xA2);
 2002dd8:	01002884 	movi	r4,162
 2002ddc:	20002a80 	call	20002a8 <LCD_WR_DATA>
        LCD_WR_DATA(0x00);
 2002de0:	0009883a 	mov	r4,zero
 2002de4:	20002a80 	call	20002a8 <LCD_WR_DATA>
        LCD_WR_DATA(0xB3);
 2002de8:	01002cc4 	movi	r4,179
 2002dec:	20002a80 	call	20002a8 <LCD_WR_DATA>
        LCD_WR_DATA(0x00);
 2002df0:	0009883a 	mov	r4,zero
 2002df4:	20002a80 	call	20002a8 <LCD_WR_DATA>
        LCD_WR_DATA(0xBE);
 2002df8:	01002f84 	movi	r4,190
 2002dfc:	20002a80 	call	20002a8 <LCD_WR_DATA>
        LCD_WR_DATA(0x00);
 2002e00:	0009883a 	mov	r4,zero
 2002e04:	20002a80 	call	20002a8 <LCD_WR_DATA>
        LCD_WR_DATA(0xC4);
 2002e08:	01003104 	movi	r4,196
 2002e0c:	20002a80 	call	20002a8 <LCD_WR_DATA>
        LCD_WR_DATA(0x00);
 2002e10:	0009883a 	mov	r4,zero
 2002e14:	20002a80 	call	20002a8 <LCD_WR_DATA>
        LCD_WR_DATA(0xCD);
 2002e18:	01003344 	movi	r4,205
 2002e1c:	20002a80 	call	20002a8 <LCD_WR_DATA>
        LCD_WR_DATA(0x00);
 2002e20:	0009883a 	mov	r4,zero
 2002e24:	20002a80 	call	20002a8 <LCD_WR_DATA>
        LCD_WR_DATA(0xD3);
 2002e28:	010034c4 	movi	r4,211
 2002e2c:	20002a80 	call	20002a8 <LCD_WR_DATA>
        LCD_WR_DATA(0x00);
 2002e30:	0009883a 	mov	r4,zero
 2002e34:	20002a80 	call	20002a8 <LCD_WR_DATA>
        LCD_WR_DATA(0xDD);
 2002e38:	01003744 	movi	r4,221
 2002e3c:	20002a80 	call	20002a8 <LCD_WR_DATA>
        LCD_WR_DATA(0x00);
 2002e40:	0009883a 	mov	r4,zero
 2002e44:	20002a80 	call	20002a8 <LCD_WR_DATA>
        LCD_WR_DATA(0xF3);
 2002e48:	01003cc4 	movi	r4,243
 2002e4c:	20002a80 	call	20002a8 <LCD_WR_DATA>
        LCD_WR_DATA(0x00);
 2002e50:	0009883a 	mov	r4,zero
 2002e54:	20002a80 	call	20002a8 <LCD_WR_DATA>
        LCD_WR_CMD(0xE5);
 2002e58:	01003944 	movi	r4,229
 2002e5c:	20002380 	call	2000238 <LCD_WR_CMD>
        LCD_WR_DATA(0x00);
 2002e60:	0009883a 	mov	r4,zero
 2002e64:	20002a80 	call	20002a8 <LCD_WR_DATA>
        LCD_WR_DATA(0x00);
 2002e68:	0009883a 	mov	r4,zero
 2002e6c:	20002a80 	call	20002a8 <LCD_WR_DATA>
        LCD_WR_DATA(0x00);
 2002e70:	0009883a 	mov	r4,zero
 2002e74:	20002a80 	call	20002a8 <LCD_WR_DATA>
        LCD_WR_DATA(0x00);
 2002e78:	0009883a 	mov	r4,zero
 2002e7c:	20002a80 	call	20002a8 <LCD_WR_DATA>
        LCD_WR_DATA(0x02);
 2002e80:	01000084 	movi	r4,2
 2002e84:	20002a80 	call	20002a8 <LCD_WR_DATA>
        LCD_WR_DATA(0x00);
 2002e88:	0009883a 	mov	r4,zero
 2002e8c:	20002a80 	call	20002a8 <LCD_WR_DATA>
        LCD_WR_DATA(0x29);
 2002e90:	01000a44 	movi	r4,41
 2002e94:	20002a80 	call	20002a8 <LCD_WR_DATA>
        LCD_WR_DATA(0x00);
 2002e98:	0009883a 	mov	r4,zero
 2002e9c:	20002a80 	call	20002a8 <LCD_WR_DATA>
        LCD_WR_DATA(0x3C);
 2002ea0:	01000f04 	movi	r4,60
 2002ea4:	20002a80 	call	20002a8 <LCD_WR_DATA>
        LCD_WR_DATA(0x00);
 2002ea8:	0009883a 	mov	r4,zero
 2002eac:	20002a80 	call	20002a8 <LCD_WR_DATA>
        LCD_WR_DATA(0x4B);
 2002eb0:	010012c4 	movi	r4,75
 2002eb4:	20002a80 	call	20002a8 <LCD_WR_DATA>
        LCD_WR_DATA(0x00);
 2002eb8:	0009883a 	mov	r4,zero
 2002ebc:	20002a80 	call	20002a8 <LCD_WR_DATA>
        LCD_WR_DATA(0x5D);
 2002ec0:	01001744 	movi	r4,93
 2002ec4:	20002a80 	call	20002a8 <LCD_WR_DATA>
        LCD_WR_DATA(0x00);
 2002ec8:	0009883a 	mov	r4,zero
 2002ecc:	20002a80 	call	20002a8 <LCD_WR_DATA>
        LCD_WR_DATA(0x74);
 2002ed0:	01001d04 	movi	r4,116
 2002ed4:	20002a80 	call	20002a8 <LCD_WR_DATA>
        LCD_WR_DATA(0x00);
 2002ed8:	0009883a 	mov	r4,zero
 2002edc:	20002a80 	call	20002a8 <LCD_WR_DATA>
        LCD_WR_DATA(0x84);
 2002ee0:	01002104 	movi	r4,132
 2002ee4:	20002a80 	call	20002a8 <LCD_WR_DATA>
        LCD_WR_DATA(0x00);
 2002ee8:	0009883a 	mov	r4,zero
 2002eec:	20002a80 	call	20002a8 <LCD_WR_DATA>
        LCD_WR_DATA(0x93);
 2002ef0:	010024c4 	movi	r4,147
 2002ef4:	20002a80 	call	20002a8 <LCD_WR_DATA>
        LCD_WR_DATA(0x00);
 2002ef8:	0009883a 	mov	r4,zero
 2002efc:	20002a80 	call	20002a8 <LCD_WR_DATA>
        LCD_WR_DATA(0xA2);
 2002f00:	01002884 	movi	r4,162
 2002f04:	20002a80 	call	20002a8 <LCD_WR_DATA>
        LCD_WR_DATA(0x00);
 2002f08:	0009883a 	mov	r4,zero
 2002f0c:	20002a80 	call	20002a8 <LCD_WR_DATA>
        LCD_WR_DATA(0xB3);
 2002f10:	01002cc4 	movi	r4,179
 2002f14:	20002a80 	call	20002a8 <LCD_WR_DATA>
        LCD_WR_DATA(0x00);
 2002f18:	0009883a 	mov	r4,zero
 2002f1c:	20002a80 	call	20002a8 <LCD_WR_DATA>
        LCD_WR_DATA(0xBE);
 2002f20:	01002f84 	movi	r4,190
 2002f24:	20002a80 	call	20002a8 <LCD_WR_DATA>
        LCD_WR_DATA(0x00);
 2002f28:	0009883a 	mov	r4,zero
 2002f2c:	20002a80 	call	20002a8 <LCD_WR_DATA>
        LCD_WR_DATA(0xC4);
 2002f30:	01003104 	movi	r4,196
 2002f34:	20002a80 	call	20002a8 <LCD_WR_DATA>
        LCD_WR_DATA(0x00);
 2002f38:	0009883a 	mov	r4,zero
 2002f3c:	20002a80 	call	20002a8 <LCD_WR_DATA>
        LCD_WR_DATA(0xCD);
 2002f40:	01003344 	movi	r4,205
 2002f44:	20002a80 	call	20002a8 <LCD_WR_DATA>
        LCD_WR_DATA(0x00);
 2002f48:	0009883a 	mov	r4,zero
 2002f4c:	20002a80 	call	20002a8 <LCD_WR_DATA>
        LCD_WR_DATA(0xD3);
 2002f50:	010034c4 	movi	r4,211
 2002f54:	20002a80 	call	20002a8 <LCD_WR_DATA>
        LCD_WR_DATA(0x00);
 2002f58:	0009883a 	mov	r4,zero
 2002f5c:	20002a80 	call	20002a8 <LCD_WR_DATA>
        LCD_WR_DATA(0xDC);
 2002f60:	01003704 	movi	r4,220
 2002f64:	20002a80 	call	20002a8 <LCD_WR_DATA>
        LCD_WR_DATA(0x00);
 2002f68:	0009883a 	mov	r4,zero
 2002f6c:	20002a80 	call	20002a8 <LCD_WR_DATA>
        LCD_WR_DATA(0xF3);
 2002f70:	01003cc4 	movi	r4,243
 2002f74:	20002a80 	call	20002a8 <LCD_WR_DATA>
        LCD_WR_DATA(0x00);
 2002f78:	0009883a 	mov	r4,zero
 2002f7c:	20002a80 	call	20002a8 <LCD_WR_DATA>

        LCD_WR_CMD(0xE6);
 2002f80:	01003984 	movi	r4,230
 2002f84:	20002380 	call	2000238 <LCD_WR_CMD>
        LCD_WR_DATA(0x11);
 2002f88:	01000444 	movi	r4,17
 2002f8c:	20002a80 	call	20002a8 <LCD_WR_DATA>
        LCD_WR_DATA(0x00);
 2002f90:	0009883a 	mov	r4,zero
 2002f94:	20002a80 	call	20002a8 <LCD_WR_DATA>
        LCD_WR_DATA(0x34);
 2002f98:	01000d04 	movi	r4,52
 2002f9c:	20002a80 	call	20002a8 <LCD_WR_DATA>
        LCD_WR_DATA(0x00);
 2002fa0:	0009883a 	mov	r4,zero
 2002fa4:	20002a80 	call	20002a8 <LCD_WR_DATA>
        LCD_WR_DATA(0x56);
 2002fa8:	01001584 	movi	r4,86
 2002fac:	20002a80 	call	20002a8 <LCD_WR_DATA>
        LCD_WR_DATA(0x00);
 2002fb0:	0009883a 	mov	r4,zero
 2002fb4:	20002a80 	call	20002a8 <LCD_WR_DATA>
        LCD_WR_DATA(0x76);
 2002fb8:	01001d84 	movi	r4,118
 2002fbc:	20002a80 	call	20002a8 <LCD_WR_DATA>
        LCD_WR_DATA(0x00);
 2002fc0:	0009883a 	mov	r4,zero
 2002fc4:	20002a80 	call	20002a8 <LCD_WR_DATA>
        LCD_WR_DATA(0x77);
 2002fc8:	01001dc4 	movi	r4,119
 2002fcc:	20002a80 	call	20002a8 <LCD_WR_DATA>
        LCD_WR_DATA(0x00);
 2002fd0:	0009883a 	mov	r4,zero
 2002fd4:	20002a80 	call	20002a8 <LCD_WR_DATA>
        LCD_WR_DATA(0x66);
 2002fd8:	01001984 	movi	r4,102
 2002fdc:	20002a80 	call	20002a8 <LCD_WR_DATA>
        LCD_WR_DATA(0x00);
 2002fe0:	0009883a 	mov	r4,zero
 2002fe4:	20002a80 	call	20002a8 <LCD_WR_DATA>
        LCD_WR_DATA(0x88);
 2002fe8:	01002204 	movi	r4,136
 2002fec:	20002a80 	call	20002a8 <LCD_WR_DATA>
        LCD_WR_DATA(0x00);
 2002ff0:	0009883a 	mov	r4,zero
 2002ff4:	20002a80 	call	20002a8 <LCD_WR_DATA>
        LCD_WR_DATA(0x99);
 2002ff8:	01002644 	movi	r4,153
 2002ffc:	20002a80 	call	20002a8 <LCD_WR_DATA>
        LCD_WR_DATA(0x00);
 2003000:	0009883a 	mov	r4,zero
 2003004:	20002a80 	call	20002a8 <LCD_WR_DATA>
        LCD_WR_DATA(0xBB);
 2003008:	01002ec4 	movi	r4,187
 200300c:	20002a80 	call	20002a8 <LCD_WR_DATA>
        LCD_WR_DATA(0x00);
 2003010:	0009883a 	mov	r4,zero
 2003014:	20002a80 	call	20002a8 <LCD_WR_DATA>
        LCD_WR_DATA(0x99);
 2003018:	01002644 	movi	r4,153
 200301c:	20002a80 	call	20002a8 <LCD_WR_DATA>
        LCD_WR_DATA(0x00);
 2003020:	0009883a 	mov	r4,zero
 2003024:	20002a80 	call	20002a8 <LCD_WR_DATA>
        LCD_WR_DATA(0x66);
 2003028:	01001984 	movi	r4,102
 200302c:	20002a80 	call	20002a8 <LCD_WR_DATA>
        LCD_WR_DATA(0x00);
 2003030:	0009883a 	mov	r4,zero
 2003034:	20002a80 	call	20002a8 <LCD_WR_DATA>
        LCD_WR_DATA(0x55);
 2003038:	01001544 	movi	r4,85
 200303c:	20002a80 	call	20002a8 <LCD_WR_DATA>
        LCD_WR_DATA(0x00);
 2003040:	0009883a 	mov	r4,zero
 2003044:	20002a80 	call	20002a8 <LCD_WR_DATA>
        LCD_WR_DATA(0x55);
 2003048:	01001544 	movi	r4,85
 200304c:	20002a80 	call	20002a8 <LCD_WR_DATA>
        LCD_WR_DATA(0x00);
 2003050:	0009883a 	mov	r4,zero
 2003054:	20002a80 	call	20002a8 <LCD_WR_DATA>
        LCD_WR_DATA(0x45);
 2003058:	01001144 	movi	r4,69
 200305c:	20002a80 	call	20002a8 <LCD_WR_DATA>
        LCD_WR_DATA(0x00);
 2003060:	0009883a 	mov	r4,zero
 2003064:	20002a80 	call	20002a8 <LCD_WR_DATA>
        LCD_WR_DATA(0x43);
 2003068:	010010c4 	movi	r4,67
 200306c:	20002a80 	call	20002a8 <LCD_WR_DATA>
        LCD_WR_DATA(0x00);
 2003070:	0009883a 	mov	r4,zero
 2003074:	20002a80 	call	20002a8 <LCD_WR_DATA>
        LCD_WR_DATA(0x44);
 2003078:	01001104 	movi	r4,68
 200307c:	20002a80 	call	20002a8 <LCD_WR_DATA>
        LCD_WR_DATA(0x00);
 2003080:	0009883a 	mov	r4,zero
 2003084:	20002a80 	call	20002a8 <LCD_WR_DATA>

        LCD_WR_CMD(0xE7);
 2003088:	010039c4 	movi	r4,231
 200308c:	20002380 	call	2000238 <LCD_WR_CMD>
        LCD_WR_DATA(0x32);
 2003090:	01000c84 	movi	r4,50
 2003094:	20002a80 	call	20002a8 <LCD_WR_DATA>
        LCD_WR_DATA(0x00);
 2003098:	0009883a 	mov	r4,zero
 200309c:	20002a80 	call	20002a8 <LCD_WR_DATA>
        LCD_WR_DATA(0x55);
 20030a0:	01001544 	movi	r4,85
 20030a4:	20002a80 	call	20002a8 <LCD_WR_DATA>
        LCD_WR_DATA(0x00);
 20030a8:	0009883a 	mov	r4,zero
 20030ac:	20002a80 	call	20002a8 <LCD_WR_DATA>
        LCD_WR_DATA(0x76);
 20030b0:	01001d84 	movi	r4,118
 20030b4:	20002a80 	call	20002a8 <LCD_WR_DATA>
        LCD_WR_DATA(0x00);
 20030b8:	0009883a 	mov	r4,zero
 20030bc:	20002a80 	call	20002a8 <LCD_WR_DATA>
        LCD_WR_DATA(0x66);
 20030c0:	01001984 	movi	r4,102
 20030c4:	20002a80 	call	20002a8 <LCD_WR_DATA>
        LCD_WR_DATA(0x00);
 20030c8:	0009883a 	mov	r4,zero
 20030cc:	20002a80 	call	20002a8 <LCD_WR_DATA>
        LCD_WR_DATA(0x67);
 20030d0:	010019c4 	movi	r4,103
 20030d4:	20002a80 	call	20002a8 <LCD_WR_DATA>
        LCD_WR_DATA(0x00);
 20030d8:	0009883a 	mov	r4,zero
 20030dc:	20002a80 	call	20002a8 <LCD_WR_DATA>
        LCD_WR_DATA(0x67);
 20030e0:	010019c4 	movi	r4,103
 20030e4:	20002a80 	call	20002a8 <LCD_WR_DATA>
        LCD_WR_DATA(0x00);
 20030e8:	0009883a 	mov	r4,zero
 20030ec:	20002a80 	call	20002a8 <LCD_WR_DATA>
        LCD_WR_DATA(0x87);
 20030f0:	010021c4 	movi	r4,135
 20030f4:	20002a80 	call	20002a8 <LCD_WR_DATA>
        LCD_WR_DATA(0x00);
 20030f8:	0009883a 	mov	r4,zero
 20030fc:	20002a80 	call	20002a8 <LCD_WR_DATA>
        LCD_WR_DATA(0x99);
 2003100:	01002644 	movi	r4,153
 2003104:	20002a80 	call	20002a8 <LCD_WR_DATA>
        LCD_WR_DATA(0x00);
 2003108:	0009883a 	mov	r4,zero
 200310c:	20002a80 	call	20002a8 <LCD_WR_DATA>
        LCD_WR_DATA(0xBB);
 2003110:	01002ec4 	movi	r4,187
 2003114:	20002a80 	call	20002a8 <LCD_WR_DATA>
        LCD_WR_DATA(0x00);
 2003118:	0009883a 	mov	r4,zero
 200311c:	20002a80 	call	20002a8 <LCD_WR_DATA>
        LCD_WR_DATA(0x99);
 2003120:	01002644 	movi	r4,153
 2003124:	20002a80 	call	20002a8 <LCD_WR_DATA>
        LCD_WR_DATA(0x00);
 2003128:	0009883a 	mov	r4,zero
 200312c:	20002a80 	call	20002a8 <LCD_WR_DATA>
        LCD_WR_DATA(0x77);
 2003130:	01001dc4 	movi	r4,119
 2003134:	20002a80 	call	20002a8 <LCD_WR_DATA>
        LCD_WR_DATA(0x00);
 2003138:	0009883a 	mov	r4,zero
 200313c:	20002a80 	call	20002a8 <LCD_WR_DATA>
        LCD_WR_DATA(0x44);
 2003140:	01001104 	movi	r4,68
 2003144:	20002a80 	call	20002a8 <LCD_WR_DATA>
        LCD_WR_DATA(0x00);
 2003148:	0009883a 	mov	r4,zero
 200314c:	20002a80 	call	20002a8 <LCD_WR_DATA>
        LCD_WR_DATA(0x56);
 2003150:	01001584 	movi	r4,86
 2003154:	20002a80 	call	20002a8 <LCD_WR_DATA>
        LCD_WR_DATA(0x00);
 2003158:	0009883a 	mov	r4,zero
 200315c:	20002a80 	call	20002a8 <LCD_WR_DATA>
        LCD_WR_DATA(0x23);
 2003160:	010008c4 	movi	r4,35
 2003164:	20002a80 	call	20002a8 <LCD_WR_DATA>
        LCD_WR_DATA(0x00);
 2003168:	0009883a 	mov	r4,zero
 200316c:	20002a80 	call	20002a8 <LCD_WR_DATA>
        LCD_WR_DATA(0x33);
 2003170:	01000cc4 	movi	r4,51
 2003174:	20002a80 	call	20002a8 <LCD_WR_DATA>
        LCD_WR_DATA(0x00);
 2003178:	0009883a 	mov	r4,zero
 200317c:	20002a80 	call	20002a8 <LCD_WR_DATA>
        LCD_WR_DATA(0x45);
 2003180:	01001144 	movi	r4,69
 2003184:	20002a80 	call	20002a8 <LCD_WR_DATA>
        LCD_WR_DATA(0x00);
 2003188:	0009883a 	mov	r4,zero
 200318c:	20002a80 	call	20002a8 <LCD_WR_DATA>

        LCD_WR_CMD(0xE8);
 2003190:	01003a04 	movi	r4,232
 2003194:	20002380 	call	2000238 <LCD_WR_CMD>
        LCD_WR_DATA(0x00);
 2003198:	0009883a 	mov	r4,zero
 200319c:	20002a80 	call	20002a8 <LCD_WR_DATA>
        LCD_WR_DATA(0x00);
 20031a0:	0009883a 	mov	r4,zero
 20031a4:	20002a80 	call	20002a8 <LCD_WR_DATA>
        LCD_WR_DATA(0x99);
 20031a8:	01002644 	movi	r4,153
 20031ac:	20002a80 	call	20002a8 <LCD_WR_DATA>
        LCD_WR_DATA(0x00);
 20031b0:	0009883a 	mov	r4,zero
 20031b4:	20002a80 	call	20002a8 <LCD_WR_DATA>
        LCD_WR_DATA(0x87);
 20031b8:	010021c4 	movi	r4,135
 20031bc:	20002a80 	call	20002a8 <LCD_WR_DATA>
        LCD_WR_DATA(0x00);
 20031c0:	0009883a 	mov	r4,zero
 20031c4:	20002a80 	call	20002a8 <LCD_WR_DATA>
        LCD_WR_DATA(0x88);
 20031c8:	01002204 	movi	r4,136
 20031cc:	20002a80 	call	20002a8 <LCD_WR_DATA>
        LCD_WR_DATA(0x00);
 20031d0:	0009883a 	mov	r4,zero
 20031d4:	20002a80 	call	20002a8 <LCD_WR_DATA>
        LCD_WR_DATA(0x77);
 20031d8:	01001dc4 	movi	r4,119
 20031dc:	20002a80 	call	20002a8 <LCD_WR_DATA>
        LCD_WR_DATA(0x00);
 20031e0:	0009883a 	mov	r4,zero
 20031e4:	20002a80 	call	20002a8 <LCD_WR_DATA>
        LCD_WR_DATA(0x66);
 20031e8:	01001984 	movi	r4,102
 20031ec:	20002a80 	call	20002a8 <LCD_WR_DATA>
        LCD_WR_DATA(0x00);
 20031f0:	0009883a 	mov	r4,zero
 20031f4:	20002a80 	call	20002a8 <LCD_WR_DATA>
        LCD_WR_DATA(0x88);
 20031f8:	01002204 	movi	r4,136
 20031fc:	20002a80 	call	20002a8 <LCD_WR_DATA>
        LCD_WR_DATA(0x00);
 2003200:	0009883a 	mov	r4,zero
 2003204:	20002a80 	call	20002a8 <LCD_WR_DATA>
        LCD_WR_DATA(0xAA);
 2003208:	01002a84 	movi	r4,170
 200320c:	20002a80 	call	20002a8 <LCD_WR_DATA>
        LCD_WR_DATA(0x00);
 2003210:	0009883a 	mov	r4,zero
 2003214:	20002a80 	call	20002a8 <LCD_WR_DATA>
        LCD_WR_DATA(0xBB);
 2003218:	01002ec4 	movi	r4,187
 200321c:	20002a80 	call	20002a8 <LCD_WR_DATA>
        LCD_WR_DATA(0x00);
 2003220:	0009883a 	mov	r4,zero
 2003224:	20002a80 	call	20002a8 <LCD_WR_DATA>
        LCD_WR_DATA(0x99);
 2003228:	01002644 	movi	r4,153
 200322c:	20002a80 	call	20002a8 <LCD_WR_DATA>
        LCD_WR_DATA(0x00);
 2003230:	0009883a 	mov	r4,zero
 2003234:	20002a80 	call	20002a8 <LCD_WR_DATA>
        LCD_WR_DATA(0x66);
 2003238:	01001984 	movi	r4,102
 200323c:	20002a80 	call	20002a8 <LCD_WR_DATA>
        LCD_WR_DATA(0x00);
 2003240:	0009883a 	mov	r4,zero
 2003244:	20002a80 	call	20002a8 <LCD_WR_DATA>
        LCD_WR_DATA(0x55);
 2003248:	01001544 	movi	r4,85
 200324c:	20002a80 	call	20002a8 <LCD_WR_DATA>
        LCD_WR_DATA(0x00);
 2003250:	0009883a 	mov	r4,zero
 2003254:	20002a80 	call	20002a8 <LCD_WR_DATA>
        LCD_WR_DATA(0x55);
 2003258:	01001544 	movi	r4,85
 200325c:	20002a80 	call	20002a8 <LCD_WR_DATA>
        LCD_WR_DATA(0x00);
 2003260:	0009883a 	mov	r4,zero
 2003264:	20002a80 	call	20002a8 <LCD_WR_DATA>
        LCD_WR_DATA(0x44);
 2003268:	01001104 	movi	r4,68
 200326c:	20002a80 	call	20002a8 <LCD_WR_DATA>
        LCD_WR_DATA(0x00);
 2003270:	0009883a 	mov	r4,zero
 2003274:	20002a80 	call	20002a8 <LCD_WR_DATA>
        LCD_WR_DATA(0x44);
 2003278:	01001104 	movi	r4,68
 200327c:	20002a80 	call	20002a8 <LCD_WR_DATA>
        LCD_WR_DATA(0x00);
 2003280:	0009883a 	mov	r4,zero
 2003284:	20002a80 	call	20002a8 <LCD_WR_DATA>
        LCD_WR_DATA(0x55);
 2003288:	01001544 	movi	r4,85
 200328c:	20002a80 	call	20002a8 <LCD_WR_DATA>
        LCD_WR_DATA(0x00);
 2003290:	0009883a 	mov	r4,zero
 2003294:	20002a80 	call	20002a8 <LCD_WR_DATA>

        LCD_WR_CMD(0xE9);
 2003298:	01003a44 	movi	r4,233
 200329c:	20002380 	call	2000238 <LCD_WR_CMD>
        LCD_WR_DATA(0xAA);
 20032a0:	01002a84 	movi	r4,170
 20032a4:	20002a80 	call	20002a8 <LCD_WR_DATA>
        LCD_WR_DATA(0x00);
 20032a8:	0009883a 	mov	r4,zero
 20032ac:	20002a80 	call	20002a8 <LCD_WR_DATA>
        LCD_WR_DATA(0x00);
 20032b0:	0009883a 	mov	r4,zero
 20032b4:	20002a80 	call	20002a8 <LCD_WR_DATA>
        LCD_WR_DATA(0x00);
 20032b8:	0009883a 	mov	r4,zero
 20032bc:	20002a80 	call	20002a8 <LCD_WR_DATA>

        LCD_WR_CMD(0x00);
 20032c0:	0009883a 	mov	r4,zero
 20032c4:	20002380 	call	2000238 <LCD_WR_CMD>
        LCD_WR_DATA(0xAA);
 20032c8:	01002a84 	movi	r4,170
 20032cc:	20002a80 	call	20002a8 <LCD_WR_DATA>

        LCD_WR_CMD(0xCF);
 20032d0:	010033c4 	movi	r4,207
 20032d4:	20002380 	call	2000238 <LCD_WR_CMD>
        LCD_WR_DATA(0x00);
 20032d8:	0009883a 	mov	r4,zero
 20032dc:	20002a80 	call	20002a8 <LCD_WR_DATA>
        LCD_WR_DATA(0x00);
 20032e0:	0009883a 	mov	r4,zero
 20032e4:	20002a80 	call	20002a8 <LCD_WR_DATA>
        LCD_WR_DATA(0x00);
 20032e8:	0009883a 	mov	r4,zero
 20032ec:	20002a80 	call	20002a8 <LCD_WR_DATA>
        LCD_WR_DATA(0x00);
 20032f0:	0009883a 	mov	r4,zero
 20032f4:	20002a80 	call	20002a8 <LCD_WR_DATA>
        LCD_WR_DATA(0x00);
 20032f8:	0009883a 	mov	r4,zero
 20032fc:	20002a80 	call	20002a8 <LCD_WR_DATA>
        LCD_WR_DATA(0x00);
 2003300:	0009883a 	mov	r4,zero
 2003304:	20002a80 	call	20002a8 <LCD_WR_DATA>
        LCD_WR_DATA(0x00);
 2003308:	0009883a 	mov	r4,zero
 200330c:	20002a80 	call	20002a8 <LCD_WR_DATA>
        LCD_WR_DATA(0x00);
 2003310:	0009883a 	mov	r4,zero
 2003314:	20002a80 	call	20002a8 <LCD_WR_DATA>
        LCD_WR_DATA(0x00);
 2003318:	0009883a 	mov	r4,zero
 200331c:	20002a80 	call	20002a8 <LCD_WR_DATA>
        LCD_WR_DATA(0x00);
 2003320:	0009883a 	mov	r4,zero
 2003324:	20002a80 	call	20002a8 <LCD_WR_DATA>
        LCD_WR_DATA(0x00);
 2003328:	0009883a 	mov	r4,zero
 200332c:	20002a80 	call	20002a8 <LCD_WR_DATA>
        LCD_WR_DATA(0x00);
 2003330:	0009883a 	mov	r4,zero
 2003334:	20002a80 	call	20002a8 <LCD_WR_DATA>
        LCD_WR_DATA(0x00);
 2003338:	0009883a 	mov	r4,zero
 200333c:	20002a80 	call	20002a8 <LCD_WR_DATA>
        LCD_WR_DATA(0x00);
 2003340:	0009883a 	mov	r4,zero
 2003344:	20002a80 	call	20002a8 <LCD_WR_DATA>
        LCD_WR_DATA(0x00);
 2003348:	0009883a 	mov	r4,zero
 200334c:	20002a80 	call	20002a8 <LCD_WR_DATA>
        LCD_WR_DATA(0x00);
 2003350:	0009883a 	mov	r4,zero
 2003354:	20002a80 	call	20002a8 <LCD_WR_DATA>
        LCD_WR_DATA(0x00);
 2003358:	0009883a 	mov	r4,zero
 200335c:	20002a80 	call	20002a8 <LCD_WR_DATA>

        LCD_WR_CMD(0xF0);
 2003360:	01003c04 	movi	r4,240
 2003364:	20002380 	call	2000238 <LCD_WR_CMD>
        LCD_WR_DATA(0x00);
 2003368:	0009883a 	mov	r4,zero
 200336c:	20002a80 	call	20002a8 <LCD_WR_DATA>
        LCD_WR_DATA(0x50);
 2003370:	01001404 	movi	r4,80
 2003374:	20002a80 	call	20002a8 <LCD_WR_DATA>
        LCD_WR_DATA(0x00);
 2003378:	0009883a 	mov	r4,zero
 200337c:	20002a80 	call	20002a8 <LCD_WR_DATA>
        LCD_WR_DATA(0x00);
 2003380:	0009883a 	mov	r4,zero
 2003384:	20002a80 	call	20002a8 <LCD_WR_DATA>
        LCD_WR_DATA(0x00);
 2003388:	0009883a 	mov	r4,zero
 200338c:	20002a80 	call	20002a8 <LCD_WR_DATA>

        LCD_WR_CMD(0xF3);
 2003390:	01003cc4 	movi	r4,243
 2003394:	20002380 	call	2000238 <LCD_WR_CMD>
        LCD_WR_DATA(0x00);
 2003398:	0009883a 	mov	r4,zero
 200339c:	20002a80 	call	20002a8 <LCD_WR_DATA>

        LCD_WR_CMD(0xF9);
 20033a0:	01003e44 	movi	r4,249
 20033a4:	20002380 	call	2000238 <LCD_WR_CMD>
        LCD_WR_DATA(0x06);
 20033a8:	01000184 	movi	r4,6
 20033ac:	20002a80 	call	20002a8 <LCD_WR_DATA>
        LCD_WR_DATA(0x10);
 20033b0:	01000404 	movi	r4,16
 20033b4:	20002a80 	call	20002a8 <LCD_WR_DATA>
        LCD_WR_DATA(0x29);
 20033b8:	01000a44 	movi	r4,41
 20033bc:	20002a80 	call	20002a8 <LCD_WR_DATA>
        LCD_WR_DATA(0x00);
 20033c0:	0009883a 	mov	r4,zero
 20033c4:	20002a80 	call	20002a8 <LCD_WR_DATA>

        LCD_WR_CMD(0x3A);
 20033c8:	01000e84 	movi	r4,58
 20033cc:	20002380 	call	2000238 <LCD_WR_CMD>
        LCD_WR_DATA(0x55);    //66
 20033d0:	01001544 	movi	r4,85
 20033d4:	20002a80 	call	20002a8 <LCD_WR_DATA>

        LCD_WR_CMD(0x11);
 20033d8:	01000444 	movi	r4,17
 20033dc:	20002380 	call	2000238 <LCD_WR_CMD>
        delay_ms(100);
 20033e0:	01001904 	movi	r4,100
 20033e4:	20002000 	call	2000200 <delay_ms>
        LCD_WR_CMD(0x29);
 20033e8:	01000a44 	movi	r4,41
 20033ec:	20002380 	call	2000238 <LCD_WR_CMD>
        LCD_WR_CMD(0x35);
 20033f0:	01000d44 	movi	r4,53
 20033f4:	20002380 	call	2000238 <LCD_WR_CMD>
        LCD_WR_DATA(0x00);
 20033f8:	0009883a 	mov	r4,zero
 20033fc:	20002a80 	call	20002a8 <LCD_WR_DATA>

        LCD_WR_CMD(0x51);
 2003400:	01001444 	movi	r4,81
 2003404:	20002380 	call	2000238 <LCD_WR_CMD>
        LCD_WR_DATA(0xFF);
 2003408:	01003fc4 	movi	r4,255
 200340c:	20002a80 	call	20002a8 <LCD_WR_DATA>
        LCD_WR_CMD(0x53);
 2003410:	010014c4 	movi	r4,83
 2003414:	20002380 	call	2000238 <LCD_WR_CMD>
        LCD_WR_DATA(0x2C);
 2003418:	01000b04 	movi	r4,44
 200341c:	20002a80 	call	20002a8 <LCD_WR_DATA>
        LCD_WR_CMD(0x55);
 2003420:	01001544 	movi	r4,85
 2003424:	20002380 	call	2000238 <LCD_WR_CMD>
        LCD_WR_DATA(0x82);
 2003428:	01002084 	movi	r4,130
 200342c:	20002a80 	call	20002a8 <LCD_WR_DATA>
        LCD_WR_CMD(0x2c);
 2003430:	01000b04 	movi	r4,44
 2003434:	20002380 	call	2000238 <LCD_WR_CMD>
 2003438:	00050006 	br	200483c <MCULCD_Init+0x2dfc>
    }else if(lcddev.id==0x5510) {
 200343c:	00808074 	movhi	r2,513
 2003440:	108e9f04 	addi	r2,r2,14972
 2003444:	10800217 	ldw	r2,8(r2)
 2003448:	10954418 	cmpnei	r2,r2,21776
 200344c:	10047e1e 	bne	r2,zero,2004648 <MCULCD_Init+0x2c08>
        // LV2 Page1 enable
        LCD_WriteReg(0xF000,0x55);
 2003450:	013c0014 	movui	r4,61440
 2003454:	01401544 	movi	r5,85
 2003458:	20003ac0 	call	20003ac <LCD_WriteReg>
        LCD_WriteReg(0xF001,0xAA);
 200345c:	013c0054 	movui	r4,61441
 2003460:	01402a84 	movi	r5,170
 2003464:	20003ac0 	call	20003ac <LCD_WriteReg>
        LCD_WriteReg(0xF002,0x52);
 2003468:	013c0094 	movui	r4,61442
 200346c:	01401484 	movi	r5,82
 2003470:	20003ac0 	call	20003ac <LCD_WriteReg>
        LCD_WriteReg(0xF003,0x08);
 2003474:	013c00d4 	movui	r4,61443
 2003478:	01400204 	movi	r5,8
 200347c:	20003ac0 	call	20003ac <LCD_WriteReg>
        LCD_WriteReg(0xF004,0x01);
 2003480:	013c0114 	movui	r4,61444
 2003484:	01400044 	movi	r5,1
 2003488:	20003ac0 	call	20003ac <LCD_WriteReg>
        //AVDD Set AVDD 5.2V
        LCD_WriteReg(0xB000,0x0D);
 200348c:	012c0014 	movui	r4,45056
 2003490:	01400344 	movi	r5,13
 2003494:	20003ac0 	call	20003ac <LCD_WriteReg>
        LCD_WriteReg(0xB001,0x0D);
 2003498:	012c0054 	movui	r4,45057
 200349c:	01400344 	movi	r5,13
 20034a0:	20003ac0 	call	20003ac <LCD_WriteReg>
        LCD_WriteReg(0xB002,0x0D);
 20034a4:	012c0094 	movui	r4,45058
 20034a8:	01400344 	movi	r5,13
 20034ac:	20003ac0 	call	20003ac <LCD_WriteReg>
        //AVDD ratio
        LCD_WriteReg(0xB600,0x34);
 20034b0:	012d8014 	movui	r4,46592
 20034b4:	01400d04 	movi	r5,52
 20034b8:	20003ac0 	call	20003ac <LCD_WriteReg>
        LCD_WriteReg(0xB601,0x34);
 20034bc:	012d8054 	movui	r4,46593
 20034c0:	01400d04 	movi	r5,52
 20034c4:	20003ac0 	call	20003ac <LCD_WriteReg>
        LCD_WriteReg(0xB602,0x34);
 20034c8:	012d8094 	movui	r4,46594
 20034cc:	01400d04 	movi	r5,52
 20034d0:	20003ac0 	call	20003ac <LCD_WriteReg>
        //AVEE -5.2V
        LCD_WriteReg(0xB100,0x0D);
 20034d4:	012c4014 	movui	r4,45312
 20034d8:	01400344 	movi	r5,13
 20034dc:	20003ac0 	call	20003ac <LCD_WriteReg>
        LCD_WriteReg(0xB101,0x0D);
 20034e0:	012c4054 	movui	r4,45313
 20034e4:	01400344 	movi	r5,13
 20034e8:	20003ac0 	call	20003ac <LCD_WriteReg>
        LCD_WriteReg(0xB102,0x0D);
 20034ec:	012c4094 	movui	r4,45314
 20034f0:	01400344 	movi	r5,13
 20034f4:	20003ac0 	call	20003ac <LCD_WriteReg>
        //AVEE ratio
        LCD_WriteReg(0xB700,0x34);
 20034f8:	012dc014 	movui	r4,46848
 20034fc:	01400d04 	movi	r5,52
 2003500:	20003ac0 	call	20003ac <LCD_WriteReg>
        LCD_WriteReg(0xB701,0x34);
 2003504:	012dc054 	movui	r4,46849
 2003508:	01400d04 	movi	r5,52
 200350c:	20003ac0 	call	20003ac <LCD_WriteReg>
        LCD_WriteReg(0xB702,0x34);
 2003510:	012dc094 	movui	r4,46850
 2003514:	01400d04 	movi	r5,52
 2003518:	20003ac0 	call	20003ac <LCD_WriteReg>
        //VCL -2.5V
        LCD_WriteReg(0xB200,0x00);
 200351c:	012c8014 	movui	r4,45568
 2003520:	000b883a 	mov	r5,zero
 2003524:	20003ac0 	call	20003ac <LCD_WriteReg>
        LCD_WriteReg(0xB201,0x00);
 2003528:	012c8054 	movui	r4,45569
 200352c:	000b883a 	mov	r5,zero
 2003530:	20003ac0 	call	20003ac <LCD_WriteReg>
        LCD_WriteReg(0xB202,0x00);
 2003534:	012c8094 	movui	r4,45570
 2003538:	000b883a 	mov	r5,zero
 200353c:	20003ac0 	call	20003ac <LCD_WriteReg>
        //VCL ratio
        LCD_WriteReg(0xB800,0x24);
 2003540:	012e0014 	movui	r4,47104
 2003544:	01400904 	movi	r5,36
 2003548:	20003ac0 	call	20003ac <LCD_WriteReg>
        LCD_WriteReg(0xB801,0x24);
 200354c:	012e0054 	movui	r4,47105
 2003550:	01400904 	movi	r5,36
 2003554:	20003ac0 	call	20003ac <LCD_WriteReg>
        LCD_WriteReg(0xB802,0x24);
 2003558:	012e0094 	movui	r4,47106
 200355c:	01400904 	movi	r5,36
 2003560:	20003ac0 	call	20003ac <LCD_WriteReg>
        //VGH 15V (Free pump)
        LCD_WriteReg(0xBF00,0x01);
 2003564:	012fc014 	movui	r4,48896
 2003568:	01400044 	movi	r5,1
 200356c:	20003ac0 	call	20003ac <LCD_WriteReg>
        LCD_WriteReg(0xB300,0x0F);
 2003570:	012cc014 	movui	r4,45824
 2003574:	014003c4 	movi	r5,15
 2003578:	20003ac0 	call	20003ac <LCD_WriteReg>
        LCD_WriteReg(0xB301,0x0F);
 200357c:	012cc054 	movui	r4,45825
 2003580:	014003c4 	movi	r5,15
 2003584:	20003ac0 	call	20003ac <LCD_WriteReg>
        LCD_WriteReg(0xB302,0x0F);
 2003588:	012cc094 	movui	r4,45826
 200358c:	014003c4 	movi	r5,15
 2003590:	20003ac0 	call	20003ac <LCD_WriteReg>
        //VGH ratio
        LCD_WriteReg(0xB900,0x34);
 2003594:	012e4014 	movui	r4,47360
 2003598:	01400d04 	movi	r5,52
 200359c:	20003ac0 	call	20003ac <LCD_WriteReg>
        LCD_WriteReg(0xB901,0x34);
 20035a0:	012e4054 	movui	r4,47361
 20035a4:	01400d04 	movi	r5,52
 20035a8:	20003ac0 	call	20003ac <LCD_WriteReg>
        LCD_WriteReg(0xB902,0x34);
 20035ac:	012e4094 	movui	r4,47362
 20035b0:	01400d04 	movi	r5,52
 20035b4:	20003ac0 	call	20003ac <LCD_WriteReg>
        //VGL_REG -10V
        LCD_WriteReg(0xB500,0x08);
 20035b8:	012d4014 	movui	r4,46336
 20035bc:	01400204 	movi	r5,8
 20035c0:	20003ac0 	call	20003ac <LCD_WriteReg>
        LCD_WriteReg(0xB501,0x08);
 20035c4:	012d4054 	movui	r4,46337
 20035c8:	01400204 	movi	r5,8
 20035cc:	20003ac0 	call	20003ac <LCD_WriteReg>
        LCD_WriteReg(0xB502,0x08);
 20035d0:	012d4094 	movui	r4,46338
 20035d4:	01400204 	movi	r5,8
 20035d8:	20003ac0 	call	20003ac <LCD_WriteReg>
        LCD_WriteReg(0xC200,0x03);
 20035dc:	01308014 	movui	r4,49664
 20035e0:	014000c4 	movi	r5,3
 20035e4:	20003ac0 	call	20003ac <LCD_WriteReg>
        //VGLX ratio
        LCD_WriteReg(0xBA00,0x24);
 20035e8:	012e8014 	movui	r4,47616
 20035ec:	01400904 	movi	r5,36
 20035f0:	20003ac0 	call	20003ac <LCD_WriteReg>
        LCD_WriteReg(0xBA01,0x24);
 20035f4:	012e8054 	movui	r4,47617
 20035f8:	01400904 	movi	r5,36
 20035fc:	20003ac0 	call	20003ac <LCD_WriteReg>
        LCD_WriteReg(0xBA02,0x24);
 2003600:	012e8094 	movui	r4,47618
 2003604:	01400904 	movi	r5,36
 2003608:	20003ac0 	call	20003ac <LCD_WriteReg>
        //VGMP/VGSP 4.5V/0V
        LCD_WriteReg(0xBC00,0x00);
 200360c:	012f0014 	movui	r4,48128
 2003610:	000b883a 	mov	r5,zero
 2003614:	20003ac0 	call	20003ac <LCD_WriteReg>
        LCD_WriteReg(0xBC01,0x78);
 2003618:	012f0054 	movui	r4,48129
 200361c:	01401e04 	movi	r5,120
 2003620:	20003ac0 	call	20003ac <LCD_WriteReg>
        LCD_WriteReg(0xBC02,0x00);
 2003624:	012f0094 	movui	r4,48130
 2003628:	000b883a 	mov	r5,zero
 200362c:	20003ac0 	call	20003ac <LCD_WriteReg>
        //VGMN/VGSN -4.5V/0V
        LCD_WriteReg(0xBD00,0x00);
 2003630:	012f4014 	movui	r4,48384
 2003634:	000b883a 	mov	r5,zero
 2003638:	20003ac0 	call	20003ac <LCD_WriteReg>
        LCD_WriteReg(0xBD01,0x78);
 200363c:	012f4054 	movui	r4,48385
 2003640:	01401e04 	movi	r5,120
 2003644:	20003ac0 	call	20003ac <LCD_WriteReg>
        LCD_WriteReg(0xBD02,0x00);
 2003648:	012f4094 	movui	r4,48386
 200364c:	000b883a 	mov	r5,zero
 2003650:	20003ac0 	call	20003ac <LCD_WriteReg>
        //VCOM -2.0375V
        LCD_WriteReg(0xBE00,0x00);
 2003654:	012f8014 	movui	r4,48640
 2003658:	000b883a 	mov	r5,zero
 200365c:	20003ac0 	call	20003ac <LCD_WriteReg>
        LCD_WriteReg(0xBE01,0x64);
 2003660:	012f8054 	movui	r4,48641
 2003664:	01401904 	movi	r5,100
 2003668:	20003ac0 	call	20003ac <LCD_WriteReg>
        //Gamma Setting
        LCD_WriteReg(0xD100,0x00);
 200366c:	01344014 	movui	r4,53504
 2003670:	000b883a 	mov	r5,zero
 2003674:	20003ac0 	call	20003ac <LCD_WriteReg>
        LCD_WriteReg(0xD101,0x33);
 2003678:	01344054 	movui	r4,53505
 200367c:	01400cc4 	movi	r5,51
 2003680:	20003ac0 	call	20003ac <LCD_WriteReg>
        LCD_WriteReg(0xD102,0x00);
 2003684:	01344094 	movui	r4,53506
 2003688:	000b883a 	mov	r5,zero
 200368c:	20003ac0 	call	20003ac <LCD_WriteReg>
        LCD_WriteReg(0xD103,0x34);
 2003690:	013440d4 	movui	r4,53507
 2003694:	01400d04 	movi	r5,52
 2003698:	20003ac0 	call	20003ac <LCD_WriteReg>
        LCD_WriteReg(0xD104,0x00);
 200369c:	01344114 	movui	r4,53508
 20036a0:	000b883a 	mov	r5,zero
 20036a4:	20003ac0 	call	20003ac <LCD_WriteReg>
        LCD_WriteReg(0xD105,0x3A);
 20036a8:	01344154 	movui	r4,53509
 20036ac:	01400e84 	movi	r5,58
 20036b0:	20003ac0 	call	20003ac <LCD_WriteReg>
        LCD_WriteReg(0xD106,0x00);
 20036b4:	01344194 	movui	r4,53510
 20036b8:	000b883a 	mov	r5,zero
 20036bc:	20003ac0 	call	20003ac <LCD_WriteReg>
        LCD_WriteReg(0xD107,0x4A);
 20036c0:	013441d4 	movui	r4,53511
 20036c4:	01401284 	movi	r5,74
 20036c8:	20003ac0 	call	20003ac <LCD_WriteReg>
        LCD_WriteReg(0xD108,0x00);
 20036cc:	01344214 	movui	r4,53512
 20036d0:	000b883a 	mov	r5,zero
 20036d4:	20003ac0 	call	20003ac <LCD_WriteReg>
        LCD_WriteReg(0xD109,0x5C);
 20036d8:	01344254 	movui	r4,53513
 20036dc:	01401704 	movi	r5,92
 20036e0:	20003ac0 	call	20003ac <LCD_WriteReg>
        LCD_WriteReg(0xD10A,0x00);
 20036e4:	01344294 	movui	r4,53514
 20036e8:	000b883a 	mov	r5,zero
 20036ec:	20003ac0 	call	20003ac <LCD_WriteReg>
        LCD_WriteReg(0xD10B,0x81);
 20036f0:	013442d4 	movui	r4,53515
 20036f4:	01402044 	movi	r5,129
 20036f8:	20003ac0 	call	20003ac <LCD_WriteReg>
        LCD_WriteReg(0xD10C,0x00);
 20036fc:	01344314 	movui	r4,53516
 2003700:	000b883a 	mov	r5,zero
 2003704:	20003ac0 	call	20003ac <LCD_WriteReg>
        LCD_WriteReg(0xD10D,0xA6);
 2003708:	01344354 	movui	r4,53517
 200370c:	01402984 	movi	r5,166
 2003710:	20003ac0 	call	20003ac <LCD_WriteReg>
        LCD_WriteReg(0xD10E,0x00);
 2003714:	01344394 	movui	r4,53518
 2003718:	000b883a 	mov	r5,zero
 200371c:	20003ac0 	call	20003ac <LCD_WriteReg>
        LCD_WriteReg(0xD10F,0xE5);
 2003720:	013443d4 	movui	r4,53519
 2003724:	01403944 	movi	r5,229
 2003728:	20003ac0 	call	20003ac <LCD_WriteReg>
        LCD_WriteReg(0xD110,0x01);
 200372c:	01344414 	movui	r4,53520
 2003730:	01400044 	movi	r5,1
 2003734:	20003ac0 	call	20003ac <LCD_WriteReg>
        LCD_WriteReg(0xD111,0x13);
 2003738:	01344454 	movui	r4,53521
 200373c:	014004c4 	movi	r5,19
 2003740:	20003ac0 	call	20003ac <LCD_WriteReg>
        LCD_WriteReg(0xD112,0x01);
 2003744:	01344494 	movui	r4,53522
 2003748:	01400044 	movi	r5,1
 200374c:	20003ac0 	call	20003ac <LCD_WriteReg>
        LCD_WriteReg(0xD113,0x54);
 2003750:	013444d4 	movui	r4,53523
 2003754:	01401504 	movi	r5,84
 2003758:	20003ac0 	call	20003ac <LCD_WriteReg>
        LCD_WriteReg(0xD114,0x01);
 200375c:	01344514 	movui	r4,53524
 2003760:	01400044 	movi	r5,1
 2003764:	20003ac0 	call	20003ac <LCD_WriteReg>
        LCD_WriteReg(0xD115,0x82);
 2003768:	01344554 	movui	r4,53525
 200376c:	01402084 	movi	r5,130
 2003770:	20003ac0 	call	20003ac <LCD_WriteReg>
        LCD_WriteReg(0xD116,0x01);
 2003774:	01344594 	movui	r4,53526
 2003778:	01400044 	movi	r5,1
 200377c:	20003ac0 	call	20003ac <LCD_WriteReg>
        LCD_WriteReg(0xD117,0xCA);
 2003780:	013445d4 	movui	r4,53527
 2003784:	01403284 	movi	r5,202
 2003788:	20003ac0 	call	20003ac <LCD_WriteReg>
        LCD_WriteReg(0xD118,0x02);
 200378c:	01344614 	movui	r4,53528
 2003790:	01400084 	movi	r5,2
 2003794:	20003ac0 	call	20003ac <LCD_WriteReg>
        LCD_WriteReg(0xD119,0x00);
 2003798:	01344654 	movui	r4,53529
 200379c:	000b883a 	mov	r5,zero
 20037a0:	20003ac0 	call	20003ac <LCD_WriteReg>
        LCD_WriteReg(0xD11A,0x02);
 20037a4:	01344694 	movui	r4,53530
 20037a8:	01400084 	movi	r5,2
 20037ac:	20003ac0 	call	20003ac <LCD_WriteReg>
        LCD_WriteReg(0xD11B,0x01);
 20037b0:	013446d4 	movui	r4,53531
 20037b4:	01400044 	movi	r5,1
 20037b8:	20003ac0 	call	20003ac <LCD_WriteReg>
        LCD_WriteReg(0xD11C,0x02);
 20037bc:	01344714 	movui	r4,53532
 20037c0:	01400084 	movi	r5,2
 20037c4:	20003ac0 	call	20003ac <LCD_WriteReg>
        LCD_WriteReg(0xD11D,0x34);
 20037c8:	01344754 	movui	r4,53533
 20037cc:	01400d04 	movi	r5,52
 20037d0:	20003ac0 	call	20003ac <LCD_WriteReg>
        LCD_WriteReg(0xD11E,0x02);
 20037d4:	01344794 	movui	r4,53534
 20037d8:	01400084 	movi	r5,2
 20037dc:	20003ac0 	call	20003ac <LCD_WriteReg>
        LCD_WriteReg(0xD11F,0x67);
 20037e0:	013447d4 	movui	r4,53535
 20037e4:	014019c4 	movi	r5,103
 20037e8:	20003ac0 	call	20003ac <LCD_WriteReg>
        LCD_WriteReg(0xD120,0x02);
 20037ec:	01344814 	movui	r4,53536
 20037f0:	01400084 	movi	r5,2
 20037f4:	20003ac0 	call	20003ac <LCD_WriteReg>
        LCD_WriteReg(0xD121,0x84);
 20037f8:	01344854 	movui	r4,53537
 20037fc:	01402104 	movi	r5,132
 2003800:	20003ac0 	call	20003ac <LCD_WriteReg>
        LCD_WriteReg(0xD122,0x02);
 2003804:	01344894 	movui	r4,53538
 2003808:	01400084 	movi	r5,2
 200380c:	20003ac0 	call	20003ac <LCD_WriteReg>
        LCD_WriteReg(0xD123,0xA4);
 2003810:	013448d4 	movui	r4,53539
 2003814:	01402904 	movi	r5,164
 2003818:	20003ac0 	call	20003ac <LCD_WriteReg>
        LCD_WriteReg(0xD124,0x02);
 200381c:	01344914 	movui	r4,53540
 2003820:	01400084 	movi	r5,2
 2003824:	20003ac0 	call	20003ac <LCD_WriteReg>
        LCD_WriteReg(0xD125,0xB7);
 2003828:	01344954 	movui	r4,53541
 200382c:	01402dc4 	movi	r5,183
 2003830:	20003ac0 	call	20003ac <LCD_WriteReg>
        LCD_WriteReg(0xD126,0x02);
 2003834:	01344994 	movui	r4,53542
 2003838:	01400084 	movi	r5,2
 200383c:	20003ac0 	call	20003ac <LCD_WriteReg>
        LCD_WriteReg(0xD127,0xCF);
 2003840:	013449d4 	movui	r4,53543
 2003844:	014033c4 	movi	r5,207
 2003848:	20003ac0 	call	20003ac <LCD_WriteReg>
        LCD_WriteReg(0xD128,0x02);
 200384c:	01344a14 	movui	r4,53544
 2003850:	01400084 	movi	r5,2
 2003854:	20003ac0 	call	20003ac <LCD_WriteReg>
        LCD_WriteReg(0xD129,0xDE);
 2003858:	01344a54 	movui	r4,53545
 200385c:	01403784 	movi	r5,222
 2003860:	20003ac0 	call	20003ac <LCD_WriteReg>
        LCD_WriteReg(0xD12A,0x02);
 2003864:	01344a94 	movui	r4,53546
 2003868:	01400084 	movi	r5,2
 200386c:	20003ac0 	call	20003ac <LCD_WriteReg>
        LCD_WriteReg(0xD12B,0xF2);
 2003870:	01344ad4 	movui	r4,53547
 2003874:	01403c84 	movi	r5,242
 2003878:	20003ac0 	call	20003ac <LCD_WriteReg>
        LCD_WriteReg(0xD12C,0x02);
 200387c:	01344b14 	movui	r4,53548
 2003880:	01400084 	movi	r5,2
 2003884:	20003ac0 	call	20003ac <LCD_WriteReg>
        LCD_WriteReg(0xD12D,0xFE);
 2003888:	01344b54 	movui	r4,53549
 200388c:	01403f84 	movi	r5,254
 2003890:	20003ac0 	call	20003ac <LCD_WriteReg>
        LCD_WriteReg(0xD12E,0x03);
 2003894:	01344b94 	movui	r4,53550
 2003898:	014000c4 	movi	r5,3
 200389c:	20003ac0 	call	20003ac <LCD_WriteReg>
        LCD_WriteReg(0xD12F,0x10);
 20038a0:	01344bd4 	movui	r4,53551
 20038a4:	01400404 	movi	r5,16
 20038a8:	20003ac0 	call	20003ac <LCD_WriteReg>
        LCD_WriteReg(0xD130,0x03);
 20038ac:	01344c14 	movui	r4,53552
 20038b0:	014000c4 	movi	r5,3
 20038b4:	20003ac0 	call	20003ac <LCD_WriteReg>
        LCD_WriteReg(0xD131,0x33);
 20038b8:	01344c54 	movui	r4,53553
 20038bc:	01400cc4 	movi	r5,51
 20038c0:	20003ac0 	call	20003ac <LCD_WriteReg>
        LCD_WriteReg(0xD132,0x03);
 20038c4:	01344c94 	movui	r4,53554
 20038c8:	014000c4 	movi	r5,3
 20038cc:	20003ac0 	call	20003ac <LCD_WriteReg>
        LCD_WriteReg(0xD133,0x6D);
 20038d0:	01344cd4 	movui	r4,53555
 20038d4:	01401b44 	movi	r5,109
 20038d8:	20003ac0 	call	20003ac <LCD_WriteReg>
        LCD_WriteReg(0xD200,0x00);
 20038dc:	01348014 	movui	r4,53760
 20038e0:	000b883a 	mov	r5,zero
 20038e4:	20003ac0 	call	20003ac <LCD_WriteReg>
        LCD_WriteReg(0xD201,0x33);
 20038e8:	01348054 	movui	r4,53761
 20038ec:	01400cc4 	movi	r5,51
 20038f0:	20003ac0 	call	20003ac <LCD_WriteReg>
        LCD_WriteReg(0xD202,0x00);
 20038f4:	01348094 	movui	r4,53762
 20038f8:	000b883a 	mov	r5,zero
 20038fc:	20003ac0 	call	20003ac <LCD_WriteReg>
        LCD_WriteReg(0xD203,0x34);
 2003900:	013480d4 	movui	r4,53763
 2003904:	01400d04 	movi	r5,52
 2003908:	20003ac0 	call	20003ac <LCD_WriteReg>
        LCD_WriteReg(0xD204,0x00);
 200390c:	01348114 	movui	r4,53764
 2003910:	000b883a 	mov	r5,zero
 2003914:	20003ac0 	call	20003ac <LCD_WriteReg>
        LCD_WriteReg(0xD205,0x3A);
 2003918:	01348154 	movui	r4,53765
 200391c:	01400e84 	movi	r5,58
 2003920:	20003ac0 	call	20003ac <LCD_WriteReg>
        LCD_WriteReg(0xD206,0x00);
 2003924:	01348194 	movui	r4,53766
 2003928:	000b883a 	mov	r5,zero
 200392c:	20003ac0 	call	20003ac <LCD_WriteReg>
        LCD_WriteReg(0xD207,0x4A);
 2003930:	013481d4 	movui	r4,53767
 2003934:	01401284 	movi	r5,74
 2003938:	20003ac0 	call	20003ac <LCD_WriteReg>
        LCD_WriteReg(0xD208,0x00);
 200393c:	01348214 	movui	r4,53768
 2003940:	000b883a 	mov	r5,zero
 2003944:	20003ac0 	call	20003ac <LCD_WriteReg>
        LCD_WriteReg(0xD209,0x5C);
 2003948:	01348254 	movui	r4,53769
 200394c:	01401704 	movi	r5,92
 2003950:	20003ac0 	call	20003ac <LCD_WriteReg>
        LCD_WriteReg(0xD20A,0x00);
 2003954:	01348294 	movui	r4,53770
 2003958:	000b883a 	mov	r5,zero
 200395c:	20003ac0 	call	20003ac <LCD_WriteReg>

        LCD_WriteReg(0xD20B,0x81);
 2003960:	013482d4 	movui	r4,53771
 2003964:	01402044 	movi	r5,129
 2003968:	20003ac0 	call	20003ac <LCD_WriteReg>
        LCD_WriteReg(0xD20C,0x00);
 200396c:	01348314 	movui	r4,53772
 2003970:	000b883a 	mov	r5,zero
 2003974:	20003ac0 	call	20003ac <LCD_WriteReg>
        LCD_WriteReg(0xD20D,0xA6);
 2003978:	01348354 	movui	r4,53773
 200397c:	01402984 	movi	r5,166
 2003980:	20003ac0 	call	20003ac <LCD_WriteReg>
        LCD_WriteReg(0xD20E,0x00);
 2003984:	01348394 	movui	r4,53774
 2003988:	000b883a 	mov	r5,zero
 200398c:	20003ac0 	call	20003ac <LCD_WriteReg>
        LCD_WriteReg(0xD20F,0xE5);
 2003990:	013483d4 	movui	r4,53775
 2003994:	01403944 	movi	r5,229
 2003998:	20003ac0 	call	20003ac <LCD_WriteReg>
        LCD_WriteReg(0xD210,0x01);
 200399c:	01348414 	movui	r4,53776
 20039a0:	01400044 	movi	r5,1
 20039a4:	20003ac0 	call	20003ac <LCD_WriteReg>
        LCD_WriteReg(0xD211,0x13);
 20039a8:	01348454 	movui	r4,53777
 20039ac:	014004c4 	movi	r5,19
 20039b0:	20003ac0 	call	20003ac <LCD_WriteReg>
        LCD_WriteReg(0xD212,0x01);
 20039b4:	01348494 	movui	r4,53778
 20039b8:	01400044 	movi	r5,1
 20039bc:	20003ac0 	call	20003ac <LCD_WriteReg>
        LCD_WriteReg(0xD213,0x54);
 20039c0:	013484d4 	movui	r4,53779
 20039c4:	01401504 	movi	r5,84
 20039c8:	20003ac0 	call	20003ac <LCD_WriteReg>
        LCD_WriteReg(0xD214,0x01);
 20039cc:	01348514 	movui	r4,53780
 20039d0:	01400044 	movi	r5,1
 20039d4:	20003ac0 	call	20003ac <LCD_WriteReg>
        LCD_WriteReg(0xD215,0x82);
 20039d8:	01348554 	movui	r4,53781
 20039dc:	01402084 	movi	r5,130
 20039e0:	20003ac0 	call	20003ac <LCD_WriteReg>
        LCD_WriteReg(0xD216,0x01);
 20039e4:	01348594 	movui	r4,53782
 20039e8:	01400044 	movi	r5,1
 20039ec:	20003ac0 	call	20003ac <LCD_WriteReg>
        LCD_WriteReg(0xD217,0xCA);
 20039f0:	013485d4 	movui	r4,53783
 20039f4:	01403284 	movi	r5,202
 20039f8:	20003ac0 	call	20003ac <LCD_WriteReg>
        LCD_WriteReg(0xD218,0x02);
 20039fc:	01348614 	movui	r4,53784
 2003a00:	01400084 	movi	r5,2
 2003a04:	20003ac0 	call	20003ac <LCD_WriteReg>
        LCD_WriteReg(0xD219,0x00);
 2003a08:	01348654 	movui	r4,53785
 2003a0c:	000b883a 	mov	r5,zero
 2003a10:	20003ac0 	call	20003ac <LCD_WriteReg>
        LCD_WriteReg(0xD21A,0x02);
 2003a14:	01348694 	movui	r4,53786
 2003a18:	01400084 	movi	r5,2
 2003a1c:	20003ac0 	call	20003ac <LCD_WriteReg>
        LCD_WriteReg(0xD21B,0x01);
 2003a20:	013486d4 	movui	r4,53787
 2003a24:	01400044 	movi	r5,1
 2003a28:	20003ac0 	call	20003ac <LCD_WriteReg>
        LCD_WriteReg(0xD21C,0x02);
 2003a2c:	01348714 	movui	r4,53788
 2003a30:	01400084 	movi	r5,2
 2003a34:	20003ac0 	call	20003ac <LCD_WriteReg>
        LCD_WriteReg(0xD21D,0x34);
 2003a38:	01348754 	movui	r4,53789
 2003a3c:	01400d04 	movi	r5,52
 2003a40:	20003ac0 	call	20003ac <LCD_WriteReg>
        LCD_WriteReg(0xD21E,0x02);
 2003a44:	01348794 	movui	r4,53790
 2003a48:	01400084 	movi	r5,2
 2003a4c:	20003ac0 	call	20003ac <LCD_WriteReg>
        LCD_WriteReg(0xD21F,0x67);
 2003a50:	013487d4 	movui	r4,53791
 2003a54:	014019c4 	movi	r5,103
 2003a58:	20003ac0 	call	20003ac <LCD_WriteReg>
        LCD_WriteReg(0xD220,0x02);
 2003a5c:	01348814 	movui	r4,53792
 2003a60:	01400084 	movi	r5,2
 2003a64:	20003ac0 	call	20003ac <LCD_WriteReg>
        LCD_WriteReg(0xD221,0x84);
 2003a68:	01348854 	movui	r4,53793
 2003a6c:	01402104 	movi	r5,132
 2003a70:	20003ac0 	call	20003ac <LCD_WriteReg>
        LCD_WriteReg(0xD222,0x02);
 2003a74:	01348894 	movui	r4,53794
 2003a78:	01400084 	movi	r5,2
 2003a7c:	20003ac0 	call	20003ac <LCD_WriteReg>
        LCD_WriteReg(0xD223,0xA4);
 2003a80:	013488d4 	movui	r4,53795
 2003a84:	01402904 	movi	r5,164
 2003a88:	20003ac0 	call	20003ac <LCD_WriteReg>
        LCD_WriteReg(0xD224,0x02);
 2003a8c:	01348914 	movui	r4,53796
 2003a90:	01400084 	movi	r5,2
 2003a94:	20003ac0 	call	20003ac <LCD_WriteReg>
        LCD_WriteReg(0xD225,0xB7);
 2003a98:	01348954 	movui	r4,53797
 2003a9c:	01402dc4 	movi	r5,183
 2003aa0:	20003ac0 	call	20003ac <LCD_WriteReg>
        LCD_WriteReg(0xD226,0x02);
 2003aa4:	01348994 	movui	r4,53798
 2003aa8:	01400084 	movi	r5,2
 2003aac:	20003ac0 	call	20003ac <LCD_WriteReg>
        LCD_WriteReg(0xD227,0xCF);
 2003ab0:	013489d4 	movui	r4,53799
 2003ab4:	014033c4 	movi	r5,207
 2003ab8:	20003ac0 	call	20003ac <LCD_WriteReg>
        LCD_WriteReg(0xD228,0x02);
 2003abc:	01348a14 	movui	r4,53800
 2003ac0:	01400084 	movi	r5,2
 2003ac4:	20003ac0 	call	20003ac <LCD_WriteReg>
        LCD_WriteReg(0xD229,0xDE);
 2003ac8:	01348a54 	movui	r4,53801
 2003acc:	01403784 	movi	r5,222
 2003ad0:	20003ac0 	call	20003ac <LCD_WriteReg>
        LCD_WriteReg(0xD22A,0x02);
 2003ad4:	01348a94 	movui	r4,53802
 2003ad8:	01400084 	movi	r5,2
 2003adc:	20003ac0 	call	20003ac <LCD_WriteReg>
        LCD_WriteReg(0xD22B,0xF2);
 2003ae0:	01348ad4 	movui	r4,53803
 2003ae4:	01403c84 	movi	r5,242
 2003ae8:	20003ac0 	call	20003ac <LCD_WriteReg>
        LCD_WriteReg(0xD22C,0x02);
 2003aec:	01348b14 	movui	r4,53804
 2003af0:	01400084 	movi	r5,2
 2003af4:	20003ac0 	call	20003ac <LCD_WriteReg>
        LCD_WriteReg(0xD22D,0xFE);
 2003af8:	01348b54 	movui	r4,53805
 2003afc:	01403f84 	movi	r5,254
 2003b00:	20003ac0 	call	20003ac <LCD_WriteReg>
        LCD_WriteReg(0xD22E,0x03);
 2003b04:	01348b94 	movui	r4,53806
 2003b08:	014000c4 	movi	r5,3
 2003b0c:	20003ac0 	call	20003ac <LCD_WriteReg>
        LCD_WriteReg(0xD22F,0x10);
 2003b10:	01348bd4 	movui	r4,53807
 2003b14:	01400404 	movi	r5,16
 2003b18:	20003ac0 	call	20003ac <LCD_WriteReg>
        LCD_WriteReg(0xD230,0x03);
 2003b1c:	01348c14 	movui	r4,53808
 2003b20:	014000c4 	movi	r5,3
 2003b24:	20003ac0 	call	20003ac <LCD_WriteReg>
        LCD_WriteReg(0xD231,0x33);
 2003b28:	01348c54 	movui	r4,53809
 2003b2c:	01400cc4 	movi	r5,51
 2003b30:	20003ac0 	call	20003ac <LCD_WriteReg>
        LCD_WriteReg(0xD232,0x03);
 2003b34:	01348c94 	movui	r4,53810
 2003b38:	014000c4 	movi	r5,3
 2003b3c:	20003ac0 	call	20003ac <LCD_WriteReg>
        LCD_WriteReg(0xD233,0x6D);
 2003b40:	01348cd4 	movui	r4,53811
 2003b44:	01401b44 	movi	r5,109
 2003b48:	20003ac0 	call	20003ac <LCD_WriteReg>
        LCD_WriteReg(0xD300,0x00);
 2003b4c:	0134c014 	movui	r4,54016
 2003b50:	000b883a 	mov	r5,zero
 2003b54:	20003ac0 	call	20003ac <LCD_WriteReg>
        LCD_WriteReg(0xD301,0x33);
 2003b58:	0134c054 	movui	r4,54017
 2003b5c:	01400cc4 	movi	r5,51
 2003b60:	20003ac0 	call	20003ac <LCD_WriteReg>
        LCD_WriteReg(0xD302,0x00);
 2003b64:	0134c094 	movui	r4,54018
 2003b68:	000b883a 	mov	r5,zero
 2003b6c:	20003ac0 	call	20003ac <LCD_WriteReg>
        LCD_WriteReg(0xD303,0x34);
 2003b70:	0134c0d4 	movui	r4,54019
 2003b74:	01400d04 	movi	r5,52
 2003b78:	20003ac0 	call	20003ac <LCD_WriteReg>
        LCD_WriteReg(0xD304,0x00);
 2003b7c:	0134c114 	movui	r4,54020
 2003b80:	000b883a 	mov	r5,zero
 2003b84:	20003ac0 	call	20003ac <LCD_WriteReg>
        LCD_WriteReg(0xD305,0x3A);
 2003b88:	0134c154 	movui	r4,54021
 2003b8c:	01400e84 	movi	r5,58
 2003b90:	20003ac0 	call	20003ac <LCD_WriteReg>
        LCD_WriteReg(0xD306,0x00);
 2003b94:	0134c194 	movui	r4,54022
 2003b98:	000b883a 	mov	r5,zero
 2003b9c:	20003ac0 	call	20003ac <LCD_WriteReg>
        LCD_WriteReg(0xD307,0x4A);
 2003ba0:	0134c1d4 	movui	r4,54023
 2003ba4:	01401284 	movi	r5,74
 2003ba8:	20003ac0 	call	20003ac <LCD_WriteReg>
        LCD_WriteReg(0xD308,0x00);
 2003bac:	0134c214 	movui	r4,54024
 2003bb0:	000b883a 	mov	r5,zero
 2003bb4:	20003ac0 	call	20003ac <LCD_WriteReg>
        LCD_WriteReg(0xD309,0x5C);
 2003bb8:	0134c254 	movui	r4,54025
 2003bbc:	01401704 	movi	r5,92
 2003bc0:	20003ac0 	call	20003ac <LCD_WriteReg>
        LCD_WriteReg(0xD30A,0x00);
 2003bc4:	0134c294 	movui	r4,54026
 2003bc8:	000b883a 	mov	r5,zero
 2003bcc:	20003ac0 	call	20003ac <LCD_WriteReg>

        LCD_WriteReg(0xD30B,0x81);
 2003bd0:	0134c2d4 	movui	r4,54027
 2003bd4:	01402044 	movi	r5,129
 2003bd8:	20003ac0 	call	20003ac <LCD_WriteReg>
        LCD_WriteReg(0xD30C,0x00);
 2003bdc:	0134c314 	movui	r4,54028
 2003be0:	000b883a 	mov	r5,zero
 2003be4:	20003ac0 	call	20003ac <LCD_WriteReg>
        LCD_WriteReg(0xD30D,0xA6);
 2003be8:	0134c354 	movui	r4,54029
 2003bec:	01402984 	movi	r5,166
 2003bf0:	20003ac0 	call	20003ac <LCD_WriteReg>
        LCD_WriteReg(0xD30E,0x00);
 2003bf4:	0134c394 	movui	r4,54030
 2003bf8:	000b883a 	mov	r5,zero
 2003bfc:	20003ac0 	call	20003ac <LCD_WriteReg>
        LCD_WriteReg(0xD30F,0xE5);
 2003c00:	0134c3d4 	movui	r4,54031
 2003c04:	01403944 	movi	r5,229
 2003c08:	20003ac0 	call	20003ac <LCD_WriteReg>
        LCD_WriteReg(0xD310,0x01);
 2003c0c:	0134c414 	movui	r4,54032
 2003c10:	01400044 	movi	r5,1
 2003c14:	20003ac0 	call	20003ac <LCD_WriteReg>
        LCD_WriteReg(0xD311,0x13);
 2003c18:	0134c454 	movui	r4,54033
 2003c1c:	014004c4 	movi	r5,19
 2003c20:	20003ac0 	call	20003ac <LCD_WriteReg>
        LCD_WriteReg(0xD312,0x01);
 2003c24:	0134c494 	movui	r4,54034
 2003c28:	01400044 	movi	r5,1
 2003c2c:	20003ac0 	call	20003ac <LCD_WriteReg>
        LCD_WriteReg(0xD313,0x54);
 2003c30:	0134c4d4 	movui	r4,54035
 2003c34:	01401504 	movi	r5,84
 2003c38:	20003ac0 	call	20003ac <LCD_WriteReg>
        LCD_WriteReg(0xD314,0x01);
 2003c3c:	0134c514 	movui	r4,54036
 2003c40:	01400044 	movi	r5,1
 2003c44:	20003ac0 	call	20003ac <LCD_WriteReg>
        LCD_WriteReg(0xD315,0x82);
 2003c48:	0134c554 	movui	r4,54037
 2003c4c:	01402084 	movi	r5,130
 2003c50:	20003ac0 	call	20003ac <LCD_WriteReg>
        LCD_WriteReg(0xD316,0x01);
 2003c54:	0134c594 	movui	r4,54038
 2003c58:	01400044 	movi	r5,1
 2003c5c:	20003ac0 	call	20003ac <LCD_WriteReg>
        LCD_WriteReg(0xD317,0xCA);
 2003c60:	0134c5d4 	movui	r4,54039
 2003c64:	01403284 	movi	r5,202
 2003c68:	20003ac0 	call	20003ac <LCD_WriteReg>
        LCD_WriteReg(0xD318,0x02);
 2003c6c:	0134c614 	movui	r4,54040
 2003c70:	01400084 	movi	r5,2
 2003c74:	20003ac0 	call	20003ac <LCD_WriteReg>
        LCD_WriteReg(0xD319,0x00);
 2003c78:	0134c654 	movui	r4,54041
 2003c7c:	000b883a 	mov	r5,zero
 2003c80:	20003ac0 	call	20003ac <LCD_WriteReg>
        LCD_WriteReg(0xD31A,0x02);
 2003c84:	0134c694 	movui	r4,54042
 2003c88:	01400084 	movi	r5,2
 2003c8c:	20003ac0 	call	20003ac <LCD_WriteReg>
        LCD_WriteReg(0xD31B,0x01);
 2003c90:	0134c6d4 	movui	r4,54043
 2003c94:	01400044 	movi	r5,1
 2003c98:	20003ac0 	call	20003ac <LCD_WriteReg>
        LCD_WriteReg(0xD31C,0x02);
 2003c9c:	0134c714 	movui	r4,54044
 2003ca0:	01400084 	movi	r5,2
 2003ca4:	20003ac0 	call	20003ac <LCD_WriteReg>
        LCD_WriteReg(0xD31D,0x34);
 2003ca8:	0134c754 	movui	r4,54045
 2003cac:	01400d04 	movi	r5,52
 2003cb0:	20003ac0 	call	20003ac <LCD_WriteReg>
        LCD_WriteReg(0xD31E,0x02);
 2003cb4:	0134c794 	movui	r4,54046
 2003cb8:	01400084 	movi	r5,2
 2003cbc:	20003ac0 	call	20003ac <LCD_WriteReg>
        LCD_WriteReg(0xD31F,0x67);
 2003cc0:	0134c7d4 	movui	r4,54047
 2003cc4:	014019c4 	movi	r5,103
 2003cc8:	20003ac0 	call	20003ac <LCD_WriteReg>
        LCD_WriteReg(0xD320,0x02);
 2003ccc:	0134c814 	movui	r4,54048
 2003cd0:	01400084 	movi	r5,2
 2003cd4:	20003ac0 	call	20003ac <LCD_WriteReg>
        LCD_WriteReg(0xD321,0x84);
 2003cd8:	0134c854 	movui	r4,54049
 2003cdc:	01402104 	movi	r5,132
 2003ce0:	20003ac0 	call	20003ac <LCD_WriteReg>
        LCD_WriteReg(0xD322,0x02);
 2003ce4:	0134c894 	movui	r4,54050
 2003ce8:	01400084 	movi	r5,2
 2003cec:	20003ac0 	call	20003ac <LCD_WriteReg>
        LCD_WriteReg(0xD323,0xA4);
 2003cf0:	0134c8d4 	movui	r4,54051
 2003cf4:	01402904 	movi	r5,164
 2003cf8:	20003ac0 	call	20003ac <LCD_WriteReg>
        LCD_WriteReg(0xD324,0x02);
 2003cfc:	0134c914 	movui	r4,54052
 2003d00:	01400084 	movi	r5,2
 2003d04:	20003ac0 	call	20003ac <LCD_WriteReg>
        LCD_WriteReg(0xD325,0xB7);
 2003d08:	0134c954 	movui	r4,54053
 2003d0c:	01402dc4 	movi	r5,183
 2003d10:	20003ac0 	call	20003ac <LCD_WriteReg>
        LCD_WriteReg(0xD326,0x02);
 2003d14:	0134c994 	movui	r4,54054
 2003d18:	01400084 	movi	r5,2
 2003d1c:	20003ac0 	call	20003ac <LCD_WriteReg>
        LCD_WriteReg(0xD327,0xCF);
 2003d20:	0134c9d4 	movui	r4,54055
 2003d24:	014033c4 	movi	r5,207
 2003d28:	20003ac0 	call	20003ac <LCD_WriteReg>
        LCD_WriteReg(0xD328,0x02);
 2003d2c:	0134ca14 	movui	r4,54056
 2003d30:	01400084 	movi	r5,2
 2003d34:	20003ac0 	call	20003ac <LCD_WriteReg>
        LCD_WriteReg(0xD329,0xDE);
 2003d38:	0134ca54 	movui	r4,54057
 2003d3c:	01403784 	movi	r5,222
 2003d40:	20003ac0 	call	20003ac <LCD_WriteReg>
        LCD_WriteReg(0xD32A,0x02);
 2003d44:	0134ca94 	movui	r4,54058
 2003d48:	01400084 	movi	r5,2
 2003d4c:	20003ac0 	call	20003ac <LCD_WriteReg>
        LCD_WriteReg(0xD32B,0xF2);
 2003d50:	0134cad4 	movui	r4,54059
 2003d54:	01403c84 	movi	r5,242
 2003d58:	20003ac0 	call	20003ac <LCD_WriteReg>
        LCD_WriteReg(0xD32C,0x02);
 2003d5c:	0134cb14 	movui	r4,54060
 2003d60:	01400084 	movi	r5,2
 2003d64:	20003ac0 	call	20003ac <LCD_WriteReg>
        LCD_WriteReg(0xD32D,0xFE);
 2003d68:	0134cb54 	movui	r4,54061
 2003d6c:	01403f84 	movi	r5,254
 2003d70:	20003ac0 	call	20003ac <LCD_WriteReg>
        LCD_WriteReg(0xD32E,0x03);
 2003d74:	0134cb94 	movui	r4,54062
 2003d78:	014000c4 	movi	r5,3
 2003d7c:	20003ac0 	call	20003ac <LCD_WriteReg>
        LCD_WriteReg(0xD32F,0x10);
 2003d80:	0134cbd4 	movui	r4,54063
 2003d84:	01400404 	movi	r5,16
 2003d88:	20003ac0 	call	20003ac <LCD_WriteReg>
        LCD_WriteReg(0xD330,0x03);
 2003d8c:	0134cc14 	movui	r4,54064
 2003d90:	014000c4 	movi	r5,3
 2003d94:	20003ac0 	call	20003ac <LCD_WriteReg>
        LCD_WriteReg(0xD331,0x33);
 2003d98:	0134cc54 	movui	r4,54065
 2003d9c:	01400cc4 	movi	r5,51
 2003da0:	20003ac0 	call	20003ac <LCD_WriteReg>
        LCD_WriteReg(0xD332,0x03);
 2003da4:	0134cc94 	movui	r4,54066
 2003da8:	014000c4 	movi	r5,3
 2003dac:	20003ac0 	call	20003ac <LCD_WriteReg>
        LCD_WriteReg(0xD333,0x6D);
 2003db0:	0134ccd4 	movui	r4,54067
 2003db4:	01401b44 	movi	r5,109
 2003db8:	20003ac0 	call	20003ac <LCD_WriteReg>
        LCD_WriteReg(0xD400,0x00);
 2003dbc:	01350014 	movui	r4,54272
 2003dc0:	000b883a 	mov	r5,zero
 2003dc4:	20003ac0 	call	20003ac <LCD_WriteReg>
        LCD_WriteReg(0xD401,0x33);
 2003dc8:	01350054 	movui	r4,54273
 2003dcc:	01400cc4 	movi	r5,51
 2003dd0:	20003ac0 	call	20003ac <LCD_WriteReg>
        LCD_WriteReg(0xD402,0x00);
 2003dd4:	01350094 	movui	r4,54274
 2003dd8:	000b883a 	mov	r5,zero
 2003ddc:	20003ac0 	call	20003ac <LCD_WriteReg>
        LCD_WriteReg(0xD403,0x34);
 2003de0:	013500d4 	movui	r4,54275
 2003de4:	01400d04 	movi	r5,52
 2003de8:	20003ac0 	call	20003ac <LCD_WriteReg>
        LCD_WriteReg(0xD404,0x00);
 2003dec:	01350114 	movui	r4,54276
 2003df0:	000b883a 	mov	r5,zero
 2003df4:	20003ac0 	call	20003ac <LCD_WriteReg>
        LCD_WriteReg(0xD405,0x3A);
 2003df8:	01350154 	movui	r4,54277
 2003dfc:	01400e84 	movi	r5,58
 2003e00:	20003ac0 	call	20003ac <LCD_WriteReg>
        LCD_WriteReg(0xD406,0x00);
 2003e04:	01350194 	movui	r4,54278
 2003e08:	000b883a 	mov	r5,zero
 2003e0c:	20003ac0 	call	20003ac <LCD_WriteReg>
        LCD_WriteReg(0xD407,0x4A);
 2003e10:	013501d4 	movui	r4,54279
 2003e14:	01401284 	movi	r5,74
 2003e18:	20003ac0 	call	20003ac <LCD_WriteReg>
        LCD_WriteReg(0xD408,0x00);
 2003e1c:	01350214 	movui	r4,54280
 2003e20:	000b883a 	mov	r5,zero
 2003e24:	20003ac0 	call	20003ac <LCD_WriteReg>
        LCD_WriteReg(0xD409,0x5C);
 2003e28:	01350254 	movui	r4,54281
 2003e2c:	01401704 	movi	r5,92
 2003e30:	20003ac0 	call	20003ac <LCD_WriteReg>
        LCD_WriteReg(0xD40A,0x00);
 2003e34:	01350294 	movui	r4,54282
 2003e38:	000b883a 	mov	r5,zero
 2003e3c:	20003ac0 	call	20003ac <LCD_WriteReg>
        LCD_WriteReg(0xD40B,0x81);
 2003e40:	013502d4 	movui	r4,54283
 2003e44:	01402044 	movi	r5,129
 2003e48:	20003ac0 	call	20003ac <LCD_WriteReg>

        LCD_WriteReg(0xD40C,0x00);
 2003e4c:	01350314 	movui	r4,54284
 2003e50:	000b883a 	mov	r5,zero
 2003e54:	20003ac0 	call	20003ac <LCD_WriteReg>
        LCD_WriteReg(0xD40D,0xA6);
 2003e58:	01350354 	movui	r4,54285
 2003e5c:	01402984 	movi	r5,166
 2003e60:	20003ac0 	call	20003ac <LCD_WriteReg>
        LCD_WriteReg(0xD40E,0x00);
 2003e64:	01350394 	movui	r4,54286
 2003e68:	000b883a 	mov	r5,zero
 2003e6c:	20003ac0 	call	20003ac <LCD_WriteReg>
        LCD_WriteReg(0xD40F,0xE5);
 2003e70:	013503d4 	movui	r4,54287
 2003e74:	01403944 	movi	r5,229
 2003e78:	20003ac0 	call	20003ac <LCD_WriteReg>
        LCD_WriteReg(0xD410,0x01);
 2003e7c:	01350414 	movui	r4,54288
 2003e80:	01400044 	movi	r5,1
 2003e84:	20003ac0 	call	20003ac <LCD_WriteReg>
        LCD_WriteReg(0xD411,0x13);
 2003e88:	01350454 	movui	r4,54289
 2003e8c:	014004c4 	movi	r5,19
 2003e90:	20003ac0 	call	20003ac <LCD_WriteReg>
        LCD_WriteReg(0xD412,0x01);
 2003e94:	01350494 	movui	r4,54290
 2003e98:	01400044 	movi	r5,1
 2003e9c:	20003ac0 	call	20003ac <LCD_WriteReg>
        LCD_WriteReg(0xD413,0x54);
 2003ea0:	013504d4 	movui	r4,54291
 2003ea4:	01401504 	movi	r5,84
 2003ea8:	20003ac0 	call	20003ac <LCD_WriteReg>
        LCD_WriteReg(0xD414,0x01);
 2003eac:	01350514 	movui	r4,54292
 2003eb0:	01400044 	movi	r5,1
 2003eb4:	20003ac0 	call	20003ac <LCD_WriteReg>
        LCD_WriteReg(0xD415,0x82);
 2003eb8:	01350554 	movui	r4,54293
 2003ebc:	01402084 	movi	r5,130
 2003ec0:	20003ac0 	call	20003ac <LCD_WriteReg>
        LCD_WriteReg(0xD416,0x01);
 2003ec4:	01350594 	movui	r4,54294
 2003ec8:	01400044 	movi	r5,1
 2003ecc:	20003ac0 	call	20003ac <LCD_WriteReg>
        LCD_WriteReg(0xD417,0xCA);
 2003ed0:	013505d4 	movui	r4,54295
 2003ed4:	01403284 	movi	r5,202
 2003ed8:	20003ac0 	call	20003ac <LCD_WriteReg>
        LCD_WriteReg(0xD418,0x02);
 2003edc:	01350614 	movui	r4,54296
 2003ee0:	01400084 	movi	r5,2
 2003ee4:	20003ac0 	call	20003ac <LCD_WriteReg>
        LCD_WriteReg(0xD419,0x00);
 2003ee8:	01350654 	movui	r4,54297
 2003eec:	000b883a 	mov	r5,zero
 2003ef0:	20003ac0 	call	20003ac <LCD_WriteReg>
        LCD_WriteReg(0xD41A,0x02);
 2003ef4:	01350694 	movui	r4,54298
 2003ef8:	01400084 	movi	r5,2
 2003efc:	20003ac0 	call	20003ac <LCD_WriteReg>
        LCD_WriteReg(0xD41B,0x01);
 2003f00:	013506d4 	movui	r4,54299
 2003f04:	01400044 	movi	r5,1
 2003f08:	20003ac0 	call	20003ac <LCD_WriteReg>
        LCD_WriteReg(0xD41C,0x02);
 2003f0c:	01350714 	movui	r4,54300
 2003f10:	01400084 	movi	r5,2
 2003f14:	20003ac0 	call	20003ac <LCD_WriteReg>
        LCD_WriteReg(0xD41D,0x34);
 2003f18:	01350754 	movui	r4,54301
 2003f1c:	01400d04 	movi	r5,52
 2003f20:	20003ac0 	call	20003ac <LCD_WriteReg>
        LCD_WriteReg(0xD41E,0x02);
 2003f24:	01350794 	movui	r4,54302
 2003f28:	01400084 	movi	r5,2
 2003f2c:	20003ac0 	call	20003ac <LCD_WriteReg>
        LCD_WriteReg(0xD41F,0x67);
 2003f30:	013507d4 	movui	r4,54303
 2003f34:	014019c4 	movi	r5,103
 2003f38:	20003ac0 	call	20003ac <LCD_WriteReg>
        LCD_WriteReg(0xD420,0x02);
 2003f3c:	01350814 	movui	r4,54304
 2003f40:	01400084 	movi	r5,2
 2003f44:	20003ac0 	call	20003ac <LCD_WriteReg>
        LCD_WriteReg(0xD421,0x84);
 2003f48:	01350854 	movui	r4,54305
 2003f4c:	01402104 	movi	r5,132
 2003f50:	20003ac0 	call	20003ac <LCD_WriteReg>
        LCD_WriteReg(0xD422,0x02);
 2003f54:	01350894 	movui	r4,54306
 2003f58:	01400084 	movi	r5,2
 2003f5c:	20003ac0 	call	20003ac <LCD_WriteReg>
        LCD_WriteReg(0xD423,0xA4);
 2003f60:	013508d4 	movui	r4,54307
 2003f64:	01402904 	movi	r5,164
 2003f68:	20003ac0 	call	20003ac <LCD_WriteReg>
        LCD_WriteReg(0xD424,0x02);
 2003f6c:	01350914 	movui	r4,54308
 2003f70:	01400084 	movi	r5,2
 2003f74:	20003ac0 	call	20003ac <LCD_WriteReg>
        LCD_WriteReg(0xD425,0xB7);
 2003f78:	01350954 	movui	r4,54309
 2003f7c:	01402dc4 	movi	r5,183
 2003f80:	20003ac0 	call	20003ac <LCD_WriteReg>
        LCD_WriteReg(0xD426,0x02);
 2003f84:	01350994 	movui	r4,54310
 2003f88:	01400084 	movi	r5,2
 2003f8c:	20003ac0 	call	20003ac <LCD_WriteReg>
        LCD_WriteReg(0xD427,0xCF);
 2003f90:	013509d4 	movui	r4,54311
 2003f94:	014033c4 	movi	r5,207
 2003f98:	20003ac0 	call	20003ac <LCD_WriteReg>
        LCD_WriteReg(0xD428,0x02);
 2003f9c:	01350a14 	movui	r4,54312
 2003fa0:	01400084 	movi	r5,2
 2003fa4:	20003ac0 	call	20003ac <LCD_WriteReg>
        LCD_WriteReg(0xD429,0xDE);
 2003fa8:	01350a54 	movui	r4,54313
 2003fac:	01403784 	movi	r5,222
 2003fb0:	20003ac0 	call	20003ac <LCD_WriteReg>
        LCD_WriteReg(0xD42A,0x02);
 2003fb4:	01350a94 	movui	r4,54314
 2003fb8:	01400084 	movi	r5,2
 2003fbc:	20003ac0 	call	20003ac <LCD_WriteReg>
        LCD_WriteReg(0xD42B,0xF2);
 2003fc0:	01350ad4 	movui	r4,54315
 2003fc4:	01403c84 	movi	r5,242
 2003fc8:	20003ac0 	call	20003ac <LCD_WriteReg>
        LCD_WriteReg(0xD42C,0x02);
 2003fcc:	01350b14 	movui	r4,54316
 2003fd0:	01400084 	movi	r5,2
 2003fd4:	20003ac0 	call	20003ac <LCD_WriteReg>
        LCD_WriteReg(0xD42D,0xFE);
 2003fd8:	01350b54 	movui	r4,54317
 2003fdc:	01403f84 	movi	r5,254
 2003fe0:	20003ac0 	call	20003ac <LCD_WriteReg>
        LCD_WriteReg(0xD42E,0x03);
 2003fe4:	01350b94 	movui	r4,54318
 2003fe8:	014000c4 	movi	r5,3
 2003fec:	20003ac0 	call	20003ac <LCD_WriteReg>
        LCD_WriteReg(0xD42F,0x10);
 2003ff0:	01350bd4 	movui	r4,54319
 2003ff4:	01400404 	movi	r5,16
 2003ff8:	20003ac0 	call	20003ac <LCD_WriteReg>
        LCD_WriteReg(0xD430,0x03);
 2003ffc:	01350c14 	movui	r4,54320
 2004000:	014000c4 	movi	r5,3
 2004004:	20003ac0 	call	20003ac <LCD_WriteReg>
        LCD_WriteReg(0xD431,0x33);
 2004008:	01350c54 	movui	r4,54321
 200400c:	01400cc4 	movi	r5,51
 2004010:	20003ac0 	call	20003ac <LCD_WriteReg>
        LCD_WriteReg(0xD432,0x03);
 2004014:	01350c94 	movui	r4,54322
 2004018:	014000c4 	movi	r5,3
 200401c:	20003ac0 	call	20003ac <LCD_WriteReg>
        LCD_WriteReg(0xD433,0x6D);    /* VU */
 2004020:	01350cd4 	movui	r4,54323
 2004024:	01401b44 	movi	r5,109
 2004028:	20003ac0 	call	20003ac <LCD_WriteReg>
        LCD_WriteReg(0xD500,0x00);
 200402c:	01354014 	movui	r4,54528
 2004030:	000b883a 	mov	r5,zero
 2004034:	20003ac0 	call	20003ac <LCD_WriteReg>
        LCD_WriteReg(0xD501,0x33);
 2004038:	01354054 	movui	r4,54529
 200403c:	01400cc4 	movi	r5,51
 2004040:	20003ac0 	call	20003ac <LCD_WriteReg>
        LCD_WriteReg(0xD502,0x00);
 2004044:	01354094 	movui	r4,54530
 2004048:	000b883a 	mov	r5,zero
 200404c:	20003ac0 	call	20003ac <LCD_WriteReg>
        LCD_WriteReg(0xD503,0x34);
 2004050:	013540d4 	movui	r4,54531
 2004054:	01400d04 	movi	r5,52
 2004058:	20003ac0 	call	20003ac <LCD_WriteReg>
        LCD_WriteReg(0xD504,0x00);
 200405c:	01354114 	movui	r4,54532
 2004060:	000b883a 	mov	r5,zero
 2004064:	20003ac0 	call	20003ac <LCD_WriteReg>
        LCD_WriteReg(0xD505,0x3A);
 2004068:	01354154 	movui	r4,54533
 200406c:	01400e84 	movi	r5,58
 2004070:	20003ac0 	call	20003ac <LCD_WriteReg>
        LCD_WriteReg(0xD506,0x00);
 2004074:	01354194 	movui	r4,54534
 2004078:	000b883a 	mov	r5,zero
 200407c:	20003ac0 	call	20003ac <LCD_WriteReg>
        LCD_WriteReg(0xD507,0x4A);
 2004080:	013541d4 	movui	r4,54535
 2004084:	01401284 	movi	r5,74
 2004088:	20003ac0 	call	20003ac <LCD_WriteReg>
        LCD_WriteReg(0xD508,0x00);
 200408c:	01354214 	movui	r4,54536
 2004090:	000b883a 	mov	r5,zero
 2004094:	20003ac0 	call	20003ac <LCD_WriteReg>
        LCD_WriteReg(0xD509,0x5C);
 2004098:	01354254 	movui	r4,54537
 200409c:	01401704 	movi	r5,92
 20040a0:	20003ac0 	call	20003ac <LCD_WriteReg>
        LCD_WriteReg(0xD50A,0x00);
 20040a4:	01354294 	movui	r4,54538
 20040a8:	000b883a 	mov	r5,zero
 20040ac:	20003ac0 	call	20003ac <LCD_WriteReg>
        LCD_WriteReg(0xD50B,0x81);
 20040b0:	013542d4 	movui	r4,54539
 20040b4:	01402044 	movi	r5,129
 20040b8:	20003ac0 	call	20003ac <LCD_WriteReg>

        LCD_WriteReg(0xD50C,0x00);
 20040bc:	01354314 	movui	r4,54540
 20040c0:	000b883a 	mov	r5,zero
 20040c4:	20003ac0 	call	20003ac <LCD_WriteReg>
        LCD_WriteReg(0xD50D,0xA6);
 20040c8:	01354354 	movui	r4,54541
 20040cc:	01402984 	movi	r5,166
 20040d0:	20003ac0 	call	20003ac <LCD_WriteReg>
        LCD_WriteReg(0xD50E,0x00);
 20040d4:	01354394 	movui	r4,54542
 20040d8:	000b883a 	mov	r5,zero
 20040dc:	20003ac0 	call	20003ac <LCD_WriteReg>
        LCD_WriteReg(0xD50F,0xE5);
 20040e0:	013543d4 	movui	r4,54543
 20040e4:	01403944 	movi	r5,229
 20040e8:	20003ac0 	call	20003ac <LCD_WriteReg>
        LCD_WriteReg(0xD510,0x01);
 20040ec:	01354414 	movui	r4,54544
 20040f0:	01400044 	movi	r5,1
 20040f4:	20003ac0 	call	20003ac <LCD_WriteReg>
        LCD_WriteReg(0xD511,0x13);
 20040f8:	01354454 	movui	r4,54545
 20040fc:	014004c4 	movi	r5,19
 2004100:	20003ac0 	call	20003ac <LCD_WriteReg>
        LCD_WriteReg(0xD512,0x01);
 2004104:	01354494 	movui	r4,54546
 2004108:	01400044 	movi	r5,1
 200410c:	20003ac0 	call	20003ac <LCD_WriteReg>
        LCD_WriteReg(0xD513,0x54);
 2004110:	013544d4 	movui	r4,54547
 2004114:	01401504 	movi	r5,84
 2004118:	20003ac0 	call	20003ac <LCD_WriteReg>
        LCD_WriteReg(0xD514,0x01);
 200411c:	01354514 	movui	r4,54548
 2004120:	01400044 	movi	r5,1
 2004124:	20003ac0 	call	20003ac <LCD_WriteReg>
        LCD_WriteReg(0xD515,0x82);
 2004128:	01354554 	movui	r4,54549
 200412c:	01402084 	movi	r5,130
 2004130:	20003ac0 	call	20003ac <LCD_WriteReg>
        LCD_WriteReg(0xD516,0x01);
 2004134:	01354594 	movui	r4,54550
 2004138:	01400044 	movi	r5,1
 200413c:	20003ac0 	call	20003ac <LCD_WriteReg>
        LCD_WriteReg(0xD517,0xCA);
 2004140:	013545d4 	movui	r4,54551
 2004144:	01403284 	movi	r5,202
 2004148:	20003ac0 	call	20003ac <LCD_WriteReg>
        LCD_WriteReg(0xD518,0x02);
 200414c:	01354614 	movui	r4,54552
 2004150:	01400084 	movi	r5,2
 2004154:	20003ac0 	call	20003ac <LCD_WriteReg>
        LCD_WriteReg(0xD519,0x00);
 2004158:	01354654 	movui	r4,54553
 200415c:	000b883a 	mov	r5,zero
 2004160:	20003ac0 	call	20003ac <LCD_WriteReg>
        LCD_WriteReg(0xD51A,0x02);
 2004164:	01354694 	movui	r4,54554
 2004168:	01400084 	movi	r5,2
 200416c:	20003ac0 	call	20003ac <LCD_WriteReg>
        LCD_WriteReg(0xD51B,0x01);
 2004170:	013546d4 	movui	r4,54555
 2004174:	01400044 	movi	r5,1
 2004178:	20003ac0 	call	20003ac <LCD_WriteReg>
        LCD_WriteReg(0xD51C,0x02);
 200417c:	01354714 	movui	r4,54556
 2004180:	01400084 	movi	r5,2
 2004184:	20003ac0 	call	20003ac <LCD_WriteReg>
        LCD_WriteReg(0xD51D,0x34);
 2004188:	01354754 	movui	r4,54557
 200418c:	01400d04 	movi	r5,52
 2004190:	20003ac0 	call	20003ac <LCD_WriteReg>
        LCD_WriteReg(0xD51E,0x02);
 2004194:	01354794 	movui	r4,54558
 2004198:	01400084 	movi	r5,2
 200419c:	20003ac0 	call	20003ac <LCD_WriteReg>
        LCD_WriteReg(0xD51F,0x67);
 20041a0:	013547d4 	movui	r4,54559
 20041a4:	014019c4 	movi	r5,103
 20041a8:	20003ac0 	call	20003ac <LCD_WriteReg>
        LCD_WriteReg(0xD520,0x02);
 20041ac:	01354814 	movui	r4,54560
 20041b0:	01400084 	movi	r5,2
 20041b4:	20003ac0 	call	20003ac <LCD_WriteReg>
        LCD_WriteReg(0xD521,0x84);
 20041b8:	01354854 	movui	r4,54561
 20041bc:	01402104 	movi	r5,132
 20041c0:	20003ac0 	call	20003ac <LCD_WriteReg>
        LCD_WriteReg(0xD522,0x02);
 20041c4:	01354894 	movui	r4,54562
 20041c8:	01400084 	movi	r5,2
 20041cc:	20003ac0 	call	20003ac <LCD_WriteReg>
        LCD_WriteReg(0xD523,0xA4);
 20041d0:	013548d4 	movui	r4,54563
 20041d4:	01402904 	movi	r5,164
 20041d8:	20003ac0 	call	20003ac <LCD_WriteReg>
        LCD_WriteReg(0xD524,0x02);
 20041dc:	01354914 	movui	r4,54564
 20041e0:	01400084 	movi	r5,2
 20041e4:	20003ac0 	call	20003ac <LCD_WriteReg>
        LCD_WriteReg(0xD525,0xB7);
 20041e8:	01354954 	movui	r4,54565
 20041ec:	01402dc4 	movi	r5,183
 20041f0:	20003ac0 	call	20003ac <LCD_WriteReg>
        LCD_WriteReg(0xD526,0x02);
 20041f4:	01354994 	movui	r4,54566
 20041f8:	01400084 	movi	r5,2
 20041fc:	20003ac0 	call	20003ac <LCD_WriteReg>
        LCD_WriteReg(0xD527,0xCF);
 2004200:	013549d4 	movui	r4,54567
 2004204:	014033c4 	movi	r5,207
 2004208:	20003ac0 	call	20003ac <LCD_WriteReg>
        LCD_WriteReg(0xD528,0x02);
 200420c:	01354a14 	movui	r4,54568
 2004210:	01400084 	movi	r5,2
 2004214:	20003ac0 	call	20003ac <LCD_WriteReg>
        LCD_WriteReg(0xD529,0xDE);
 2004218:	01354a54 	movui	r4,54569
 200421c:	01403784 	movi	r5,222
 2004220:	20003ac0 	call	20003ac <LCD_WriteReg>
        LCD_WriteReg(0xD52A,0x02);
 2004224:	01354a94 	movui	r4,54570
 2004228:	01400084 	movi	r5,2
 200422c:	20003ac0 	call	20003ac <LCD_WriteReg>
        LCD_WriteReg(0xD52B,0xF2);
 2004230:	01354ad4 	movui	r4,54571
 2004234:	01403c84 	movi	r5,242
 2004238:	20003ac0 	call	20003ac <LCD_WriteReg>
        LCD_WriteReg(0xD52C,0x02);
 200423c:	01354b14 	movui	r4,54572
 2004240:	01400084 	movi	r5,2
 2004244:	20003ac0 	call	20003ac <LCD_WriteReg>
        LCD_WriteReg(0xD52D,0xFE);
 2004248:	01354b54 	movui	r4,54573
 200424c:	01403f84 	movi	r5,254
 2004250:	20003ac0 	call	20003ac <LCD_WriteReg>
        LCD_WriteReg(0xD52E,0x03);
 2004254:	01354b94 	movui	r4,54574
 2004258:	014000c4 	movi	r5,3
 200425c:	20003ac0 	call	20003ac <LCD_WriteReg>
        LCD_WriteReg(0xD52F,0x10);
 2004260:	01354bd4 	movui	r4,54575
 2004264:	01400404 	movi	r5,16
 2004268:	20003ac0 	call	20003ac <LCD_WriteReg>
        LCD_WriteReg(0xD530,0x03);
 200426c:	01354c14 	movui	r4,54576
 2004270:	014000c4 	movi	r5,3
 2004274:	20003ac0 	call	20003ac <LCD_WriteReg>
        LCD_WriteReg(0xD531,0x33);
 2004278:	01354c54 	movui	r4,54577
 200427c:	01400cc4 	movi	r5,51
 2004280:	20003ac0 	call	20003ac <LCD_WriteReg>
        LCD_WriteReg(0xD532,0x03);
 2004284:	01354c94 	movui	r4,54578
 2004288:	014000c4 	movi	r5,3
 200428c:	20003ac0 	call	20003ac <LCD_WriteReg>
        LCD_WriteReg(0xD533,0x6D);
 2004290:	01354cd4 	movui	r4,54579
 2004294:	01401b44 	movi	r5,109
 2004298:	20003ac0 	call	20003ac <LCD_WriteReg>
        LCD_WriteReg(0xD600,0x00);
 200429c:	01358014 	movui	r4,54784
 20042a0:	000b883a 	mov	r5,zero
 20042a4:	20003ac0 	call	20003ac <LCD_WriteReg>
        LCD_WriteReg(0xD601,0x33);
 20042a8:	01358054 	movui	r4,54785
 20042ac:	01400cc4 	movi	r5,51
 20042b0:	20003ac0 	call	20003ac <LCD_WriteReg>
        LCD_WriteReg(0xD602,0x00);
 20042b4:	01358094 	movui	r4,54786
 20042b8:	000b883a 	mov	r5,zero
 20042bc:	20003ac0 	call	20003ac <LCD_WriteReg>
        LCD_WriteReg(0xD603,0x34);
 20042c0:	013580d4 	movui	r4,54787
 20042c4:	01400d04 	movi	r5,52
 20042c8:	20003ac0 	call	20003ac <LCD_WriteReg>
        LCD_WriteReg(0xD604,0x00);
 20042cc:	01358114 	movui	r4,54788
 20042d0:	000b883a 	mov	r5,zero
 20042d4:	20003ac0 	call	20003ac <LCD_WriteReg>
        LCD_WriteReg(0xD605,0x3A);
 20042d8:	01358154 	movui	r4,54789
 20042dc:	01400e84 	movi	r5,58
 20042e0:	20003ac0 	call	20003ac <LCD_WriteReg>
        LCD_WriteReg(0xD606,0x00);
 20042e4:	01358194 	movui	r4,54790
 20042e8:	000b883a 	mov	r5,zero
 20042ec:	20003ac0 	call	20003ac <LCD_WriteReg>
        LCD_WriteReg(0xD607,0x4A);
 20042f0:	013581d4 	movui	r4,54791
 20042f4:	01401284 	movi	r5,74
 20042f8:	20003ac0 	call	20003ac <LCD_WriteReg>
        LCD_WriteReg(0xD608,0x00);
 20042fc:	01358214 	movui	r4,54792
 2004300:	000b883a 	mov	r5,zero
 2004304:	20003ac0 	call	20003ac <LCD_WriteReg>
        LCD_WriteReg(0xD609,0x5C);
 2004308:	01358254 	movui	r4,54793
 200430c:	01401704 	movi	r5,92
 2004310:	20003ac0 	call	20003ac <LCD_WriteReg>
        LCD_WriteReg(0xD60A,0x00);
 2004314:	01358294 	movui	r4,54794
 2004318:	000b883a 	mov	r5,zero
 200431c:	20003ac0 	call	20003ac <LCD_WriteReg>
        LCD_WriteReg(0xD60B,0x81);
 2004320:	013582d4 	movui	r4,54795
 2004324:	01402044 	movi	r5,129
 2004328:	20003ac0 	call	20003ac <LCD_WriteReg>

        LCD_WriteReg(0xD60C,0x00);
 200432c:	01358314 	movui	r4,54796
 2004330:	000b883a 	mov	r5,zero
 2004334:	20003ac0 	call	20003ac <LCD_WriteReg>
        LCD_WriteReg(0xD60D,0xA6);
 2004338:	01358354 	movui	r4,54797
 200433c:	01402984 	movi	r5,166
 2004340:	20003ac0 	call	20003ac <LCD_WriteReg>
        LCD_WriteReg(0xD60E,0x00);
 2004344:	01358394 	movui	r4,54798
 2004348:	000b883a 	mov	r5,zero
 200434c:	20003ac0 	call	20003ac <LCD_WriteReg>
        LCD_WriteReg(0xD60F,0xE5);
 2004350:	013583d4 	movui	r4,54799
 2004354:	01403944 	movi	r5,229
 2004358:	20003ac0 	call	20003ac <LCD_WriteReg>
        LCD_WriteReg(0xD610,0x01);
 200435c:	01358414 	movui	r4,54800
 2004360:	01400044 	movi	r5,1
 2004364:	20003ac0 	call	20003ac <LCD_WriteReg>
        LCD_WriteReg(0xD611,0x13);
 2004368:	01358454 	movui	r4,54801
 200436c:	014004c4 	movi	r5,19
 2004370:	20003ac0 	call	20003ac <LCD_WriteReg>
        LCD_WriteReg(0xD612,0x01);
 2004374:	01358494 	movui	r4,54802
 2004378:	01400044 	movi	r5,1
 200437c:	20003ac0 	call	20003ac <LCD_WriteReg>
        LCD_WriteReg(0xD613,0x54);
 2004380:	013584d4 	movui	r4,54803
 2004384:	01401504 	movi	r5,84
 2004388:	20003ac0 	call	20003ac <LCD_WriteReg>
        LCD_WriteReg(0xD614,0x01);
 200438c:	01358514 	movui	r4,54804
 2004390:	01400044 	movi	r5,1
 2004394:	20003ac0 	call	20003ac <LCD_WriteReg>
        LCD_WriteReg(0xD615,0x82);
 2004398:	01358554 	movui	r4,54805
 200439c:	01402084 	movi	r5,130
 20043a0:	20003ac0 	call	20003ac <LCD_WriteReg>
        LCD_WriteReg(0xD616,0x01);
 20043a4:	01358594 	movui	r4,54806
 20043a8:	01400044 	movi	r5,1
 20043ac:	20003ac0 	call	20003ac <LCD_WriteReg>
        LCD_WriteReg(0xD617,0xCA);
 20043b0:	013585d4 	movui	r4,54807
 20043b4:	01403284 	movi	r5,202
 20043b8:	20003ac0 	call	20003ac <LCD_WriteReg>
        LCD_WriteReg(0xD618,0x02);
 20043bc:	01358614 	movui	r4,54808
 20043c0:	01400084 	movi	r5,2
 20043c4:	20003ac0 	call	20003ac <LCD_WriteReg>
        LCD_WriteReg(0xD619,0x00);
 20043c8:	01358654 	movui	r4,54809
 20043cc:	000b883a 	mov	r5,zero
 20043d0:	20003ac0 	call	20003ac <LCD_WriteReg>
        LCD_WriteReg(0xD61A,0x02);
 20043d4:	01358694 	movui	r4,54810
 20043d8:	01400084 	movi	r5,2
 20043dc:	20003ac0 	call	20003ac <LCD_WriteReg>
        LCD_WriteReg(0xD61B,0x01);
 20043e0:	013586d4 	movui	r4,54811
 20043e4:	01400044 	movi	r5,1
 20043e8:	20003ac0 	call	20003ac <LCD_WriteReg>
        LCD_WriteReg(0xD61C,0x02);
 20043ec:	01358714 	movui	r4,54812
 20043f0:	01400084 	movi	r5,2
 20043f4:	20003ac0 	call	20003ac <LCD_WriteReg>
        LCD_WriteReg(0xD61D,0x34);
 20043f8:	01358754 	movui	r4,54813
 20043fc:	01400d04 	movi	r5,52
 2004400:	20003ac0 	call	20003ac <LCD_WriteReg>
        LCD_WriteReg(0xD61E,0x02);
 2004404:	01358794 	movui	r4,54814
 2004408:	01400084 	movi	r5,2
 200440c:	20003ac0 	call	20003ac <LCD_WriteReg>
        LCD_WriteReg(0xD61F,0x67);
 2004410:	013587d4 	movui	r4,54815
 2004414:	014019c4 	movi	r5,103
 2004418:	20003ac0 	call	20003ac <LCD_WriteReg>
        LCD_WriteReg(0xD620,0x02);
 200441c:	01358814 	movui	r4,54816
 2004420:	01400084 	movi	r5,2
 2004424:	20003ac0 	call	20003ac <LCD_WriteReg>
        LCD_WriteReg(0xD621,0x84);
 2004428:	01358854 	movui	r4,54817
 200442c:	01402104 	movi	r5,132
 2004430:	20003ac0 	call	20003ac <LCD_WriteReg>
        LCD_WriteReg(0xD622,0x02);
 2004434:	01358894 	movui	r4,54818
 2004438:	01400084 	movi	r5,2
 200443c:	20003ac0 	call	20003ac <LCD_WriteReg>
