
qsys_touch.elf:     file format elf32-littlenios2
qsys_touch.elf
architecture: nios2, flags 0x00000112:
EXEC_P, HAS_SYMS, D_PAGED
start address 0x000001b8

Program Header:
    LOAD off    0x00001020 vaddr 0x00000020 paddr 0x00000020 align 2**12
         filesz 0x0001b930 memsz 0x0001bc30 flags rwx
    LOAD off    0x0001d000 vaddr 0x02001000 paddr 0x02001000 align 2**12
         filesz 0x00000000 memsz 0x00000000 flags r-x

Sections:
Idx Name          Size      VMA       LMA       File off  Algn
  0 .entry        00000000  02001000  02001000  0001d000  2**5
                  CONTENTS, ALLOC, LOAD, READONLY, CODE
  1 .exceptions   00000198  00000020  00000020  00001020  2**2
                  CONTENTS, ALLOC, LOAD, READONLY, CODE
  2 .text         00014f4c  000001b8  000001b8  000011b8  2**2
                  CONTENTS, ALLOC, LOAD, READONLY, CODE
  3 .rodata       00004ce8  00015104  00015104  00016104  2**2
                  CONTENTS, ALLOC, LOAD, READONLY, DATA
  4 .rwdata       00001b64  00019dec  00019dec  0001adec  2**2
                  CONTENTS, ALLOC, LOAD, DATA, SMALL_DATA
  5 .bss          00000300  0001b950  0001b950  0001c950  2**2
                  ALLOC, SMALL_DATA
  6 .comment      00000023  00000000  00000000  0001d000  2**0
                  CONTENTS, READONLY
  7 .debug_aranges 00000e58  00000000  00000000  0001d028  2**3
                  CONTENTS, READONLY, DEBUGGING
  8 .debug_info   000258bb  00000000  00000000  0001de80  2**0
                  CONTENTS, READONLY, DEBUGGING
  9 .debug_abbrev 00009a1c  00000000  00000000  0004373b  2**0
                  CONTENTS, READONLY, DEBUGGING
 10 .debug_line   0000b54a  00000000  00000000  0004d157  2**0
                  CONTENTS, READONLY, DEBUGGING
 11 .debug_frame  00002134  00000000  00000000  000586a4  2**2
                  CONTENTS, READONLY, DEBUGGING
 12 .debug_str    000035c5  00000000  00000000  0005a7d8  2**0
                  CONTENTS, READONLY, DEBUGGING
 13 .debug_loc    0001130c  00000000  00000000  0005dd9d  2**0
                  CONTENTS, READONLY, DEBUGGING
 14 .debug_alt_sim_info 00000050  00000000  00000000  0006f0ac  2**2
                  CONTENTS, READONLY, DEBUGGING
 15 .debug_ranges 00000a38  00000000  00000000  0006f100  2**3
                  CONTENTS, READONLY, DEBUGGING
 16 .thread_model 00000003  00000000  00000000  00073529  2**0
                  CONTENTS, READONLY
 17 .cpu          00000005  00000000  00000000  0007352c  2**0
                  CONTENTS, READONLY
 18 .qsys         00000001  00000000  00000000  00073531  2**0
                  CONTENTS, READONLY
 19 .simulation_enabled 00000001  00000000  00000000  00073532  2**0
                  CONTENTS, READONLY
 20 .stderr_dev   00000009  00000000  00000000  00073533  2**0
                  CONTENTS, READONLY
 21 .stdin_dev    00000009  00000000  00000000  0007353c  2**0
                  CONTENTS, READONLY
 22 .stdout_dev   00000009  00000000  00000000  00073545  2**0
                  CONTENTS, READONLY
 23 .sopc_system_name 00000007  00000000  00000000  0007354e  2**0
                  CONTENTS, READONLY
 24 .quartus_project_dir 00000023  00000000  00000000  00073555  2**0
                  CONTENTS, READONLY
 25 .sopcinfo     0006f21a  00000000  00000000  00073578  2**0
                  CONTENTS, READONLY
SYMBOL TABLE:
02001000 l    d  .entry	00000000 .entry
00000020 l    d  .exceptions	00000000 .exceptions
000001b8 l    d  .text	00000000 .text
00015104 l    d  .rodata	00000000 .rodata
00019dec l    d  .rwdata	00000000 .rwdata
0001b950 l    d  .bss	00000000 .bss
00000000 l    d  .comment	00000000 .comment
00000000 l    d  .debug_aranges	00000000 .debug_aranges
00000000 l    d  .debug_info	00000000 .debug_info
00000000 l    d  .debug_abbrev	00000000 .debug_abbrev
00000000 l    d  .debug_line	00000000 .debug_line
00000000 l    d  .debug_frame	00000000 .debug_frame
00000000 l    d  .debug_str	00000000 .debug_str
00000000 l    d  .debug_loc	00000000 .debug_loc
00000000 l    d  .debug_alt_sim_info	00000000 .debug_alt_sim_info
00000000 l    d  .debug_ranges	00000000 .debug_ranges
00000000 l    df *ABS*	00000000 ../qsys_touch_bsp//obj/HAL/src/crt0.o
000001fc l       .text	00000000 alt_after_alt_main
00000000 l    df *ABS*	00000000 alt_exception_entry.o
00000094 l       .exceptions	00000000 alt_exception_unknown
00000000 l    df *ABS*	00000000 alt_irq_handler.c
00000000 l    df *ABS*	00000000 delay.c
00000000 l    df *ABS*	00000000 mculcd.c
00000000 l    df *ABS*	00000000 ft5206.c
0001b950 l     O .bss	00000001 t.1662
00000000 l    df *ABS*	00000000 gt9147.c
0001b951 l     O .bss	00000001 t.1997
00000000 l    df *ABS*	00000000 gt9271.c
0001b952 l     O .bss	00000001 t.1997
00000000 l    df *ABS*	00000000 myiic.c
00000000 l    df *ABS*	00000000 touch.c
00000000 l    df *ABS*	00000000 qsys_touch.c
00000000 l    df *ABS*	00000000 libgcc2.c
00000000 l    df *ABS*	00000000 fp-bit.c
00008574 l     F .text	00000354 _fpadd_parts
00000000 l    df *ABS*	00000000 fp-bit.c
00000000 l    df *ABS*	00000000 fp-bit.c
00000000 l    df *ABS*	00000000 fp-bit.c
00000000 l    df *ABS*	00000000 fp-bit.c
00000000 l    df *ABS*	00000000 fp-bit.c
00000000 l    df *ABS*	00000000 libgcc2.c
00000000 l    df *ABS*	00000000 libgcc2.c
00000000 l    df *ABS*	00000000 fp-bit.c
00000000 l    df *ABS*	00000000 fp-bit.c
00000000 l    df *ABS*	00000000 fp-bit.c
00000000 l    df *ABS*	00000000 libgcc2.c
00000000 l    df *ABS*	00000000 libgcc2.c
00000000 l    df *ABS*	00000000 libgcc2.c
00000000 l    df *ABS*	00000000 printf.c
00000000 l    df *ABS*	00000000 puts.c
00000000 l    df *ABS*	00000000 strcmp.c
00000000 l    df *ABS*	00000000 strlen.c
00000000 l    df *ABS*	00000000 vfprintf.c
00009628 l     F .text	00000034 __sprint_r
00019c1a l     O .rodata	00000010 blanks.3515
00019c2a l     O .rodata	00000010 zeroes.3516
00000000 l    df *ABS*	00000000 wsetup.c
00000000 l    df *ABS*	00000000 dtoa.c
0000b5ec l     F .text	00000208 quorem
00000000 l    df *ABS*	00000000 fflush.c
00000000 l    df *ABS*	00000000 findfp.c
0000d028 l     F .text	00000008 __fp_lock
0000d030 l     F .text	00000008 __fp_unlock
00000000 l    df *ABS*	00000000 mallocr.c
00000000 l    df *ABS*	00000000 fvwrite.c
00000000 l    df *ABS*	00000000 fwalk.c
00000000 l    df *ABS*	00000000 impure.c
00019e20 l     O .rwdata	00000400 impure_data
00000000 l    df *ABS*	00000000 locale.c
00019c60 l     O .rodata	00000030 lconv
00000000 l    df *ABS*	00000000 makebuf.c
00000000 l    df *ABS*	00000000 mallocr.c
00000000 l    df *ABS*	00000000 memchr.c
00000000 l    df *ABS*	00000000 memcpy.c
00000000 l    df *ABS*	00000000 memmove.c
00000000 l    df *ABS*	00000000 memset.c
00000000 l    df *ABS*	00000000 mprec.c
00019da8 l     O .rodata	0000000c p05.2435
00000000 l    df *ABS*	00000000 mallocr.c
00000000 l    df *ABS*	00000000 s_isinfd.c
00000000 l    df *ABS*	00000000 s_isnand.c
00000000 l    df *ABS*	00000000 sbrkr.c
00000000 l    df *ABS*	00000000 stdio.c
00000000 l    df *ABS*	00000000 writer.c
00000000 l    df *ABS*	00000000 mallocr.c
00000000 l    df *ABS*	00000000 closer.c
00000000 l    df *ABS*	00000000 fclose.c
00000000 l    df *ABS*	00000000 fstatr.c
00000000 l    df *ABS*	00000000 int_errno.c
00000000 l    df *ABS*	00000000 isattyr.c
00000000 l    df *ABS*	00000000 lseekr.c
00000000 l    df *ABS*	00000000 readr.c
00000000 l    df *ABS*	00000000 libgcc2.c
00000000 l    df *ABS*	00000000 libgcc2.c
00000000 l    df *ABS*	00000000 fp-bit.c
00000000 l    df *ABS*	00000000 fp-bit.c
00000000 l    df *ABS*	00000000 fp-bit.c
00000000 l    df *ABS*	00000000 fp-bit.c
00000000 l    df *ABS*	00000000 fp-bit.c
00000000 l    df *ABS*	00000000 fp-bit.c
00000000 l    df *ABS*	00000000 lib2-divmod.c
00011714 l     F .text	00000074 udivmodsi4
00000000 l    df *ABS*	00000000 alt_close.c
00011844 l     F .text	00000050 alt_get_errno
00000000 l    df *ABS*	00000000 alt_dev.c
0001195c l     F .text	0000002c alt_dev_null_write
00000000 l    df *ABS*	00000000 alt_errno.c
00000000 l    df *ABS*	00000000 alt_fstat.c
00011988 l     F .text	00000050 alt_get_errno
00000000 l    df *ABS*	00000000 alt_isatty.c
00011a84 l     F .text	00000050 alt_get_errno
00000000 l    df *ABS*	00000000 alt_lseek.c
00011b74 l     F .text	00000050 alt_get_errno
00000000 l    df *ABS*	00000000 alt_main.c
00000000 l    df *ABS*	00000000 alt_malloc_lock.c
00000000 l    df *ABS*	00000000 alt_read.c
00011d4c l     F .text	00000050 alt_get_errno
00000000 l    df *ABS*	00000000 alt_release_fd.c
00000000 l    df *ABS*	00000000 alt_sbrk.c
0001b938 l     O .rwdata	00000004 heap_end
00000000 l    df *ABS*	00000000 alt_usleep.c
00000000 l    df *ABS*	00000000 alt_write.c
00011fcc l     F .text	00000050 alt_get_errno
00000000 l    df *ABS*	00000000 alt_sys_init.c
00012108 l     F .text	00000038 alt_dev_reg
0001a7dc l     O .rwdata	000000c8 epcs
0001a8a4 l     O .rwdata	00001060 jtag_uart
00000000 l    df *ABS*	00000000 altera_avalon_epcs_flash_controller.c
000121c4 l     F .text	00000038 alt_flash_device_register
00012250 l     F .text	0000028c alt_epcs_flash_query
000124dc l     F .text	000000e8 alt_epcs_flash_memcmp
000128b0 l     F .text	00000094 alt_epcs_test_address
00000000 l    df *ABS*	00000000 altera_avalon_jtag_uart_fd.c
00000000 l    df *ABS*	00000000 altera_avalon_jtag_uart_init.c
00012d78 l     F .text	00000204 altera_avalon_jtag_uart_irq
00012f7c l     F .text	000000a4 altera_avalon_jtag_uart_timeout
00000000 l    df *ABS*	00000000 altera_avalon_jtag_uart_ioctl.c
00000000 l    df *ABS*	00000000 altera_avalon_jtag_uart_read.c
00000000 l    df *ABS*	00000000 altera_avalon_jtag_uart_write.c
00000000 l    df *ABS*	00000000 epcs_commands.c
00013614 l     F .text	00000038 epcs_test_wip
0001364c l     F .text	00000038 epcs_await_wip_released
00000000 l    df *ABS*	00000000 alt_alarm_start.c
00000000 l    df *ABS*	00000000 alt_busy_sleep.c
00000000 l    df *ABS*	00000000 alt_dev_llist_insert.c
00013e44 l     F .text	00000050 alt_get_errno
00000000 l    df *ABS*	00000000 alt_do_ctors.c
00000000 l    df *ABS*	00000000 alt_do_dtors.c
00000000 l    df *ABS*	00000000 alt_flash_dev.c
00000000 l    df *ABS*	00000000 alt_iic.c
00000000 l    df *ABS*	00000000 alt_iic_isr_register.c
00000000 l    df *ABS*	00000000 alt_io_redirect.c
0001436c l     F .text	000000c0 alt_open_fd
00000000 l    df *ABS*	00000000 alt_irq_vars.c
00000000 l    df *ABS*	00000000 alt_open.c
000144a4 l     F .text	00000050 alt_get_errno
000144f4 l     F .text	000000cc alt_file_locked
00000000 l    df *ABS*	00000000 alt_tick.c
00000000 l    df *ABS*	00000000 altera_nios2_qsys_irq.c
00000000 l    df *ABS*	00000000 altera_avalon_spi.c
00000000 l    df *ABS*	00000000 alt_find_dev.c
00000000 l    df *ABS*	00000000 alt_find_file.c
00000000 l    df *ABS*	00000000 alt_get_fd.c
00000000 l    df *ABS*	00000000 atexit.c
00000000 l    df *ABS*	00000000 exit.c
00000000 l    df *ABS*	00000000 memcmp.c
00000000 l    df *ABS*	00000000 __atexit.c
00000000 l    df *ABS*	00000000 __call_atexit.c
00000000 l    df *ABS*	00000000 alt_exit.c
00000000 l    df *ABS*	00000000 
0000f980 g     F .text	00000074 _mprec_log10
00012824 g     F .text	0000008c alt_epcs_flash_get_info
0000fa70 g     F .text	00000084 __any_on
0001063c g     F .text	00000064 _isatty_r
00019c90 g     O .rodata	00000028 __mprec_tinytens
000052c0 g     F .text	00000280 LCD_ShowChar
00001190 g     F .text	0000005c LCD_DrawPoint
00011c94 g     F .text	00000078 alt_main
000093b4 g     F .text	00000044 __ashldi3
00009460 g     F .text	00000084 _puts_r
0001b9c0 g     O .bss	00000100 alt_irq
000082cc g     F .text	00000224 lcd_draw_bline
000106a0 g     F .text	0000006c _lseek_r
00011480 g     F .text	0000005c __eqdf2
0001b908 g     O .rwdata	00000004 BACK_COLOR
00019940 g     O .rodata	000000ba GT9271_CFG_TBL
0001bc50 g       *ABS*	00000000 __alt_heap_start
00005ac0 g     F .text	000000bc FT5206_WR_Reg
00009424 g     F .text	0000003c printf
00019dec g     O .rwdata	00000034 tp_dev
00010294 g     F .text	0000005c __sseek
0000d0b8 g     F .text	0000010c __sinit
0000dd50 g     F .text	0000009c _setlocale_r
0000d044 g     F .text	00000064 __sfmoreglue
00011d2c g     F .text	00000020 __malloc_unlock
0000e948 g     F .text	00000128 memmove
0000d0a8 g     F .text	00000010 _cleanup
0000eb4c g     F .text	000000a8 _Balloc
00015104 g     O .rodata	00000474 asc2_1206
00011538 g     F .text	00000064 __gtdf2
000006e4 g     F .text	00000098 LCD_DisplayOn
00000000  w      *UND*	00000000 __errno
00013684 g     F .text	000000f8 epcs_sector_erase
02001000 g     F .entry	00000000 __reset
00001d3c g     F .text	00002e5c MCULCD_Init
00004b98 g     F .text	0000009c LCD_Clear
000105d4 g     F .text	00000068 _fstat_r
000078a0 g     F .text	0000020c TP_Init
0001b96c g     O .bss	00000004 errno
00005700 g     F .text	000001d0 LCD_ShowxNum
0001b904 g     O .rwdata	00000004 POINT_COLOR
0001b974 g     O .bss	00000004 alt_argv
00023904 g       *ABS*	00000000 _gp
00007f78 g     F .text	00000354 ctp_test
00011f9c g     F .text	00000030 usleep
000064d8 g     F .text	000005dc GT9147_Scan
00007bdc g     F .text	0000008c Load_Drow_Dialog
00000b58 g     F .text	00000638 LCD_Scan_Dir
0001a65c g     O .rwdata	00000180 alt_fd_list
000073b4 g     F .text	0000008c IIC_Stop
000014cc g     F .text	000000b4 LCD_SSD_BackLightSet
000138c0 g     F .text	00000068 epcs_write_status_register
00014ad8 g     F .text	00000090 alt_find_dev
0000e850 g     F .text	000000f8 memcpy
0000d038 g     F .text	0000000c _cleanup_r
00008cc4 g     F .text	000000d4 __floatsidf
0001442c g     F .text	00000078 alt_io_redirect
0001159c g     F .text	0000005c __ltdf2
00000474 g     F .text	0000003c LCD_WriteRAM_Prepare
00015104 g       *ABS*	00000000 __DTOR_END__
000094e4 g     F .text	00000014 puts
000129b8 g     F .text	00000104 alt_epcs_flash_write_block
0000f8dc g     F .text	000000a4 __ratio
0001317c g     F .text	00000218 altera_avalon_jtag_uart_read
00004dfc g     F .text	000001c4 LCD_DrawLine
00000000  w      *UND*	00000000 malloc
000093f8 g     F .text	0000002c _printf_r
00011834 g     F .text	00000008 __udivsi3
00011ad4 g     F .text	000000a0 isatty
00019ce0 g     O .rodata	000000c8 __mprec_tens
00007d5c g     F .text	0000021c gui_fill_circle
0000ddec g     F .text	0000000c __locale_charset
000084f0 g     F .text	00000084 __fixunsdfsi
0001b968 g     O .bss	00000004 __malloc_top_pad
0000077c g     F .text	00000098 LCD_DisplayOff
0001b914 g     O .rwdata	00000004 __mb_cur_max
0000ddf8 g     F .text	0000000c _localeconv_r
0000ef4c g     F .text	0000003c __i2b
0000d70c g     F .text	000004e4 __sfvwrite_r
00010154 g     F .text	00000064 _sbrk_r
00000268 g     F .text	00000084 LCD_WR_CMD
00015b68 g     O .rodata	00000d5c asc2_2412
00006ab4 g     F .text	000000b4 GT9271_Send_Cfg
0001070c g     F .text	0000006c _read_r
0001a220 g     O .rwdata	0000000c __lc_ctype
0001b930 g     O .rwdata	00000004 alt_max_fd
0000919c g     F .text	00000104 __unpack_d
00010484 g     F .text	0000013c _fclose_r
0000cff8 g     F .text	00000030 fflush
0001b964 g     O .bss	00000004 __malloc_max_sbrked_mem
000018fc g     F .text	00000440 LCD_Set_Window
00007578 g     F .text	00000084 IIC_NAck
000088c8 g     F .text	00000054 __adddf3
00012944 g     F .text	00000074 alt_epcs_flash_erase_block
0000f650 g     F .text	00000148 __b2d
00010d40 g     F .text	0000058c __umoddi3
00011bc4 g     F .text	000000d0 lseek
0001b90c g     O .rwdata	00000004 _global_impure_ptr
00013b84 g     F .text	00000058 epcs_exit_4_bytes_mode
0000faf4 g     F .text	000005fc _realloc_r
0001bc50 g       *ABS*	00000000 __bss_end
0001427c g     F .text	000000f0 alt_iic_isr_register
000147ac g     F .text	00000104 alt_tick
00010778 g     F .text	000005c8 __udivdi3
00019cb8 g     O .rodata	00000028 __mprec_bigtens
0000ed30 g     F .text	00000104 __s2b
000115f8 g     F .text	0000011c __floatunsidf
0000f3f0 g     F .text	00000058 __mcmp
0000d2d0 g     F .text	00000018 __fp_lock_all
00014230 g     F .text	0000004c alt_ic_irq_enabled
00014714 g     F .text	00000098 alt_alarm_stop
0001b97c g     O .bss	00000004 alt_irq_active
000000ec g     F .exceptions	000000cc alt_irq_handler
0001a634 g     O .rwdata	00000028 alt_dev_null
000074f4 g     F .text	00000084 IIC_Ack
0000ee34 g     F .text	00000068 __hi0bits
00008d98 g     F .text	000000d4 __fixdfsi
00000560 g     F .text	00000184 LCD_ReadPoint
000002ec g     F .text	00000074 LCD_WR_DATA
0001b928 g     O .rwdata	00000008 alt_dev_list
0001201c g     F .text	000000ec write
000119d8 g     F .text	000000ac fstat
00009370 g     F .text	00000044 __lshrdi3
00019860 g     O .rodata	0000000a FT5206_TPX_TBL
0000f168 g     F .text	0000012c __pow5mult
0001b95c g     O .bss	00000004 __nlocale_changed
0001183c g     F .text	00000008 __umodsi3
00013a44 g     F .text	00000068 epcs_read_electronic_signature
0001bc50 g       *ABS*	00000000 end
00012cb8 g     F .text	000000c0 altera_avalon_jtag_uart_init
00015104 g       *ABS*	00000000 __CTOR_LIST__
02000000 g       *ABS*	00000000 __alt_stack_pointer
00005d70 g     F .text	000003bc FT5206_Scan
00008ecc g     F .text	000000ac __clzsi2
00013394 g     F .text	00000224 altera_avalon_jtag_uart_write
00001580 g     F .text	0000037c LCD_Display_Dir
0000d2c0 g     F .text	00000004 __sfp_lock_acquire
0000e758 g     F .text	000000f8 memchr
0000965c g     F .text	00001df8 ___vfprintf_internal_r
00007c68 g     F .text	000000f4 gui_draw_hline
0000d43c g     F .text	000002d0 _free_r
00000814 g     F .text	00000344 LCD_SetCursor
000075fc g     F .text	000000c8 IIC_Send_Byte
00014f28 g     F .text	000001a0 __call_exitprocs
0001b958 g     O .bss	00000004 __mlocale_changed
0001b918 g     O .rwdata	00000004 __malloc_sbrk_base
000001b8 g     F .text	00000048 _start
0001b980 g     O .bss	00000004 _alt_tick_rate
0000f294 g     F .text	0000015c __lshift
000148d0 g     F .text	00000208 alt_avalon_spi_command
0001b984 g     O .bss	00000004 _alt_nticks
00011d9c g     F .text	000000f0 read
00012174 g     F .text	00000050 alt_sys_init
00014df8 g     F .text	00000130 __register_exitproc
000076c4 g     F .text	000000d0 IIC_Read_Byte
0000ef88 g     F .text	000001e0 __multiply
00013020 g     F .text	00000068 altera_avalon_jtag_uart_close
0001b988 g     O .bss	00000028 __malloc_current_mallinfo
0000f798 g     F .text	00000144 __d2b
000135b8 g     F .text	0000005c epcs_read_status_register
00012b54 g     F .text	00000060 altera_avalon_jtag_uart_read_fd
00014c7c g     F .text	000000b4 alt_get_fd
00013d1c g     F .text	00000128 alt_busy_sleep
000092a0 g     F .text	000000d0 __fpcmp_parts_d
00010420 g     F .text	00000064 _close_r
00019a26 g     O .rodata	00000014 GT9271_TPX_TBL
00013aac g     F .text	00000080 epcs_read_device_id
00007794 g     F .text	0000010c TP_Scan
00014d7c g     F .text	0000007c memcmp
00012c14 g     F .text	00000050 altera_avalon_jtag_uart_close_fd
0001bc50 g       *ABS*	00000000 __alt_stack_base
00007330 g     F .text	00000084 IIC_Start
00012c64 g     F .text	00000054 altera_avalon_jtag_uart_ioctl_fd
0000b478 g     F .text	00000174 __swsetup_r
000062b4 g     F .text	000000dc GT9147_RD_Reg
000112cc g     F .text	000001b4 __divdf3
0000d1c4 g     F .text	000000fc __sfp
0000f9f4 g     F .text	0000007c __copybits
0001a22c g     O .rwdata	00000408 __malloc_av_
0000d2cc g     F .text	00000004 __sinit_lock_release
0000897c g     F .text	000002e4 __muldf3
000101b8 g     F .text	00000054 __sread
00000238 g     F .text	00000030 delay_us
00014b68 g     F .text	00000114 alt_find_file
00013e94 g     F .text	000000a0 alt_dev_llist_insert
00011d0c g     F .text	00000020 __malloc_lock
00011eec g     F .text	000000b0 sbrk
0000ce10 g     F .text	000001e8 _fflush_r
000055a8 g     F .text	00000158 LCD_ShowNum
00010364 g     F .text	000000bc _calloc_r
0001b93c g     O .rwdata	00000008 alt_flash_dev_list
0001b950 g       *ABS*	00000000 __bss_start
0000ea70 g     F .text	000000dc memset
00007aac g     F .text	00000130 main
00000200 g     F .text	00000038 delay_ms
0001b978 g     O .bss	00000004 alt_envp
00015578 g     O .rodata	000005f0 asc2_1608
0001b960 g     O .bss	00000004 __malloc_max_total_mem
00012bb4 g     F .text	00000060 altera_avalon_jtag_uart_write_fd
00004cfc g     F .text	00000100 LCD_Color_Fill
000004b0 g     F .text	00000038 LCD_WriteRAM
000102f0 g     F .text	00000008 __sclose
02000000 g       *ABS*	00000000 __alt_heap_limit
000072f4 g     F .text	0000003c IIC_Init
000105c0 g     F .text	00000014 fclose
0001bac0 g     O .bss	00000190 _atexit0
0000b7f4 g     F .text	0000161c _dtoa_r
0000dfd4 g     F .text	00000784 _malloc_r
0001b934 g     O .rwdata	00000004 alt_errno
0000dbf0 g     F .text	000000a8 _fwalk
000011ec g     F .text	000002e0 LCD_Fast_DrawPoint
00011788 g     F .text	00000050 __divsi3
00019ac0 g     O .rodata	00000014 __thenan_df
0000d300 g     F .text	0000013c _malloc_trim_r
00015104 g       *ABS*	00000000 __CTOR_END__
000125c4 g     F .text	00000260 alt_epcs_flash_write
000094f8 g     F .text	000000a4 strcmp
00015104 g       *ABS*	00000000 __DTOR_LIST__
000114dc g     F .text	0000005c __nedf2
00004c34 g     F .text	000000c8 LCD_Fill
00012140 g     F .text	00000034 alt_irq_init
00011e8c g     F .text	00000060 alt_release_fd
00019ad4 g     O .rodata	00000100 __clz_tab
0001b954 g     O .bss	00000004 _PathLocale
0001b9b0 g     O .bss	0000000e lcddev
00014d30 g     F .text	00000014 atexit
0000612c g     F .text	000000b4 GT9147_Send_Cfg
000102f8 g     F .text	0000006c _write_r
00006390 g     F .text	00000148 GT9147_Init
0000de04 g     F .text	0000001c setlocale
000003e4 g     F .text	0000004c LCD_WriteReg
0001b910 g     O .rwdata	00000004 _impure_ptr
0001b970 g     O .bss	00000004 alt_argc
00013f90 g     F .text	0000005c _do_dtors
00006d18 g     F .text	00000148 GT9271_Init
00005074 g     F .text	0000024c LCD_Draw_Circle
00000020 g       .exceptions	00000000 alt_irq_entry
00019936 g     O .rodata	0000000a GT9147_TPX_TBL
0000f5f0 g     F .text	00000060 __ulp
000100f0 g     F .text	00000038 __isinfd
0000d2e8 g     F .text	00000018 __fp_unlock_all
0001b920 g     O .rwdata	00000008 alt_fs_list
00005a00 g     F .text	000000c0 LCD_DisplayPic
00007440 g     F .text	000000b4 IIC_Wait_Ack
0000de20 g     F .text	0000000c localeconv
0001377c g     F .text	000000f4 epcs_read_buffer
00005540 g     F .text	00000068 LCD_Pow
000121fc g     F .text	00000054 alt_epcs_flash_init
000140a4 g     F .text	00000050 alt_ic_isr_register
00006b68 g     F .text	000000d4 GT9271_WR_Reg
0001b950 g       *ABS*	00000000 _edata
0001bc50 g       *ABS*	00000000 _end
00013fec g     F .text	00000068 alt_flash_open_dev
000168c4 g     O .rodata	00002f80 asc2_3216
00013088 g     F .text	000000f4 altera_avalon_jtag_uart_ioctl
00014190 g     F .text	000000a0 alt_ic_irq_disable
00013b2c g     F .text	00000058 epcs_enter_4_bytes_mode
0001020c g     F .text	00000088 __swrite
0001b91c g     O .rwdata	00000004 __malloc_trim_threshold
000148b0 g     F .text	00000020 altera_nios2_qsys_irq_init
00014d44 g     F .text	00000038 exit
0000dc98 g     F .text	000000b8 _fwalk_reent
00019a3c g     O .rodata	00000014 POINT_COLOR_TBL
0000f448 g     F .text	000001a8 __mdiff
00014054 g     F .text	00000050 alt_flash_close_dev
000117d8 g     F .text	0000005c __modsi3
00006e60 g     F .text	00000494 GT9271_Scan
02000000 g       *ABS*	00000000 __alt_data_end
00000020 g     F .exceptions	00000000 alt_exception
0000d2c4 g     F .text	00000004 __sfp_lock_release
00000000 g       *ABS*	00000000 __alt_mem_sdram
00006c3c g     F .text	000000dc GT9271_RD_Reg
000058d0 g     F .text	00000130 LCD_ShowString
000150c8 g     F .text	0000003c _exit
00010128 g     F .text	0000002c __isnand
00013bdc g     F .text	00000140 alt_alarm_start
00008e6c g     F .text	00000060 __muldi3
0000de2c g     F .text	000001a8 __smakebuf_r
0001986c g     O .rodata	000000b8 GT9147_CFG_TBL
00005c40 g     F .text	00000130 FT5206_Init
000061e0 g     F .text	000000d4 GT9147_WR_Reg
0000959c g     F .text	0000008c strlen
00013870 g     F .text	00000050 epcs_write_enable
000145c0 g     F .text	00000154 open
00008c60 g     F .text	00000064 __gedf2
0001b944 g     O .rwdata	00000004 alt_priority_mask
000140f4 g     F .text	0000009c alt_ic_irq_enable
0000b454 g     F .text	00000024 __vfprintf_internal
02001000 g       *ABS*	00000000 __alt_mem_epcs
0000891c g     F .text	00000060 __subdf3
00005b7c g     F .text	000000c4 FT5206_RD_Reg
00012abc g     F .text	00000098 alt_epcs_flash_read
0000ee9c g     F .text	000000b0 __lo0bits
0001b948 g     O .rwdata	00000008 alt_alarm_list
00000360 g     F .text	00000084 LCD_RD_DATA
00013f34 g     F .text	0000005c _do_ctors
00011894 g     F .text	000000c8 close
00000430 g     F .text	00000044 LCD_ReadReg
00008f78 g     F .text	00000224 __pack_d
000004e8 g     F .text	00000078 LCD_BGR2RGB
00004fc0 g     F .text	000000b4 LCD_DrawRectangle
00000000  w      *UND*	00000000 free
0000d2c8 g     F .text	00000004 __sinit_lock_acquire
00013928 g     F .text	0000011c epcs_write_buffer
0000ec1c g     F .text	00000114 __multadd
0000ebf4 g     F .text	00000028 _Bfree



Disassembly of section .exceptions:

00000020 <alt_exception>:
  20:	deffed04 	addi	sp,sp,-76
  24:	dfc00015 	stw	ra,0(sp)
  28:	d8400215 	stw	at,8(sp)
  2c:	d8800315 	stw	r2,12(sp)
  30:	d8c00415 	stw	r3,16(sp)
  34:	d9000515 	stw	r4,20(sp)
  38:	d9400615 	stw	r5,24(sp)
  3c:	d9800715 	stw	r6,28(sp)
  40:	d9c00815 	stw	r7,32(sp)
  44:	000b307a 	rdctl	r5,estatus
  48:	da000915 	stw	r8,36(sp)
  4c:	da400a15 	stw	r9,40(sp)
  50:	da800b15 	stw	r10,44(sp)
  54:	dac00c15 	stw	r11,48(sp)
  58:	db000d15 	stw	r12,52(sp)
  5c:	db400e15 	stw	r13,56(sp)
  60:	db800f15 	stw	r14,60(sp)
  64:	dbc01015 	stw	r15,64(sp)
  68:	d9401115 	stw	r5,68(sp)
  6c:	ebffff04 	addi	r15,ea,-4
  70:	dbc01215 	stw	r15,72(sp)
  74:	0009313a 	rdctl	r4,ipending
  78:	2880004c 	andi	r2,r5,1
  7c:	10000326 	beq	r2,zero,8c <alt_exception+0x6c>
  80:	20000226 	beq	r4,zero,8c <alt_exception+0x6c>
  84:	00000ec0 	call	ec <alt_irq_handler>
  88:	00000306 	br	98 <alt_exception_unknown+0x4>
  8c:	df401215 	stw	ea,72(sp)
  90:	e8bfff17 	ldw	r2,-4(ea)

00000094 <alt_exception_unknown>:
  94:	003da03a 	break	0
  98:	d9401117 	ldw	r5,68(sp)
  9c:	df401217 	ldw	ea,72(sp)
  a0:	dfc00017 	ldw	ra,0(sp)
  a4:	2801707a 	wrctl	estatus,r5
  a8:	d8400217 	ldw	at,8(sp)
  ac:	d8800317 	ldw	r2,12(sp)
  b0:	d8c00417 	ldw	r3,16(sp)
  b4:	d9000517 	ldw	r4,20(sp)
  b8:	d9400617 	ldw	r5,24(sp)
  bc:	d9800717 	ldw	r6,28(sp)
  c0:	d9c00817 	ldw	r7,32(sp)
  c4:	da000917 	ldw	r8,36(sp)
  c8:	da400a17 	ldw	r9,40(sp)
  cc:	da800b17 	ldw	r10,44(sp)
  d0:	dac00c17 	ldw	r11,48(sp)
  d4:	db000d17 	ldw	r12,52(sp)
  d8:	db400e17 	ldw	r13,56(sp)
  dc:	db800f17 	ldw	r14,60(sp)
  e0:	dbc01017 	ldw	r15,64(sp)
  e4:	dec01304 	addi	sp,sp,76
  e8:	ef80083a 	eret

000000ec <alt_irq_handler>:
  ec:	defff904 	addi	sp,sp,-28
  f0:	dfc00615 	stw	ra,24(sp)
  f4:	df000515 	stw	fp,20(sp)
  f8:	df000504 	addi	fp,sp,20
  fc:	0001883a 	nop
 100:	0005313a 	rdctl	r2,ipending
 104:	e0bffe15 	stw	r2,-8(fp)
 108:	e0bffe17 	ldw	r2,-8(fp)
 10c:	e0bffb15 	stw	r2,-20(fp)
 110:	e03ffd15 	stw	zero,-12(fp)
 114:	00800044 	movi	r2,1
 118:	e0bffc15 	stw	r2,-16(fp)
 11c:	e0fffb17 	ldw	r3,-20(fp)
 120:	e0bffc17 	ldw	r2,-16(fp)
 124:	1884703a 	and	r2,r3,r2
 128:	10001726 	beq	r2,zero,188 <alt_irq_handler+0x9c>
 12c:	00c000b4 	movhi	r3,2
 130:	18ee7004 	addi	r3,r3,-17984
 134:	e0bffd17 	ldw	r2,-12(fp)
 138:	100490fa 	slli	r2,r2,3
 13c:	1885883a 	add	r2,r3,r2
 140:	10c00017 	ldw	r3,0(r2)
 144:	010000b4 	movhi	r4,2
 148:	212e7004 	addi	r4,r4,-17984
 14c:	e0bffd17 	ldw	r2,-12(fp)
 150:	100490fa 	slli	r2,r2,3
 154:	2085883a 	add	r2,r4,r2
 158:	10800104 	addi	r2,r2,4
 15c:	10800017 	ldw	r2,0(r2)
 160:	1009883a 	mov	r4,r2
 164:	183ee83a 	callr	r3
 168:	0001883a 	nop
 16c:	0005313a 	rdctl	r2,ipending
 170:	e0bfff15 	stw	r2,-4(fp)
 174:	e0bfff17 	ldw	r2,-4(fp)
 178:	e0bffb15 	stw	r2,-20(fp)
 17c:	e0bffb17 	ldw	r2,-20(fp)
 180:	103fe31e 	bne	r2,zero,110 <alt_irq_handler+0x24>
 184:	00000706 	br	1a4 <alt_irq_handler+0xb8>
 188:	e0bffc17 	ldw	r2,-16(fp)
 18c:	1085883a 	add	r2,r2,r2
 190:	e0bffc15 	stw	r2,-16(fp)
 194:	e0bffd17 	ldw	r2,-12(fp)
 198:	10800044 	addi	r2,r2,1
 19c:	e0bffd15 	stw	r2,-12(fp)
 1a0:	003fde06 	br	11c <alt_irq_handler+0x30>
 1a4:	e037883a 	mov	sp,fp
 1a8:	dfc00117 	ldw	ra,4(sp)
 1ac:	df000017 	ldw	fp,0(sp)
 1b0:	dec00204 	addi	sp,sp,8
 1b4:	f800283a 	ret

Disassembly of section .text:

000001b8 <_start>:
     1b8:	00820014 	movui	r2,2048
     1bc:	10000033 	initd	0(r2)
     1c0:	10bff804 	addi	r2,r2,-32
     1c4:	00bffd16 	blt	zero,r2,1bc <_start+0x4>
     1c8:	06c08034 	movhi	sp,512
     1cc:	dec00014 	ori	sp,sp,0
     1d0:	068000b4 	movhi	gp,2
     1d4:	d68e4114 	ori	gp,gp,14596
     1d8:	00800074 	movhi	r2,1
     1dc:	10ae5414 	ori	r2,r2,47440
     1e0:	00c00074 	movhi	r3,1
     1e4:	18ef1414 	ori	r3,r3,48208
     1e8:	10c00326 	beq	r2,r3,1f8 <_start+0x40>
     1ec:	10000015 	stw	zero,0(r2)
     1f0:	10800104 	addi	r2,r2,4
     1f4:	10fffd36 	bltu	r2,r3,1ec <_start+0x34>
     1f8:	0011c940 	call	11c94 <alt_main>

000001fc <alt_after_alt_main>:
     1fc:	003fff06 	br	1fc <alt_after_alt_main>

00000200 <delay_ms>:
     200:	defffd04 	addi	sp,sp,-12
     204:	dfc00215 	stw	ra,8(sp)
     208:	df000115 	stw	fp,4(sp)
     20c:	df000104 	addi	fp,sp,4
     210:	e13fff15 	stw	r4,-4(fp)
     214:	e0bfff17 	ldw	r2,-4(fp)
     218:	1080fa24 	muli	r2,r2,1000
     21c:	1009883a 	mov	r4,r2
     220:	0011f9c0 	call	11f9c <usleep>
     224:	e037883a 	mov	sp,fp
     228:	dfc00117 	ldw	ra,4(sp)
     22c:	df000017 	ldw	fp,0(sp)
     230:	dec00204 	addi	sp,sp,8
     234:	f800283a 	ret

00000238 <delay_us>:
     238:	defffd04 	addi	sp,sp,-12
     23c:	dfc00215 	stw	ra,8(sp)
     240:	df000115 	stw	fp,4(sp)
     244:	df000104 	addi	fp,sp,4
     248:	e13fff15 	stw	r4,-4(fp)
     24c:	e13fff17 	ldw	r4,-4(fp)
     250:	0011f9c0 	call	11f9c <usleep>
     254:	e037883a 	mov	sp,fp
     258:	dfc00117 	ldw	ra,4(sp)
     25c:	df000017 	ldw	fp,0(sp)
     260:	dec00204 	addi	sp,sp,8
     264:	f800283a 	ret

00000268 <LCD_WR_CMD>:
     268:	defffe04 	addi	sp,sp,-8
     26c:	df000115 	stw	fp,4(sp)
     270:	df000104 	addi	fp,sp,4
     274:	2005883a 	mov	r2,r4
     278:	e0bfff0d 	sth	r2,-4(fp)
     27c:	00ffffd4 	movui	r3,65535
     280:	00808034 	movhi	r2,512
     284:	10882904 	addi	r2,r2,8356
     288:	10c00035 	stwio	r3,0(r2)
     28c:	0007883a 	mov	r3,zero
     290:	00808034 	movhi	r2,512
     294:	10881404 	addi	r2,r2,8272
     298:	10c00035 	stwio	r3,0(r2)
     29c:	00c00044 	movi	r3,1
     2a0:	00808034 	movhi	r2,512
     2a4:	10881c04 	addi	r2,r2,8304
     2a8:	10c00035 	stwio	r3,0(r2)
     2ac:	0007883a 	mov	r3,zero
     2b0:	00808034 	movhi	r2,512
     2b4:	10882004 	addi	r2,r2,8320
     2b8:	10c00035 	stwio	r3,0(r2)
     2bc:	e0ffff0b 	ldhu	r3,-4(fp)
     2c0:	00808034 	movhi	r2,512
     2c4:	10882804 	addi	r2,r2,8352
     2c8:	10c00035 	stwio	r3,0(r2)
     2cc:	00c00044 	movi	r3,1
     2d0:	00808034 	movhi	r2,512
     2d4:	10882004 	addi	r2,r2,8320
     2d8:	10c00035 	stwio	r3,0(r2)
     2dc:	e037883a 	mov	sp,fp
     2e0:	df000017 	ldw	fp,0(sp)
     2e4:	dec00104 	addi	sp,sp,4
     2e8:	f800283a 	ret

000002ec <LCD_WR_DATA>:
     2ec:	defffe04 	addi	sp,sp,-8
     2f0:	df000115 	stw	fp,4(sp)
     2f4:	df000104 	addi	fp,sp,4
     2f8:	2005883a 	mov	r2,r4
     2fc:	e0bfff0d 	sth	r2,-4(fp)
     300:	00c00044 	movi	r3,1
     304:	00808034 	movhi	r2,512
     308:	10881404 	addi	r2,r2,8272
     30c:	10c00035 	stwio	r3,0(r2)
     310:	00c00044 	movi	r3,1
     314:	00808034 	movhi	r2,512
     318:	10881c04 	addi	r2,r2,8304
     31c:	10c00035 	stwio	r3,0(r2)
     320:	0007883a 	mov	r3,zero
     324:	00808034 	movhi	r2,512
     328:	10882004 	addi	r2,r2,8320
     32c:	10c00035 	stwio	r3,0(r2)
     330:	e0ffff0b 	ldhu	r3,-4(fp)
     334:	00808034 	movhi	r2,512
     338:	10882804 	addi	r2,r2,8352
     33c:	10c00035 	stwio	r3,0(r2)
     340:	00c00044 	movi	r3,1
     344:	00808034 	movhi	r2,512
     348:	10882004 	addi	r2,r2,8320
     34c:	10c00035 	stwio	r3,0(r2)
     350:	e037883a 	mov	sp,fp
     354:	df000017 	ldw	fp,0(sp)
     358:	dec00104 	addi	sp,sp,4
     35c:	f800283a 	ret

00000360 <LCD_RD_DATA>:
     360:	defffe04 	addi	sp,sp,-8
     364:	df000115 	stw	fp,4(sp)
     368:	df000104 	addi	fp,sp,4
     36c:	e03fff0d 	sth	zero,-4(fp)
     370:	0007883a 	mov	r3,zero
     374:	00808034 	movhi	r2,512
     378:	10882904 	addi	r2,r2,8356
     37c:	10c00035 	stwio	r3,0(r2)
     380:	00c00044 	movi	r3,1
     384:	00808034 	movhi	r2,512
     388:	10881404 	addi	r2,r2,8272
     38c:	10c00035 	stwio	r3,0(r2)
     390:	00c00044 	movi	r3,1
     394:	00808034 	movhi	r2,512
     398:	10882004 	addi	r2,r2,8320
     39c:	10c00035 	stwio	r3,0(r2)
     3a0:	0007883a 	mov	r3,zero
     3a4:	00808034 	movhi	r2,512
     3a8:	10881c04 	addi	r2,r2,8304
     3ac:	10c00035 	stwio	r3,0(r2)
     3b0:	00808034 	movhi	r2,512
     3b4:	10882804 	addi	r2,r2,8352
     3b8:	10800037 	ldwio	r2,0(r2)
     3bc:	e0bfff0d 	sth	r2,-4(fp)
     3c0:	00c00044 	movi	r3,1
     3c4:	00808034 	movhi	r2,512
     3c8:	10881c04 	addi	r2,r2,8304
     3cc:	10c00035 	stwio	r3,0(r2)
     3d0:	e0bfff0b 	ldhu	r2,-4(fp)
     3d4:	e037883a 	mov	sp,fp
     3d8:	df000017 	ldw	fp,0(sp)
     3dc:	dec00104 	addi	sp,sp,4
     3e0:	f800283a 	ret

000003e4 <LCD_WriteReg>:
     3e4:	defffc04 	addi	sp,sp,-16
     3e8:	dfc00315 	stw	ra,12(sp)
     3ec:	df000215 	stw	fp,8(sp)
     3f0:	df000204 	addi	fp,sp,8
     3f4:	2007883a 	mov	r3,r4
     3f8:	2805883a 	mov	r2,r5
     3fc:	e0fffe0d 	sth	r3,-8(fp)
     400:	e0bfff0d 	sth	r2,-4(fp)
     404:	e0bffe0b 	ldhu	r2,-8(fp)
     408:	1009883a 	mov	r4,r2
     40c:	00002680 	call	268 <LCD_WR_CMD>
     410:	e0bfff0b 	ldhu	r2,-4(fp)
     414:	1009883a 	mov	r4,r2
     418:	00002ec0 	call	2ec <LCD_WR_DATA>
     41c:	e037883a 	mov	sp,fp
     420:	dfc00117 	ldw	ra,4(sp)
     424:	df000017 	ldw	fp,0(sp)
     428:	dec00204 	addi	sp,sp,8
     42c:	f800283a 	ret

00000430 <LCD_ReadReg>:
     430:	defffd04 	addi	sp,sp,-12
     434:	dfc00215 	stw	ra,8(sp)
     438:	df000115 	stw	fp,4(sp)
     43c:	df000104 	addi	fp,sp,4
     440:	2005883a 	mov	r2,r4
     444:	e0bfff0d 	sth	r2,-4(fp)
     448:	e0bfff0b 	ldhu	r2,-4(fp)
     44c:	1009883a 	mov	r4,r2
     450:	00002680 	call	268 <LCD_WR_CMD>
     454:	01000144 	movi	r4,5
     458:	0011f9c0 	call	11f9c <usleep>
     45c:	00003600 	call	360 <LCD_RD_DATA>
     460:	e037883a 	mov	sp,fp
     464:	dfc00117 	ldw	ra,4(sp)
     468:	df000017 	ldw	fp,0(sp)
     46c:	dec00204 	addi	sp,sp,8
     470:	f800283a 	ret

00000474 <LCD_WriteRAM_Prepare>:
     474:	defffe04 	addi	sp,sp,-8
     478:	dfc00115 	stw	ra,4(sp)
     47c:	df000015 	stw	fp,0(sp)
     480:	d839883a 	mov	fp,sp
     484:	008000b4 	movhi	r2,2
     488:	10ae6c04 	addi	r2,r2,-18000
     48c:	1080020b 	ldhu	r2,8(r2)
     490:	10bfffcc 	andi	r2,r2,65535
     494:	1009883a 	mov	r4,r2
     498:	00002680 	call	268 <LCD_WR_CMD>
     49c:	e037883a 	mov	sp,fp
     4a0:	dfc00117 	ldw	ra,4(sp)
     4a4:	df000017 	ldw	fp,0(sp)
     4a8:	dec00204 	addi	sp,sp,8
     4ac:	f800283a 	ret

000004b0 <LCD_WriteRAM>:
     4b0:	defffd04 	addi	sp,sp,-12
     4b4:	dfc00215 	stw	ra,8(sp)
     4b8:	df000115 	stw	fp,4(sp)
     4bc:	df000104 	addi	fp,sp,4
     4c0:	2005883a 	mov	r2,r4
     4c4:	e0bfff0d 	sth	r2,-4(fp)
     4c8:	e0bfff0b 	ldhu	r2,-4(fp)
     4cc:	1009883a 	mov	r4,r2
     4d0:	00002ec0 	call	2ec <LCD_WR_DATA>
     4d4:	e037883a 	mov	sp,fp
     4d8:	dfc00117 	ldw	ra,4(sp)
     4dc:	df000017 	ldw	fp,0(sp)
     4e0:	dec00204 	addi	sp,sp,8
     4e4:	f800283a 	ret

000004e8 <LCD_BGR2RGB>:
     4e8:	defffc04 	addi	sp,sp,-16
     4ec:	df000315 	stw	fp,12(sp)
     4f0:	df000304 	addi	fp,sp,12
     4f4:	2005883a 	mov	r2,r4
     4f8:	e0bfff0d 	sth	r2,-4(fp)
     4fc:	e0bfff0b 	ldhu	r2,-4(fp)
     500:	108007cc 	andi	r2,r2,31
     504:	e0bffd0d 	sth	r2,-12(fp)
     508:	e0bfff0b 	ldhu	r2,-4(fp)
     50c:	1004d17a 	srli	r2,r2,5
     510:	10800fcc 	andi	r2,r2,63
     514:	e0bffd8d 	sth	r2,-10(fp)
     518:	e0bfff0b 	ldhu	r2,-4(fp)
     51c:	1004d2fa 	srli	r2,r2,11
     520:	e0bffe0d 	sth	r2,-8(fp)
     524:	e0bffd0b 	ldhu	r2,-12(fp)
     528:	100492fa 	slli	r2,r2,11
     52c:	1007883a 	mov	r3,r2
     530:	e0bffd8b 	ldhu	r2,-10(fp)
     534:	1004917a 	slli	r2,r2,5
     538:	1885883a 	add	r2,r3,r2
     53c:	1007883a 	mov	r3,r2
     540:	e0bffe0b 	ldhu	r2,-8(fp)
     544:	1885883a 	add	r2,r3,r2
     548:	e0bffe8d 	sth	r2,-6(fp)
     54c:	e0bffe8b 	ldhu	r2,-6(fp)
     550:	e037883a 	mov	sp,fp
     554:	df000017 	ldw	fp,0(sp)
     558:	dec00104 	addi	sp,sp,4
     55c:	f800283a 	ret

00000560 <LCD_ReadPoint>:
     560:	defffa04 	addi	sp,sp,-24
     564:	dfc00515 	stw	ra,20(sp)
     568:	df000415 	stw	fp,16(sp)
     56c:	df000404 	addi	fp,sp,16
     570:	2007883a 	mov	r3,r4
     574:	2805883a 	mov	r2,r5
     578:	e0fffe0d 	sth	r3,-8(fp)
     57c:	e0bfff0d 	sth	r2,-4(fp)
     580:	e03ffc0d 	sth	zero,-16(fp)
     584:	e03ffc8d 	sth	zero,-14(fp)
     588:	e03ffd0d 	sth	zero,-12(fp)
     58c:	008000b4 	movhi	r2,2
     590:	10ae6c04 	addi	r2,r2,-18000
     594:	1080000b 	ldhu	r2,0(r2)
     598:	10bfffcc 	andi	r2,r2,65535
     59c:	e0fffe0b 	ldhu	r3,-8(fp)
     5a0:	1880062e 	bgeu	r3,r2,5bc <LCD_ReadPoint+0x5c>
     5a4:	008000b4 	movhi	r2,2
     5a8:	10ae6c04 	addi	r2,r2,-18000
     5ac:	1080008b 	ldhu	r2,2(r2)
     5b0:	10bfffcc 	andi	r2,r2,65535
     5b4:	e0ffff0b 	ldhu	r3,-4(fp)
     5b8:	18800236 	bltu	r3,r2,5c4 <LCD_ReadPoint+0x64>
     5bc:	0005883a 	mov	r2,zero
     5c0:	00004306 	br	6d0 <LCD_ReadPoint+0x170>
     5c4:	e0fffe0b 	ldhu	r3,-8(fp)
     5c8:	e0bfff0b 	ldhu	r2,-4(fp)
     5cc:	1809883a 	mov	r4,r3
     5d0:	100b883a 	mov	r5,r2
     5d4:	00008140 	call	814 <LCD_SetCursor>
     5d8:	008000b4 	movhi	r2,2
     5dc:	10ae6c04 	addi	r2,r2,-18000
     5e0:	1080010b 	ldhu	r2,4(r2)
     5e4:	10ffffcc 	andi	r3,r2,65535
     5e8:	00a4d054 	movui	r2,37697
     5ec:	18800c26 	beq	r3,r2,620 <LCD_ReadPoint+0xc0>
     5f0:	008000b4 	movhi	r2,2
     5f4:	10ae6c04 	addi	r2,r2,-18000
     5f8:	1080010b 	ldhu	r2,4(r2)
     5fc:	10bfffcc 	andi	r2,r2,65535
     600:	1094c420 	cmpeqi	r2,r2,21264
     604:	1000061e 	bne	r2,zero,620 <LCD_ReadPoint+0xc0>
     608:	008000b4 	movhi	r2,2
     60c:	10ae6c04 	addi	r2,r2,-18000
     610:	1080010b 	ldhu	r2,4(r2)
     614:	10bfffcc 	andi	r2,r2,65535
     618:	108658d8 	cmpnei	r2,r2,6499
     61c:	1000031e 	bne	r2,zero,62c <LCD_ReadPoint+0xcc>
     620:	01000b84 	movi	r4,46
     624:	00002680 	call	268 <LCD_WR_CMD>
     628:	00000806 	br	64c <LCD_ReadPoint+0xec>
     62c:	008000b4 	movhi	r2,2
     630:	10ae6c04 	addi	r2,r2,-18000
     634:	1080010b 	ldhu	r2,4(r2)
     638:	10bfffcc 	andi	r2,r2,65535
     63c:	10954418 	cmpnei	r2,r2,21776
     640:	1000021e 	bne	r2,zero,64c <LCD_ReadPoint+0xec>
     644:	010b8004 	movi	r4,11776
     648:	00002680 	call	268 <LCD_WR_CMD>
     64c:	00003600 	call	360 <LCD_RD_DATA>
     650:	e0bffc0d 	sth	r2,-16(fp)
     654:	008000b4 	movhi	r2,2
     658:	10ae6c04 	addi	r2,r2,-18000
     65c:	1080010b 	ldhu	r2,4(r2)
     660:	10bfffcc 	andi	r2,r2,65535
     664:	108658d8 	cmpnei	r2,r2,6499
     668:	1000021e 	bne	r2,zero,674 <LCD_ReadPoint+0x114>
     66c:	e0bffc0b 	ldhu	r2,-16(fp)
     670:	00001706 	br	6d0 <LCD_ReadPoint+0x170>
     674:	00003600 	call	360 <LCD_RD_DATA>
     678:	e0bffc0d 	sth	r2,-16(fp)
     67c:	00003600 	call	360 <LCD_RD_DATA>
     680:	e0bffd0d 	sth	r2,-12(fp)
     684:	e0bffc0b 	ldhu	r2,-16(fp)
     688:	10803fcc 	andi	r2,r2,255
     68c:	e0bffc8d 	sth	r2,-14(fp)
     690:	e0bffc8b 	ldhu	r2,-14(fp)
     694:	1004923a 	slli	r2,r2,8
     698:	e0bffc8d 	sth	r2,-14(fp)
     69c:	e0bffc0b 	ldhu	r2,-16(fp)
     6a0:	1004d2fa 	srli	r2,r2,11
     6a4:	10bfffcc 	andi	r2,r2,65535
     6a8:	100692fa 	slli	r3,r2,11
     6ac:	e0bffc8b 	ldhu	r2,-14(fp)
     6b0:	1004d2ba 	srli	r2,r2,10
     6b4:	10bfffcc 	andi	r2,r2,65535
     6b8:	1004917a 	slli	r2,r2,5
     6bc:	1886b03a 	or	r3,r3,r2
     6c0:	e0bffd0b 	ldhu	r2,-12(fp)
     6c4:	1004d2fa 	srli	r2,r2,11
     6c8:	10bfffcc 	andi	r2,r2,65535
     6cc:	1884b03a 	or	r2,r3,r2
     6d0:	e037883a 	mov	sp,fp
     6d4:	dfc00117 	ldw	ra,4(sp)
     6d8:	df000017 	ldw	fp,0(sp)
     6dc:	dec00204 	addi	sp,sp,8
     6e0:	f800283a 	ret

000006e4 <LCD_DisplayOn>:
     6e4:	defffe04 	addi	sp,sp,-8
     6e8:	dfc00115 	stw	ra,4(sp)
     6ec:	df000015 	stw	fp,0(sp)
     6f0:	d839883a 	mov	fp,sp
     6f4:	008000b4 	movhi	r2,2
     6f8:	10ae6c04 	addi	r2,r2,-18000
     6fc:	1080010b 	ldhu	r2,4(r2)
     700:	10ffffcc 	andi	r3,r2,65535
     704:	00a4d054 	movui	r2,37697
     708:	18800c26 	beq	r3,r2,73c <LCD_DisplayOn+0x58>
     70c:	008000b4 	movhi	r2,2
     710:	10ae6c04 	addi	r2,r2,-18000
     714:	1080010b 	ldhu	r2,4(r2)
     718:	10bfffcc 	andi	r2,r2,65535
     71c:	1094c420 	cmpeqi	r2,r2,21264
     720:	1000061e 	bne	r2,zero,73c <LCD_DisplayOn+0x58>
     724:	008000b4 	movhi	r2,2
     728:	10ae6c04 	addi	r2,r2,-18000
     72c:	1080010b 	ldhu	r2,4(r2)
     730:	10bfffcc 	andi	r2,r2,65535
     734:	108658d8 	cmpnei	r2,r2,6499
     738:	1000031e 	bne	r2,zero,748 <LCD_DisplayOn+0x64>
     73c:	01000a44 	movi	r4,41
     740:	00002680 	call	268 <LCD_WR_CMD>
     744:	00000806 	br	768 <LCD_DisplayOn+0x84>
     748:	008000b4 	movhi	r2,2
     74c:	10ae6c04 	addi	r2,r2,-18000
     750:	1080010b 	ldhu	r2,4(r2)
     754:	10bfffcc 	andi	r2,r2,65535
     758:	10954418 	cmpnei	r2,r2,21776
     75c:	1000021e 	bne	r2,zero,768 <LCD_DisplayOn+0x84>
     760:	010a4004 	movi	r4,10496
     764:	00002680 	call	268 <LCD_WR_CMD>
     768:	e037883a 	mov	sp,fp
     76c:	dfc00117 	ldw	ra,4(sp)
     770:	df000017 	ldw	fp,0(sp)
     774:	dec00204 	addi	sp,sp,8
     778:	f800283a 	ret

0000077c <LCD_DisplayOff>:
     77c:	defffe04 	addi	sp,sp,-8
     780:	dfc00115 	stw	ra,4(sp)
     784:	df000015 	stw	fp,0(sp)
     788:	d839883a 	mov	fp,sp
     78c:	008000b4 	movhi	r2,2
     790:	10ae6c04 	addi	r2,r2,-18000
     794:	1080010b 	ldhu	r2,4(r2)
     798:	10ffffcc 	andi	r3,r2,65535
     79c:	00a4d054 	movui	r2,37697
     7a0:	18800c26 	beq	r3,r2,7d4 <LCD_DisplayOff+0x58>
     7a4:	008000b4 	movhi	r2,2
     7a8:	10ae6c04 	addi	r2,r2,-18000
     7ac:	1080010b 	ldhu	r2,4(r2)
     7b0:	10bfffcc 	andi	r2,r2,65535
     7b4:	1094c420 	cmpeqi	r2,r2,21264
     7b8:	1000061e 	bne	r2,zero,7d4 <LCD_DisplayOff+0x58>
     7bc:	008000b4 	movhi	r2,2
     7c0:	10ae6c04 	addi	r2,r2,-18000
     7c4:	1080010b 	ldhu	r2,4(r2)
     7c8:	10bfffcc 	andi	r2,r2,65535
     7cc:	108658d8 	cmpnei	r2,r2,6499
     7d0:	1000031e 	bne	r2,zero,7e0 <LCD_DisplayOff+0x64>
     7d4:	01000a04 	movi	r4,40
     7d8:	00002680 	call	268 <LCD_WR_CMD>
     7dc:	00000806 	br	800 <LCD_DisplayOff+0x84>
     7e0:	008000b4 	movhi	r2,2
     7e4:	10ae6c04 	addi	r2,r2,-18000
     7e8:	1080010b 	ldhu	r2,4(r2)
     7ec:	10bfffcc 	andi	r2,r2,65535
     7f0:	10954418 	cmpnei	r2,r2,21776
     7f4:	1000021e 	bne	r2,zero,800 <LCD_DisplayOff+0x84>
     7f8:	010a0004 	movi	r4,10240
     7fc:	00002680 	call	268 <LCD_WR_CMD>
     800:	e037883a 	mov	sp,fp
     804:	dfc00117 	ldw	ra,4(sp)
     808:	df000017 	ldw	fp,0(sp)
     80c:	dec00204 	addi	sp,sp,8
     810:	f800283a 	ret

00000814 <LCD_SetCursor>:
     814:	defffc04 	addi	sp,sp,-16
     818:	dfc00315 	stw	ra,12(sp)
     81c:	df000215 	stw	fp,8(sp)
     820:	df000204 	addi	fp,sp,8
     824:	2007883a 	mov	r3,r4
     828:	2805883a 	mov	r2,r5
     82c:	e0fffe0d 	sth	r3,-8(fp)
     830:	e0bfff0d 	sth	r2,-4(fp)
     834:	008000b4 	movhi	r2,2
     838:	10ae6c04 	addi	r2,r2,-18000
     83c:	1080010b 	ldhu	r2,4(r2)
     840:	10ffffcc 	andi	r3,r2,65535
     844:	00a4d054 	movui	r2,37697
     848:	18800626 	beq	r3,r2,864 <LCD_SetCursor+0x50>
     84c:	008000b4 	movhi	r2,2
     850:	10ae6c04 	addi	r2,r2,-18000
     854:	1080010b 	ldhu	r2,4(r2)
     858:	10bfffcc 	andi	r2,r2,65535
     85c:	1094c418 	cmpnei	r2,r2,21264
     860:	10001f1e 	bne	r2,zero,8e0 <LCD_SetCursor+0xcc>
     864:	008000b4 	movhi	r2,2
     868:	10ae6c04 	addi	r2,r2,-18000
     86c:	1080028b 	ldhu	r2,10(r2)
     870:	10bfffcc 	andi	r2,r2,65535
     874:	1009883a 	mov	r4,r2
     878:	00002680 	call	268 <LCD_WR_CMD>
     87c:	e0bffe0b 	ldhu	r2,-8(fp)
     880:	1004d23a 	srli	r2,r2,8
     884:	10bfffcc 	andi	r2,r2,65535
     888:	1009883a 	mov	r4,r2
     88c:	00002ec0 	call	2ec <LCD_WR_DATA>
     890:	e0bffe0b 	ldhu	r2,-8(fp)
     894:	10803fcc 	andi	r2,r2,255
     898:	1009883a 	mov	r4,r2
     89c:	00002ec0 	call	2ec <LCD_WR_DATA>
     8a0:	008000b4 	movhi	r2,2
     8a4:	10ae6c04 	addi	r2,r2,-18000
     8a8:	1080030b 	ldhu	r2,12(r2)
     8ac:	10bfffcc 	andi	r2,r2,65535
     8b0:	1009883a 	mov	r4,r2
     8b4:	00002680 	call	268 <LCD_WR_CMD>
     8b8:	e0bfff0b 	ldhu	r2,-4(fp)
     8bc:	1004d23a 	srli	r2,r2,8
     8c0:	10bfffcc 	andi	r2,r2,65535
     8c4:	1009883a 	mov	r4,r2
     8c8:	00002ec0 	call	2ec <LCD_WR_DATA>
     8cc:	e0bfff0b 	ldhu	r2,-4(fp)
     8d0:	10803fcc 	andi	r2,r2,255
     8d4:	1009883a 	mov	r4,r2
     8d8:	00002ec0 	call	2ec <LCD_WR_DATA>
     8dc:	00009906 	br	b44 <LCD_SetCursor+0x330>
     8e0:	008000b4 	movhi	r2,2
     8e4:	10ae6c04 	addi	r2,r2,-18000
     8e8:	1080010b 	ldhu	r2,4(r2)
     8ec:	10bfffcc 	andi	r2,r2,65535
     8f0:	108658d8 	cmpnei	r2,r2,6499
     8f4:	1000611e 	bne	r2,zero,a7c <LCD_SetCursor+0x268>
     8f8:	008000b4 	movhi	r2,2
     8fc:	10ae6c04 	addi	r2,r2,-18000
     900:	10800183 	ldbu	r2,6(r2)
     904:	10803fcc 	andi	r2,r2,255
     908:	10001b1e 	bne	r2,zero,978 <LCD_SetCursor+0x164>
     90c:	008000b4 	movhi	r2,2
     910:	10ae6c04 	addi	r2,r2,-18000
     914:	10c0000b 	ldhu	r3,0(r2)
     918:	e0bffe0b 	ldhu	r2,-8(fp)
     91c:	1885c83a 	sub	r2,r3,r2
     920:	10bfffc4 	addi	r2,r2,-1
     924:	e0bffe0d 	sth	r2,-8(fp)
     928:	008000b4 	movhi	r2,2
     92c:	10ae6c04 	addi	r2,r2,-18000
     930:	1080028b 	ldhu	r2,10(r2)
     934:	10bfffcc 	andi	r2,r2,65535
     938:	1009883a 	mov	r4,r2
     93c:	00002680 	call	268 <LCD_WR_CMD>
     940:	0009883a 	mov	r4,zero
     944:	00002ec0 	call	2ec <LCD_WR_DATA>
     948:	0009883a 	mov	r4,zero
     94c:	00002ec0 	call	2ec <LCD_WR_DATA>
     950:	e0bffe0b 	ldhu	r2,-8(fp)
     954:	1004d23a 	srli	r2,r2,8
     958:	10bfffcc 	andi	r2,r2,65535
     95c:	1009883a 	mov	r4,r2
     960:	00002ec0 	call	2ec <LCD_WR_DATA>
     964:	e0bffe0b 	ldhu	r2,-8(fp)
     968:	10803fcc 	andi	r2,r2,255
     96c:	1009883a 	mov	r4,r2
     970:	00002ec0 	call	2ec <LCD_WR_DATA>
     974:	00002006 	br	9f8 <LCD_SetCursor+0x1e4>
     978:	008000b4 	movhi	r2,2
     97c:	10ae6c04 	addi	r2,r2,-18000
     980:	1080028b 	ldhu	r2,10(r2)
     984:	10bfffcc 	andi	r2,r2,65535
     988:	1009883a 	mov	r4,r2
     98c:	00002680 	call	268 <LCD_WR_CMD>
     990:	e0bffe0b 	ldhu	r2,-8(fp)
     994:	1004d23a 	srli	r2,r2,8
     998:	10bfffcc 	andi	r2,r2,65535
     99c:	1009883a 	mov	r4,r2
     9a0:	00002ec0 	call	2ec <LCD_WR_DATA>
     9a4:	e0bffe0b 	ldhu	r2,-8(fp)
     9a8:	10803fcc 	andi	r2,r2,255
     9ac:	1009883a 	mov	r4,r2
     9b0:	00002ec0 	call	2ec <LCD_WR_DATA>
     9b4:	008000b4 	movhi	r2,2
     9b8:	10ae6c04 	addi	r2,r2,-18000
     9bc:	1080000b 	ldhu	r2,0(r2)
     9c0:	10bfffcc 	andi	r2,r2,65535
     9c4:	10bfffc4 	addi	r2,r2,-1
     9c8:	1005d23a 	srai	r2,r2,8
     9cc:	10bfffcc 	andi	r2,r2,65535
     9d0:	1009883a 	mov	r4,r2
     9d4:	00002ec0 	call	2ec <LCD_WR_DATA>
     9d8:	008000b4 	movhi	r2,2
     9dc:	10ae6c04 	addi	r2,r2,-18000
     9e0:	1080000b 	ldhu	r2,0(r2)
     9e4:	10bfffc4 	addi	r2,r2,-1
     9e8:	10bfffcc 	andi	r2,r2,65535
     9ec:	10803fcc 	andi	r2,r2,255
     9f0:	1009883a 	mov	r4,r2
     9f4:	00002ec0 	call	2ec <LCD_WR_DATA>
     9f8:	008000b4 	movhi	r2,2
     9fc:	10ae6c04 	addi	r2,r2,-18000
     a00:	1080030b 	ldhu	r2,12(r2)
     a04:	10bfffcc 	andi	r2,r2,65535
     a08:	1009883a 	mov	r4,r2
     a0c:	00002680 	call	268 <LCD_WR_CMD>
     a10:	e0bfff0b 	ldhu	r2,-4(fp)
     a14:	1004d23a 	srli	r2,r2,8
     a18:	10bfffcc 	andi	r2,r2,65535
     a1c:	1009883a 	mov	r4,r2
     a20:	00002ec0 	call	2ec <LCD_WR_DATA>
     a24:	e0bfff0b 	ldhu	r2,-4(fp)
     a28:	10803fcc 	andi	r2,r2,255
     a2c:	1009883a 	mov	r4,r2
     a30:	00002ec0 	call	2ec <LCD_WR_DATA>
     a34:	008000b4 	movhi	r2,2
     a38:	10ae6c04 	addi	r2,r2,-18000
     a3c:	1080008b 	ldhu	r2,2(r2)
     a40:	10bfffcc 	andi	r2,r2,65535
     a44:	10bfffc4 	addi	r2,r2,-1
     a48:	1005d23a 	srai	r2,r2,8
     a4c:	10bfffcc 	andi	r2,r2,65535
     a50:	1009883a 	mov	r4,r2
     a54:	00002ec0 	call	2ec <LCD_WR_DATA>
     a58:	008000b4 	movhi	r2,2
     a5c:	10ae6c04 	addi	r2,r2,-18000
     a60:	1080008b 	ldhu	r2,2(r2)
     a64:	10bfffc4 	addi	r2,r2,-1
     a68:	10bfffcc 	andi	r2,r2,65535
     a6c:	10803fcc 	andi	r2,r2,255
     a70:	1009883a 	mov	r4,r2
     a74:	00002ec0 	call	2ec <LCD_WR_DATA>
     a78:	00003206 	br	b44 <LCD_SetCursor+0x330>
     a7c:	008000b4 	movhi	r2,2
     a80:	10ae6c04 	addi	r2,r2,-18000
     a84:	1080010b 	ldhu	r2,4(r2)
     a88:	10bfffcc 	andi	r2,r2,65535
     a8c:	10954418 	cmpnei	r2,r2,21776
     a90:	10002c1e 	bne	r2,zero,b44 <LCD_SetCursor+0x330>
     a94:	008000b4 	movhi	r2,2
     a98:	10ae6c04 	addi	r2,r2,-18000
     a9c:	1080028b 	ldhu	r2,10(r2)
     aa0:	10bfffcc 	andi	r2,r2,65535
     aa4:	1009883a 	mov	r4,r2
     aa8:	00002680 	call	268 <LCD_WR_CMD>
     aac:	e0bffe0b 	ldhu	r2,-8(fp)
     ab0:	1004d23a 	srli	r2,r2,8
     ab4:	10bfffcc 	andi	r2,r2,65535
     ab8:	1009883a 	mov	r4,r2
     abc:	00002ec0 	call	2ec <LCD_WR_DATA>
     ac0:	008000b4 	movhi	r2,2
     ac4:	10ae6c04 	addi	r2,r2,-18000
     ac8:	1080028b 	ldhu	r2,10(r2)
     acc:	10800044 	addi	r2,r2,1
     ad0:	10bfffcc 	andi	r2,r2,65535
     ad4:	1009883a 	mov	r4,r2
     ad8:	00002680 	call	268 <LCD_WR_CMD>
     adc:	e0bffe0b 	ldhu	r2,-8(fp)
     ae0:	10803fcc 	andi	r2,r2,255
     ae4:	1009883a 	mov	r4,r2
     ae8:	00002ec0 	call	2ec <LCD_WR_DATA>
     aec:	008000b4 	movhi	r2,2
     af0:	10ae6c04 	addi	r2,r2,-18000
     af4:	1080030b 	ldhu	r2,12(r2)
     af8:	10bfffcc 	andi	r2,r2,65535
     afc:	1009883a 	mov	r4,r2
     b00:	00002680 	call	268 <LCD_WR_CMD>
     b04:	e0bfff0b 	ldhu	r2,-4(fp)
     b08:	1004d23a 	srli	r2,r2,8
     b0c:	10bfffcc 	andi	r2,r2,65535
     b10:	1009883a 	mov	r4,r2
     b14:	00002ec0 	call	2ec <LCD_WR_DATA>
     b18:	008000b4 	movhi	r2,2
     b1c:	10ae6c04 	addi	r2,r2,-18000
     b20:	1080030b 	ldhu	r2,12(r2)
     b24:	10800044 	addi	r2,r2,1
     b28:	10bfffcc 	andi	r2,r2,65535
     b2c:	1009883a 	mov	r4,r2
     b30:	00002680 	call	268 <LCD_WR_CMD>
     b34:	e0bfff0b 	ldhu	r2,-4(fp)
     b38:	10803fcc 	andi	r2,r2,255
     b3c:	1009883a 	mov	r4,r2
     b40:	00002ec0 	call	2ec <LCD_WR_DATA>
     b44:	e037883a 	mov	sp,fp
     b48:	dfc00117 	ldw	ra,4(sp)
     b4c:	df000017 	ldw	fp,0(sp)
     b50:	dec00204 	addi	sp,sp,8
     b54:	f800283a 	ret

00000b58 <LCD_Scan_Dir>:
     b58:	defffb04 	addi	sp,sp,-20
     b5c:	dfc00415 	stw	ra,16(sp)
     b60:	df000315 	stw	fp,12(sp)
     b64:	df000304 	addi	fp,sp,12
     b68:	2005883a 	mov	r2,r4
     b6c:	e0bfff05 	stb	r2,-4(fp)
     b70:	e03ffd0d 	sth	zero,-12(fp)
     b74:	e03ffd8d 	sth	zero,-10(fp)
     b78:	008000b4 	movhi	r2,2
     b7c:	10ae6c04 	addi	r2,r2,-18000
     b80:	10800183 	ldbu	r2,6(r2)
     b84:	10803fcc 	andi	r2,r2,255
     b88:	10800058 	cmpnei	r2,r2,1
     b8c:	1000061e 	bne	r2,zero,ba8 <LCD_Scan_Dir+0x50>
     b90:	008000b4 	movhi	r2,2
     b94:	10ae6c04 	addi	r2,r2,-18000
     b98:	1080010b 	ldhu	r2,4(r2)
     b9c:	10bfffcc 	andi	r2,r2,65535
     ba0:	108658d8 	cmpnei	r2,r2,6499
     ba4:	10000b1e 	bne	r2,zero,bd4 <LCD_Scan_Dir+0x7c>
     ba8:	008000b4 	movhi	r2,2
     bac:	10ae6c04 	addi	r2,r2,-18000
     bb0:	10800183 	ldbu	r2,6(r2)
     bb4:	10803fcc 	andi	r2,r2,255
     bb8:	10002f1e 	bne	r2,zero,c78 <LCD_Scan_Dir+0x120>
     bbc:	008000b4 	movhi	r2,2
     bc0:	10ae6c04 	addi	r2,r2,-18000
     bc4:	1080010b 	ldhu	r2,4(r2)
     bc8:	10bfffcc 	andi	r2,r2,65535
     bcc:	108658d8 	cmpnei	r2,r2,6499
     bd0:	1000291e 	bne	r2,zero,c78 <LCD_Scan_Dir+0x120>
     bd4:	e0bfff03 	ldbu	r2,-4(fp)
     bd8:	10c00228 	cmpgeui	r3,r2,8
     bdc:	1800261e 	bne	r3,zero,c78 <LCD_Scan_Dir+0x120>
     be0:	1085883a 	add	r2,r2,r2
     be4:	1087883a 	add	r3,r2,r2
     be8:	00800034 	movhi	r2,0
     bec:	1082ff04 	addi	r2,r2,3068
     bf0:	1885883a 	add	r2,r3,r2
     bf4:	10800017 	ldw	r2,0(r2)
     bf8:	1000683a 	jmp	r2
     bfc:	00000c1c 	xori	zero,zero,48
     c00:	00000c28 	cmpgeui	zero,zero,48
     c04:	00000c34 	movhi	zero,48
     c08:	00000c40 	call	c4 <alt_exception_unknown+0x30>
     c0c:	00000c4c 	andi	zero,zero,49
     c10:	00000c58 	cmpnei	zero,zero,49
     c14:	00000c60 	cmpeqi	zero,zero,49
     c18:	00000c6c 	andhi	zero,zero,49
     c1c:	00800184 	movi	r2,6
     c20:	e0bfff05 	stb	r2,-4(fp)
     c24:	00001406 	br	c78 <LCD_Scan_Dir+0x120>
     c28:	008001c4 	movi	r2,7
     c2c:	e0bfff05 	stb	r2,-4(fp)
     c30:	00001106 	br	c78 <LCD_Scan_Dir+0x120>
     c34:	00800104 	movi	r2,4
     c38:	e0bfff05 	stb	r2,-4(fp)
     c3c:	00000e06 	br	c78 <LCD_Scan_Dir+0x120>
     c40:	00800144 	movi	r2,5
     c44:	e0bfff05 	stb	r2,-4(fp)
     c48:	00000b06 	br	c78 <LCD_Scan_Dir+0x120>
     c4c:	00800044 	movi	r2,1
     c50:	e0bfff05 	stb	r2,-4(fp)
     c54:	00000806 	br	c78 <LCD_Scan_Dir+0x120>
     c58:	e03fff05 	stb	zero,-4(fp)
     c5c:	00000606 	br	c78 <LCD_Scan_Dir+0x120>
     c60:	008000c4 	movi	r2,3
     c64:	e0bfff05 	stb	r2,-4(fp)
     c68:	00000306 	br	c78 <LCD_Scan_Dir+0x120>
     c6c:	00800084 	movi	r2,2
     c70:	e0bfff05 	stb	r2,-4(fp)
     c74:	0001883a 	nop
     c78:	008000b4 	movhi	r2,2
     c7c:	10ae6c04 	addi	r2,r2,-18000
     c80:	1080010b 	ldhu	r2,4(r2)
     c84:	10ffffcc 	andi	r3,r2,65535
     c88:	00a4d054 	movui	r2,37697
     c8c:	18801226 	beq	r3,r2,cd8 <LCD_Scan_Dir+0x180>
     c90:	008000b4 	movhi	r2,2
     c94:	10ae6c04 	addi	r2,r2,-18000
     c98:	1080010b 	ldhu	r2,4(r2)
     c9c:	10bfffcc 	andi	r2,r2,65535
     ca0:	1094c420 	cmpeqi	r2,r2,21264
     ca4:	10000c1e 	bne	r2,zero,cd8 <LCD_Scan_Dir+0x180>
     ca8:	008000b4 	movhi	r2,2
     cac:	10ae6c04 	addi	r2,r2,-18000
     cb0:	1080010b 	ldhu	r2,4(r2)
     cb4:	10bfffcc 	andi	r2,r2,65535
     cb8:	10954420 	cmpeqi	r2,r2,21776
     cbc:	1000061e 	bne	r2,zero,cd8 <LCD_Scan_Dir+0x180>
     cc0:	008000b4 	movhi	r2,2
     cc4:	10ae6c04 	addi	r2,r2,-18000
     cc8:	1080010b 	ldhu	r2,4(r2)
     ccc:	10bfffcc 	andi	r2,r2,65535
     cd0:	108658d8 	cmpnei	r2,r2,6499
     cd4:	1001291e 	bne	r2,zero,117c <LCD_Scan_Dir+0x624>
     cd8:	e0bfff03 	ldbu	r2,-4(fp)
     cdc:	10c00228 	cmpgeui	r3,r2,8
     ce0:	18002c1e 	bne	r3,zero,d94 <LCD_Scan_Dir+0x23c>
     ce4:	1085883a 	add	r2,r2,r2
     ce8:	1087883a 	add	r3,r2,r2
     cec:	00800034 	movhi	r2,0
     cf0:	10834004 	addi	r2,r2,3328
     cf4:	1885883a 	add	r2,r3,r2
     cf8:	10800017 	ldw	r2,0(r2)
     cfc:	1000683a 	jmp	r2
     d00:	00000d90 	cmplti	zero,zero,54
     d04:	00000d20 	cmpeqi	zero,zero,52
     d08:	00000d30 	cmpltui	zero,zero,52
     d0c:	00000d40 	call	d4 <alt_exception_unknown+0x40>
     d10:	00000d50 	cmplti	zero,zero,53
     d14:	00000d60 	cmpeqi	zero,zero,53
     d18:	00000d70 	cmpltui	zero,zero,53
     d1c:	00000d80 	call	d8 <alt_exception_unknown+0x44>
     d20:	e0bffd0b 	ldhu	r2,-12(fp)
     d24:	10802014 	ori	r2,r2,128
     d28:	e0bffd0d 	sth	r2,-12(fp)
     d2c:	00001906 	br	d94 <LCD_Scan_Dir+0x23c>
     d30:	e0bffd0b 	ldhu	r2,-12(fp)
     d34:	10801014 	ori	r2,r2,64
     d38:	e0bffd0d 	sth	r2,-12(fp)
     d3c:	00001506 	br	d94 <LCD_Scan_Dir+0x23c>
     d40:	e0bffd0b 	ldhu	r2,-12(fp)
     d44:	10803014 	ori	r2,r2,192
     d48:	e0bffd0d 	sth	r2,-12(fp)
     d4c:	00001106 	br	d94 <LCD_Scan_Dir+0x23c>
     d50:	e0bffd0b 	ldhu	r2,-12(fp)
     d54:	10800814 	ori	r2,r2,32
     d58:	e0bffd0d 	sth	r2,-12(fp)
     d5c:	00000d06 	br	d94 <LCD_Scan_Dir+0x23c>
     d60:	e0bffd0b 	ldhu	r2,-12(fp)
     d64:	10801814 	ori	r2,r2,96
     d68:	e0bffd0d 	sth	r2,-12(fp)
     d6c:	00000906 	br	d94 <LCD_Scan_Dir+0x23c>
     d70:	e0bffd0b 	ldhu	r2,-12(fp)
     d74:	10802814 	ori	r2,r2,160
     d78:	e0bffd0d 	sth	r2,-12(fp)
     d7c:	00000506 	br	d94 <LCD_Scan_Dir+0x23c>
     d80:	e0bffd0b 	ldhu	r2,-12(fp)
     d84:	10803814 	ori	r2,r2,224
     d88:	e0bffd0d 	sth	r2,-12(fp)
     d8c:	00000106 	br	d94 <LCD_Scan_Dir+0x23c>
     d90:	0001883a 	nop
     d94:	008000b4 	movhi	r2,2
     d98:	10ae6c04 	addi	r2,r2,-18000
     d9c:	1080010b 	ldhu	r2,4(r2)
     da0:	10bfffcc 	andi	r2,r2,65535
     da4:	10954418 	cmpnei	r2,r2,21776
     da8:	1000031e 	bne	r2,zero,db8 <LCD_Scan_Dir+0x260>
     dac:	008d8004 	movi	r2,13824
     db0:	e0bffd8d 	sth	r2,-10(fp)
     db4:	00000206 	br	dc0 <LCD_Scan_Dir+0x268>
     db8:	00800d84 	movi	r2,54
     dbc:	e0bffd8d 	sth	r2,-10(fp)
     dc0:	008000b4 	movhi	r2,2
     dc4:	10ae6c04 	addi	r2,r2,-18000
     dc8:	1080010b 	ldhu	r2,4(r2)
     dcc:	10bfffcc 	andi	r2,r2,65535
     dd0:	1094c420 	cmpeqi	r2,r2,21264
     dd4:	10000f1e 	bne	r2,zero,e14 <LCD_Scan_Dir+0x2bc>
     dd8:	008000b4 	movhi	r2,2
     ddc:	10ae6c04 	addi	r2,r2,-18000
     de0:	1080010b 	ldhu	r2,4(r2)
     de4:	10bfffcc 	andi	r2,r2,65535
     de8:	10954420 	cmpeqi	r2,r2,21776
     dec:	1000091e 	bne	r2,zero,e14 <LCD_Scan_Dir+0x2bc>
     df0:	008000b4 	movhi	r2,2
     df4:	10ae6c04 	addi	r2,r2,-18000
     df8:	1080010b 	ldhu	r2,4(r2)
     dfc:	10bfffcc 	andi	r2,r2,65535
     e00:	108658e0 	cmpeqi	r2,r2,6499
     e04:	1000031e 	bne	r2,zero,e14 <LCD_Scan_Dir+0x2bc>
     e08:	e0bffd0b 	ldhu	r2,-12(fp)
     e0c:	10800214 	ori	r2,r2,8
     e10:	e0bffd0d 	sth	r2,-12(fp)
     e14:	e0fffd8b 	ldhu	r3,-10(fp)
     e18:	e0bffd0b 	ldhu	r2,-12(fp)
     e1c:	1809883a 	mov	r4,r3
     e20:	100b883a 	mov	r5,r2
     e24:	00003e40 	call	3e4 <LCD_WriteReg>
     e28:	008000b4 	movhi	r2,2
     e2c:	10ae6c04 	addi	r2,r2,-18000
     e30:	1080010b 	ldhu	r2,4(r2)
     e34:	10bfffcc 	andi	r2,r2,65535
     e38:	108658e0 	cmpeqi	r2,r2,6499
     e3c:	1000321e 	bne	r2,zero,f08 <LCD_Scan_Dir+0x3b0>
     e40:	e0bffd0b 	ldhu	r2,-12(fp)
     e44:	1080080c 	andi	r2,r2,32
     e48:	10001826 	beq	r2,zero,eac <LCD_Scan_Dir+0x354>
     e4c:	008000b4 	movhi	r2,2
     e50:	10ae6c04 	addi	r2,r2,-18000
     e54:	10c0000b 	ldhu	r3,0(r2)
     e58:	008000b4 	movhi	r2,2
     e5c:	10ae6c04 	addi	r2,r2,-18000
     e60:	1080008b 	ldhu	r2,2(r2)
     e64:	18ffffcc 	andi	r3,r3,65535
     e68:	10bfffcc 	andi	r2,r2,65535
     e6c:	1880262e 	bgeu	r3,r2,f08 <LCD_Scan_Dir+0x3b0>
     e70:	008000b4 	movhi	r2,2
     e74:	10ae6c04 	addi	r2,r2,-18000
     e78:	1080000b 	ldhu	r2,0(r2)
     e7c:	e0bffe0d 	sth	r2,-8(fp)
     e80:	008000b4 	movhi	r2,2
     e84:	10ae6c04 	addi	r2,r2,-18000
     e88:	10c0008b 	ldhu	r3,2(r2)
     e8c:	008000b4 	movhi	r2,2
     e90:	10ae6c04 	addi	r2,r2,-18000
     e94:	10c0000d 	sth	r3,0(r2)
     e98:	008000b4 	movhi	r2,2
     e9c:	10ae6c04 	addi	r2,r2,-18000
     ea0:	e0fffe0b 	ldhu	r3,-8(fp)
     ea4:	10c0008d 	sth	r3,2(r2)
     ea8:	00001706 	br	f08 <LCD_Scan_Dir+0x3b0>
     eac:	008000b4 	movhi	r2,2
     eb0:	10ae6c04 	addi	r2,r2,-18000
     eb4:	1080000b 	ldhu	r2,0(r2)
     eb8:	00c000b4 	movhi	r3,2
     ebc:	18ee6c04 	addi	r3,r3,-18000
     ec0:	18c0008b 	ldhu	r3,2(r3)
     ec4:	10bfffcc 	andi	r2,r2,65535
     ec8:	18ffffcc 	andi	r3,r3,65535
     ecc:	18800e2e 	bgeu	r3,r2,f08 <LCD_Scan_Dir+0x3b0>
     ed0:	008000b4 	movhi	r2,2
     ed4:	10ae6c04 	addi	r2,r2,-18000
     ed8:	1080000b 	ldhu	r2,0(r2)
     edc:	e0bffe0d 	sth	r2,-8(fp)
     ee0:	008000b4 	movhi	r2,2
     ee4:	10ae6c04 	addi	r2,r2,-18000
     ee8:	10c0008b 	ldhu	r3,2(r2)
     eec:	008000b4 	movhi	r2,2
     ef0:	10ae6c04 	addi	r2,r2,-18000
     ef4:	10c0000d 	sth	r3,0(r2)
     ef8:	008000b4 	movhi	r2,2
     efc:	10ae6c04 	addi	r2,r2,-18000
     f00:	e0fffe0b 	ldhu	r3,-8(fp)
     f04:	10c0008d 	sth	r3,2(r2)
     f08:	008000b4 	movhi	r2,2
     f0c:	10ae6c04 	addi	r2,r2,-18000
     f10:	1080010b 	ldhu	r2,4(r2)
     f14:	10bfffcc 	andi	r2,r2,65535
     f18:	10954418 	cmpnei	r2,r2,21776
     f1c:	1000611e 	bne	r2,zero,10a4 <LCD_Scan_Dir+0x54c>
     f20:	008000b4 	movhi	r2,2
     f24:	10ae6c04 	addi	r2,r2,-18000
     f28:	1080028b 	ldhu	r2,10(r2)
     f2c:	10bfffcc 	andi	r2,r2,65535
     f30:	1009883a 	mov	r4,r2
     f34:	00002680 	call	268 <LCD_WR_CMD>
     f38:	0009883a 	mov	r4,zero
     f3c:	00002ec0 	call	2ec <LCD_WR_DATA>
     f40:	008000b4 	movhi	r2,2
     f44:	10ae6c04 	addi	r2,r2,-18000
     f48:	1080028b 	ldhu	r2,10(r2)
     f4c:	10800044 	addi	r2,r2,1
     f50:	10bfffcc 	andi	r2,r2,65535
     f54:	1009883a 	mov	r4,r2
     f58:	00002680 	call	268 <LCD_WR_CMD>
     f5c:	0009883a 	mov	r4,zero
     f60:	00002ec0 	call	2ec <LCD_WR_DATA>
     f64:	008000b4 	movhi	r2,2
     f68:	10ae6c04 	addi	r2,r2,-18000
     f6c:	1080028b 	ldhu	r2,10(r2)
     f70:	10800084 	addi	r2,r2,2
     f74:	10bfffcc 	andi	r2,r2,65535
     f78:	1009883a 	mov	r4,r2
     f7c:	00002680 	call	268 <LCD_WR_CMD>
     f80:	008000b4 	movhi	r2,2
     f84:	10ae6c04 	addi	r2,r2,-18000
     f88:	1080000b 	ldhu	r2,0(r2)
     f8c:	10bfffcc 	andi	r2,r2,65535
     f90:	10bfffc4 	addi	r2,r2,-1
     f94:	1005d23a 	srai	r2,r2,8
     f98:	10bfffcc 	andi	r2,r2,65535
     f9c:	1009883a 	mov	r4,r2
     fa0:	00002ec0 	call	2ec <LCD_WR_DATA>
     fa4:	008000b4 	movhi	r2,2
     fa8:	10ae6c04 	addi	r2,r2,-18000
     fac:	1080028b 	ldhu	r2,10(r2)
     fb0:	108000c4 	addi	r2,r2,3
     fb4:	10bfffcc 	andi	r2,r2,65535
     fb8:	1009883a 	mov	r4,r2
     fbc:	00002680 	call	268 <LCD_WR_CMD>
     fc0:	008000b4 	movhi	r2,2
     fc4:	10ae6c04 	addi	r2,r2,-18000
     fc8:	1080000b 	ldhu	r2,0(r2)
     fcc:	10bfffc4 	addi	r2,r2,-1
     fd0:	10bfffcc 	andi	r2,r2,65535
     fd4:	10803fcc 	andi	r2,r2,255
     fd8:	1009883a 	mov	r4,r2
     fdc:	00002ec0 	call	2ec <LCD_WR_DATA>
     fe0:	008000b4 	movhi	r2,2
     fe4:	10ae6c04 	addi	r2,r2,-18000
     fe8:	1080030b 	ldhu	r2,12(r2)
     fec:	10bfffcc 	andi	r2,r2,65535
     ff0:	1009883a 	mov	r4,r2
     ff4:	00002680 	call	268 <LCD_WR_CMD>
     ff8:	0009883a 	mov	r4,zero
     ffc:	00002ec0 	call	2ec <LCD_WR_DATA>
    1000:	008000b4 	movhi	r2,2
    1004:	10ae6c04 	addi	r2,r2,-18000
    1008:	1080030b 	ldhu	r2,12(r2)
    100c:	10800044 	addi	r2,r2,1
    1010:	10bfffcc 	andi	r2,r2,65535
    1014:	1009883a 	mov	r4,r2
    1018:	00002680 	call	268 <LCD_WR_CMD>
    101c:	0009883a 	mov	r4,zero
    1020:	00002ec0 	call	2ec <LCD_WR_DATA>
    1024:	008000b4 	movhi	r2,2
    1028:	10ae6c04 	addi	r2,r2,-18000
    102c:	1080030b 	ldhu	r2,12(r2)
    1030:	10800084 	addi	r2,r2,2
    1034:	10bfffcc 	andi	r2,r2,65535
    1038:	1009883a 	mov	r4,r2
    103c:	00002680 	call	268 <LCD_WR_CMD>
    1040:	008000b4 	movhi	r2,2
    1044:	10ae6c04 	addi	r2,r2,-18000
    1048:	1080008b 	ldhu	r2,2(r2)
    104c:	10bfffcc 	andi	r2,r2,65535
    1050:	10bfffc4 	addi	r2,r2,-1
    1054:	1005d23a 	srai	r2,r2,8
    1058:	10bfffcc 	andi	r2,r2,65535
    105c:	1009883a 	mov	r4,r2
    1060:	00002ec0 	call	2ec <LCD_WR_DATA>
    1064:	008000b4 	movhi	r2,2
    1068:	10ae6c04 	addi	r2,r2,-18000
    106c:	1080030b 	ldhu	r2,12(r2)
    1070:	108000c4 	addi	r2,r2,3
    1074:	10bfffcc 	andi	r2,r2,65535
    1078:	1009883a 	mov	r4,r2
    107c:	00002680 	call	268 <LCD_WR_CMD>
    1080:	008000b4 	movhi	r2,2
    1084:	10ae6c04 	addi	r2,r2,-18000
    1088:	1080008b 	ldhu	r2,2(r2)
    108c:	10bfffc4 	addi	r2,r2,-1
    1090:	10bfffcc 	andi	r2,r2,65535
    1094:	10803fcc 	andi	r2,r2,255
    1098:	1009883a 	mov	r4,r2
    109c:	00002ec0 	call	2ec <LCD_WR_DATA>
    10a0:	00003606 	br	117c <LCD_Scan_Dir+0x624>
    10a4:	008000b4 	movhi	r2,2
    10a8:	10ae6c04 	addi	r2,r2,-18000
    10ac:	1080028b 	ldhu	r2,10(r2)
    10b0:	10bfffcc 	andi	r2,r2,65535
    10b4:	1009883a 	mov	r4,r2
    10b8:	00002680 	call	268 <LCD_WR_CMD>
    10bc:	0009883a 	mov	r4,zero
    10c0:	00002ec0 	call	2ec <LCD_WR_DATA>
    10c4:	0009883a 	mov	r4,zero
    10c8:	00002ec0 	call	2ec <LCD_WR_DATA>
    10cc:	008000b4 	movhi	r2,2
    10d0:	10ae6c04 	addi	r2,r2,-18000
    10d4:	1080000b 	ldhu	r2,0(r2)
    10d8:	10bfffcc 	andi	r2,r2,65535
    10dc:	10bfffc4 	addi	r2,r2,-1
    10e0:	1005d23a 	srai	r2,r2,8
    10e4:	10bfffcc 	andi	r2,r2,65535
    10e8:	1009883a 	mov	r4,r2
    10ec:	00002ec0 	call	2ec <LCD_WR_DATA>
    10f0:	008000b4 	movhi	r2,2
    10f4:	10ae6c04 	addi	r2,r2,-18000
    10f8:	1080000b 	ldhu	r2,0(r2)
    10fc:	10bfffc4 	addi	r2,r2,-1
    1100:	10bfffcc 	andi	r2,r2,65535
    1104:	10803fcc 	andi	r2,r2,255
    1108:	1009883a 	mov	r4,r2
    110c:	00002ec0 	call	2ec <LCD_WR_DATA>
    1110:	008000b4 	movhi	r2,2
    1114:	10ae6c04 	addi	r2,r2,-18000
    1118:	1080030b 	ldhu	r2,12(r2)
    111c:	10bfffcc 	andi	r2,r2,65535
    1120:	1009883a 	mov	r4,r2
    1124:	00002680 	call	268 <LCD_WR_CMD>
    1128:	0009883a 	mov	r4,zero
    112c:	00002ec0 	call	2ec <LCD_WR_DATA>
    1130:	0009883a 	mov	r4,zero
    1134:	00002ec0 	call	2ec <LCD_WR_DATA>
    1138:	008000b4 	movhi	r2,2
    113c:	10ae6c04 	addi	r2,r2,-18000
    1140:	1080008b 	ldhu	r2,2(r2)
    1144:	10bfffcc 	andi	r2,r2,65535
    1148:	10bfffc4 	addi	r2,r2,-1
    114c:	1005d23a 	srai	r2,r2,8
    1150:	10bfffcc 	andi	r2,r2,65535
    1154:	1009883a 	mov	r4,r2
    1158:	00002ec0 	call	2ec <LCD_WR_DATA>
    115c:	008000b4 	movhi	r2,2
    1160:	10ae6c04 	addi	r2,r2,-18000
    1164:	1080008b 	ldhu	r2,2(r2)
    1168:	10bfffc4 	addi	r2,r2,-1
    116c:	10bfffcc 	andi	r2,r2,65535
    1170:	10803fcc 	andi	r2,r2,255
    1174:	1009883a 	mov	r4,r2
    1178:	00002ec0 	call	2ec <LCD_WR_DATA>
    117c:	e037883a 	mov	sp,fp
    1180:	dfc00117 	ldw	ra,4(sp)
    1184:	df000017 	ldw	fp,0(sp)
    1188:	dec00204 	addi	sp,sp,8
    118c:	f800283a 	ret

00001190 <LCD_DrawPoint>:
    1190:	defffc04 	addi	sp,sp,-16
    1194:	dfc00315 	stw	ra,12(sp)
    1198:	df000215 	stw	fp,8(sp)
    119c:	df000204 	addi	fp,sp,8
    11a0:	2007883a 	mov	r3,r4
    11a4:	2805883a 	mov	r2,r5
    11a8:	e0fffe0d 	sth	r3,-8(fp)
    11ac:	e0bfff0d 	sth	r2,-4(fp)
    11b0:	e0fffe0b 	ldhu	r3,-8(fp)
    11b4:	e0bfff0b 	ldhu	r2,-4(fp)
    11b8:	1809883a 	mov	r4,r3
    11bc:	100b883a 	mov	r5,r2
    11c0:	00008140 	call	814 <LCD_SetCursor>
    11c4:	00004740 	call	474 <LCD_WriteRAM_Prepare>
    11c8:	d0a00017 	ldw	r2,-32768(gp)
    11cc:	10bfffcc 	andi	r2,r2,65535
    11d0:	1009883a 	mov	r4,r2
    11d4:	00002ec0 	call	2ec <LCD_WR_DATA>
    11d8:	e037883a 	mov	sp,fp
    11dc:	dfc00117 	ldw	ra,4(sp)
    11e0:	df000017 	ldw	fp,0(sp)
    11e4:	dec00204 	addi	sp,sp,8
    11e8:	f800283a 	ret

000011ec <LCD_Fast_DrawPoint>:
    11ec:	defffb04 	addi	sp,sp,-20
    11f0:	dfc00415 	stw	ra,16(sp)
    11f4:	df000315 	stw	fp,12(sp)
    11f8:	df000304 	addi	fp,sp,12
    11fc:	2007883a 	mov	r3,r4
    1200:	2805883a 	mov	r2,r5
    1204:	e1bfff15 	stw	r6,-4(fp)
    1208:	e0fffd0d 	sth	r3,-12(fp)
    120c:	e0bffe0d 	sth	r2,-8(fp)
    1210:	008000b4 	movhi	r2,2
    1214:	10ae6c04 	addi	r2,r2,-18000
    1218:	1080010b 	ldhu	r2,4(r2)
    121c:	10ffffcc 	andi	r3,r2,65535
    1220:	00a4d054 	movui	r2,37697
    1224:	18800626 	beq	r3,r2,1240 <LCD_Fast_DrawPoint+0x54>
    1228:	008000b4 	movhi	r2,2
    122c:	10ae6c04 	addi	r2,r2,-18000
    1230:	1080010b 	ldhu	r2,4(r2)
    1234:	10bfffcc 	andi	r2,r2,65535
    1238:	1094c418 	cmpnei	r2,r2,21264
    123c:	10001f1e 	bne	r2,zero,12bc <LCD_Fast_DrawPoint+0xd0>
    1240:	008000b4 	movhi	r2,2
    1244:	10ae6c04 	addi	r2,r2,-18000
    1248:	1080028b 	ldhu	r2,10(r2)
    124c:	10bfffcc 	andi	r2,r2,65535
    1250:	1009883a 	mov	r4,r2
    1254:	00002680 	call	268 <LCD_WR_CMD>
    1258:	e0bffd0b 	ldhu	r2,-12(fp)
    125c:	1004d23a 	srli	r2,r2,8
    1260:	10bfffcc 	andi	r2,r2,65535
    1264:	1009883a 	mov	r4,r2
    1268:	00002ec0 	call	2ec <LCD_WR_DATA>
    126c:	e0bffd0b 	ldhu	r2,-12(fp)
    1270:	10803fcc 	andi	r2,r2,255
    1274:	1009883a 	mov	r4,r2
    1278:	00002ec0 	call	2ec <LCD_WR_DATA>
    127c:	008000b4 	movhi	r2,2
    1280:	10ae6c04 	addi	r2,r2,-18000
    1284:	1080030b 	ldhu	r2,12(r2)
    1288:	10bfffcc 	andi	r2,r2,65535
    128c:	1009883a 	mov	r4,r2
    1290:	00002680 	call	268 <LCD_WR_CMD>
    1294:	e0bffe0b 	ldhu	r2,-8(fp)
    1298:	1004d23a 	srli	r2,r2,8
    129c:	10bfffcc 	andi	r2,r2,65535
    12a0:	1009883a 	mov	r4,r2
    12a4:	00002ec0 	call	2ec <LCD_WR_DATA>
    12a8:	e0bffe0b 	ldhu	r2,-8(fp)
    12ac:	10803fcc 	andi	r2,r2,255
    12b0:	1009883a 	mov	r4,r2
    12b4:	00002ec0 	call	2ec <LCD_WR_DATA>
    12b8:	00007506 	br	1490 <LCD_Fast_DrawPoint+0x2a4>
    12bc:	008000b4 	movhi	r2,2
    12c0:	10ae6c04 	addi	r2,r2,-18000
    12c4:	1080010b 	ldhu	r2,4(r2)
    12c8:	10bfffcc 	andi	r2,r2,65535
    12cc:	10954418 	cmpnei	r2,r2,21776
    12d0:	10002d1e 	bne	r2,zero,1388 <LCD_Fast_DrawPoint+0x19c>
    12d4:	008000b4 	movhi	r2,2
    12d8:	10ae6c04 	addi	r2,r2,-18000
    12dc:	1080028b 	ldhu	r2,10(r2)
    12e0:	10bfffcc 	andi	r2,r2,65535
    12e4:	1009883a 	mov	r4,r2
    12e8:	00002680 	call	268 <LCD_WR_CMD>
    12ec:	e0bffd0b 	ldhu	r2,-12(fp)
    12f0:	1004d23a 	srli	r2,r2,8
    12f4:	10bfffcc 	andi	r2,r2,65535
    12f8:	1009883a 	mov	r4,r2
    12fc:	00002ec0 	call	2ec <LCD_WR_DATA>
    1300:	008000b4 	movhi	r2,2
    1304:	10ae6c04 	addi	r2,r2,-18000
    1308:	1080028b 	ldhu	r2,10(r2)
    130c:	10800044 	addi	r2,r2,1
    1310:	10bfffcc 	andi	r2,r2,65535
    1314:	1009883a 	mov	r4,r2
    1318:	00002680 	call	268 <LCD_WR_CMD>
    131c:	e0bffd0b 	ldhu	r2,-12(fp)
    1320:	10803fcc 	andi	r2,r2,255
    1324:	1009883a 	mov	r4,r2
    1328:	00002ec0 	call	2ec <LCD_WR_DATA>
    132c:	008000b4 	movhi	r2,2
    1330:	10ae6c04 	addi	r2,r2,-18000
    1334:	1080030b 	ldhu	r2,12(r2)
    1338:	10bfffcc 	andi	r2,r2,65535
    133c:	1009883a 	mov	r4,r2
    1340:	00002680 	call	268 <LCD_WR_CMD>
    1344:	e0bffe0b 	ldhu	r2,-8(fp)
    1348:	1004d23a 	srli	r2,r2,8
    134c:	10bfffcc 	andi	r2,r2,65535
    1350:	1009883a 	mov	r4,r2
    1354:	00002ec0 	call	2ec <LCD_WR_DATA>
    1358:	008000b4 	movhi	r2,2
    135c:	10ae6c04 	addi	r2,r2,-18000
    1360:	1080030b 	ldhu	r2,12(r2)
    1364:	10800044 	addi	r2,r2,1
    1368:	10bfffcc 	andi	r2,r2,65535
    136c:	1009883a 	mov	r4,r2
    1370:	00002680 	call	268 <LCD_WR_CMD>
    1374:	e0bffe0b 	ldhu	r2,-8(fp)
    1378:	10803fcc 	andi	r2,r2,255
    137c:	1009883a 	mov	r4,r2
    1380:	00002ec0 	call	2ec <LCD_WR_DATA>
    1384:	00004206 	br	1490 <LCD_Fast_DrawPoint+0x2a4>
    1388:	008000b4 	movhi	r2,2
    138c:	10ae6c04 	addi	r2,r2,-18000
    1390:	1080010b 	ldhu	r2,4(r2)
    1394:	10bfffcc 	andi	r2,r2,65535
    1398:	108658d8 	cmpnei	r2,r2,6499
    139c:	10003c1e 	bne	r2,zero,1490 <LCD_Fast_DrawPoint+0x2a4>
    13a0:	008000b4 	movhi	r2,2
    13a4:	10ae6c04 	addi	r2,r2,-18000
    13a8:	10800183 	ldbu	r2,6(r2)
    13ac:	10803fcc 	andi	r2,r2,255
    13b0:	1000071e 	bne	r2,zero,13d0 <LCD_Fast_DrawPoint+0x1e4>
    13b4:	008000b4 	movhi	r2,2
    13b8:	10ae6c04 	addi	r2,r2,-18000
    13bc:	10c0000b 	ldhu	r3,0(r2)
    13c0:	e0bffd0b 	ldhu	r2,-12(fp)
    13c4:	1885c83a 	sub	r2,r3,r2
    13c8:	10bfffc4 	addi	r2,r2,-1
    13cc:	e0bffd0d 	sth	r2,-12(fp)
    13d0:	008000b4 	movhi	r2,2
    13d4:	10ae6c04 	addi	r2,r2,-18000
    13d8:	1080028b 	ldhu	r2,10(r2)
    13dc:	10bfffcc 	andi	r2,r2,65535
    13e0:	1009883a 	mov	r4,r2
    13e4:	00002680 	call	268 <LCD_WR_CMD>
    13e8:	e0bffd0b 	ldhu	r2,-12(fp)
    13ec:	1004d23a 	srli	r2,r2,8
    13f0:	10bfffcc 	andi	r2,r2,65535
    13f4:	1009883a 	mov	r4,r2
    13f8:	00002ec0 	call	2ec <LCD_WR_DATA>
    13fc:	e0bffd0b 	ldhu	r2,-12(fp)
    1400:	10803fcc 	andi	r2,r2,255
    1404:	1009883a 	mov	r4,r2
    1408:	00002ec0 	call	2ec <LCD_WR_DATA>
    140c:	e0bffd0b 	ldhu	r2,-12(fp)
    1410:	1004d23a 	srli	r2,r2,8
    1414:	10bfffcc 	andi	r2,r2,65535
    1418:	1009883a 	mov	r4,r2
    141c:	00002ec0 	call	2ec <LCD_WR_DATA>
    1420:	e0bffd0b 	ldhu	r2,-12(fp)
    1424:	10803fcc 	andi	r2,r2,255
    1428:	1009883a 	mov	r4,r2
    142c:	00002ec0 	call	2ec <LCD_WR_DATA>
    1430:	008000b4 	movhi	r2,2
    1434:	10ae6c04 	addi	r2,r2,-18000
    1438:	1080030b 	ldhu	r2,12(r2)
    143c:	10bfffcc 	andi	r2,r2,65535
    1440:	1009883a 	mov	r4,r2
    1444:	00002680 	call	268 <LCD_WR_CMD>
    1448:	e0bffe0b 	ldhu	r2,-8(fp)
    144c:	1004d23a 	srli	r2,r2,8
    1450:	10bfffcc 	andi	r2,r2,65535
    1454:	1009883a 	mov	r4,r2
    1458:	00002ec0 	call	2ec <LCD_WR_DATA>
    145c:	e0bffe0b 	ldhu	r2,-8(fp)
    1460:	10803fcc 	andi	r2,r2,255
    1464:	1009883a 	mov	r4,r2
    1468:	00002ec0 	call	2ec <LCD_WR_DATA>
    146c:	e0bffe0b 	ldhu	r2,-8(fp)
    1470:	1004d23a 	srli	r2,r2,8
    1474:	10bfffcc 	andi	r2,r2,65535
    1478:	1009883a 	mov	r4,r2
    147c:	00002ec0 	call	2ec <LCD_WR_DATA>
    1480:	e0bffe0b 	ldhu	r2,-8(fp)
    1484:	10803fcc 	andi	r2,r2,255
    1488:	1009883a 	mov	r4,r2
    148c:	00002ec0 	call	2ec <LCD_WR_DATA>
    1490:	008000b4 	movhi	r2,2
    1494:	10ae6c04 	addi	r2,r2,-18000
    1498:	1080020b 	ldhu	r2,8(r2)
    149c:	10bfffcc 	andi	r2,r2,65535
    14a0:	1009883a 	mov	r4,r2
    14a4:	00002680 	call	268 <LCD_WR_CMD>
    14a8:	e0bfff17 	ldw	r2,-4(fp)
    14ac:	10bfffcc 	andi	r2,r2,65535
    14b0:	1009883a 	mov	r4,r2
    14b4:	00002ec0 	call	2ec <LCD_WR_DATA>
    14b8:	e037883a 	mov	sp,fp
    14bc:	dfc00117 	ldw	ra,4(sp)
    14c0:	df000017 	ldw	fp,0(sp)
    14c4:	dec00204 	addi	sp,sp,8
    14c8:	f800283a 	ret

000014cc <LCD_SSD_BackLightSet>:
    14cc:	defffd04 	addi	sp,sp,-12
    14d0:	dfc00215 	stw	ra,8(sp)
    14d4:	df000115 	stw	fp,4(sp)
    14d8:	df000104 	addi	fp,sp,4
    14dc:	2005883a 	mov	r2,r4
    14e0:	e0bfff05 	stb	r2,-4(fp)
    14e4:	01002f84 	movi	r4,190
    14e8:	00002680 	call	268 <LCD_WR_CMD>
    14ec:	01000144 	movi	r4,5
    14f0:	00002ec0 	call	2ec <LCD_WR_DATA>
    14f4:	e0bfff03 	ldbu	r2,-4(fp)
    14f8:	1009883a 	mov	r4,r2
    14fc:	0008cc40 	call	8cc4 <__floatsidf>
    1500:	100b883a 	mov	r5,r2
    1504:	180d883a 	mov	r6,r3
    1508:	2809883a 	mov	r4,r5
    150c:	300b883a 	mov	r5,r6
    1510:	019999b4 	movhi	r6,26214
    1514:	31999984 	addi	r6,r6,26214
    1518:	01d00134 	movhi	r7,16388
    151c:	39d99984 	addi	r7,r7,26214
    1520:	000897c0 	call	897c <__muldf3>
    1524:	1009883a 	mov	r4,r2
    1528:	180b883a 	mov	r5,r3
    152c:	2005883a 	mov	r2,r4
    1530:	2807883a 	mov	r3,r5
    1534:	1009883a 	mov	r4,r2
    1538:	180b883a 	mov	r5,r3
    153c:	00084f00 	call	84f0 <__fixunsdfsi>
    1540:	10bfffcc 	andi	r2,r2,65535
    1544:	1009883a 	mov	r4,r2
    1548:	00002ec0 	call	2ec <LCD_WR_DATA>
    154c:	01000044 	movi	r4,1
    1550:	00002ec0 	call	2ec <LCD_WR_DATA>
    1554:	01003fc4 	movi	r4,255
    1558:	00002ec0 	call	2ec <LCD_WR_DATA>
    155c:	0009883a 	mov	r4,zero
    1560:	00002ec0 	call	2ec <LCD_WR_DATA>
    1564:	0009883a 	mov	r4,zero
    1568:	00002ec0 	call	2ec <LCD_WR_DATA>
    156c:	e037883a 	mov	sp,fp
    1570:	dfc00117 	ldw	ra,4(sp)
    1574:	df000017 	ldw	fp,0(sp)
    1578:	dec00204 	addi	sp,sp,8
    157c:	f800283a 	ret

00001580 <LCD_Display_Dir>:
    1580:	defffd04 	addi	sp,sp,-12
    1584:	dfc00215 	stw	ra,8(sp)
    1588:	df000115 	stw	fp,4(sp)
    158c:	df000104 	addi	fp,sp,4
    1590:	2005883a 	mov	r2,r4
    1594:	e0bfff05 	stb	r2,-4(fp)
    1598:	008000b4 	movhi	r2,2
    159c:	10ae6c04 	addi	r2,r2,-18000
    15a0:	e0ffff03 	ldbu	r3,-4(fp)
    15a4:	10c00185 	stb	r3,6(r2)
    15a8:	e0bfff03 	ldbu	r2,-4(fp)
    15ac:	1000661e 	bne	r2,zero,1748 <LCD_Display_Dir+0x1c8>
    15b0:	008000b4 	movhi	r2,2
    15b4:	10ae6c04 	addi	r2,r2,-18000
    15b8:	00c03c04 	movi	r3,240
    15bc:	10c0000d 	sth	r3,0(r2)
    15c0:	008000b4 	movhi	r2,2
    15c4:	10ae6c04 	addi	r2,r2,-18000
    15c8:	00c05004 	movi	r3,320
    15cc:	10c0008d 	sth	r3,2(r2)
    15d0:	008000b4 	movhi	r2,2
    15d4:	10ae6c04 	addi	r2,r2,-18000
    15d8:	1080010b 	ldhu	r2,4(r2)
    15dc:	10ffffcc 	andi	r3,r2,65535
    15e0:	00a4d054 	movui	r2,37697
    15e4:	18800626 	beq	r3,r2,1600 <LCD_Display_Dir+0x80>
    15e8:	008000b4 	movhi	r2,2
    15ec:	10ae6c04 	addi	r2,r2,-18000
    15f0:	1080010b 	ldhu	r2,4(r2)
    15f4:	10bfffcc 	andi	r2,r2,65535
    15f8:	1094c418 	cmpnei	r2,r2,21264
    15fc:	10001c1e 	bne	r2,zero,1670 <LCD_Display_Dir+0xf0>
    1600:	008000b4 	movhi	r2,2
    1604:	10ae6c04 	addi	r2,r2,-18000
    1608:	00c00b04 	movi	r3,44
    160c:	10c0020d 	sth	r3,8(r2)
    1610:	008000b4 	movhi	r2,2
    1614:	10ae6c04 	addi	r2,r2,-18000
    1618:	00c00a84 	movi	r3,42
    161c:	10c0028d 	sth	r3,10(r2)
    1620:	008000b4 	movhi	r2,2
    1624:	10ae6c04 	addi	r2,r2,-18000
    1628:	00c00ac4 	movi	r3,43
    162c:	10c0030d 	sth	r3,12(r2)
    1630:	008000b4 	movhi	r2,2
    1634:	10ae6c04 	addi	r2,r2,-18000
    1638:	1080010b 	ldhu	r2,4(r2)
    163c:	10bfffcc 	andi	r2,r2,65535
    1640:	1094c418 	cmpnei	r2,r2,21264
    1644:	1000a61e 	bne	r2,zero,18e0 <LCD_Display_Dir+0x360>
    1648:	008000b4 	movhi	r2,2
    164c:	10ae6c04 	addi	r2,r2,-18000
    1650:	00c05004 	movi	r3,320
    1654:	10c0000d 	sth	r3,0(r2)
    1658:	008000b4 	movhi	r2,2
    165c:	10ae6c04 	addi	r2,r2,-18000
    1660:	00c07804 	movi	r3,480
    1664:	10c0008d 	sth	r3,2(r2)
    1668:	0001883a 	nop
    166c:	00009c06 	br	18e0 <LCD_Display_Dir+0x360>
    1670:	008000b4 	movhi	r2,2
    1674:	10ae6c04 	addi	r2,r2,-18000
    1678:	1080010b 	ldhu	r2,4(r2)
    167c:	10bfffcc 	andi	r2,r2,65535
    1680:	10954418 	cmpnei	r2,r2,21776
    1684:	1000151e 	bne	r2,zero,16dc <LCD_Display_Dir+0x15c>
    1688:	008000b4 	movhi	r2,2
    168c:	10ae6c04 	addi	r2,r2,-18000
    1690:	00cb0004 	movi	r3,11264
    1694:	10c0020d 	sth	r3,8(r2)
    1698:	008000b4 	movhi	r2,2
    169c:	10ae6c04 	addi	r2,r2,-18000
    16a0:	00ca8004 	movi	r3,10752
    16a4:	10c0028d 	sth	r3,10(r2)
    16a8:	008000b4 	movhi	r2,2
    16ac:	10ae6c04 	addi	r2,r2,-18000
    16b0:	00cac004 	movi	r3,11008
    16b4:	10c0030d 	sth	r3,12(r2)
    16b8:	008000b4 	movhi	r2,2
    16bc:	10ae6c04 	addi	r2,r2,-18000
    16c0:	00c07804 	movi	r3,480
    16c4:	10c0000d 	sth	r3,0(r2)
    16c8:	008000b4 	movhi	r2,2
    16cc:	10ae6c04 	addi	r2,r2,-18000
    16d0:	00c0c804 	movi	r3,800
    16d4:	10c0008d 	sth	r3,2(r2)
    16d8:	00008006 	br	18dc <LCD_Display_Dir+0x35c>
    16dc:	008000b4 	movhi	r2,2
    16e0:	10ae6c04 	addi	r2,r2,-18000
    16e4:	1080010b 	ldhu	r2,4(r2)
    16e8:	10bfffcc 	andi	r2,r2,65535
    16ec:	108658d8 	cmpnei	r2,r2,6499
    16f0:	10007a1e 	bne	r2,zero,18dc <LCD_Display_Dir+0x35c>
    16f4:	008000b4 	movhi	r2,2
    16f8:	10ae6c04 	addi	r2,r2,-18000
    16fc:	00c00b04 	movi	r3,44
    1700:	10c0020d 	sth	r3,8(r2)
    1704:	008000b4 	movhi	r2,2
    1708:	10ae6c04 	addi	r2,r2,-18000
    170c:	00c00ac4 	movi	r3,43
    1710:	10c0028d 	sth	r3,10(r2)
    1714:	008000b4 	movhi	r2,2
    1718:	10ae6c04 	addi	r2,r2,-18000
    171c:	00c00a84 	movi	r3,42
    1720:	10c0030d 	sth	r3,12(r2)
    1724:	008000b4 	movhi	r2,2
    1728:	10ae6c04 	addi	r2,r2,-18000
    172c:	00c07804 	movi	r3,480
    1730:	10c0000d 	sth	r3,0(r2)
    1734:	008000b4 	movhi	r2,2
    1738:	10ae6c04 	addi	r2,r2,-18000
    173c:	00c0c804 	movi	r3,800
    1740:	10c0008d 	sth	r3,2(r2)
    1744:	00006506 	br	18dc <LCD_Display_Dir+0x35c>
    1748:	008000b4 	movhi	r2,2
    174c:	10ae6c04 	addi	r2,r2,-18000
    1750:	00c05004 	movi	r3,320
    1754:	10c0000d 	sth	r3,0(r2)
    1758:	008000b4 	movhi	r2,2
    175c:	10ae6c04 	addi	r2,r2,-18000
    1760:	00c03c04 	movi	r3,240
    1764:	10c0008d 	sth	r3,2(r2)
    1768:	008000b4 	movhi	r2,2
    176c:	10ae6c04 	addi	r2,r2,-18000
    1770:	1080010b 	ldhu	r2,4(r2)
    1774:	10ffffcc 	andi	r3,r2,65535
    1778:	00a4d054 	movui	r2,37697
    177c:	18800626 	beq	r3,r2,1798 <LCD_Display_Dir+0x218>
    1780:	008000b4 	movhi	r2,2
    1784:	10ae6c04 	addi	r2,r2,-18000
    1788:	1080010b 	ldhu	r2,4(r2)
    178c:	10bfffcc 	andi	r2,r2,65535
    1790:	1094c418 	cmpnei	r2,r2,21264
    1794:	10000d1e 	bne	r2,zero,17cc <LCD_Display_Dir+0x24c>
    1798:	008000b4 	movhi	r2,2
    179c:	10ae6c04 	addi	r2,r2,-18000
    17a0:	00c00b04 	movi	r3,44
    17a4:	10c0020d 	sth	r3,8(r2)
    17a8:	008000b4 	movhi	r2,2
    17ac:	10ae6c04 	addi	r2,r2,-18000
    17b0:	00c00a84 	movi	r3,42
    17b4:	10c0028d 	sth	r3,10(r2)
    17b8:	008000b4 	movhi	r2,2
    17bc:	10ae6c04 	addi	r2,r2,-18000
    17c0:	00c00ac4 	movi	r3,43
    17c4:	10c0030d 	sth	r3,12(r2)
    17c8:	00003506 	br	18a0 <LCD_Display_Dir+0x320>
    17cc:	008000b4 	movhi	r2,2
    17d0:	10ae6c04 	addi	r2,r2,-18000
    17d4:	1080010b 	ldhu	r2,4(r2)
    17d8:	10bfffcc 	andi	r2,r2,65535
    17dc:	10954418 	cmpnei	r2,r2,21776
    17e0:	1000151e 	bne	r2,zero,1838 <LCD_Display_Dir+0x2b8>
    17e4:	008000b4 	movhi	r2,2
    17e8:	10ae6c04 	addi	r2,r2,-18000
    17ec:	00cb0004 	movi	r3,11264
    17f0:	10c0020d 	sth	r3,8(r2)
    17f4:	008000b4 	movhi	r2,2
    17f8:	10ae6c04 	addi	r2,r2,-18000
    17fc:	00ca8004 	movi	r3,10752
    1800:	10c0028d 	sth	r3,10(r2)
    1804:	008000b4 	movhi	r2,2
    1808:	10ae6c04 	addi	r2,r2,-18000
    180c:	00cac004 	movi	r3,11008
    1810:	10c0030d 	sth	r3,12(r2)
    1814:	008000b4 	movhi	r2,2
    1818:	10ae6c04 	addi	r2,r2,-18000
    181c:	00c0c804 	movi	r3,800
    1820:	10c0000d 	sth	r3,0(r2)
    1824:	008000b4 	movhi	r2,2
    1828:	10ae6c04 	addi	r2,r2,-18000
    182c:	00c07804 	movi	r3,480
    1830:	10c0008d 	sth	r3,2(r2)
    1834:	00001a06 	br	18a0 <LCD_Display_Dir+0x320>
    1838:	008000b4 	movhi	r2,2
    183c:	10ae6c04 	addi	r2,r2,-18000
    1840:	1080010b 	ldhu	r2,4(r2)
    1844:	10bfffcc 	andi	r2,r2,65535
    1848:	108658d8 	cmpnei	r2,r2,6499
    184c:	1000141e 	bne	r2,zero,18a0 <LCD_Display_Dir+0x320>
    1850:	008000b4 	movhi	r2,2
    1854:	10ae6c04 	addi	r2,r2,-18000
    1858:	00c00b04 	movi	r3,44
    185c:	10c0020d 	sth	r3,8(r2)
    1860:	008000b4 	movhi	r2,2
    1864:	10ae6c04 	addi	r2,r2,-18000
    1868:	00c00a84 	movi	r3,42
    186c:	10c0028d 	sth	r3,10(r2)
    1870:	008000b4 	movhi	r2,2
    1874:	10ae6c04 	addi	r2,r2,-18000
    1878:	00c00ac4 	movi	r3,43
    187c:	10c0030d 	sth	r3,12(r2)
    1880:	008000b4 	movhi	r2,2
    1884:	10ae6c04 	addi	r2,r2,-18000
    1888:	00c0c804 	movi	r3,800
    188c:	10c0000d 	sth	r3,0(r2)
    1890:	008000b4 	movhi	r2,2
    1894:	10ae6c04 	addi	r2,r2,-18000
    1898:	00c07804 	movi	r3,480
    189c:	10c0008d 	sth	r3,2(r2)
    18a0:	008000b4 	movhi	r2,2
    18a4:	10ae6c04 	addi	r2,r2,-18000
    18a8:	1080010b 	ldhu	r2,4(r2)
    18ac:	10bfffcc 	andi	r2,r2,65535
    18b0:	1094c418 	cmpnei	r2,r2,21264
    18b4:	10000a1e 	bne	r2,zero,18e0 <LCD_Display_Dir+0x360>
    18b8:	008000b4 	movhi	r2,2
    18bc:	10ae6c04 	addi	r2,r2,-18000
    18c0:	00c07804 	movi	r3,480
    18c4:	10c0000d 	sth	r3,0(r2)
    18c8:	008000b4 	movhi	r2,2
    18cc:	10ae6c04 	addi	r2,r2,-18000
    18d0:	00c05004 	movi	r3,320
    18d4:	10c0008d 	sth	r3,2(r2)
    18d8:	00000106 	br	18e0 <LCD_Display_Dir+0x360>
    18dc:	0001883a 	nop
    18e0:	0009883a 	mov	r4,zero
    18e4:	0000b580 	call	b58 <LCD_Scan_Dir>
    18e8:	e037883a 	mov	sp,fp
    18ec:	dfc00117 	ldw	ra,4(sp)
    18f0:	df000017 	ldw	fp,0(sp)
    18f4:	dec00204 	addi	sp,sp,8
    18f8:	f800283a 	ret

000018fc <LCD_Set_Window>:
    18fc:	defff904 	addi	sp,sp,-28
    1900:	dfc00615 	stw	ra,24(sp)
    1904:	df000515 	stw	fp,20(sp)
    1908:	df000504 	addi	fp,sp,20
    190c:	2011883a 	mov	r8,r4
    1910:	2809883a 	mov	r4,r5
    1914:	3007883a 	mov	r3,r6
    1918:	3805883a 	mov	r2,r7
    191c:	e23ffc0d 	sth	r8,-16(fp)
    1920:	e13ffd0d 	sth	r4,-12(fp)
    1924:	e0fffe0d 	sth	r3,-8(fp)
    1928:	e0bfff0d 	sth	r2,-4(fp)
    192c:	e0fffc0b 	ldhu	r3,-16(fp)
    1930:	e0bffe0b 	ldhu	r2,-8(fp)
    1934:	1885883a 	add	r2,r3,r2
    1938:	10bfffc4 	addi	r2,r2,-1
    193c:	e0bffb0d 	sth	r2,-20(fp)
    1940:	e0fffd0b 	ldhu	r3,-12(fp)
    1944:	e0bfff0b 	ldhu	r2,-4(fp)
    1948:	1885883a 	add	r2,r3,r2
    194c:	10bfffc4 	addi	r2,r2,-1
    1950:	e0bffb8d 	sth	r2,-18(fp)
    1954:	008000b4 	movhi	r2,2
    1958:	10ae6c04 	addi	r2,r2,-18000
    195c:	1080010b 	ldhu	r2,4(r2)
    1960:	10ffffcc 	andi	r3,r2,65535
    1964:	00a4d054 	movui	r2,37697
    1968:	18801226 	beq	r3,r2,19b4 <LCD_Set_Window+0xb8>
    196c:	008000b4 	movhi	r2,2
    1970:	10ae6c04 	addi	r2,r2,-18000
    1974:	1080010b 	ldhu	r2,4(r2)
    1978:	10bfffcc 	andi	r2,r2,65535
    197c:	1094c420 	cmpeqi	r2,r2,21264
    1980:	10000c1e 	bne	r2,zero,19b4 <LCD_Set_Window+0xb8>
    1984:	008000b4 	movhi	r2,2
    1988:	10ae6c04 	addi	r2,r2,-18000
    198c:	10800183 	ldbu	r2,6(r2)
    1990:	10803fcc 	andi	r2,r2,255
    1994:	10800058 	cmpnei	r2,r2,1
    1998:	1000371e 	bne	r2,zero,1a78 <LCD_Set_Window+0x17c>
    199c:	008000b4 	movhi	r2,2
    19a0:	10ae6c04 	addi	r2,r2,-18000
    19a4:	1080010b 	ldhu	r2,4(r2)
    19a8:	10bfffcc 	andi	r2,r2,65535
    19ac:	108658d8 	cmpnei	r2,r2,6499
    19b0:	1000311e 	bne	r2,zero,1a78 <LCD_Set_Window+0x17c>
    19b4:	008000b4 	movhi	r2,2
    19b8:	10ae6c04 	addi	r2,r2,-18000
    19bc:	1080028b 	ldhu	r2,10(r2)
    19c0:	10bfffcc 	andi	r2,r2,65535
    19c4:	1009883a 	mov	r4,r2
    19c8:	00002680 	call	268 <LCD_WR_CMD>
    19cc:	e0bffc0b 	ldhu	r2,-16(fp)
    19d0:	1004d23a 	srli	r2,r2,8
    19d4:	10bfffcc 	andi	r2,r2,65535
    19d8:	1009883a 	mov	r4,r2
    19dc:	00002ec0 	call	2ec <LCD_WR_DATA>
    19e0:	e0bffc0b 	ldhu	r2,-16(fp)
    19e4:	10803fcc 	andi	r2,r2,255
    19e8:	1009883a 	mov	r4,r2
    19ec:	00002ec0 	call	2ec <LCD_WR_DATA>
    19f0:	e0bffb0b 	ldhu	r2,-20(fp)
    19f4:	1004d23a 	srli	r2,r2,8
    19f8:	10bfffcc 	andi	r2,r2,65535
    19fc:	1009883a 	mov	r4,r2
    1a00:	00002ec0 	call	2ec <LCD_WR_DATA>
    1a04:	e0bffb0b 	ldhu	r2,-20(fp)
    1a08:	10803fcc 	andi	r2,r2,255
    1a0c:	1009883a 	mov	r4,r2
    1a10:	00002ec0 	call	2ec <LCD_WR_DATA>
    1a14:	008000b4 	movhi	r2,2
    1a18:	10ae6c04 	addi	r2,r2,-18000
    1a1c:	1080030b 	ldhu	r2,12(r2)
    1a20:	10bfffcc 	andi	r2,r2,65535
    1a24:	1009883a 	mov	r4,r2
    1a28:	00002680 	call	268 <LCD_WR_CMD>
    1a2c:	e0bffd0b 	ldhu	r2,-12(fp)
    1a30:	1004d23a 	srli	r2,r2,8
    1a34:	10bfffcc 	andi	r2,r2,65535
    1a38:	1009883a 	mov	r4,r2
    1a3c:	00002ec0 	call	2ec <LCD_WR_DATA>
    1a40:	e0bffd0b 	ldhu	r2,-12(fp)
    1a44:	10803fcc 	andi	r2,r2,255
    1a48:	1009883a 	mov	r4,r2
    1a4c:	00002ec0 	call	2ec <LCD_WR_DATA>
    1a50:	e0bffb8b 	ldhu	r2,-18(fp)
    1a54:	1004d23a 	srli	r2,r2,8
    1a58:	10bfffcc 	andi	r2,r2,65535
    1a5c:	1009883a 	mov	r4,r2
    1a60:	00002ec0 	call	2ec <LCD_WR_DATA>
    1a64:	e0bffb8b 	ldhu	r2,-18(fp)
    1a68:	10803fcc 	andi	r2,r2,255
    1a6c:	1009883a 	mov	r4,r2
    1a70:	00002ec0 	call	2ec <LCD_WR_DATA>
    1a74:	0000ac06 	br	1d28 <LCD_Set_Window+0x42c>
    1a78:	008000b4 	movhi	r2,2
    1a7c:	10ae6c04 	addi	r2,r2,-18000
    1a80:	1080010b 	ldhu	r2,4(r2)
    1a84:	10bfffcc 	andi	r2,r2,65535
    1a88:	108658d8 	cmpnei	r2,r2,6499
    1a8c:	1000461e 	bne	r2,zero,1ba8 <LCD_Set_Window+0x2ac>
    1a90:	008000b4 	movhi	r2,2
    1a94:	10ae6c04 	addi	r2,r2,-18000
    1a98:	10c0000b 	ldhu	r3,0(r2)
    1a9c:	e0bffe0b 	ldhu	r2,-8(fp)
    1aa0:	1885c83a 	sub	r2,r3,r2
    1aa4:	1007883a 	mov	r3,r2
    1aa8:	e0bffc0b 	ldhu	r2,-16(fp)
    1aac:	1885c83a 	sub	r2,r3,r2
    1ab0:	e0bffc0d 	sth	r2,-16(fp)
    1ab4:	e0fffd0b 	ldhu	r3,-12(fp)
    1ab8:	e0bfff0b 	ldhu	r2,-4(fp)
    1abc:	1885883a 	add	r2,r3,r2
    1ac0:	10bfffc4 	addi	r2,r2,-1
    1ac4:	e0bfff0d 	sth	r2,-4(fp)
    1ac8:	008000b4 	movhi	r2,2
    1acc:	10ae6c04 	addi	r2,r2,-18000
    1ad0:	1080028b 	ldhu	r2,10(r2)
    1ad4:	10bfffcc 	andi	r2,r2,65535
    1ad8:	1009883a 	mov	r4,r2
    1adc:	00002680 	call	268 <LCD_WR_CMD>
    1ae0:	e0bffc0b 	ldhu	r2,-16(fp)
    1ae4:	1004d23a 	srli	r2,r2,8
    1ae8:	10bfffcc 	andi	r2,r2,65535
    1aec:	1009883a 	mov	r4,r2
    1af0:	00002ec0 	call	2ec <LCD_WR_DATA>
    1af4:	e0bffc0b 	ldhu	r2,-16(fp)
    1af8:	10803fcc 	andi	r2,r2,255
    1afc:	1009883a 	mov	r4,r2
    1b00:	00002ec0 	call	2ec <LCD_WR_DATA>
    1b04:	e0fffc0b 	ldhu	r3,-16(fp)
    1b08:	e0bffe0b 	ldhu	r2,-8(fp)
    1b0c:	1885883a 	add	r2,r3,r2
    1b10:	10bfffc4 	addi	r2,r2,-1
    1b14:	1005d23a 	srai	r2,r2,8
    1b18:	10bfffcc 	andi	r2,r2,65535
    1b1c:	1009883a 	mov	r4,r2
    1b20:	00002ec0 	call	2ec <LCD_WR_DATA>
    1b24:	e0fffc0b 	ldhu	r3,-16(fp)
    1b28:	e0bffe0b 	ldhu	r2,-8(fp)
    1b2c:	1885883a 	add	r2,r3,r2
    1b30:	10bfffc4 	addi	r2,r2,-1
    1b34:	10bfffcc 	andi	r2,r2,65535
    1b38:	10803fcc 	andi	r2,r2,255
    1b3c:	1009883a 	mov	r4,r2
    1b40:	00002ec0 	call	2ec <LCD_WR_DATA>
    1b44:	008000b4 	movhi	r2,2
    1b48:	10ae6c04 	addi	r2,r2,-18000
    1b4c:	1080030b 	ldhu	r2,12(r2)
    1b50:	10bfffcc 	andi	r2,r2,65535
    1b54:	1009883a 	mov	r4,r2
    1b58:	00002680 	call	268 <LCD_WR_CMD>
    1b5c:	e0bffd0b 	ldhu	r2,-12(fp)
    1b60:	1004d23a 	srli	r2,r2,8
    1b64:	10bfffcc 	andi	r2,r2,65535
    1b68:	1009883a 	mov	r4,r2
    1b6c:	00002ec0 	call	2ec <LCD_WR_DATA>
    1b70:	e0bffd0b 	ldhu	r2,-12(fp)
    1b74:	10803fcc 	andi	r2,r2,255
    1b78:	1009883a 	mov	r4,r2
    1b7c:	00002ec0 	call	2ec <LCD_WR_DATA>
    1b80:	e0bfff0b 	ldhu	r2,-4(fp)
    1b84:	1004d23a 	srli	r2,r2,8
    1b88:	10bfffcc 	andi	r2,r2,65535
    1b8c:	1009883a 	mov	r4,r2
    1b90:	00002ec0 	call	2ec <LCD_WR_DATA>
    1b94:	e0bfff0b 	ldhu	r2,-4(fp)
    1b98:	10803fcc 	andi	r2,r2,255
    1b9c:	1009883a 	mov	r4,r2
    1ba0:	00002ec0 	call	2ec <LCD_WR_DATA>
    1ba4:	00006006 	br	1d28 <LCD_Set_Window+0x42c>
    1ba8:	008000b4 	movhi	r2,2
    1bac:	10ae6c04 	addi	r2,r2,-18000
    1bb0:	1080010b 	ldhu	r2,4(r2)
    1bb4:	10bfffcc 	andi	r2,r2,65535
    1bb8:	10954418 	cmpnei	r2,r2,21776
    1bbc:	10005a1e 	bne	r2,zero,1d28 <LCD_Set_Window+0x42c>
    1bc0:	008000b4 	movhi	r2,2
    1bc4:	10ae6c04 	addi	r2,r2,-18000
    1bc8:	1080028b 	ldhu	r2,10(r2)
    1bcc:	10bfffcc 	andi	r2,r2,65535
    1bd0:	1009883a 	mov	r4,r2
    1bd4:	00002680 	call	268 <LCD_WR_CMD>
    1bd8:	e0bffc0b 	ldhu	r2,-16(fp)
    1bdc:	1004d23a 	srli	r2,r2,8
    1be0:	10bfffcc 	andi	r2,r2,65535
    1be4:	1009883a 	mov	r4,r2
    1be8:	00002ec0 	call	2ec <LCD_WR_DATA>
    1bec:	008000b4 	movhi	r2,2
    1bf0:	10ae6c04 	addi	r2,r2,-18000
    1bf4:	1080028b 	ldhu	r2,10(r2)
    1bf8:	10800044 	addi	r2,r2,1
    1bfc:	10bfffcc 	andi	r2,r2,65535
    1c00:	1009883a 	mov	r4,r2
    1c04:	00002680 	call	268 <LCD_WR_CMD>
    1c08:	e0bffc0b 	ldhu	r2,-16(fp)
    1c0c:	10803fcc 	andi	r2,r2,255
    1c10:	1009883a 	mov	r4,r2
    1c14:	00002ec0 	call	2ec <LCD_WR_DATA>
    1c18:	008000b4 	movhi	r2,2
    1c1c:	10ae6c04 	addi	r2,r2,-18000
    1c20:	1080028b 	ldhu	r2,10(r2)
    1c24:	10800084 	addi	r2,r2,2
    1c28:	10bfffcc 	andi	r2,r2,65535
    1c2c:	1009883a 	mov	r4,r2
    1c30:	00002680 	call	268 <LCD_WR_CMD>
    1c34:	e0bffb0b 	ldhu	r2,-20(fp)
    1c38:	1004d23a 	srli	r2,r2,8
    1c3c:	10bfffcc 	andi	r2,r2,65535
    1c40:	1009883a 	mov	r4,r2
    1c44:	00002ec0 	call	2ec <LCD_WR_DATA>
    1c48:	008000b4 	movhi	r2,2
    1c4c:	10ae6c04 	addi	r2,r2,-18000
    1c50:	1080028b 	ldhu	r2,10(r2)
    1c54:	108000c4 	addi	r2,r2,3
    1c58:	10bfffcc 	andi	r2,r2,65535
    1c5c:	1009883a 	mov	r4,r2
    1c60:	00002680 	call	268 <LCD_WR_CMD>
    1c64:	e0bffb0b 	ldhu	r2,-20(fp)
    1c68:	10803fcc 	andi	r2,r2,255
    1c6c:	1009883a 	mov	r4,r2
    1c70:	00002ec0 	call	2ec <LCD_WR_DATA>
    1c74:	008000b4 	movhi	r2,2
    1c78:	10ae6c04 	addi	r2,r2,-18000
    1c7c:	1080030b 	ldhu	r2,12(r2)
    1c80:	10bfffcc 	andi	r2,r2,65535
    1c84:	1009883a 	mov	r4,r2
    1c88:	00002680 	call	268 <LCD_WR_CMD>
    1c8c:	e0bffd0b 	ldhu	r2,-12(fp)
    1c90:	1004d23a 	srli	r2,r2,8
    1c94:	10bfffcc 	andi	r2,r2,65535
    1c98:	1009883a 	mov	r4,r2
    1c9c:	00002ec0 	call	2ec <LCD_WR_DATA>
    1ca0:	008000b4 	movhi	r2,2
    1ca4:	10ae6c04 	addi	r2,r2,-18000
    1ca8:	1080030b 	ldhu	r2,12(r2)
    1cac:	10800044 	addi	r2,r2,1
    1cb0:	10bfffcc 	andi	r2,r2,65535
    1cb4:	1009883a 	mov	r4,r2
    1cb8:	00002680 	call	268 <LCD_WR_CMD>
    1cbc:	e0bffd0b 	ldhu	r2,-12(fp)
    1cc0:	10803fcc 	andi	r2,r2,255
    1cc4:	1009883a 	mov	r4,r2
    1cc8:	00002ec0 	call	2ec <LCD_WR_DATA>
    1ccc:	008000b4 	movhi	r2,2
    1cd0:	10ae6c04 	addi	r2,r2,-18000
    1cd4:	1080030b 	ldhu	r2,12(r2)
    1cd8:	10800084 	addi	r2,r2,2
    1cdc:	10bfffcc 	andi	r2,r2,65535
    1ce0:	1009883a 	mov	r4,r2
    1ce4:	00002680 	call	268 <LCD_WR_CMD>
    1ce8:	e0bffb8b 	ldhu	r2,-18(fp)
    1cec:	1004d23a 	srli	r2,r2,8
    1cf0:	10bfffcc 	andi	r2,r2,65535
    1cf4:	1009883a 	mov	r4,r2
    1cf8:	00002ec0 	call	2ec <LCD_WR_DATA>
    1cfc:	008000b4 	movhi	r2,2
    1d00:	10ae6c04 	addi	r2,r2,-18000
    1d04:	1080030b 	ldhu	r2,12(r2)
    1d08:	108000c4 	addi	r2,r2,3
    1d0c:	10bfffcc 	andi	r2,r2,65535
    1d10:	1009883a 	mov	r4,r2
    1d14:	00002680 	call	268 <LCD_WR_CMD>
    1d18:	e0bffb8b 	ldhu	r2,-18(fp)
    1d1c:	10803fcc 	andi	r2,r2,255
    1d20:	1009883a 	mov	r4,r2
    1d24:	00002ec0 	call	2ec <LCD_WR_DATA>
    1d28:	e037883a 	mov	sp,fp
    1d2c:	dfc00117 	ldw	ra,4(sp)
    1d30:	df000017 	ldw	fp,0(sp)
    1d34:	dec00204 	addi	sp,sp,8
    1d38:	f800283a 	ret

00001d3c <MCULCD_Init>:
    1d3c:	defffd04 	addi	sp,sp,-12
    1d40:	dfc00215 	stw	ra,8(sp)
    1d44:	df000115 	stw	fp,4(sp)
    1d48:	dc000015 	stw	r16,0(sp)
    1d4c:	d839883a 	mov	fp,sp
    1d50:	0007883a 	mov	r3,zero
    1d54:	00808034 	movhi	r2,512
    1d58:	10881804 	addi	r2,r2,8288
    1d5c:	10c00035 	stwio	r3,0(r2)
    1d60:	01001904 	movi	r4,100
    1d64:	00002000 	call	200 <delay_ms>
    1d68:	00c00044 	movi	r3,1
    1d6c:	00808034 	movhi	r2,512
    1d70:	10881804 	addi	r2,r2,8288
    1d74:	10c00035 	stwio	r3,0(r2)
    1d78:	00c00044 	movi	r3,1
    1d7c:	00808034 	movhi	r2,512
    1d80:	10882404 	addi	r2,r2,8336
    1d84:	10c00035 	stwio	r3,0(r2)
    1d88:	00c00044 	movi	r3,1
    1d8c:	00808034 	movhi	r2,512
    1d90:	10881c04 	addi	r2,r2,8304
    1d94:	10c00035 	stwio	r3,0(r2)
    1d98:	00c00044 	movi	r3,1
    1d9c:	00808034 	movhi	r2,512
    1da0:	10882004 	addi	r2,r2,8320
    1da4:	10c00035 	stwio	r3,0(r2)
    1da8:	0007883a 	mov	r3,zero
    1dac:	00808034 	movhi	r2,512
    1db0:	10882404 	addi	r2,r2,8336
    1db4:	10c00035 	stwio	r3,0(r2)
    1db8:	01000c84 	movi	r4,50
    1dbc:	00002000 	call	200 <delay_ms>
    1dc0:	010034c4 	movi	r4,211
    1dc4:	00002680 	call	268 <LCD_WR_CMD>
    1dc8:	00003600 	call	360 <LCD_RD_DATA>
    1dcc:	00c000b4 	movhi	r3,2
    1dd0:	18ee6c04 	addi	r3,r3,-18000
    1dd4:	1880010d 	sth	r2,4(r3)
    1dd8:	00003600 	call	360 <LCD_RD_DATA>
    1ddc:	00c000b4 	movhi	r3,2
    1de0:	18ee6c04 	addi	r3,r3,-18000
    1de4:	1880010d 	sth	r2,4(r3)
    1de8:	00003600 	call	360 <LCD_RD_DATA>
    1dec:	00c000b4 	movhi	r3,2
    1df0:	18ee6c04 	addi	r3,r3,-18000
    1df4:	1880010d 	sth	r2,4(r3)
    1df8:	008000b4 	movhi	r2,2
    1dfc:	10ae6c04 	addi	r2,r2,-18000
    1e00:	1080010b 	ldhu	r2,4(r2)
    1e04:	1004923a 	slli	r2,r2,8
    1e08:	1007883a 	mov	r3,r2
    1e0c:	008000b4 	movhi	r2,2
    1e10:	10ae6c04 	addi	r2,r2,-18000
    1e14:	10c0010d 	sth	r3,4(r2)
    1e18:	008000b4 	movhi	r2,2
    1e1c:	10ae6c04 	addi	r2,r2,-18000
    1e20:	1400010b 	ldhu	r16,4(r2)
    1e24:	00003600 	call	360 <LCD_RD_DATA>
    1e28:	8084b03a 	or	r2,r16,r2
    1e2c:	1007883a 	mov	r3,r2
    1e30:	008000b4 	movhi	r2,2
    1e34:	10ae6c04 	addi	r2,r2,-18000
    1e38:	10c0010d 	sth	r3,4(r2)
    1e3c:	008000b4 	movhi	r2,2
    1e40:	10ae6c04 	addi	r2,r2,-18000
    1e44:	1080010b 	ldhu	r2,4(r2)
    1e48:	10ffffcc 	andi	r3,r2,65535
    1e4c:	00a4d054 	movui	r2,37697
    1e50:	18807926 	beq	r3,r2,2038 <MCULCD_Init+0x2fc>
    1e54:	01003504 	movi	r4,212
    1e58:	00002680 	call	268 <LCD_WR_CMD>
    1e5c:	00003600 	call	360 <LCD_RD_DATA>
    1e60:	00c000b4 	movhi	r3,2
    1e64:	18ee6c04 	addi	r3,r3,-18000
    1e68:	1880010d 	sth	r2,4(r3)
    1e6c:	00003600 	call	360 <LCD_RD_DATA>
    1e70:	00c000b4 	movhi	r3,2
    1e74:	18ee6c04 	addi	r3,r3,-18000
    1e78:	1880010d 	sth	r2,4(r3)
    1e7c:	00003600 	call	360 <LCD_RD_DATA>
    1e80:	00c000b4 	movhi	r3,2
    1e84:	18ee6c04 	addi	r3,r3,-18000
    1e88:	1880010d 	sth	r2,4(r3)
    1e8c:	008000b4 	movhi	r2,2
    1e90:	10ae6c04 	addi	r2,r2,-18000
    1e94:	1080010b 	ldhu	r2,4(r2)
    1e98:	1004923a 	slli	r2,r2,8
    1e9c:	1007883a 	mov	r3,r2
    1ea0:	008000b4 	movhi	r2,2
    1ea4:	10ae6c04 	addi	r2,r2,-18000
    1ea8:	10c0010d 	sth	r3,4(r2)
    1eac:	008000b4 	movhi	r2,2
    1eb0:	10ae6c04 	addi	r2,r2,-18000
    1eb4:	1400010b 	ldhu	r16,4(r2)
    1eb8:	00003600 	call	360 <LCD_RD_DATA>
    1ebc:	8084b03a 	or	r2,r16,r2
    1ec0:	1007883a 	mov	r3,r2
    1ec4:	008000b4 	movhi	r2,2
    1ec8:	10ae6c04 	addi	r2,r2,-18000
    1ecc:	10c0010d 	sth	r3,4(r2)
    1ed0:	008000b4 	movhi	r2,2
    1ed4:	10ae6c04 	addi	r2,r2,-18000
    1ed8:	1080010b 	ldhu	r2,4(r2)
    1edc:	10bfffcc 	andi	r2,r2,65535
    1ee0:	1094c420 	cmpeqi	r2,r2,21264
    1ee4:	1000541e 	bne	r2,zero,2038 <MCULCD_Init+0x2fc>
    1ee8:	01368014 	movui	r4,55808
    1eec:	00002680 	call	268 <LCD_WR_CMD>
    1ef0:	00003600 	call	360 <LCD_RD_DATA>
    1ef4:	00c000b4 	movhi	r3,2
    1ef8:	18ee6c04 	addi	r3,r3,-18000
    1efc:	1880010d 	sth	r2,4(r3)
    1f00:	0136c014 	movui	r4,56064
    1f04:	00002680 	call	268 <LCD_WR_CMD>
    1f08:	00003600 	call	360 <LCD_RD_DATA>
    1f0c:	00c000b4 	movhi	r3,2
    1f10:	18ee6c04 	addi	r3,r3,-18000
    1f14:	1880010d 	sth	r2,4(r3)
    1f18:	008000b4 	movhi	r2,2
    1f1c:	10ae6c04 	addi	r2,r2,-18000
    1f20:	1080010b 	ldhu	r2,4(r2)
    1f24:	1004923a 	slli	r2,r2,8
    1f28:	1007883a 	mov	r3,r2
    1f2c:	008000b4 	movhi	r2,2
    1f30:	10ae6c04 	addi	r2,r2,-18000
    1f34:	10c0010d 	sth	r3,4(r2)
    1f38:	01370014 	movui	r4,56320
    1f3c:	00002680 	call	268 <LCD_WR_CMD>
    1f40:	008000b4 	movhi	r2,2
    1f44:	10ae6c04 	addi	r2,r2,-18000
    1f48:	1400010b 	ldhu	r16,4(r2)
    1f4c:	00003600 	call	360 <LCD_RD_DATA>
    1f50:	8084b03a 	or	r2,r16,r2
    1f54:	1007883a 	mov	r3,r2
    1f58:	008000b4 	movhi	r2,2
    1f5c:	10ae6c04 	addi	r2,r2,-18000
    1f60:	10c0010d 	sth	r3,4(r2)
    1f64:	008000b4 	movhi	r2,2
    1f68:	10ae6c04 	addi	r2,r2,-18000
    1f6c:	1080010b 	ldhu	r2,4(r2)
    1f70:	10ffffcc 	andi	r3,r2,65535
    1f74:	00a00014 	movui	r2,32768
    1f78:	1880041e 	bne	r3,r2,1f8c <MCULCD_Init+0x250>
    1f7c:	008000b4 	movhi	r2,2
    1f80:	10ae6c04 	addi	r2,r2,-18000
    1f84:	00d54404 	movi	r3,21776
    1f88:	10c0010d 	sth	r3,4(r2)
    1f8c:	008000b4 	movhi	r2,2
    1f90:	10ae6c04 	addi	r2,r2,-18000
    1f94:	1080010b 	ldhu	r2,4(r2)
    1f98:	10bfffcc 	andi	r2,r2,65535
    1f9c:	10954420 	cmpeqi	r2,r2,21776
    1fa0:	1000251e 	bne	r2,zero,2038 <MCULCD_Init+0x2fc>
    1fa4:	01002844 	movi	r4,161
    1fa8:	00002680 	call	268 <LCD_WR_CMD>
    1fac:	00003600 	call	360 <LCD_RD_DATA>
    1fb0:	00c000b4 	movhi	r3,2
    1fb4:	18ee6c04 	addi	r3,r3,-18000
    1fb8:	1880010d 	sth	r2,4(r3)
    1fbc:	00003600 	call	360 <LCD_RD_DATA>
    1fc0:	00c000b4 	movhi	r3,2
    1fc4:	18ee6c04 	addi	r3,r3,-18000
    1fc8:	1880010d 	sth	r2,4(r3)
    1fcc:	008000b4 	movhi	r2,2
    1fd0:	10ae6c04 	addi	r2,r2,-18000
    1fd4:	1080010b 	ldhu	r2,4(r2)
    1fd8:	1004923a 	slli	r2,r2,8
    1fdc:	1007883a 	mov	r3,r2
    1fe0:	008000b4 	movhi	r2,2
    1fe4:	10ae6c04 	addi	r2,r2,-18000
    1fe8:	10c0010d 	sth	r3,4(r2)
    1fec:	008000b4 	movhi	r2,2
    1ff0:	10ae6c04 	addi	r2,r2,-18000
    1ff4:	1400010b 	ldhu	r16,4(r2)
    1ff8:	00003600 	call	360 <LCD_RD_DATA>
    1ffc:	8084b03a 	or	r2,r16,r2
    2000:	1007883a 	mov	r3,r2
    2004:	008000b4 	movhi	r2,2
    2008:	10ae6c04 	addi	r2,r2,-18000
    200c:	10c0010d 	sth	r3,4(r2)
    2010:	008000b4 	movhi	r2,2
    2014:	10ae6c04 	addi	r2,r2,-18000
    2018:	1080010b 	ldhu	r2,4(r2)
    201c:	10bfffcc 	andi	r2,r2,65535
    2020:	1095d858 	cmpnei	r2,r2,22369
    2024:	1000041e 	bne	r2,zero,2038 <MCULCD_Init+0x2fc>
    2028:	008000b4 	movhi	r2,2
    202c:	10ae6c04 	addi	r2,r2,-18000
    2030:	00c658c4 	movi	r3,6499
    2034:	10c0010d 	sth	r3,4(r2)
    2038:	008000b4 	movhi	r2,2
    203c:	10ae6c04 	addi	r2,r2,-18000
    2040:	1080010b 	ldhu	r2,4(r2)
    2044:	10bfffcc 	andi	r2,r2,65535
    2048:	010000b4 	movhi	r4,2
    204c:	21261104 	addi	r4,r4,-26556
    2050:	100b883a 	mov	r5,r2
    2054:	00094240 	call	9424 <printf>
    2058:	008000b4 	movhi	r2,2
    205c:	10ae6c04 	addi	r2,r2,-18000
    2060:	1080010b 	ldhu	r2,4(r2)
    2064:	10ffffcc 	andi	r3,r2,65535
    2068:	00a4d054 	movui	r2,37697
    206c:	1880b91e 	bne	r3,r2,2354 <MCULCD_Init+0x618>
    2070:	010033c4 	movi	r4,207
    2074:	00002680 	call	268 <LCD_WR_CMD>
    2078:	0009883a 	mov	r4,zero
    207c:	00002ec0 	call	2ec <LCD_WR_DATA>
    2080:	01003044 	movi	r4,193
    2084:	00002ec0 	call	2ec <LCD_WR_DATA>
    2088:	01000c04 	movi	r4,48
    208c:	00002ec0 	call	2ec <LCD_WR_DATA>
    2090:	01003b44 	movi	r4,237
    2094:	00002680 	call	268 <LCD_WR_CMD>
    2098:	01001904 	movi	r4,100
    209c:	00002ec0 	call	2ec <LCD_WR_DATA>
    20a0:	010000c4 	movi	r4,3
    20a4:	00002ec0 	call	2ec <LCD_WR_DATA>
    20a8:	01000484 	movi	r4,18
    20ac:	00002ec0 	call	2ec <LCD_WR_DATA>
    20b0:	01002044 	movi	r4,129
    20b4:	00002ec0 	call	2ec <LCD_WR_DATA>
    20b8:	01003a04 	movi	r4,232
    20bc:	00002680 	call	268 <LCD_WR_CMD>
    20c0:	01002144 	movi	r4,133
    20c4:	00002ec0 	call	2ec <LCD_WR_DATA>
    20c8:	01000404 	movi	r4,16
    20cc:	00002ec0 	call	2ec <LCD_WR_DATA>
    20d0:	01001e84 	movi	r4,122
    20d4:	00002ec0 	call	2ec <LCD_WR_DATA>
    20d8:	010032c4 	movi	r4,203
    20dc:	00002680 	call	268 <LCD_WR_CMD>
    20e0:	01000e44 	movi	r4,57
    20e4:	00002ec0 	call	2ec <LCD_WR_DATA>
    20e8:	01000b04 	movi	r4,44
    20ec:	00002ec0 	call	2ec <LCD_WR_DATA>
    20f0:	0009883a 	mov	r4,zero
    20f4:	00002ec0 	call	2ec <LCD_WR_DATA>
    20f8:	01000d04 	movi	r4,52
    20fc:	00002ec0 	call	2ec <LCD_WR_DATA>
    2100:	01000084 	movi	r4,2
    2104:	00002ec0 	call	2ec <LCD_WR_DATA>
    2108:	01003dc4 	movi	r4,247
    210c:	00002680 	call	268 <LCD_WR_CMD>
    2110:	01000804 	movi	r4,32
    2114:	00002ec0 	call	2ec <LCD_WR_DATA>
    2118:	01003a84 	movi	r4,234
    211c:	00002680 	call	268 <LCD_WR_CMD>
    2120:	0009883a 	mov	r4,zero
    2124:	00002ec0 	call	2ec <LCD_WR_DATA>
    2128:	0009883a 	mov	r4,zero
    212c:	00002ec0 	call	2ec <LCD_WR_DATA>
    2130:	01003004 	movi	r4,192
    2134:	00002680 	call	268 <LCD_WR_CMD>
    2138:	010006c4 	movi	r4,27
    213c:	00002ec0 	call	2ec <LCD_WR_DATA>
    2140:	01003044 	movi	r4,193
    2144:	00002680 	call	268 <LCD_WR_CMD>
    2148:	01000044 	movi	r4,1
    214c:	00002ec0 	call	2ec <LCD_WR_DATA>
    2150:	01003144 	movi	r4,197
    2154:	00002680 	call	268 <LCD_WR_CMD>
    2158:	01000c04 	movi	r4,48
    215c:	00002ec0 	call	2ec <LCD_WR_DATA>
    2160:	01000c04 	movi	r4,48
    2164:	00002ec0 	call	2ec <LCD_WR_DATA>
    2168:	010031c4 	movi	r4,199
    216c:	00002680 	call	268 <LCD_WR_CMD>
    2170:	01002dc4 	movi	r4,183
    2174:	00002ec0 	call	2ec <LCD_WR_DATA>
    2178:	01000d84 	movi	r4,54
    217c:	00002680 	call	268 <LCD_WR_CMD>
    2180:	01001204 	movi	r4,72
    2184:	00002ec0 	call	2ec <LCD_WR_DATA>
    2188:	01000e84 	movi	r4,58
    218c:	00002680 	call	268 <LCD_WR_CMD>
    2190:	01001544 	movi	r4,85
    2194:	00002ec0 	call	2ec <LCD_WR_DATA>
    2198:	01002c44 	movi	r4,177
    219c:	00002680 	call	268 <LCD_WR_CMD>
    21a0:	0009883a 	mov	r4,zero
    21a4:	00002ec0 	call	2ec <LCD_WR_DATA>
    21a8:	01000684 	movi	r4,26
    21ac:	00002ec0 	call	2ec <LCD_WR_DATA>
    21b0:	01002d84 	movi	r4,182
    21b4:	00002680 	call	268 <LCD_WR_CMD>
    21b8:	01000284 	movi	r4,10
    21bc:	00002ec0 	call	2ec <LCD_WR_DATA>
    21c0:	01002884 	movi	r4,162
    21c4:	00002ec0 	call	2ec <LCD_WR_DATA>
    21c8:	01003c84 	movi	r4,242
    21cc:	00002680 	call	268 <LCD_WR_CMD>
    21d0:	0009883a 	mov	r4,zero
    21d4:	00002ec0 	call	2ec <LCD_WR_DATA>
    21d8:	01000984 	movi	r4,38
    21dc:	00002680 	call	268 <LCD_WR_CMD>
    21e0:	01000044 	movi	r4,1
    21e4:	00002ec0 	call	2ec <LCD_WR_DATA>
    21e8:	01003804 	movi	r4,224
    21ec:	00002680 	call	268 <LCD_WR_CMD>
    21f0:	010003c4 	movi	r4,15
    21f4:	00002ec0 	call	2ec <LCD_WR_DATA>
    21f8:	01000a84 	movi	r4,42
    21fc:	00002ec0 	call	2ec <LCD_WR_DATA>
    2200:	01000a04 	movi	r4,40
    2204:	00002ec0 	call	2ec <LCD_WR_DATA>
    2208:	01000204 	movi	r4,8
    220c:	00002ec0 	call	2ec <LCD_WR_DATA>
    2210:	01000384 	movi	r4,14
    2214:	00002ec0 	call	2ec <LCD_WR_DATA>
    2218:	01000204 	movi	r4,8
    221c:	00002ec0 	call	2ec <LCD_WR_DATA>
    2220:	01001504 	movi	r4,84
    2224:	00002ec0 	call	2ec <LCD_WR_DATA>
    2228:	01002a44 	movi	r4,169
    222c:	00002ec0 	call	2ec <LCD_WR_DATA>
    2230:	010010c4 	movi	r4,67
    2234:	00002ec0 	call	2ec <LCD_WR_DATA>
    2238:	01000284 	movi	r4,10
    223c:	00002ec0 	call	2ec <LCD_WR_DATA>
    2240:	010003c4 	movi	r4,15
    2244:	00002ec0 	call	2ec <LCD_WR_DATA>
    2248:	0009883a 	mov	r4,zero
    224c:	00002ec0 	call	2ec <LCD_WR_DATA>
    2250:	0009883a 	mov	r4,zero
    2254:	00002ec0 	call	2ec <LCD_WR_DATA>
    2258:	0009883a 	mov	r4,zero
    225c:	00002ec0 	call	2ec <LCD_WR_DATA>
    2260:	0009883a 	mov	r4,zero
    2264:	00002ec0 	call	2ec <LCD_WR_DATA>
    2268:	01003844 	movi	r4,225
    226c:	00002680 	call	268 <LCD_WR_CMD>
    2270:	0009883a 	mov	r4,zero
    2274:	00002ec0 	call	2ec <LCD_WR_DATA>
    2278:	01000544 	movi	r4,21
    227c:	00002ec0 	call	2ec <LCD_WR_DATA>
    2280:	010005c4 	movi	r4,23
    2284:	00002ec0 	call	2ec <LCD_WR_DATA>
    2288:	010001c4 	movi	r4,7
    228c:	00002ec0 	call	2ec <LCD_WR_DATA>
    2290:	01000444 	movi	r4,17
    2294:	00002ec0 	call	2ec <LCD_WR_DATA>
    2298:	01000184 	movi	r4,6
    229c:	00002ec0 	call	2ec <LCD_WR_DATA>
    22a0:	01000ac4 	movi	r4,43
    22a4:	00002ec0 	call	2ec <LCD_WR_DATA>
    22a8:	01001584 	movi	r4,86
    22ac:	00002ec0 	call	2ec <LCD_WR_DATA>
    22b0:	01000f04 	movi	r4,60
    22b4:	00002ec0 	call	2ec <LCD_WR_DATA>
    22b8:	01000144 	movi	r4,5
    22bc:	00002ec0 	call	2ec <LCD_WR_DATA>
    22c0:	01000404 	movi	r4,16
    22c4:	00002ec0 	call	2ec <LCD_WR_DATA>
    22c8:	010003c4 	movi	r4,15
    22cc:	00002ec0 	call	2ec <LCD_WR_DATA>
    22d0:	01000fc4 	movi	r4,63
    22d4:	00002ec0 	call	2ec <LCD_WR_DATA>
    22d8:	01000fc4 	movi	r4,63
    22dc:	00002ec0 	call	2ec <LCD_WR_DATA>
    22e0:	010003c4 	movi	r4,15
    22e4:	00002ec0 	call	2ec <LCD_WR_DATA>
    22e8:	01000ac4 	movi	r4,43
    22ec:	00002680 	call	268 <LCD_WR_CMD>
    22f0:	0009883a 	mov	r4,zero
    22f4:	00002ec0 	call	2ec <LCD_WR_DATA>
    22f8:	0009883a 	mov	r4,zero
    22fc:	00002ec0 	call	2ec <LCD_WR_DATA>
    2300:	01000044 	movi	r4,1
    2304:	00002ec0 	call	2ec <LCD_WR_DATA>
    2308:	01000fc4 	movi	r4,63
    230c:	00002ec0 	call	2ec <LCD_WR_DATA>
    2310:	01000a84 	movi	r4,42
    2314:	00002680 	call	268 <LCD_WR_CMD>
    2318:	0009883a 	mov	r4,zero
    231c:	00002ec0 	call	2ec <LCD_WR_DATA>
    2320:	0009883a 	mov	r4,zero
    2324:	00002ec0 	call	2ec <LCD_WR_DATA>
    2328:	0009883a 	mov	r4,zero
    232c:	00002ec0 	call	2ec <LCD_WR_DATA>
    2330:	01003bc4 	movi	r4,239
    2334:	00002ec0 	call	2ec <LCD_WR_DATA>
    2338:	01000444 	movi	r4,17
    233c:	00002680 	call	268 <LCD_WR_CMD>
    2340:	01001e04 	movi	r4,120
    2344:	00002000 	call	200 <delay_ms>
    2348:	01000a44 	movi	r4,41
    234c:	00002680 	call	268 <LCD_WR_CMD>
    2350:	000a0306 	br	4b60 <MCULCD_Init+0x2e24>
    2354:	008000b4 	movhi	r2,2
    2358:	10ae6c04 	addi	r2,r2,-18000
    235c:	1080010b 	ldhu	r2,4(r2)
    2360:	10bfffcc 	andi	r2,r2,65535
    2364:	1094c418 	cmpnei	r2,r2,21264
    2368:	1004fb1e 	bne	r2,zero,3758 <MCULCD_Init+0x1a1c>
    236c:	01003b44 	movi	r4,237
    2370:	00002680 	call	268 <LCD_WR_CMD>
    2374:	01000044 	movi	r4,1
    2378:	00002ec0 	call	2ec <LCD_WR_DATA>
    237c:	01003f84 	movi	r4,254
    2380:	00002ec0 	call	2ec <LCD_WR_DATA>
    2384:	01003b84 	movi	r4,238
    2388:	00002680 	call	268 <LCD_WR_CMD>
    238c:	01003784 	movi	r4,222
    2390:	00002ec0 	call	2ec <LCD_WR_DATA>
    2394:	01000844 	movi	r4,33
    2398:	00002ec0 	call	2ec <LCD_WR_DATA>
    239c:	01003c44 	movi	r4,241
    23a0:	00002680 	call	268 <LCD_WR_CMD>
    23a4:	01000044 	movi	r4,1
    23a8:	00002ec0 	call	2ec <LCD_WR_DATA>
    23ac:	010037c4 	movi	r4,223
    23b0:	00002680 	call	268 <LCD_WR_CMD>
    23b4:	01000404 	movi	r4,16
    23b8:	00002ec0 	call	2ec <LCD_WR_DATA>
    23bc:	01003104 	movi	r4,196
    23c0:	00002680 	call	268 <LCD_WR_CMD>
    23c4:	010023c4 	movi	r4,143
    23c8:	00002ec0 	call	2ec <LCD_WR_DATA>
    23cc:	01003184 	movi	r4,198
    23d0:	00002680 	call	268 <LCD_WR_CMD>
    23d4:	0009883a 	mov	r4,zero
    23d8:	00002ec0 	call	2ec <LCD_WR_DATA>
    23dc:	01003884 	movi	r4,226
    23e0:	00002ec0 	call	2ec <LCD_WR_DATA>
    23e4:	01003884 	movi	r4,226
    23e8:	00002ec0 	call	2ec <LCD_WR_DATA>
    23ec:	01003884 	movi	r4,226
    23f0:	00002ec0 	call	2ec <LCD_WR_DATA>
    23f4:	01002fc4 	movi	r4,191
    23f8:	00002680 	call	268 <LCD_WR_CMD>
    23fc:	01002a84 	movi	r4,170
    2400:	00002ec0 	call	2ec <LCD_WR_DATA>
    2404:	01002c04 	movi	r4,176
    2408:	00002680 	call	268 <LCD_WR_CMD>
    240c:	01000344 	movi	r4,13
    2410:	00002ec0 	call	2ec <LCD_WR_DATA>
    2414:	0009883a 	mov	r4,zero
    2418:	00002ec0 	call	2ec <LCD_WR_DATA>
    241c:	01000344 	movi	r4,13
    2420:	00002ec0 	call	2ec <LCD_WR_DATA>
    2424:	0009883a 	mov	r4,zero
    2428:	00002ec0 	call	2ec <LCD_WR_DATA>
    242c:	01000444 	movi	r4,17
    2430:	00002ec0 	call	2ec <LCD_WR_DATA>
    2434:	0009883a 	mov	r4,zero
    2438:	00002ec0 	call	2ec <LCD_WR_DATA>
    243c:	01000644 	movi	r4,25
    2440:	00002ec0 	call	2ec <LCD_WR_DATA>
    2444:	0009883a 	mov	r4,zero
    2448:	00002ec0 	call	2ec <LCD_WR_DATA>
    244c:	01000844 	movi	r4,33
    2450:	00002ec0 	call	2ec <LCD_WR_DATA>
    2454:	0009883a 	mov	r4,zero
    2458:	00002ec0 	call	2ec <LCD_WR_DATA>
    245c:	01000b44 	movi	r4,45
    2460:	00002ec0 	call	2ec <LCD_WR_DATA>
    2464:	0009883a 	mov	r4,zero
    2468:	00002ec0 	call	2ec <LCD_WR_DATA>
    246c:	01000f44 	movi	r4,61
    2470:	00002ec0 	call	2ec <LCD_WR_DATA>
    2474:	0009883a 	mov	r4,zero
    2478:	00002ec0 	call	2ec <LCD_WR_DATA>
    247c:	01001744 	movi	r4,93
    2480:	00002ec0 	call	2ec <LCD_WR_DATA>
    2484:	0009883a 	mov	r4,zero
    2488:	00002ec0 	call	2ec <LCD_WR_DATA>
    248c:	01001744 	movi	r4,93
    2490:	00002ec0 	call	2ec <LCD_WR_DATA>
    2494:	0009883a 	mov	r4,zero
    2498:	00002ec0 	call	2ec <LCD_WR_DATA>
    249c:	01002c44 	movi	r4,177
    24a0:	00002680 	call	268 <LCD_WR_CMD>
    24a4:	01002004 	movi	r4,128
    24a8:	00002ec0 	call	2ec <LCD_WR_DATA>
    24ac:	0009883a 	mov	r4,zero
    24b0:	00002ec0 	call	2ec <LCD_WR_DATA>
    24b4:	010022c4 	movi	r4,139
    24b8:	00002ec0 	call	2ec <LCD_WR_DATA>
    24bc:	0009883a 	mov	r4,zero
    24c0:	00002ec0 	call	2ec <LCD_WR_DATA>
    24c4:	01002584 	movi	r4,150
    24c8:	00002ec0 	call	2ec <LCD_WR_DATA>
    24cc:	0009883a 	mov	r4,zero
    24d0:	00002ec0 	call	2ec <LCD_WR_DATA>
    24d4:	01002c84 	movi	r4,178
    24d8:	00002680 	call	268 <LCD_WR_CMD>
    24dc:	0009883a 	mov	r4,zero
    24e0:	00002ec0 	call	2ec <LCD_WR_DATA>
    24e4:	0009883a 	mov	r4,zero
    24e8:	00002ec0 	call	2ec <LCD_WR_DATA>
    24ec:	01000084 	movi	r4,2
    24f0:	00002ec0 	call	2ec <LCD_WR_DATA>
    24f4:	0009883a 	mov	r4,zero
    24f8:	00002ec0 	call	2ec <LCD_WR_DATA>
    24fc:	010000c4 	movi	r4,3
    2500:	00002ec0 	call	2ec <LCD_WR_DATA>
    2504:	0009883a 	mov	r4,zero
    2508:	00002ec0 	call	2ec <LCD_WR_DATA>
    250c:	01002cc4 	movi	r4,179
    2510:	00002680 	call	268 <LCD_WR_CMD>
    2514:	0009883a 	mov	r4,zero
    2518:	00002ec0 	call	2ec <LCD_WR_DATA>
    251c:	0009883a 	mov	r4,zero
    2520:	00002ec0 	call	2ec <LCD_WR_DATA>
    2524:	0009883a 	mov	r4,zero
    2528:	00002ec0 	call	2ec <LCD_WR_DATA>
    252c:	0009883a 	mov	r4,zero
    2530:	00002ec0 	call	2ec <LCD_WR_DATA>
    2534:	0009883a 	mov	r4,zero
    2538:	00002ec0 	call	2ec <LCD_WR_DATA>
    253c:	0009883a 	mov	r4,zero
    2540:	00002ec0 	call	2ec <LCD_WR_DATA>
    2544:	0009883a 	mov	r4,zero
    2548:	00002ec0 	call	2ec <LCD_WR_DATA>
    254c:	0009883a 	mov	r4,zero
    2550:	00002ec0 	call	2ec <LCD_WR_DATA>
    2554:	0009883a 	mov	r4,zero
    2558:	00002ec0 	call	2ec <LCD_WR_DATA>
    255c:	0009883a 	mov	r4,zero
    2560:	00002ec0 	call	2ec <LCD_WR_DATA>
    2564:	0009883a 	mov	r4,zero
    2568:	00002ec0 	call	2ec <LCD_WR_DATA>
    256c:	0009883a 	mov	r4,zero
    2570:	00002ec0 	call	2ec <LCD_WR_DATA>
    2574:	0009883a 	mov	r4,zero
    2578:	00002ec0 	call	2ec <LCD_WR_DATA>
    257c:	0009883a 	mov	r4,zero
    2580:	00002ec0 	call	2ec <LCD_WR_DATA>
    2584:	0009883a 	mov	r4,zero
    2588:	00002ec0 	call	2ec <LCD_WR_DATA>
    258c:	0009883a 	mov	r4,zero
    2590:	00002ec0 	call	2ec <LCD_WR_DATA>
    2594:	0009883a 	mov	r4,zero
    2598:	00002ec0 	call	2ec <LCD_WR_DATA>
    259c:	0009883a 	mov	r4,zero
    25a0:	00002ec0 	call	2ec <LCD_WR_DATA>
    25a4:	0009883a 	mov	r4,zero
    25a8:	00002ec0 	call	2ec <LCD_WR_DATA>
    25ac:	0009883a 	mov	r4,zero
    25b0:	00002ec0 	call	2ec <LCD_WR_DATA>
    25b4:	0009883a 	mov	r4,zero
    25b8:	00002ec0 	call	2ec <LCD_WR_DATA>
    25bc:	0009883a 	mov	r4,zero
    25c0:	00002ec0 	call	2ec <LCD_WR_DATA>
    25c4:	0009883a 	mov	r4,zero
    25c8:	00002ec0 	call	2ec <LCD_WR_DATA>
    25cc:	0009883a 	mov	r4,zero
    25d0:	00002ec0 	call	2ec <LCD_WR_DATA>
    25d4:	01002d04 	movi	r4,180
    25d8:	00002680 	call	268 <LCD_WR_CMD>
    25dc:	010022c4 	movi	r4,139
    25e0:	00002ec0 	call	2ec <LCD_WR_DATA>
    25e4:	0009883a 	mov	r4,zero
    25e8:	00002ec0 	call	2ec <LCD_WR_DATA>
    25ec:	01002584 	movi	r4,150
    25f0:	00002ec0 	call	2ec <LCD_WR_DATA>
    25f4:	0009883a 	mov	r4,zero
    25f8:	00002ec0 	call	2ec <LCD_WR_DATA>
    25fc:	01002844 	movi	r4,161
    2600:	00002ec0 	call	2ec <LCD_WR_DATA>
    2604:	0009883a 	mov	r4,zero
    2608:	00002ec0 	call	2ec <LCD_WR_DATA>
    260c:	01002d44 	movi	r4,181
    2610:	00002680 	call	268 <LCD_WR_CMD>
    2614:	01000084 	movi	r4,2
    2618:	00002ec0 	call	2ec <LCD_WR_DATA>
    261c:	0009883a 	mov	r4,zero
    2620:	00002ec0 	call	2ec <LCD_WR_DATA>
    2624:	010000c4 	movi	r4,3
    2628:	00002ec0 	call	2ec <LCD_WR_DATA>
    262c:	0009883a 	mov	r4,zero
    2630:	00002ec0 	call	2ec <LCD_WR_DATA>
    2634:	01000104 	movi	r4,4
    2638:	00002ec0 	call	2ec <LCD_WR_DATA>
    263c:	0009883a 	mov	r4,zero
    2640:	00002ec0 	call	2ec <LCD_WR_DATA>
    2644:	01002d84 	movi	r4,182
    2648:	00002680 	call	268 <LCD_WR_CMD>
    264c:	0009883a 	mov	r4,zero
    2650:	00002ec0 	call	2ec <LCD_WR_DATA>
    2654:	0009883a 	mov	r4,zero
    2658:	00002ec0 	call	2ec <LCD_WR_DATA>
    265c:	01002dc4 	movi	r4,183
    2660:	00002680 	call	268 <LCD_WR_CMD>
    2664:	0009883a 	mov	r4,zero
    2668:	00002ec0 	call	2ec <LCD_WR_DATA>
    266c:	0009883a 	mov	r4,zero
    2670:	00002ec0 	call	2ec <LCD_WR_DATA>
    2674:	01000fc4 	movi	r4,63
    2678:	00002ec0 	call	2ec <LCD_WR_DATA>
    267c:	0009883a 	mov	r4,zero
    2680:	00002ec0 	call	2ec <LCD_WR_DATA>
    2684:	01001784 	movi	r4,94
    2688:	00002ec0 	call	2ec <LCD_WR_DATA>
    268c:	0009883a 	mov	r4,zero
    2690:	00002ec0 	call	2ec <LCD_WR_DATA>
    2694:	01001904 	movi	r4,100
    2698:	00002ec0 	call	2ec <LCD_WR_DATA>
    269c:	0009883a 	mov	r4,zero
    26a0:	00002ec0 	call	2ec <LCD_WR_DATA>
    26a4:	01002304 	movi	r4,140
    26a8:	00002ec0 	call	2ec <LCD_WR_DATA>
    26ac:	0009883a 	mov	r4,zero
    26b0:	00002ec0 	call	2ec <LCD_WR_DATA>
    26b4:	01002b04 	movi	r4,172
    26b8:	00002ec0 	call	2ec <LCD_WR_DATA>
    26bc:	0009883a 	mov	r4,zero
    26c0:	00002ec0 	call	2ec <LCD_WR_DATA>
    26c4:	01003704 	movi	r4,220
    26c8:	00002ec0 	call	2ec <LCD_WR_DATA>
    26cc:	0009883a 	mov	r4,zero
    26d0:	00002ec0 	call	2ec <LCD_WR_DATA>
    26d4:	01001c04 	movi	r4,112
    26d8:	00002ec0 	call	2ec <LCD_WR_DATA>
    26dc:	0009883a 	mov	r4,zero
    26e0:	00002ec0 	call	2ec <LCD_WR_DATA>
    26e4:	01002404 	movi	r4,144
    26e8:	00002ec0 	call	2ec <LCD_WR_DATA>
    26ec:	0009883a 	mov	r4,zero
    26f0:	00002ec0 	call	2ec <LCD_WR_DATA>
    26f4:	01003ac4 	movi	r4,235
    26f8:	00002ec0 	call	2ec <LCD_WR_DATA>
    26fc:	0009883a 	mov	r4,zero
    2700:	00002ec0 	call	2ec <LCD_WR_DATA>
    2704:	01003704 	movi	r4,220
    2708:	00002ec0 	call	2ec <LCD_WR_DATA>
    270c:	0009883a 	mov	r4,zero
    2710:	00002ec0 	call	2ec <LCD_WR_DATA>
    2714:	01002e04 	movi	r4,184
    2718:	00002680 	call	268 <LCD_WR_CMD>
    271c:	0009883a 	mov	r4,zero
    2720:	00002ec0 	call	2ec <LCD_WR_DATA>
    2724:	0009883a 	mov	r4,zero
    2728:	00002ec0 	call	2ec <LCD_WR_DATA>
    272c:	0009883a 	mov	r4,zero
    2730:	00002ec0 	call	2ec <LCD_WR_DATA>
    2734:	0009883a 	mov	r4,zero
    2738:	00002ec0 	call	2ec <LCD_WR_DATA>
    273c:	0009883a 	mov	r4,zero
    2740:	00002ec0 	call	2ec <LCD_WR_DATA>
    2744:	0009883a 	mov	r4,zero
    2748:	00002ec0 	call	2ec <LCD_WR_DATA>
    274c:	0009883a 	mov	r4,zero
    2750:	00002ec0 	call	2ec <LCD_WR_DATA>
    2754:	0009883a 	mov	r4,zero
    2758:	00002ec0 	call	2ec <LCD_WR_DATA>
    275c:	01002e84 	movi	r4,186
    2760:	00002680 	call	268 <LCD_WR_CMD>
    2764:	01000904 	movi	r4,36
    2768:	00002ec0 	call	2ec <LCD_WR_DATA>
    276c:	0009883a 	mov	r4,zero
    2770:	00002ec0 	call	2ec <LCD_WR_DATA>
    2774:	0009883a 	mov	r4,zero
    2778:	00002ec0 	call	2ec <LCD_WR_DATA>
    277c:	0009883a 	mov	r4,zero
    2780:	00002ec0 	call	2ec <LCD_WR_DATA>
    2784:	01003044 	movi	r4,193
    2788:	00002680 	call	268 <LCD_WR_CMD>
    278c:	01000804 	movi	r4,32
    2790:	00002ec0 	call	2ec <LCD_WR_DATA>
    2794:	0009883a 	mov	r4,zero
    2798:	00002ec0 	call	2ec <LCD_WR_DATA>
    279c:	01001504 	movi	r4,84
    27a0:	00002ec0 	call	2ec <LCD_WR_DATA>
    27a4:	0009883a 	mov	r4,zero
    27a8:	00002ec0 	call	2ec <LCD_WR_DATA>
    27ac:	01003fc4 	movi	r4,255
    27b0:	00002ec0 	call	2ec <LCD_WR_DATA>
    27b4:	0009883a 	mov	r4,zero
    27b8:	00002ec0 	call	2ec <LCD_WR_DATA>
    27bc:	01003084 	movi	r4,194
    27c0:	00002680 	call	268 <LCD_WR_CMD>
    27c4:	01000284 	movi	r4,10
    27c8:	00002ec0 	call	2ec <LCD_WR_DATA>
    27cc:	0009883a 	mov	r4,zero
    27d0:	00002ec0 	call	2ec <LCD_WR_DATA>
    27d4:	01000104 	movi	r4,4
    27d8:	00002ec0 	call	2ec <LCD_WR_DATA>
    27dc:	0009883a 	mov	r4,zero
    27e0:	00002ec0 	call	2ec <LCD_WR_DATA>
    27e4:	010030c4 	movi	r4,195
    27e8:	00002680 	call	268 <LCD_WR_CMD>
    27ec:	01000f04 	movi	r4,60
    27f0:	00002ec0 	call	2ec <LCD_WR_DATA>
    27f4:	0009883a 	mov	r4,zero
    27f8:	00002ec0 	call	2ec <LCD_WR_DATA>
    27fc:	01000e84 	movi	r4,58
    2800:	00002ec0 	call	2ec <LCD_WR_DATA>
    2804:	0009883a 	mov	r4,zero
    2808:	00002ec0 	call	2ec <LCD_WR_DATA>
    280c:	01000e44 	movi	r4,57
    2810:	00002ec0 	call	2ec <LCD_WR_DATA>
    2814:	0009883a 	mov	r4,zero
    2818:	00002ec0 	call	2ec <LCD_WR_DATA>
    281c:	01000dc4 	movi	r4,55
    2820:	00002ec0 	call	2ec <LCD_WR_DATA>
    2824:	0009883a 	mov	r4,zero
    2828:	00002ec0 	call	2ec <LCD_WR_DATA>
    282c:	01000f04 	movi	r4,60
    2830:	00002ec0 	call	2ec <LCD_WR_DATA>
    2834:	0009883a 	mov	r4,zero
    2838:	00002ec0 	call	2ec <LCD_WR_DATA>
    283c:	01000d84 	movi	r4,54
    2840:	00002ec0 	call	2ec <LCD_WR_DATA>
    2844:	0009883a 	mov	r4,zero
    2848:	00002ec0 	call	2ec <LCD_WR_DATA>
    284c:	01000c84 	movi	r4,50
    2850:	00002ec0 	call	2ec <LCD_WR_DATA>
    2854:	0009883a 	mov	r4,zero
    2858:	00002ec0 	call	2ec <LCD_WR_DATA>
    285c:	01000bc4 	movi	r4,47
    2860:	00002ec0 	call	2ec <LCD_WR_DATA>
    2864:	0009883a 	mov	r4,zero
    2868:	00002ec0 	call	2ec <LCD_WR_DATA>
    286c:	01000b04 	movi	r4,44
    2870:	00002ec0 	call	2ec <LCD_WR_DATA>
    2874:	0009883a 	mov	r4,zero
    2878:	00002ec0 	call	2ec <LCD_WR_DATA>
    287c:	01000a44 	movi	r4,41
    2880:	00002ec0 	call	2ec <LCD_WR_DATA>
    2884:	0009883a 	mov	r4,zero
    2888:	00002ec0 	call	2ec <LCD_WR_DATA>
    288c:	01000984 	movi	r4,38
    2890:	00002ec0 	call	2ec <LCD_WR_DATA>
    2894:	0009883a 	mov	r4,zero
    2898:	00002ec0 	call	2ec <LCD_WR_DATA>
    289c:	01000904 	movi	r4,36
    28a0:	00002ec0 	call	2ec <LCD_WR_DATA>
    28a4:	0009883a 	mov	r4,zero
    28a8:	00002ec0 	call	2ec <LCD_WR_DATA>
    28ac:	01000904 	movi	r4,36
    28b0:	00002ec0 	call	2ec <LCD_WR_DATA>
    28b4:	0009883a 	mov	r4,zero
    28b8:	00002ec0 	call	2ec <LCD_WR_DATA>
    28bc:	010008c4 	movi	r4,35
    28c0:	00002ec0 	call	2ec <LCD_WR_DATA>
    28c4:	0009883a 	mov	r4,zero
    28c8:	00002ec0 	call	2ec <LCD_WR_DATA>
    28cc:	01000f04 	movi	r4,60
    28d0:	00002ec0 	call	2ec <LCD_WR_DATA>
    28d4:	0009883a 	mov	r4,zero
    28d8:	00002ec0 	call	2ec <LCD_WR_DATA>
    28dc:	01000d84 	movi	r4,54
    28e0:	00002ec0 	call	2ec <LCD_WR_DATA>
    28e4:	0009883a 	mov	r4,zero
    28e8:	00002ec0 	call	2ec <LCD_WR_DATA>
    28ec:	01000c84 	movi	r4,50
    28f0:	00002ec0 	call	2ec <LCD_WR_DATA>
    28f4:	0009883a 	mov	r4,zero
    28f8:	00002ec0 	call	2ec <LCD_WR_DATA>
    28fc:	01000bc4 	movi	r4,47
    2900:	00002ec0 	call	2ec <LCD_WR_DATA>
    2904:	0009883a 	mov	r4,zero
    2908:	00002ec0 	call	2ec <LCD_WR_DATA>
    290c:	01000b04 	movi	r4,44
    2910:	00002ec0 	call	2ec <LCD_WR_DATA>
    2914:	0009883a 	mov	r4,zero
    2918:	00002ec0 	call	2ec <LCD_WR_DATA>
    291c:	01000a44 	movi	r4,41
    2920:	00002ec0 	call	2ec <LCD_WR_DATA>
    2924:	0009883a 	mov	r4,zero
    2928:	00002ec0 	call	2ec <LCD_WR_DATA>
    292c:	01000984 	movi	r4,38
    2930:	00002ec0 	call	2ec <LCD_WR_DATA>
    2934:	0009883a 	mov	r4,zero
    2938:	00002ec0 	call	2ec <LCD_WR_DATA>
    293c:	01000904 	movi	r4,36
    2940:	00002ec0 	call	2ec <LCD_WR_DATA>
    2944:	0009883a 	mov	r4,zero
    2948:	00002ec0 	call	2ec <LCD_WR_DATA>
    294c:	01000904 	movi	r4,36
    2950:	00002ec0 	call	2ec <LCD_WR_DATA>
    2954:	0009883a 	mov	r4,zero
    2958:	00002ec0 	call	2ec <LCD_WR_DATA>
    295c:	010008c4 	movi	r4,35
    2960:	00002ec0 	call	2ec <LCD_WR_DATA>
    2964:	0009883a 	mov	r4,zero
    2968:	00002ec0 	call	2ec <LCD_WR_DATA>
    296c:	01003104 	movi	r4,196
    2970:	00002680 	call	268 <LCD_WR_CMD>
    2974:	01001884 	movi	r4,98
    2978:	00002ec0 	call	2ec <LCD_WR_DATA>
    297c:	0009883a 	mov	r4,zero
    2980:	00002ec0 	call	2ec <LCD_WR_DATA>
    2984:	01000144 	movi	r4,5
    2988:	00002ec0 	call	2ec <LCD_WR_DATA>
    298c:	0009883a 	mov	r4,zero
    2990:	00002ec0 	call	2ec <LCD_WR_DATA>
    2994:	01002104 	movi	r4,132
    2998:	00002ec0 	call	2ec <LCD_WR_DATA>
    299c:	0009883a 	mov	r4,zero
    29a0:	00002ec0 	call	2ec <LCD_WR_DATA>
    29a4:	01003c04 	movi	r4,240
    29a8:	00002ec0 	call	2ec <LCD_WR_DATA>
    29ac:	0009883a 	mov	r4,zero
    29b0:	00002ec0 	call	2ec <LCD_WR_DATA>
    29b4:	01000604 	movi	r4,24
    29b8:	00002ec0 	call	2ec <LCD_WR_DATA>
    29bc:	0009883a 	mov	r4,zero
    29c0:	00002ec0 	call	2ec <LCD_WR_DATA>
    29c4:	01002904 	movi	r4,164
    29c8:	00002ec0 	call	2ec <LCD_WR_DATA>
    29cc:	0009883a 	mov	r4,zero
    29d0:	00002ec0 	call	2ec <LCD_WR_DATA>
    29d4:	01000604 	movi	r4,24
    29d8:	00002ec0 	call	2ec <LCD_WR_DATA>
    29dc:	0009883a 	mov	r4,zero
    29e0:	00002ec0 	call	2ec <LCD_WR_DATA>
    29e4:	01001404 	movi	r4,80
    29e8:	00002ec0 	call	2ec <LCD_WR_DATA>
    29ec:	0009883a 	mov	r4,zero
    29f0:	00002ec0 	call	2ec <LCD_WR_DATA>
    29f4:	01000304 	movi	r4,12
    29f8:	00002ec0 	call	2ec <LCD_WR_DATA>
    29fc:	0009883a 	mov	r4,zero
    2a00:	00002ec0 	call	2ec <LCD_WR_DATA>
    2a04:	010005c4 	movi	r4,23
    2a08:	00002ec0 	call	2ec <LCD_WR_DATA>
    2a0c:	0009883a 	mov	r4,zero
    2a10:	00002ec0 	call	2ec <LCD_WR_DATA>
    2a14:	01002544 	movi	r4,149
    2a18:	00002ec0 	call	2ec <LCD_WR_DATA>
    2a1c:	0009883a 	mov	r4,zero
    2a20:	00002ec0 	call	2ec <LCD_WR_DATA>
    2a24:	01003cc4 	movi	r4,243
    2a28:	00002ec0 	call	2ec <LCD_WR_DATA>
    2a2c:	0009883a 	mov	r4,zero
    2a30:	00002ec0 	call	2ec <LCD_WR_DATA>
    2a34:	01003984 	movi	r4,230
    2a38:	00002ec0 	call	2ec <LCD_WR_DATA>
    2a3c:	0009883a 	mov	r4,zero
    2a40:	00002ec0 	call	2ec <LCD_WR_DATA>
    2a44:	01003144 	movi	r4,197
    2a48:	00002680 	call	268 <LCD_WR_CMD>
    2a4c:	01000c84 	movi	r4,50
    2a50:	00002ec0 	call	2ec <LCD_WR_DATA>
    2a54:	0009883a 	mov	r4,zero
    2a58:	00002ec0 	call	2ec <LCD_WR_DATA>
    2a5c:	01001104 	movi	r4,68
    2a60:	00002ec0 	call	2ec <LCD_WR_DATA>
    2a64:	0009883a 	mov	r4,zero
    2a68:	00002ec0 	call	2ec <LCD_WR_DATA>
    2a6c:	01001944 	movi	r4,101
    2a70:	00002ec0 	call	2ec <LCD_WR_DATA>
    2a74:	0009883a 	mov	r4,zero
    2a78:	00002ec0 	call	2ec <LCD_WR_DATA>
    2a7c:	01001d84 	movi	r4,118
    2a80:	00002ec0 	call	2ec <LCD_WR_DATA>
    2a84:	0009883a 	mov	r4,zero
    2a88:	00002ec0 	call	2ec <LCD_WR_DATA>
    2a8c:	01002204 	movi	r4,136
    2a90:	00002ec0 	call	2ec <LCD_WR_DATA>
    2a94:	0009883a 	mov	r4,zero
    2a98:	00002ec0 	call	2ec <LCD_WR_DATA>
    2a9c:	01003184 	movi	r4,198
    2aa0:	00002680 	call	268 <LCD_WR_CMD>
    2aa4:	01000804 	movi	r4,32
    2aa8:	00002ec0 	call	2ec <LCD_WR_DATA>
    2aac:	0009883a 	mov	r4,zero
    2ab0:	00002ec0 	call	2ec <LCD_WR_DATA>
    2ab4:	010005c4 	movi	r4,23
    2ab8:	00002ec0 	call	2ec <LCD_WR_DATA>
    2abc:	0009883a 	mov	r4,zero
    2ac0:	00002ec0 	call	2ec <LCD_WR_DATA>
    2ac4:	01000044 	movi	r4,1
    2ac8:	00002ec0 	call	2ec <LCD_WR_DATA>
    2acc:	0009883a 	mov	r4,zero
    2ad0:	00002ec0 	call	2ec <LCD_WR_DATA>
    2ad4:	010031c4 	movi	r4,199
    2ad8:	00002680 	call	268 <LCD_WR_CMD>
    2adc:	0009883a 	mov	r4,zero
    2ae0:	00002ec0 	call	2ec <LCD_WR_DATA>
    2ae4:	0009883a 	mov	r4,zero
    2ae8:	00002ec0 	call	2ec <LCD_WR_DATA>
    2aec:	0009883a 	mov	r4,zero
    2af0:	00002ec0 	call	2ec <LCD_WR_DATA>
    2af4:	0009883a 	mov	r4,zero
    2af8:	00002ec0 	call	2ec <LCD_WR_DATA>
    2afc:	01003204 	movi	r4,200
    2b00:	00002680 	call	268 <LCD_WR_CMD>
    2b04:	0009883a 	mov	r4,zero
    2b08:	00002ec0 	call	2ec <LCD_WR_DATA>
    2b0c:	0009883a 	mov	r4,zero
    2b10:	00002ec0 	call	2ec <LCD_WR_DATA>
    2b14:	0009883a 	mov	r4,zero
    2b18:	00002ec0 	call	2ec <LCD_WR_DATA>
    2b1c:	0009883a 	mov	r4,zero
    2b20:	00002ec0 	call	2ec <LCD_WR_DATA>
    2b24:	01003244 	movi	r4,201
    2b28:	00002680 	call	268 <LCD_WR_CMD>
    2b2c:	0009883a 	mov	r4,zero
    2b30:	00002ec0 	call	2ec <LCD_WR_DATA>
    2b34:	0009883a 	mov	r4,zero
    2b38:	00002ec0 	call	2ec <LCD_WR_DATA>
    2b3c:	0009883a 	mov	r4,zero
    2b40:	00002ec0 	call	2ec <LCD_WR_DATA>
    2b44:	0009883a 	mov	r4,zero
    2b48:	00002ec0 	call	2ec <LCD_WR_DATA>
    2b4c:	0009883a 	mov	r4,zero
    2b50:	00002ec0 	call	2ec <LCD_WR_DATA>
    2b54:	0009883a 	mov	r4,zero
    2b58:	00002ec0 	call	2ec <LCD_WR_DATA>
    2b5c:	0009883a 	mov	r4,zero
    2b60:	00002ec0 	call	2ec <LCD_WR_DATA>
    2b64:	0009883a 	mov	r4,zero
    2b68:	00002ec0 	call	2ec <LCD_WR_DATA>
    2b6c:	0009883a 	mov	r4,zero
    2b70:	00002ec0 	call	2ec <LCD_WR_DATA>
    2b74:	0009883a 	mov	r4,zero
    2b78:	00002ec0 	call	2ec <LCD_WR_DATA>
    2b7c:	0009883a 	mov	r4,zero
    2b80:	00002ec0 	call	2ec <LCD_WR_DATA>
    2b84:	0009883a 	mov	r4,zero
    2b88:	00002ec0 	call	2ec <LCD_WR_DATA>
    2b8c:	0009883a 	mov	r4,zero
    2b90:	00002ec0 	call	2ec <LCD_WR_DATA>
    2b94:	0009883a 	mov	r4,zero
    2b98:	00002ec0 	call	2ec <LCD_WR_DATA>
    2b9c:	0009883a 	mov	r4,zero
    2ba0:	00002ec0 	call	2ec <LCD_WR_DATA>
    2ba4:	0009883a 	mov	r4,zero
    2ba8:	00002ec0 	call	2ec <LCD_WR_DATA>
    2bac:	01003804 	movi	r4,224
    2bb0:	00002680 	call	268 <LCD_WR_CMD>
    2bb4:	01000584 	movi	r4,22
    2bb8:	00002ec0 	call	2ec <LCD_WR_DATA>
    2bbc:	0009883a 	mov	r4,zero
    2bc0:	00002ec0 	call	2ec <LCD_WR_DATA>
    2bc4:	01000704 	movi	r4,28
    2bc8:	00002ec0 	call	2ec <LCD_WR_DATA>
    2bcc:	0009883a 	mov	r4,zero
    2bd0:	00002ec0 	call	2ec <LCD_WR_DATA>
    2bd4:	01000844 	movi	r4,33
    2bd8:	00002ec0 	call	2ec <LCD_WR_DATA>
    2bdc:	0009883a 	mov	r4,zero
    2be0:	00002ec0 	call	2ec <LCD_WR_DATA>
    2be4:	01000d84 	movi	r4,54
    2be8:	00002ec0 	call	2ec <LCD_WR_DATA>
    2bec:	0009883a 	mov	r4,zero
    2bf0:	00002ec0 	call	2ec <LCD_WR_DATA>
    2bf4:	01001184 	movi	r4,70
    2bf8:	00002ec0 	call	2ec <LCD_WR_DATA>
    2bfc:	0009883a 	mov	r4,zero
    2c00:	00002ec0 	call	2ec <LCD_WR_DATA>
    2c04:	01001484 	movi	r4,82
    2c08:	00002ec0 	call	2ec <LCD_WR_DATA>
    2c0c:	0009883a 	mov	r4,zero
    2c10:	00002ec0 	call	2ec <LCD_WR_DATA>
    2c14:	01001904 	movi	r4,100
    2c18:	00002ec0 	call	2ec <LCD_WR_DATA>
    2c1c:	0009883a 	mov	r4,zero
    2c20:	00002ec0 	call	2ec <LCD_WR_DATA>
    2c24:	01001e84 	movi	r4,122
    2c28:	00002ec0 	call	2ec <LCD_WR_DATA>
    2c2c:	0009883a 	mov	r4,zero
    2c30:	00002ec0 	call	2ec <LCD_WR_DATA>
    2c34:	010022c4 	movi	r4,139
    2c38:	00002ec0 	call	2ec <LCD_WR_DATA>
    2c3c:	0009883a 	mov	r4,zero
    2c40:	00002ec0 	call	2ec <LCD_WR_DATA>
    2c44:	01002644 	movi	r4,153
    2c48:	00002ec0 	call	2ec <LCD_WR_DATA>
    2c4c:	0009883a 	mov	r4,zero
    2c50:	00002ec0 	call	2ec <LCD_WR_DATA>
    2c54:	01002a04 	movi	r4,168
    2c58:	00002ec0 	call	2ec <LCD_WR_DATA>
    2c5c:	0009883a 	mov	r4,zero
    2c60:	00002ec0 	call	2ec <LCD_WR_DATA>
    2c64:	01002e44 	movi	r4,185
    2c68:	00002ec0 	call	2ec <LCD_WR_DATA>
    2c6c:	0009883a 	mov	r4,zero
    2c70:	00002ec0 	call	2ec <LCD_WR_DATA>
    2c74:	01003104 	movi	r4,196
    2c78:	00002ec0 	call	2ec <LCD_WR_DATA>
    2c7c:	0009883a 	mov	r4,zero
    2c80:	00002ec0 	call	2ec <LCD_WR_DATA>
    2c84:	01003284 	movi	r4,202
    2c88:	00002ec0 	call	2ec <LCD_WR_DATA>
    2c8c:	0009883a 	mov	r4,zero
    2c90:	00002ec0 	call	2ec <LCD_WR_DATA>
    2c94:	01003484 	movi	r4,210
    2c98:	00002ec0 	call	2ec <LCD_WR_DATA>
    2c9c:	0009883a 	mov	r4,zero
    2ca0:	00002ec0 	call	2ec <LCD_WR_DATA>
    2ca4:	01003644 	movi	r4,217
    2ca8:	00002ec0 	call	2ec <LCD_WR_DATA>
    2cac:	0009883a 	mov	r4,zero
    2cb0:	00002ec0 	call	2ec <LCD_WR_DATA>
    2cb4:	01003804 	movi	r4,224
    2cb8:	00002ec0 	call	2ec <LCD_WR_DATA>
    2cbc:	0009883a 	mov	r4,zero
    2cc0:	00002ec0 	call	2ec <LCD_WR_DATA>
    2cc4:	01003cc4 	movi	r4,243
    2cc8:	00002ec0 	call	2ec <LCD_WR_DATA>
    2ccc:	0009883a 	mov	r4,zero
    2cd0:	00002ec0 	call	2ec <LCD_WR_DATA>
    2cd4:	01003844 	movi	r4,225
    2cd8:	00002680 	call	268 <LCD_WR_CMD>
    2cdc:	01000584 	movi	r4,22
    2ce0:	00002ec0 	call	2ec <LCD_WR_DATA>
    2ce4:	0009883a 	mov	r4,zero
    2ce8:	00002ec0 	call	2ec <LCD_WR_DATA>
    2cec:	01000704 	movi	r4,28
    2cf0:	00002ec0 	call	2ec <LCD_WR_DATA>
    2cf4:	0009883a 	mov	r4,zero
    2cf8:	00002ec0 	call	2ec <LCD_WR_DATA>
    2cfc:	01000884 	movi	r4,34
    2d00:	00002ec0 	call	2ec <LCD_WR_DATA>
    2d04:	0009883a 	mov	r4,zero
    2d08:	00002ec0 	call	2ec <LCD_WR_DATA>
    2d0c:	01000d84 	movi	r4,54
    2d10:	00002ec0 	call	2ec <LCD_WR_DATA>
    2d14:	0009883a 	mov	r4,zero
    2d18:	00002ec0 	call	2ec <LCD_WR_DATA>
    2d1c:	01001144 	movi	r4,69
    2d20:	00002ec0 	call	2ec <LCD_WR_DATA>
    2d24:	0009883a 	mov	r4,zero
    2d28:	00002ec0 	call	2ec <LCD_WR_DATA>
    2d2c:	01001484 	movi	r4,82
    2d30:	00002ec0 	call	2ec <LCD_WR_DATA>
    2d34:	0009883a 	mov	r4,zero
    2d38:	00002ec0 	call	2ec <LCD_WR_DATA>
    2d3c:	01001904 	movi	r4,100
    2d40:	00002ec0 	call	2ec <LCD_WR_DATA>
    2d44:	0009883a 	mov	r4,zero
    2d48:	00002ec0 	call	2ec <LCD_WR_DATA>
    2d4c:	01001e84 	movi	r4,122
    2d50:	00002ec0 	call	2ec <LCD_WR_DATA>
    2d54:	0009883a 	mov	r4,zero
    2d58:	00002ec0 	call	2ec <LCD_WR_DATA>
    2d5c:	010022c4 	movi	r4,139
    2d60:	00002ec0 	call	2ec <LCD_WR_DATA>
    2d64:	0009883a 	mov	r4,zero
    2d68:	00002ec0 	call	2ec <LCD_WR_DATA>
    2d6c:	01002644 	movi	r4,153
    2d70:	00002ec0 	call	2ec <LCD_WR_DATA>
    2d74:	0009883a 	mov	r4,zero
    2d78:	00002ec0 	call	2ec <LCD_WR_DATA>
    2d7c:	01002a04 	movi	r4,168
    2d80:	00002ec0 	call	2ec <LCD_WR_DATA>
    2d84:	0009883a 	mov	r4,zero
    2d88:	00002ec0 	call	2ec <LCD_WR_DATA>
    2d8c:	01002e44 	movi	r4,185
    2d90:	00002ec0 	call	2ec <LCD_WR_DATA>
    2d94:	0009883a 	mov	r4,zero
    2d98:	00002ec0 	call	2ec <LCD_WR_DATA>
    2d9c:	01003104 	movi	r4,196
    2da0:	00002ec0 	call	2ec <LCD_WR_DATA>
    2da4:	0009883a 	mov	r4,zero
    2da8:	00002ec0 	call	2ec <LCD_WR_DATA>
    2dac:	01003284 	movi	r4,202
    2db0:	00002ec0 	call	2ec <LCD_WR_DATA>
    2db4:	0009883a 	mov	r4,zero
    2db8:	00002ec0 	call	2ec <LCD_WR_DATA>
    2dbc:	01003484 	movi	r4,210
    2dc0:	00002ec0 	call	2ec <LCD_WR_DATA>
    2dc4:	0009883a 	mov	r4,zero
    2dc8:	00002ec0 	call	2ec <LCD_WR_DATA>
    2dcc:	01003604 	movi	r4,216
    2dd0:	00002ec0 	call	2ec <LCD_WR_DATA>
    2dd4:	0009883a 	mov	r4,zero
    2dd8:	00002ec0 	call	2ec <LCD_WR_DATA>
    2ddc:	01003804 	movi	r4,224
    2de0:	00002ec0 	call	2ec <LCD_WR_DATA>
    2de4:	0009883a 	mov	r4,zero
    2de8:	00002ec0 	call	2ec <LCD_WR_DATA>
    2dec:	01003cc4 	movi	r4,243
    2df0:	00002ec0 	call	2ec <LCD_WR_DATA>
    2df4:	0009883a 	mov	r4,zero
    2df8:	00002ec0 	call	2ec <LCD_WR_DATA>
    2dfc:	01003884 	movi	r4,226
    2e00:	00002680 	call	268 <LCD_WR_CMD>
    2e04:	01000144 	movi	r4,5
    2e08:	00002ec0 	call	2ec <LCD_WR_DATA>
    2e0c:	0009883a 	mov	r4,zero
    2e10:	00002ec0 	call	2ec <LCD_WR_DATA>
    2e14:	010002c4 	movi	r4,11
    2e18:	00002ec0 	call	2ec <LCD_WR_DATA>
    2e1c:	0009883a 	mov	r4,zero
    2e20:	00002ec0 	call	2ec <LCD_WR_DATA>
    2e24:	010006c4 	movi	r4,27
    2e28:	00002ec0 	call	2ec <LCD_WR_DATA>
    2e2c:	0009883a 	mov	r4,zero
    2e30:	00002ec0 	call	2ec <LCD_WR_DATA>
    2e34:	01000d04 	movi	r4,52
    2e38:	00002ec0 	call	2ec <LCD_WR_DATA>
    2e3c:	0009883a 	mov	r4,zero
    2e40:	00002ec0 	call	2ec <LCD_WR_DATA>
    2e44:	01001104 	movi	r4,68
    2e48:	00002ec0 	call	2ec <LCD_WR_DATA>
    2e4c:	0009883a 	mov	r4,zero
    2e50:	00002ec0 	call	2ec <LCD_WR_DATA>
    2e54:	010013c4 	movi	r4,79
    2e58:	00002ec0 	call	2ec <LCD_WR_DATA>
    2e5c:	0009883a 	mov	r4,zero
    2e60:	00002ec0 	call	2ec <LCD_WR_DATA>
    2e64:	01001844 	movi	r4,97
    2e68:	00002ec0 	call	2ec <LCD_WR_DATA>
    2e6c:	0009883a 	mov	r4,zero
    2e70:	00002ec0 	call	2ec <LCD_WR_DATA>
    2e74:	01001e44 	movi	r4,121
    2e78:	00002ec0 	call	2ec <LCD_WR_DATA>
    2e7c:	0009883a 	mov	r4,zero
    2e80:	00002ec0 	call	2ec <LCD_WR_DATA>
    2e84:	01002204 	movi	r4,136
    2e88:	00002ec0 	call	2ec <LCD_WR_DATA>
    2e8c:	0009883a 	mov	r4,zero
    2e90:	00002ec0 	call	2ec <LCD_WR_DATA>
    2e94:	010025c4 	movi	r4,151
    2e98:	00002ec0 	call	2ec <LCD_WR_DATA>
    2e9c:	0009883a 	mov	r4,zero
    2ea0:	00002ec0 	call	2ec <LCD_WR_DATA>
    2ea4:	01002984 	movi	r4,166
    2ea8:	00002ec0 	call	2ec <LCD_WR_DATA>
    2eac:	0009883a 	mov	r4,zero
    2eb0:	00002ec0 	call	2ec <LCD_WR_DATA>
    2eb4:	01002dc4 	movi	r4,183
    2eb8:	00002ec0 	call	2ec <LCD_WR_DATA>
    2ebc:	0009883a 	mov	r4,zero
    2ec0:	00002ec0 	call	2ec <LCD_WR_DATA>
    2ec4:	01003084 	movi	r4,194
    2ec8:	00002ec0 	call	2ec <LCD_WR_DATA>
    2ecc:	0009883a 	mov	r4,zero
    2ed0:	00002ec0 	call	2ec <LCD_WR_DATA>
    2ed4:	010031c4 	movi	r4,199
    2ed8:	00002ec0 	call	2ec <LCD_WR_DATA>
    2edc:	0009883a 	mov	r4,zero
    2ee0:	00002ec0 	call	2ec <LCD_WR_DATA>
    2ee4:	01003444 	movi	r4,209
    2ee8:	00002ec0 	call	2ec <LCD_WR_DATA>
    2eec:	0009883a 	mov	r4,zero
    2ef0:	00002ec0 	call	2ec <LCD_WR_DATA>
    2ef4:	01003584 	movi	r4,214
    2ef8:	00002ec0 	call	2ec <LCD_WR_DATA>
    2efc:	0009883a 	mov	r4,zero
    2f00:	00002ec0 	call	2ec <LCD_WR_DATA>
    2f04:	01003744 	movi	r4,221
    2f08:	00002ec0 	call	2ec <LCD_WR_DATA>
    2f0c:	0009883a 	mov	r4,zero
    2f10:	00002ec0 	call	2ec <LCD_WR_DATA>
    2f14:	01003cc4 	movi	r4,243
    2f18:	00002ec0 	call	2ec <LCD_WR_DATA>
    2f1c:	0009883a 	mov	r4,zero
    2f20:	00002ec0 	call	2ec <LCD_WR_DATA>
    2f24:	010038c4 	movi	r4,227
    2f28:	00002680 	call	268 <LCD_WR_CMD>
    2f2c:	01000144 	movi	r4,5
    2f30:	00002ec0 	call	2ec <LCD_WR_DATA>
    2f34:	0009883a 	mov	r4,zero
    2f38:	00002ec0 	call	2ec <LCD_WR_DATA>
    2f3c:	01000284 	movi	r4,10
    2f40:	00002ec0 	call	2ec <LCD_WR_DATA>
    2f44:	0009883a 	mov	r4,zero
    2f48:	00002ec0 	call	2ec <LCD_WR_DATA>
    2f4c:	01000704 	movi	r4,28
    2f50:	00002ec0 	call	2ec <LCD_WR_DATA>
    2f54:	0009883a 	mov	r4,zero
    2f58:	00002ec0 	call	2ec <LCD_WR_DATA>
    2f5c:	01000cc4 	movi	r4,51
    2f60:	00002ec0 	call	2ec <LCD_WR_DATA>
    2f64:	0009883a 	mov	r4,zero
    2f68:	00002ec0 	call	2ec <LCD_WR_DATA>
    2f6c:	01001104 	movi	r4,68
    2f70:	00002ec0 	call	2ec <LCD_WR_DATA>
    2f74:	0009883a 	mov	r4,zero
    2f78:	00002ec0 	call	2ec <LCD_WR_DATA>
    2f7c:	01001404 	movi	r4,80
    2f80:	00002ec0 	call	2ec <LCD_WR_DATA>
    2f84:	0009883a 	mov	r4,zero
    2f88:	00002ec0 	call	2ec <LCD_WR_DATA>
    2f8c:	01001884 	movi	r4,98
    2f90:	00002ec0 	call	2ec <LCD_WR_DATA>
    2f94:	0009883a 	mov	r4,zero
    2f98:	00002ec0 	call	2ec <LCD_WR_DATA>
    2f9c:	01001e04 	movi	r4,120
    2fa0:	00002ec0 	call	2ec <LCD_WR_DATA>
    2fa4:	0009883a 	mov	r4,zero
    2fa8:	00002ec0 	call	2ec <LCD_WR_DATA>
    2fac:	01002204 	movi	r4,136
    2fb0:	00002ec0 	call	2ec <LCD_WR_DATA>
    2fb4:	0009883a 	mov	r4,zero
    2fb8:	00002ec0 	call	2ec <LCD_WR_DATA>
    2fbc:	010025c4 	movi	r4,151
    2fc0:	00002ec0 	call	2ec <LCD_WR_DATA>
    2fc4:	0009883a 	mov	r4,zero
    2fc8:	00002ec0 	call	2ec <LCD_WR_DATA>
    2fcc:	01002984 	movi	r4,166
    2fd0:	00002ec0 	call	2ec <LCD_WR_DATA>
    2fd4:	0009883a 	mov	r4,zero
    2fd8:	00002ec0 	call	2ec <LCD_WR_DATA>
    2fdc:	01002dc4 	movi	r4,183
    2fe0:	00002ec0 	call	2ec <LCD_WR_DATA>
    2fe4:	0009883a 	mov	r4,zero
    2fe8:	00002ec0 	call	2ec <LCD_WR_DATA>
    2fec:	01003084 	movi	r4,194
    2ff0:	00002ec0 	call	2ec <LCD_WR_DATA>
    2ff4:	0009883a 	mov	r4,zero
    2ff8:	00002ec0 	call	2ec <LCD_WR_DATA>
    2ffc:	010031c4 	movi	r4,199
    3000:	00002ec0 	call	2ec <LCD_WR_DATA>
    3004:	0009883a 	mov	r4,zero
    3008:	00002ec0 	call	2ec <LCD_WR_DATA>
    300c:	01003444 	movi	r4,209
    3010:	00002ec0 	call	2ec <LCD_WR_DATA>
    3014:	0009883a 	mov	r4,zero
    3018:	00002ec0 	call	2ec <LCD_WR_DATA>
    301c:	01003544 	movi	r4,213
    3020:	00002ec0 	call	2ec <LCD_WR_DATA>
    3024:	0009883a 	mov	r4,zero
    3028:	00002ec0 	call	2ec <LCD_WR_DATA>
    302c:	01003744 	movi	r4,221
    3030:	00002ec0 	call	2ec <LCD_WR_DATA>
    3034:	0009883a 	mov	r4,zero
    3038:	00002ec0 	call	2ec <LCD_WR_DATA>
    303c:	01003cc4 	movi	r4,243
    3040:	00002ec0 	call	2ec <LCD_WR_DATA>
    3044:	0009883a 	mov	r4,zero
    3048:	00002ec0 	call	2ec <LCD_WR_DATA>
    304c:	01003904 	movi	r4,228
    3050:	00002680 	call	268 <LCD_WR_CMD>
    3054:	01000044 	movi	r4,1
    3058:	00002ec0 	call	2ec <LCD_WR_DATA>
    305c:	0009883a 	mov	r4,zero
    3060:	00002ec0 	call	2ec <LCD_WR_DATA>
    3064:	01000044 	movi	r4,1
    3068:	00002ec0 	call	2ec <LCD_WR_DATA>
    306c:	0009883a 	mov	r4,zero
    3070:	00002ec0 	call	2ec <LCD_WR_DATA>
    3074:	01000084 	movi	r4,2
    3078:	00002ec0 	call	2ec <LCD_WR_DATA>
    307c:	0009883a 	mov	r4,zero
    3080:	00002ec0 	call	2ec <LCD_WR_DATA>
    3084:	01000a84 	movi	r4,42
    3088:	00002ec0 	call	2ec <LCD_WR_DATA>
    308c:	0009883a 	mov	r4,zero
    3090:	00002ec0 	call	2ec <LCD_WR_DATA>
    3094:	01000f04 	movi	r4,60
    3098:	00002ec0 	call	2ec <LCD_WR_DATA>
    309c:	0009883a 	mov	r4,zero
    30a0:	00002ec0 	call	2ec <LCD_WR_DATA>
    30a4:	010012c4 	movi	r4,75
    30a8:	00002ec0 	call	2ec <LCD_WR_DATA>
    30ac:	0009883a 	mov	r4,zero
    30b0:	00002ec0 	call	2ec <LCD_WR_DATA>
    30b4:	01001744 	movi	r4,93
    30b8:	00002ec0 	call	2ec <LCD_WR_DATA>
    30bc:	0009883a 	mov	r4,zero
    30c0:	00002ec0 	call	2ec <LCD_WR_DATA>
    30c4:	01001d04 	movi	r4,116
    30c8:	00002ec0 	call	2ec <LCD_WR_DATA>
    30cc:	0009883a 	mov	r4,zero
    30d0:	00002ec0 	call	2ec <LCD_WR_DATA>
    30d4:	01002104 	movi	r4,132
    30d8:	00002ec0 	call	2ec <LCD_WR_DATA>
    30dc:	0009883a 	mov	r4,zero
    30e0:	00002ec0 	call	2ec <LCD_WR_DATA>
    30e4:	010024c4 	movi	r4,147
    30e8:	00002ec0 	call	2ec <LCD_WR_DATA>
    30ec:	0009883a 	mov	r4,zero
    30f0:	00002ec0 	call	2ec <LCD_WR_DATA>
    30f4:	01002884 	movi	r4,162
    30f8:	00002ec0 	call	2ec <LCD_WR_DATA>
    30fc:	0009883a 	mov	r4,zero
    3100:	00002ec0 	call	2ec <LCD_WR_DATA>
    3104:	01002cc4 	movi	r4,179
    3108:	00002ec0 	call	2ec <LCD_WR_DATA>
    310c:	0009883a 	mov	r4,zero
    3110:	00002ec0 	call	2ec <LCD_WR_DATA>
    3114:	01002f84 	movi	r4,190
    3118:	00002ec0 	call	2ec <LCD_WR_DATA>
    311c:	0009883a 	mov	r4,zero
    3120:	00002ec0 	call	2ec <LCD_WR_DATA>
    3124:	01003104 	movi	r4,196
    3128:	00002ec0 	call	2ec <LCD_WR_DATA>
    312c:	0009883a 	mov	r4,zero
    3130:	00002ec0 	call	2ec <LCD_WR_DATA>
    3134:	01003344 	movi	r4,205
    3138:	00002ec0 	call	2ec <LCD_WR_DATA>
    313c:	0009883a 	mov	r4,zero
    3140:	00002ec0 	call	2ec <LCD_WR_DATA>
    3144:	010034c4 	movi	r4,211
    3148:	00002ec0 	call	2ec <LCD_WR_DATA>
    314c:	0009883a 	mov	r4,zero
    3150:	00002ec0 	call	2ec <LCD_WR_DATA>
    3154:	01003744 	movi	r4,221
    3158:	00002ec0 	call	2ec <LCD_WR_DATA>
    315c:	0009883a 	mov	r4,zero
    3160:	00002ec0 	call	2ec <LCD_WR_DATA>
    3164:	01003cc4 	movi	r4,243
    3168:	00002ec0 	call	2ec <LCD_WR_DATA>
    316c:	0009883a 	mov	r4,zero
    3170:	00002ec0 	call	2ec <LCD_WR_DATA>
    3174:	01003944 	movi	r4,229
    3178:	00002680 	call	268 <LCD_WR_CMD>
    317c:	0009883a 	mov	r4,zero
    3180:	00002ec0 	call	2ec <LCD_WR_DATA>
    3184:	0009883a 	mov	r4,zero
    3188:	00002ec0 	call	2ec <LCD_WR_DATA>
    318c:	0009883a 	mov	r4,zero
    3190:	00002ec0 	call	2ec <LCD_WR_DATA>
    3194:	0009883a 	mov	r4,zero
    3198:	00002ec0 	call	2ec <LCD_WR_DATA>
    319c:	01000084 	movi	r4,2
    31a0:	00002ec0 	call	2ec <LCD_WR_DATA>
    31a4:	0009883a 	mov	r4,zero
    31a8:	00002ec0 	call	2ec <LCD_WR_DATA>
    31ac:	01000a44 	movi	r4,41
    31b0:	00002ec0 	call	2ec <LCD_WR_DATA>
    31b4:	0009883a 	mov	r4,zero
    31b8:	00002ec0 	call	2ec <LCD_WR_DATA>
    31bc:	01000f04 	movi	r4,60
    31c0:	00002ec0 	call	2ec <LCD_WR_DATA>
    31c4:	0009883a 	mov	r4,zero
    31c8:	00002ec0 	call	2ec <LCD_WR_DATA>
    31cc:	010012c4 	movi	r4,75
    31d0:	00002ec0 	call	2ec <LCD_WR_DATA>
    31d4:	0009883a 	mov	r4,zero
    31d8:	00002ec0 	call	2ec <LCD_WR_DATA>
    31dc:	01001744 	movi	r4,93
    31e0:	00002ec0 	call	2ec <LCD_WR_DATA>
    31e4:	0009883a 	mov	r4,zero
    31e8:	00002ec0 	call	2ec <LCD_WR_DATA>
    31ec:	01001d04 	movi	r4,116
    31f0:	00002ec0 	call	2ec <LCD_WR_DATA>
    31f4:	0009883a 	mov	r4,zero
    31f8:	00002ec0 	call	2ec <LCD_WR_DATA>
    31fc:	01002104 	movi	r4,132
    3200:	00002ec0 	call	2ec <LCD_WR_DATA>
    3204:	0009883a 	mov	r4,zero
    3208:	00002ec0 	call	2ec <LCD_WR_DATA>
    320c:	010024c4 	movi	r4,147
    3210:	00002ec0 	call	2ec <LCD_WR_DATA>
    3214:	0009883a 	mov	r4,zero
    3218:	00002ec0 	call	2ec <LCD_WR_DATA>
    321c:	01002884 	movi	r4,162
    3220:	00002ec0 	call	2ec <LCD_WR_DATA>
    3224:	0009883a 	mov	r4,zero
    3228:	00002ec0 	call	2ec <LCD_WR_DATA>
    322c:	01002cc4 	movi	r4,179
    3230:	00002ec0 	call	2ec <LCD_WR_DATA>
    3234:	0009883a 	mov	r4,zero
    3238:	00002ec0 	call	2ec <LCD_WR_DATA>
    323c:	01002f84 	movi	r4,190
    3240:	00002ec0 	call	2ec <LCD_WR_DATA>
    3244:	0009883a 	mov	r4,zero
    3248:	00002ec0 	call	2ec <LCD_WR_DATA>
    324c:	01003104 	movi	r4,196
    3250:	00002ec0 	call	2ec <LCD_WR_DATA>
    3254:	0009883a 	mov	r4,zero
    3258:	00002ec0 	call	2ec <LCD_WR_DATA>
    325c:	01003344 	movi	r4,205
    3260:	00002ec0 	call	2ec <LCD_WR_DATA>
    3264:	0009883a 	mov	r4,zero
    3268:	00002ec0 	call	2ec <LCD_WR_DATA>
    326c:	010034c4 	movi	r4,211
    3270:	00002ec0 	call	2ec <LCD_WR_DATA>
    3274:	0009883a 	mov	r4,zero
    3278:	00002ec0 	call	2ec <LCD_WR_DATA>
    327c:	01003704 	movi	r4,220
    3280:	00002ec0 	call	2ec <LCD_WR_DATA>
    3284:	0009883a 	mov	r4,zero
    3288:	00002ec0 	call	2ec <LCD_WR_DATA>
    328c:	01003cc4 	movi	r4,243
    3290:	00002ec0 	call	2ec <LCD_WR_DATA>
    3294:	0009883a 	mov	r4,zero
    3298:	00002ec0 	call	2ec <LCD_WR_DATA>
    329c:	01003984 	movi	r4,230
    32a0:	00002680 	call	268 <LCD_WR_CMD>
    32a4:	01000444 	movi	r4,17
    32a8:	00002ec0 	call	2ec <LCD_WR_DATA>
    32ac:	0009883a 	mov	r4,zero
    32b0:	00002ec0 	call	2ec <LCD_WR_DATA>
    32b4:	01000d04 	movi	r4,52
    32b8:	00002ec0 	call	2ec <LCD_WR_DATA>
    32bc:	0009883a 	mov	r4,zero
    32c0:	00002ec0 	call	2ec <LCD_WR_DATA>
    32c4:	01001584 	movi	r4,86
    32c8:	00002ec0 	call	2ec <LCD_WR_DATA>
    32cc:	0009883a 	mov	r4,zero
    32d0:	00002ec0 	call	2ec <LCD_WR_DATA>
    32d4:	01001d84 	movi	r4,118
    32d8:	00002ec0 	call	2ec <LCD_WR_DATA>
    32dc:	0009883a 	mov	r4,zero
    32e0:	00002ec0 	call	2ec <LCD_WR_DATA>
    32e4:	01001dc4 	movi	r4,119
    32e8:	00002ec0 	call	2ec <LCD_WR_DATA>
    32ec:	0009883a 	mov	r4,zero
    32f0:	00002ec0 	call	2ec <LCD_WR_DATA>
    32f4:	01001984 	movi	r4,102
    32f8:	00002ec0 	call	2ec <LCD_WR_DATA>
    32fc:	0009883a 	mov	r4,zero
    3300:	00002ec0 	call	2ec <LCD_WR_DATA>
    3304:	01002204 	movi	r4,136
    3308:	00002ec0 	call	2ec <LCD_WR_DATA>
    330c:	0009883a 	mov	r4,zero
    3310:	00002ec0 	call	2ec <LCD_WR_DATA>
    3314:	01002644 	movi	r4,153
    3318:	00002ec0 	call	2ec <LCD_WR_DATA>
    331c:	0009883a 	mov	r4,zero
    3320:	00002ec0 	call	2ec <LCD_WR_DATA>
    3324:	01002ec4 	movi	r4,187
    3328:	00002ec0 	call	2ec <LCD_WR_DATA>
    332c:	0009883a 	mov	r4,zero
    3330:	00002ec0 	call	2ec <LCD_WR_DATA>
    3334:	01002644 	movi	r4,153
    3338:	00002ec0 	call	2ec <LCD_WR_DATA>
    333c:	0009883a 	mov	r4,zero
    3340:	00002ec0 	call	2ec <LCD_WR_DATA>
    3344:	01001984 	movi	r4,102
    3348:	00002ec0 	call	2ec <LCD_WR_DATA>
    334c:	0009883a 	mov	r4,zero
    3350:	00002ec0 	call	2ec <LCD_WR_DATA>
    3354:	01001544 	movi	r4,85
    3358:	00002ec0 	call	2ec <LCD_WR_DATA>
    335c:	0009883a 	mov	r4,zero
    3360:	00002ec0 	call	2ec <LCD_WR_DATA>
    3364:	01001544 	movi	r4,85
    3368:	00002ec0 	call	2ec <LCD_WR_DATA>
    336c:	0009883a 	mov	r4,zero
    3370:	00002ec0 	call	2ec <LCD_WR_DATA>
    3374:	01001144 	movi	r4,69
    3378:	00002ec0 	call	2ec <LCD_WR_DATA>
    337c:	0009883a 	mov	r4,zero
    3380:	00002ec0 	call	2ec <LCD_WR_DATA>
    3384:	010010c4 	movi	r4,67
    3388:	00002ec0 	call	2ec <LCD_WR_DATA>
    338c:	0009883a 	mov	r4,zero
    3390:	00002ec0 	call	2ec <LCD_WR_DATA>
    3394:	01001104 	movi	r4,68
    3398:	00002ec0 	call	2ec <LCD_WR_DATA>
    339c:	0009883a 	mov	r4,zero
    33a0:	00002ec0 	call	2ec <LCD_WR_DATA>
    33a4:	010039c4 	movi	r4,231
    33a8:	00002680 	call	268 <LCD_WR_CMD>
    33ac:	01000c84 	movi	r4,50
    33b0:	00002ec0 	call	2ec <LCD_WR_DATA>
    33b4:	0009883a 	mov	r4,zero
    33b8:	00002ec0 	call	2ec <LCD_WR_DATA>
    33bc:	01001544 	movi	r4,85
    33c0:	00002ec0 	call	2ec <LCD_WR_DATA>
    33c4:	0009883a 	mov	r4,zero
    33c8:	00002ec0 	call	2ec <LCD_WR_DATA>
    33cc:	01001d84 	movi	r4,118
    33d0:	00002ec0 	call	2ec <LCD_WR_DATA>
    33d4:	0009883a 	mov	r4,zero
    33d8:	00002ec0 	call	2ec <LCD_WR_DATA>
    33dc:	01001984 	movi	r4,102
    33e0:	00002ec0 	call	2ec <LCD_WR_DATA>
    33e4:	0009883a 	mov	r4,zero
    33e8:	00002ec0 	call	2ec <LCD_WR_DATA>
    33ec:	010019c4 	movi	r4,103
    33f0:	00002ec0 	call	2ec <LCD_WR_DATA>
    33f4:	0009883a 	mov	r4,zero
    33f8:	00002ec0 	call	2ec <LCD_WR_DATA>
    33fc:	010019c4 	movi	r4,103
    3400:	00002ec0 	call	2ec <LCD_WR_DATA>
    3404:	0009883a 	mov	r4,zero
    3408:	00002ec0 	call	2ec <LCD_WR_DATA>
    340c:	010021c4 	movi	r4,135
    3410:	00002ec0 	call	2ec <LCD_WR_DATA>
    3414:	0009883a 	mov	r4,zero
    3418:	00002ec0 	call	2ec <LCD_WR_DATA>
    341c:	01002644 	movi	r4,153
    3420:	00002ec0 	call	2ec <LCD_WR_DATA>
    3424:	0009883a 	mov	r4,zero
    3428:	00002ec0 	call	2ec <LCD_WR_DATA>
    342c:	01002ec4 	movi	r4,187
    3430:	00002ec0 	call	2ec <LCD_WR_DATA>
    3434:	0009883a 	mov	r4,zero
    3438:	00002ec0 	call	2ec <LCD_WR_DATA>
    343c:	01002644 	movi	r4,153
    3440:	00002ec0 	call	2ec <LCD_WR_DATA>
    3444:	0009883a 	mov	r4,zero
    3448:	00002ec0 	call	2ec <LCD_WR_DATA>
    344c:	01001dc4 	movi	r4,119
    3450:	00002ec0 	call	2ec <LCD_WR_DATA>
    3454:	0009883a 	mov	r4,zero
    3458:	00002ec0 	call	2ec <LCD_WR_DATA>
    345c:	01001104 	movi	r4,68
    3460:	00002ec0 	call	2ec <LCD_WR_DATA>
    3464:	0009883a 	mov	r4,zero
    3468:	00002ec0 	call	2ec <LCD_WR_DATA>
    346c:	01001584 	movi	r4,86
    3470:	00002ec0 	call	2ec <LCD_WR_DATA>
    3474:	0009883a 	mov	r4,zero
    3478:	00002ec0 	call	2ec <LCD_WR_DATA>
    347c:	010008c4 	movi	r4,35
    3480:	00002ec0 	call	2ec <LCD_WR_DATA>
    3484:	0009883a 	mov	r4,zero
    3488:	00002ec0 	call	2ec <LCD_WR_DATA>
    348c:	01000cc4 	movi	r4,51
    3490:	00002ec0 	call	2ec <LCD_WR_DATA>
    3494:	0009883a 	mov	r4,zero
    3498:	00002ec0 	call	2ec <LCD_WR_DATA>
    349c:	01001144 	movi	r4,69
    34a0:	00002ec0 	call	2ec <LCD_WR_DATA>
    34a4:	0009883a 	mov	r4,zero
    34a8:	00002ec0 	call	2ec <LCD_WR_DATA>
    34ac:	01003a04 	movi	r4,232
    34b0:	00002680 	call	268 <LCD_WR_CMD>
    34b4:	0009883a 	mov	r4,zero
    34b8:	00002ec0 	call	2ec <LCD_WR_DATA>
    34bc:	0009883a 	mov	r4,zero
    34c0:	00002ec0 	call	2ec <LCD_WR_DATA>
    34c4:	01002644 	movi	r4,153
    34c8:	00002ec0 	call	2ec <LCD_WR_DATA>
    34cc:	0009883a 	mov	r4,zero
    34d0:	00002ec0 	call	2ec <LCD_WR_DATA>
    34d4:	010021c4 	movi	r4,135
    34d8:	00002ec0 	call	2ec <LCD_WR_DATA>
    34dc:	0009883a 	mov	r4,zero
    34e0:	00002ec0 	call	2ec <LCD_WR_DATA>
    34e4:	01002204 	movi	r4,136
    34e8:	00002ec0 	call	2ec <LCD_WR_DATA>
    34ec:	0009883a 	mov	r4,zero
    34f0:	00002ec0 	call	2ec <LCD_WR_DATA>
    34f4:	01001dc4 	movi	r4,119
    34f8:	00002ec0 	call	2ec <LCD_WR_DATA>
    34fc:	0009883a 	mov	r4,zero
    3500:	00002ec0 	call	2ec <LCD_WR_DATA>
    3504:	01001984 	movi	r4,102
    3508:	00002ec0 	call	2ec <LCD_WR_DATA>
    350c:	0009883a 	mov	r4,zero
    3510:	00002ec0 	call	2ec <LCD_WR_DATA>
    3514:	01002204 	movi	r4,136
    3518:	00002ec0 	call	2ec <LCD_WR_DATA>
    351c:	0009883a 	mov	r4,zero
    3520:	00002ec0 	call	2ec <LCD_WR_DATA>
    3524:	01002a84 	movi	r4,170
    3528:	00002ec0 	call	2ec <LCD_WR_DATA>
    352c:	0009883a 	mov	r4,zero
    3530:	00002ec0 	call	2ec <LCD_WR_DATA>
    3534:	01002ec4 	movi	r4,187
    3538:	00002ec0 	call	2ec <LCD_WR_DATA>
    353c:	0009883a 	mov	r4,zero
    3540:	00002ec0 	call	2ec <LCD_WR_DATA>
    3544:	01002644 	movi	r4,153
    3548:	00002ec0 	call	2ec <LCD_WR_DATA>
    354c:	0009883a 	mov	r4,zero
    3550:	00002ec0 	call	2ec <LCD_WR_DATA>
    3554:	01001984 	movi	r4,102
    3558:	00002ec0 	call	2ec <LCD_WR_DATA>
    355c:	0009883a 	mov	r4,zero
    3560:	00002ec0 	call	2ec <LCD_WR_DATA>
    3564:	01001544 	movi	r4,85
    3568:	00002ec0 	call	2ec <LCD_WR_DATA>
    356c:	0009883a 	mov	r4,zero
    3570:	00002ec0 	call	2ec <LCD_WR_DATA>
    3574:	01001544 	movi	r4,85
    3578:	00002ec0 	call	2ec <LCD_WR_DATA>
    357c:	0009883a 	mov	r4,zero
    3580:	00002ec0 	call	2ec <LCD_WR_DATA>
    3584:	01001104 	movi	r4,68
    3588:	00002ec0 	call	2ec <LCD_WR_DATA>
    358c:	0009883a 	mov	r4,zero
    3590:	00002ec0 	call	2ec <LCD_WR_DATA>
    3594:	01001104 	movi	r4,68
    3598:	00002ec0 	call	2ec <LCD_WR_DATA>
    359c:	0009883a 	mov	r4,zero
    35a0:	00002ec0 	call	2ec <LCD_WR_DATA>
    35a4:	01001544 	movi	r4,85
    35a8:	00002ec0 	call	2ec <LCD_WR_DATA>
    35ac:	0009883a 	mov	r4,zero
    35b0:	00002ec0 	call	2ec <LCD_WR_DATA>
    35b4:	01003a44 	movi	r4,233
    35b8:	00002680 	call	268 <LCD_WR_CMD>
    35bc:	01002a84 	movi	r4,170
    35c0:	00002ec0 	call	2ec <LCD_WR_DATA>
    35c4:	0009883a 	mov	r4,zero
    35c8:	00002ec0 	call	2ec <LCD_WR_DATA>
    35cc:	0009883a 	mov	r4,zero
    35d0:	00002ec0 	call	2ec <LCD_WR_DATA>
    35d4:	0009883a 	mov	r4,zero
    35d8:	00002ec0 	call	2ec <LCD_WR_DATA>
    35dc:	0009883a 	mov	r4,zero
    35e0:	00002680 	call	268 <LCD_WR_CMD>
    35e4:	01002a84 	movi	r4,170
    35e8:	00002ec0 	call	2ec <LCD_WR_DATA>
    35ec:	010033c4 	movi	r4,207
    35f0:	00002680 	call	268 <LCD_WR_CMD>
    35f4:	0009883a 	mov	r4,zero
    35f8:	00002ec0 	call	2ec <LCD_WR_DATA>
    35fc:	0009883a 	mov	r4,zero
    3600:	00002ec0 	call	2ec <LCD_WR_DATA>
    3604:	0009883a 	mov	r4,zero
    3608:	00002ec0 	call	2ec <LCD_WR_DATA>
    360c:	0009883a 	mov	r4,zero
    3610:	00002ec0 	call	2ec <LCD_WR_DATA>
    3614:	0009883a 	mov	r4,zero
    3618:	00002ec0 	call	2ec <LCD_WR_DATA>
    361c:	0009883a 	mov	r4,zero
    3620:	00002ec0 	call	2ec <LCD_WR_DATA>
    3624:	0009883a 	mov	r4,zero
    3628:	00002ec0 	call	2ec <LCD_WR_DATA>
    362c:	0009883a 	mov	r4,zero
    3630:	00002ec0 	call	2ec <LCD_WR_DATA>
    3634:	0009883a 	mov	r4,zero
    3638:	00002ec0 	call	2ec <LCD_WR_DATA>
    363c:	0009883a 	mov	r4,zero
    3640:	00002ec0 	call	2ec <LCD_WR_DATA>
    3644:	0009883a 	mov	r4,zero
    3648:	00002ec0 	call	2ec <LCD_WR_DATA>
    364c:	0009883a 	mov	r4,zero
    3650:	00002ec0 	call	2ec <LCD_WR_DATA>
    3654:	0009883a 	mov	r4,zero
    3658:	00002ec0 	call	2ec <LCD_WR_DATA>
    365c:	0009883a 	mov	r4,zero
    3660:	00002ec0 	call	2ec <LCD_WR_DATA>
    3664:	0009883a 	mov	r4,zero
    3668:	00002ec0 	call	2ec <LCD_WR_DATA>
    366c:	0009883a 	mov	r4,zero
    3670:	00002ec0 	call	2ec <LCD_WR_DATA>
    3674:	0009883a 	mov	r4,zero
    3678:	00002ec0 	call	2ec <LCD_WR_DATA>
    367c:	01003c04 	movi	r4,240
    3680:	00002680 	call	268 <LCD_WR_CMD>
    3684:	0009883a 	mov	r4,zero
    3688:	00002ec0 	call	2ec <LCD_WR_DATA>
    368c:	01001404 	movi	r4,80
    3690:	00002ec0 	call	2ec <LCD_WR_DATA>
    3694:	0009883a 	mov	r4,zero
    3698:	00002ec0 	call	2ec <LCD_WR_DATA>
    369c:	0009883a 	mov	r4,zero
    36a0:	00002ec0 	call	2ec <LCD_WR_DATA>
    36a4:	0009883a 	mov	r4,zero
    36a8:	00002ec0 	call	2ec <LCD_WR_DATA>
    36ac:	01003cc4 	movi	r4,243
    36b0:	00002680 	call	268 <LCD_WR_CMD>
    36b4:	0009883a 	mov	r4,zero
    36b8:	00002ec0 	call	2ec <LCD_WR_DATA>
    36bc:	01003e44 	movi	r4,249
    36c0:	00002680 	call	268 <LCD_WR_CMD>
    36c4:	01000184 	movi	r4,6
    36c8:	00002ec0 	call	2ec <LCD_WR_DATA>
    36cc:	01000404 	movi	r4,16
    36d0:	00002ec0 	call	2ec <LCD_WR_DATA>
    36d4:	01000a44 	movi	r4,41
    36d8:	00002ec0 	call	2ec <LCD_WR_DATA>
    36dc:	0009883a 	mov	r4,zero
    36e0:	00002ec0 	call	2ec <LCD_WR_DATA>
    36e4:	01000e84 	movi	r4,58
    36e8:	00002680 	call	268 <LCD_WR_CMD>
    36ec:	01001544 	movi	r4,85
    36f0:	00002ec0 	call	2ec <LCD_WR_DATA>
    36f4:	01000444 	movi	r4,17
    36f8:	00002680 	call	268 <LCD_WR_CMD>
    36fc:	01001904 	movi	r4,100
    3700:	00002000 	call	200 <delay_ms>
    3704:	01000a44 	movi	r4,41
    3708:	00002680 	call	268 <LCD_WR_CMD>
    370c:	01000d44 	movi	r4,53
    3710:	00002680 	call	268 <LCD_WR_CMD>
    3714:	0009883a 	mov	r4,zero
    3718:	00002ec0 	call	2ec <LCD_WR_DATA>
    371c:	01001444 	movi	r4,81
    3720:	00002680 	call	268 <LCD_WR_CMD>
    3724:	01003fc4 	movi	r4,255
    3728:	00002ec0 	call	2ec <LCD_WR_DATA>
    372c:	010014c4 	movi	r4,83
    3730:	00002680 	call	268 <LCD_WR_CMD>
    3734:	01000b04 	movi	r4,44
    3738:	00002ec0 	call	2ec <LCD_WR_DATA>
    373c:	01001544 	movi	r4,85
    3740:	00002680 	call	268 <LCD_WR_CMD>
    3744:	01002084 	movi	r4,130
    3748:	00002ec0 	call	2ec <LCD_WR_DATA>
    374c:	01000b04 	movi	r4,44
    3750:	00002680 	call	268 <LCD_WR_CMD>
    3754:	00050206 	br	4b60 <MCULCD_Init+0x2e24>
    3758:	008000b4 	movhi	r2,2
    375c:	10ae6c04 	addi	r2,r2,-18000
    3760:	1080010b 	ldhu	r2,4(r2)
    3764:	10bfffcc 	andi	r2,r2,65535
    3768:	10954418 	cmpnei	r2,r2,21776
    376c:	10047e1e 	bne	r2,zero,4968 <MCULCD_Init+0x2c2c>
    3770:	013c0014 	movui	r4,61440
    3774:	01401544 	movi	r5,85
    3778:	00003e40 	call	3e4 <LCD_WriteReg>
    377c:	013c0054 	movui	r4,61441
    3780:	01402a84 	movi	r5,170
    3784:	00003e40 	call	3e4 <LCD_WriteReg>
    3788:	013c0094 	movui	r4,61442
    378c:	01401484 	movi	r5,82
    3790:	00003e40 	call	3e4 <LCD_WriteReg>
    3794:	013c00d4 	movui	r4,61443
    3798:	01400204 	movi	r5,8
    379c:	00003e40 	call	3e4 <LCD_WriteReg>
    37a0:	013c0114 	movui	r4,61444
    37a4:	01400044 	movi	r5,1
    37a8:	00003e40 	call	3e4 <LCD_WriteReg>
    37ac:	012c0014 	movui	r4,45056
    37b0:	01400344 	movi	r5,13
    37b4:	00003e40 	call	3e4 <LCD_WriteReg>
    37b8:	012c0054 	movui	r4,45057
    37bc:	01400344 	movi	r5,13
    37c0:	00003e40 	call	3e4 <LCD_WriteReg>
    37c4:	012c0094 	movui	r4,45058
    37c8:	01400344 	movi	r5,13
    37cc:	00003e40 	call	3e4 <LCD_WriteReg>
    37d0:	012d8014 	movui	r4,46592
    37d4:	01400d04 	movi	r5,52
    37d8:	00003e40 	call	3e4 <LCD_WriteReg>
    37dc:	012d8054 	movui	r4,46593
    37e0:	01400d04 	movi	r5,52
    37e4:	00003e40 	call	3e4 <LCD_WriteReg>
    37e8:	012d8094 	movui	r4,46594
    37ec:	01400d04 	movi	r5,52
    37f0:	00003e40 	call	3e4 <LCD_WriteReg>
    37f4:	012c4014 	movui	r4,45312
    37f8:	01400344 	movi	r5,13
    37fc:	00003e40 	call	3e4 <LCD_WriteReg>
    3800:	012c4054 	movui	r4,45313
    3804:	01400344 	movi	r5,13
    3808:	00003e40 	call	3e4 <LCD_WriteReg>
    380c:	012c4094 	movui	r4,45314
    3810:	01400344 	movi	r5,13
    3814:	00003e40 	call	3e4 <LCD_WriteReg>
    3818:	012dc014 	movui	r4,46848
    381c:	01400d04 	movi	r5,52
    3820:	00003e40 	call	3e4 <LCD_WriteReg>
    3824:	012dc054 	movui	r4,46849
    3828:	01400d04 	movi	r5,52
    382c:	00003e40 	call	3e4 <LCD_WriteReg>
    3830:	012dc094 	movui	r4,46850
    3834:	01400d04 	movi	r5,52
    3838:	00003e40 	call	3e4 <LCD_WriteReg>
    383c:	012c8014 	movui	r4,45568
    3840:	000b883a 	mov	r5,zero
    3844:	00003e40 	call	3e4 <LCD_WriteReg>
    3848:	012c8054 	movui	r4,45569
    384c:	000b883a 	mov	r5,zero
    3850:	00003e40 	call	3e4 <LCD_WriteReg>
    3854:	012c8094 	movui	r4,45570
    3858:	000b883a 	mov	r5,zero
    385c:	00003e40 	call	3e4 <LCD_WriteReg>
    3860:	012e0014 	movui	r4,47104
    3864:	01400904 	movi	r5,36
    3868:	00003e40 	call	3e4 <LCD_WriteReg>
    386c:	012e0054 	movui	r4,47105
    3870:	01400904 	movi	r5,36
    3874:	00003e40 	call	3e4 <LCD_WriteReg>
    3878:	012e0094 	movui	r4,47106
    387c:	01400904 	movi	r5,36
    3880:	00003e40 	call	3e4 <LCD_WriteReg>
    3884:	012fc014 	movui	r4,48896
    3888:	01400044 	movi	r5,1
    388c:	00003e40 	call	3e4 <LCD_WriteReg>
    3890:	012cc014 	movui	r4,45824
    3894:	014003c4 	movi	r5,15
    3898:	00003e40 	call	3e4 <LCD_WriteReg>
    389c:	012cc054 	movui	r4,45825
    38a0:	014003c4 	movi	r5,15
    38a4:	00003e40 	call	3e4 <LCD_WriteReg>
    38a8:	012cc094 	movui	r4,45826
    38ac:	014003c4 	movi	r5,15
    38b0:	00003e40 	call	3e4 <LCD_WriteReg>
    38b4:	012e4014 	movui	r4,47360
    38b8:	01400d04 	movi	r5,52
    38bc:	00003e40 	call	3e4 <LCD_WriteReg>
    38c0:	012e4054 	movui	r4,47361
    38c4:	01400d04 	movi	r5,52
    38c8:	00003e40 	call	3e4 <LCD_WriteReg>
    38cc:	012e4094 	movui	r4,47362
    38d0:	01400d04 	movi	r5,52
    38d4:	00003e40 	call	3e4 <LCD_WriteReg>
    38d8:	012d4014 	movui	r4,46336
    38dc:	01400204 	movi	r5,8
    38e0:	00003e40 	call	3e4 <LCD_WriteReg>
    38e4:	012d4054 	movui	r4,46337
    38e8:	01400204 	movi	r5,8
    38ec:	00003e40 	call	3e4 <LCD_WriteReg>
    38f0:	012d4094 	movui	r4,46338
    38f4:	01400204 	movi	r5,8
    38f8:	00003e40 	call	3e4 <LCD_WriteReg>
    38fc:	01308014 	movui	r4,49664
    3900:	014000c4 	movi	r5,3
    3904:	00003e40 	call	3e4 <LCD_WriteReg>
    3908:	012e8014 	movui	r4,47616
    390c:	01400904 	movi	r5,36
    3910:	00003e40 	call	3e4 <LCD_WriteReg>
    3914:	012e8054 	movui	r4,47617
    3918:	01400904 	movi	r5,36
    391c:	00003e40 	call	3e4 <LCD_WriteReg>
    3920:	012e8094 	movui	r4,47618
    3924:	01400904 	movi	r5,36
    3928:	00003e40 	call	3e4 <LCD_WriteReg>
    392c:	012f0014 	movui	r4,48128
    3930:	000b883a 	mov	r5,zero
    3934:	00003e40 	call	3e4 <LCD_WriteReg>
    3938:	012f0054 	movui	r4,48129
    393c:	01401e04 	movi	r5,120
    3940:	00003e40 	call	3e4 <LCD_WriteReg>
    3944:	012f0094 	movui	r4,48130
    3948:	000b883a 	mov	r5,zero
    394c:	00003e40 	call	3e4 <LCD_WriteReg>
    3950:	012f4014 	movui	r4,48384
    3954:	000b883a 	mov	r5,zero
    3958:	00003e40 	call	3e4 <LCD_WriteReg>
    395c:	012f4054 	movui	r4,48385
    3960:	01401e04 	movi	r5,120
    3964:	00003e40 	call	3e4 <LCD_WriteReg>
    3968:	012f4094 	movui	r4,48386
    396c:	000b883a 	mov	r5,zero
    3970:	00003e40 	call	3e4 <LCD_WriteReg>
    3974:	012f8014 	movui	r4,48640
    3978:	000b883a 	mov	r5,zero
    397c:	00003e40 	call	3e4 <LCD_WriteReg>
    3980:	012f8054 	movui	r4,48641
    3984:	01401904 	movi	r5,100
    3988:	00003e40 	call	3e4 <LCD_WriteReg>
    398c:	01344014 	movui	r4,53504
    3990:	000b883a 	mov	r5,zero
    3994:	00003e40 	call	3e4 <LCD_WriteReg>
    3998:	01344054 	movui	r4,53505
    399c:	01400cc4 	movi	r5,51
    39a0:	00003e40 	call	3e4 <LCD_WriteReg>
    39a4:	01344094 	movui	r4,53506
    39a8:	000b883a 	mov	r5,zero
    39ac:	00003e40 	call	3e4 <LCD_WriteReg>
    39b0:	013440d4 	movui	r4,53507
    39b4:	01400d04 	movi	r5,52
    39b8:	00003e40 	call	3e4 <LCD_WriteReg>
    39bc:	01344114 	movui	r4,53508
    39c0:	000b883a 	mov	r5,zero
    39c4:	00003e40 	call	3e4 <LCD_WriteReg>
    39c8:	01344154 	movui	r4,53509
    39cc:	01400e84 	movi	r5,58
    39d0:	00003e40 	call	3e4 <LCD_WriteReg>
    39d4:	01344194 	movui	r4,53510
    39d8:	000b883a 	mov	r5,zero
    39dc:	00003e40 	call	3e4 <LCD_WriteReg>
    39e0:	013441d4 	movui	r4,53511
    39e4:	01401284 	movi	r5,74
    39e8:	00003e40 	call	3e4 <LCD_WriteReg>
    39ec:	01344214 	movui	r4,53512
    39f0:	000b883a 	mov	r5,zero
    39f4:	00003e40 	call	3e4 <LCD_WriteReg>
    39f8:	01344254 	movui	r4,53513
    39fc:	01401704 	movi	r5,92
    3a00:	00003e40 	call	3e4 <LCD_WriteReg>
    3a04:	01344294 	movui	r4,53514
    3a08:	000b883a 	mov	r5,zero
    3a0c:	00003e40 	call	3e4 <LCD_WriteReg>
    3a10:	013442d4 	movui	r4,53515
    3a14:	01402044 	movi	r5,129
    3a18:	00003e40 	call	3e4 <LCD_WriteReg>
    3a1c:	01344314 	movui	r4,53516
    3a20:	000b883a 	mov	r5,zero
    3a24:	00003e40 	call	3e4 <LCD_WriteReg>
    3a28:	01344354 	movui	r4,53517
    3a2c:	01402984 	movi	r5,166
    3a30:	00003e40 	call	3e4 <LCD_WriteReg>
    3a34:	01344394 	movui	r4,53518
    3a38:	000b883a 	mov	r5,zero
    3a3c:	00003e40 	call	3e4 <LCD_WriteReg>
    3a40:	013443d4 	movui	r4,53519
    3a44:	01403944 	movi	r5,229
    3a48:	00003e40 	call	3e4 <LCD_WriteReg>
    3a4c:	01344414 	movui	r4,53520
    3a50:	01400044 	movi	r5,1
    3a54:	00003e40 	call	3e4 <LCD_WriteReg>
    3a58:	01344454 	movui	r4,53521
    3a5c:	014004c4 	movi	r5,19
    3a60:	00003e40 	call	3e4 <LCD_WriteReg>
    3a64:	01344494 	movui	r4,53522
    3a68:	01400044 	movi	r5,1
    3a6c:	00003e40 	call	3e4 <LCD_WriteReg>
    3a70:	013444d4 	movui	r4,53523
    3a74:	01401504 	movi	r5,84
    3a78:	00003e40 	call	3e4 <LCD_WriteReg>
    3a7c:	01344514 	movui	r4,53524
    3a80:	01400044 	movi	r5,1
    3a84:	00003e40 	call	3e4 <LCD_WriteReg>
    3a88:	01344554 	movui	r4,53525
    3a8c:	01402084 	movi	r5,130
    3a90:	00003e40 	call	3e4 <LCD_WriteReg>
    3a94:	01344594 	movui	r4,53526
    3a98:	01400044 	movi	r5,1
    3a9c:	00003e40 	call	3e4 <LCD_WriteReg>
    3aa0:	013445d4 	movui	r4,53527
    3aa4:	01403284 	movi	r5,202
    3aa8:	00003e40 	call	3e4 <LCD_WriteReg>
    3aac:	01344614 	movui	r4,53528
    3ab0:	01400084 	movi	r5,2
    3ab4:	00003e40 	call	3e4 <LCD_WriteReg>
    3ab8:	01344654 	movui	r4,53529
    3abc:	000b883a 	mov	r5,zero
    3ac0:	00003e40 	call	3e4 <LCD_WriteReg>
    3ac4:	01344694 	movui	r4,53530
    3ac8:	01400084 	movi	r5,2
    3acc:	00003e40 	call	3e4 <LCD_WriteReg>
    3ad0:	013446d4 	movui	r4,53531
    3ad4:	01400044 	movi	r5,1
    3ad8:	00003e40 	call	3e4 <LCD_WriteReg>
    3adc:	01344714 	movui	r4,53532
    3ae0:	01400084 	movi	r5,2
    3ae4:	00003e40 	call	3e4 <LCD_WriteReg>
    3ae8:	01344754 	movui	r4,53533
    3aec:	01400d04 	movi	r5,52
    3af0:	00003e40 	call	3e4 <LCD_WriteReg>
    3af4:	01344794 	movui	r4,53534
    3af8:	01400084 	movi	r5,2
    3afc:	00003e40 	call	3e4 <LCD_WriteReg>
    3b00:	013447d4 	movui	r4,53535
    3b04:	014019c4 	movi	r5,103
    3b08:	00003e40 	call	3e4 <LCD_WriteReg>
    3b0c:	01344814 	movui	r4,53536
    3b10:	01400084 	movi	r5,2
    3b14:	00003e40 	call	3e4 <LCD_WriteReg>
    3b18:	01344854 	movui	r4,53537
    3b1c:	01402104 	movi	r5,132
    3b20:	00003e40 	call	3e4 <LCD_WriteReg>
    3b24:	01344894 	movui	r4,53538
    3b28:	01400084 	movi	r5,2
    3b2c:	00003e40 	call	3e4 <LCD_WriteReg>
    3b30:	013448d4 	movui	r4,53539
    3b34:	01402904 	movi	r5,164
    3b38:	00003e40 	call	3e4 <LCD_WriteReg>
    3b3c:	01344914 	movui	r4,53540
    3b40:	01400084 	movi	r5,2
    3b44:	00003e40 	call	3e4 <LCD_WriteReg>
    3b48:	01344954 	movui	r4,53541
    3b4c:	01402dc4 	movi	r5,183
    3b50:	00003e40 	call	3e4 <LCD_WriteReg>
    3b54:	01344994 	movui	r4,53542
    3b58:	01400084 	movi	r5,2
    3b5c:	00003e40 	call	3e4 <LCD_WriteReg>
    3b60:	013449d4 	movui	r4,53543
    3b64:	014033c4 	movi	r5,207
    3b68:	00003e40 	call	3e4 <LCD_WriteReg>
    3b6c:	01344a14 	movui	r4,53544
    3b70:	01400084 	movi	r5,2
    3b74:	00003e40 	call	3e4 <LCD_WriteReg>
    3b78:	01344a54 	movui	r4,53545
    3b7c:	01403784 	movi	r5,222
    3b80:	00003e40 	call	3e4 <LCD_WriteReg>
    3b84:	01344a94 	movui	r4,53546
    3b88:	01400084 	movi	r5,2
    3b8c:	00003e40 	call	3e4 <LCD_WriteReg>
    3b90:	01344ad4 	movui	r4,53547
    3b94:	01403c84 	movi	r5,242
    3b98:	00003e40 	call	3e4 <LCD_WriteReg>
    3b9c:	01344b14 	movui	r4,53548
    3ba0:	01400084 	movi	r5,2
    3ba4:	00003e40 	call	3e4 <LCD_WriteReg>
    3ba8:	01344b54 	movui	r4,53549
    3bac:	01403f84 	movi	r5,254
    3bb0:	00003e40 	call	3e4 <LCD_WriteReg>
    3bb4:	01344b94 	movui	r4,53550
    3bb8:	014000c4 	movi	r5,3
    3bbc:	00003e40 	call	3e4 <LCD_WriteReg>
    3bc0:	01344bd4 	movui	r4,53551
    3bc4:	01400404 	movi	r5,16
    3bc8:	00003e40 	call	3e4 <LCD_WriteReg>
    3bcc:	01344c14 	movui	r4,53552
    3bd0:	014000c4 	movi	r5,3
    3bd4:	00003e40 	call	3e4 <LCD_WriteReg>
    3bd8:	01344c54 	movui	r4,53553
    3bdc:	01400cc4 	movi	r5,51
    3be0:	00003e40 	call	3e4 <LCD_WriteReg>
    3be4:	01344c94 	movui	r4,53554
    3be8:	014000c4 	movi	r5,3
    3bec:	00003e40 	call	3e4 <LCD_WriteReg>
    3bf0:	01344cd4 	movui	r4,53555
    3bf4:	01401b44 	movi	r5,109
    3bf8:	00003e40 	call	3e4 <LCD_WriteReg>
    3bfc:	01348014 	movui	r4,53760
    3c00:	000b883a 	mov	r5,zero
    3c04:	00003e40 	call	3e4 <LCD_WriteReg>
    3c08:	01348054 	movui	r4,53761
    3c0c:	01400cc4 	movi	r5,51
    3c10:	00003e40 	call	3e4 <LCD_WriteReg>
    3c14:	01348094 	movui	r4,53762
    3c18:	000b883a 	mov	r5,zero
    3c1c:	00003e40 	call	3e4 <LCD_WriteReg>
    3c20:	013480d4 	movui	r4,53763
    3c24:	01400d04 	movi	r5,52
    3c28:	00003e40 	call	3e4 <LCD_WriteReg>
    3c2c:	01348114 	movui	r4,53764
    3c30:	000b883a 	mov	r5,zero
    3c34:	00003e40 	call	3e4 <LCD_WriteReg>
    3c38:	01348154 	movui	r4,53765
    3c3c:	01400e84 	movi	r5,58
    3c40:	00003e40 	call	3e4 <LCD_WriteReg>
    3c44:	01348194 	movui	r4,53766
    3c48:	000b883a 	mov	r5,zero
    3c4c:	00003e40 	call	3e4 <LCD_WriteReg>
    3c50:	013481d4 	movui	r4,53767
    3c54:	01401284 	movi	r5,74
    3c58:	00003e40 	call	3e4 <LCD_WriteReg>
    3c5c:	01348214 	movui	r4,53768
    3c60:	000b883a 	mov	r5,zero
    3c64:	00003e40 	call	3e4 <LCD_WriteReg>
    3c68:	01348254 	movui	r4,53769
    3c6c:	01401704 	movi	r5,92
    3c70:	00003e40 	call	3e4 <LCD_WriteReg>
    3c74:	01348294 	movui	r4,53770
    3c78:	000b883a 	mov	r5,zero
    3c7c:	00003e40 	call	3e4 <LCD_WriteReg>
    3c80:	013482d4 	movui	r4,53771
    3c84:	01402044 	movi	r5,129
    3c88:	00003e40 	call	3e4 <LCD_WriteReg>
    3c8c:	01348314 	movui	r4,53772
    3c90:	000b883a 	mov	r5,zero
    3c94:	00003e40 	call	3e4 <LCD_WriteReg>
    3c98:	01348354 	movui	r4,53773
    3c9c:	01402984 	movi	r5,166
    3ca0:	00003e40 	call	3e4 <LCD_WriteReg>
    3ca4:	01348394 	movui	r4,53774
    3ca8:	000b883a 	mov	r5,zero
    3cac:	00003e40 	call	3e4 <LCD_WriteReg>
    3cb0:	013483d4 	movui	r4,53775
    3cb4:	01403944 	movi	r5,229
    3cb8:	00003e40 	call	3e4 <LCD_WriteReg>
    3cbc:	01348414 	movui	r4,53776
    3cc0:	01400044 	movi	r5,1
    3cc4:	00003e40 	call	3e4 <LCD_WriteReg>
    3cc8:	01348454 	movui	r4,53777
    3ccc:	014004c4 	movi	r5,19
    3cd0:	00003e40 	call	3e4 <LCD_WriteReg>
    3cd4:	01348494 	movui	r4,53778
    3cd8:	01400044 	movi	r5,1
    3cdc:	00003e40 	call	3e4 <LCD_WriteReg>
    3ce0:	013484d4 	movui	r4,53779
    3ce4:	01401504 	movi	r5,84
    3ce8:	00003e40 	call	3e4 <LCD_WriteReg>
    3cec:	01348514 	movui	r4,53780
    3cf0:	01400044 	movi	r5,1
    3cf4:	00003e40 	call	3e4 <LCD_WriteReg>
    3cf8:	01348554 	movui	r4,53781
    3cfc:	01402084 	movi	r5,130
    3d00:	00003e40 	call	3e4 <LCD_WriteReg>
    3d04:	01348594 	movui	r4,53782
    3d08:	01400044 	movi	r5,1
    3d0c:	00003e40 	call	3e4 <LCD_WriteReg>
    3d10:	013485d4 	movui	r4,53783
    3d14:	01403284 	movi	r5,202
    3d18:	00003e40 	call	3e4 <LCD_WriteReg>
    3d1c:	01348614 	movui	r4,53784
    3d20:	01400084 	movi	r5,2
    3d24:	00003e40 	call	3e4 <LCD_WriteReg>
    3d28:	01348654 	movui	r4,53785
    3d2c:	000b883a 	mov	r5,zero
    3d30:	00003e40 	call	3e4 <LCD_WriteReg>
    3d34:	01348694 	movui	r4,53786
    3d38:	01400084 	movi	r5,2
    3d3c:	00003e40 	call	3e4 <LCD_WriteReg>
    3d40:	013486d4 	movui	r4,53787
    3d44:	01400044 	movi	r5,1
    3d48:	00003e40 	call	3e4 <LCD_WriteReg>
    3d4c:	01348714 	movui	r4,53788
    3d50:	01400084 	movi	r5,2
    3d54:	00003e40 	call	3e4 <LCD_WriteReg>
    3d58:	01348754 	movui	r4,53789
    3d5c:	01400d04 	movi	r5,52
    3d60:	00003e40 	call	3e4 <LCD_WriteReg>
    3d64:	01348794 	movui	r4,53790
    3d68:	01400084 	movi	r5,2
    3d6c:	00003e40 	call	3e4 <LCD_WriteReg>
    3d70:	013487d4 	movui	r4,53791
    3d74:	014019c4 	movi	r5,103
    3d78:	00003e40 	call	3e4 <LCD_WriteReg>
    3d7c:	01348814 	movui	r4,53792
    3d80:	01400084 	movi	r5,2
    3d84:	00003e40 	call	3e4 <LCD_WriteReg>
    3d88:	01348854 	movui	r4,53793
    3d8c:	01402104 	movi	r5,132
    3d90:	00003e40 	call	3e4 <LCD_WriteReg>
    3d94:	01348894 	movui	r4,53794
    3d98:	01400084 	movi	r5,2
    3d9c:	00003e40 	call	3e4 <LCD_WriteReg>
    3da0:	013488d4 	movui	r4,53795
    3da4:	01402904 	movi	r5,164
    3da8:	00003e40 	call	3e4 <LCD_WriteReg>
    3dac:	01348914 	movui	r4,53796
    3db0:	01400084 	movi	r5,2
    3db4:	00003e40 	call	3e4 <LCD_WriteReg>
    3db8:	01348954 	movui	r4,53797
    3dbc:	01402dc4 	movi	r5,183
    3dc0:	00003e40 	call	3e4 <LCD_WriteReg>
    3dc4:	01348994 	movui	r4,53798
    3dc8:	01400084 	movi	r5,2
    3dcc:	00003e40 	call	3e4 <LCD_WriteReg>
    3dd0:	013489d4 	movui	r4,53799
    3dd4:	014033c4 	movi	r5,207
    3dd8:	00003e40 	call	3e4 <LCD_WriteReg>
    3ddc:	01348a14 	movui	r4,53800
    3de0:	01400084 	movi	r5,2
    3de4:	00003e40 	call	3e4 <LCD_WriteReg>
    3de8:	01348a54 	movui	r4,53801
    3dec:	01403784 	movi	r5,222
    3df0:	00003e40 	call	3e4 <LCD_WriteReg>
    3df4:	01348a94 	movui	r4,53802
    3df8:	01400084 	movi	r5,2
    3dfc:	00003e40 	call	3e4 <LCD_WriteReg>
    3e00:	01348ad4 	movui	r4,53803
    3e04:	01403c84 	movi	r5,242
    3e08:	00003e40 	call	3e4 <LCD_WriteReg>
    3e0c:	01348b14 	movui	r4,53804
    3e10:	01400084 	movi	r5,2
    3e14:	00003e40 	call	3e4 <LCD_WriteReg>
    3e18:	01348b54 	movui	r4,53805
    3e1c:	01403f84 	movi	r5,254
    3e20:	00003e40 	call	3e4 <LCD_WriteReg>
    3e24:	01348b94 	movui	r4,53806
    3e28:	014000c4 	movi	r5,3
    3e2c:	00003e40 	call	3e4 <LCD_WriteReg>
    3e30:	01348bd4 	movui	r4,53807
    3e34:	01400404 	movi	r5,16
    3e38:	00003e40 	call	3e4 <LCD_WriteReg>
    3e3c:	01348c14 	movui	r4,53808
    3e40:	014000c4 	movi	r5,3
    3e44:	00003e40 	call	3e4 <LCD_WriteReg>
    3e48:	01348c54 	movui	r4,53809
    3e4c:	01400cc4 	movi	r5,51
    3e50:	00003e40 	call	3e4 <LCD_WriteReg>
    3e54:	01348c94 	movui	r4,53810
    3e58:	014000c4 	movi	r5,3
    3e5c:	00003e40 	call	3e4 <LCD_WriteReg>
    3e60:	01348cd4 	movui	r4,53811
    3e64:	01401b44 	movi	r5,109
    3e68:	00003e40 	call	3e4 <LCD_WriteReg>
    3e6c:	0134c014 	movui	r4,54016
    3e70:	000b883a 	mov	r5,zero
    3e74:	00003e40 	call	3e4 <LCD_WriteReg>
    3e78:	0134c054 	movui	r4,54017
    3e7c:	01400cc4 	movi	r5,51
    3e80:	00003e40 	call	3e4 <LCD_WriteReg>
    3e84:	0134c094 	movui	r4,54018
    3e88:	000b883a 	mov	r5,zero
    3e8c:	00003e40 	call	3e4 <LCD_WriteReg>
    3e90:	0134c0d4 	movui	r4,54019
    3e94:	01400d04 	movi	r5,52
    3e98:	00003e40 	call	3e4 <LCD_WriteReg>
    3e9c:	0134c114 	movui	r4,54020
    3ea0:	000b883a 	mov	r5,zero
    3ea4:	00003e40 	call	3e4 <LCD_WriteReg>
    3ea8:	0134c154 	movui	r4,54021
    3eac:	01400e84 	movi	r5,58
    3eb0:	00003e40 	call	3e4 <LCD_WriteReg>
    3eb4:	0134c194 	movui	r4,54022
    3eb8:	000b883a 	mov	r5,zero
    3ebc:	00003e40 	call	3e4 <LCD_WriteReg>
    3ec0:	0134c1d4 	movui	r4,54023
    3ec4:	01401284 	movi	r5,74
    3ec8:	00003e40 	call	3e4 <LCD_WriteReg>
    3ecc:	0134c214 	movui	r4,54024
    3ed0:	000b883a 	mov	r5,zero
    3ed4:	00003e40 	call	3e4 <LCD_WriteReg>
    3ed8:	0134c254 	movui	r4,54025
    3edc:	01401704 	movi	r5,92
    3ee0:	00003e40 	call	3e4 <LCD_WriteReg>
    3ee4:	0134c294 	movui	r4,54026
    3ee8:	000b883a 	mov	r5,zero
    3eec:	00003e40 	call	3e4 <LCD_WriteReg>
    3ef0:	0134c2d4 	movui	r4,54027
    3ef4:	01402044 	movi	r5,129
    3ef8:	00003e40 	call	3e4 <LCD_WriteReg>
    3efc:	0134c314 	movui	r4,54028
    3f00:	000b883a 	mov	r5,zero
    3f04:	00003e40 	call	3e4 <LCD_WriteReg>
    3f08:	0134c354 	movui	r4,54029
    3f0c:	01402984 	movi	r5,166
    3f10:	00003e40 	call	3e4 <LCD_WriteReg>
    3f14:	0134c394 	movui	r4,54030
    3f18:	000b883a 	mov	r5,zero
    3f1c:	00003e40 	call	3e4 <LCD_WriteReg>
    3f20:	0134c3d4 	movui	r4,54031
    3f24:	01403944 	movi	r5,229
    3f28:	00003e40 	call	3e4 <LCD_WriteReg>
    3f2c:	0134c414 	movui	r4,54032
    3f30:	01400044 	movi	r5,1
    3f34:	00003e40 	call	3e4 <LCD_WriteReg>
    3f38:	0134c454 	movui	r4,54033
    3f3c:	014004c4 	movi	r5,19
    3f40:	00003e40 	call	3e4 <LCD_WriteReg>
    3f44:	0134c494 	movui	r4,54034
    3f48:	01400044 	movi	r5,1
    3f4c:	00003e40 	call	3e4 <LCD_WriteReg>
    3f50:	0134c4d4 	movui	r4,54035
    3f54:	01401504 	movi	r5,84
    3f58:	00003e40 	call	3e4 <LCD_WriteReg>
    3f5c:	0134c514 	movui	r4,54036
    3f60:	01400044 	movi	r5,1
    3f64:	00003e40 	call	3e4 <LCD_WriteReg>
    3f68:	0134c554 	movui	r4,54037
    3f6c:	01402084 	movi	r5,130
    3f70:	00003e40 	call	3e4 <LCD_WriteReg>
    3f74:	0134c594 	movui	r4,54038
    3f78:	01400044 	movi	r5,1
    3f7c:	00003e40 	call	3e4 <LCD_WriteReg>
    3f80:	0134c5d4 	movui	r4,54039
    3f84:	01403284 	movi	r5,202
    3f88:	00003e40 	call	3e4 <LCD_WriteReg>
    3f8c:	0134c614 	movui	r4,54040
    3f90:	01400084 	movi	r5,2
    3f94:	00003e40 	call	3e4 <LCD_WriteReg>
    3f98:	0134c654 	movui	r4,54041
    3f9c:	000b883a 	mov	r5,zero
    3fa0:	00003e40 	call	3e4 <LCD_WriteReg>
    3fa4:	0134c694 	movui	r4,54042
    3fa8:	01400084 	movi	r5,2
    3fac:	00003e40 	call	3e4 <LCD_WriteReg>
    3fb0:	0134c6d4 	movui	r4,54043
    3fb4:	01400044 	movi	r5,1
    3fb8:	00003e40 	call	3e4 <LCD_WriteReg>
    3fbc:	0134c714 	movui	r4,54044
    3fc0:	01400084 	movi	r5,2
    3fc4:	00003e40 	call	3e4 <LCD_WriteReg>
    3fc8:	0134c754 	movui	r4,54045
    3fcc:	01400d04 	movi	r5,52
    3fd0:	00003e40 	call	3e4 <LCD_WriteReg>
    3fd4:	0134c794 	movui	r4,54046
    3fd8:	01400084 	movi	r5,2
    3fdc:	00003e40 	call	3e4 <LCD_WriteReg>
    3fe0:	0134c7d4 	movui	r4,54047
    3fe4:	014019c4 	movi	r5,103
    3fe8:	00003e40 	call	3e4 <LCD_WriteReg>
    3fec:	0134c814 	movui	r4,54048
    3ff0:	01400084 	movi	r5,2
    3ff4:	00003e40 	call	3e4 <LCD_WriteReg>
    3ff8:	0134c854 	movui	r4,54049
    3ffc:	01402104 	movi	r5,132
    4000:	00003e40 	call	3e4 <LCD_WriteReg>
    4004:	0134c894 	movui	r4,54050
    4008:	01400084 	movi	r5,2
    400c:	00003e40 	call	3e4 <LCD_WriteReg>
    4010:	0134c8d4 	movui	r4,54051
    4014:	01402904 	movi	r5,164
    4018:	00003e40 	call	3e4 <LCD_WriteReg>
    401c:	0134c914 	movui	r4,54052
    4020:	01400084 	movi	r5,2
    4024:	00003e40 	call	3e4 <LCD_WriteReg>
    4028:	0134c954 	movui	r4,54053
    402c:	01402dc4 	movi	r5,183
    4030:	00003e40 	call	3e4 <LCD_WriteReg>
    4034:	0134c994 	movui	r4,54054
    4038:	01400084 	movi	r5,2
    403c:	00003e40 	call	3e4 <LCD_WriteReg>
    4040:	0134c9d4 	movui	r4,54055
    4044:	014033c4 	movi	r5,207
    4048:	00003e40 	call	3e4 <LCD_WriteReg>
    404c:	0134ca14 	movui	r4,54056
    4050:	01400084 	movi	r5,2
    4054:	00003e40 	call	3e4 <LCD_WriteReg>
    4058:	0134ca54 	movui	r4,54057
    405c:	01403784 	movi	r5,222
    4060:	00003e40 	call	3e4 <LCD_WriteReg>
    4064:	0134ca94 	movui	r4,54058
    4068:	01400084 	movi	r5,2
    406c:	00003e40 	call	3e4 <LCD_WriteReg>
    4070:	0134cad4 	movui	r4,54059
    4074:	01403c84 	movi	r5,242
    4078:	00003e40 	call	3e4 <LCD_WriteReg>
    407c:	0134cb14 	movui	r4,54060
    4080:	01400084 	movi	r5,2
    4084:	00003e40 	call	3e4 <LCD_WriteReg>
    4088:	0134cb54 	movui	r4,54061
    408c:	01403f84 	movi	r5,254
    4090:	00003e40 	call	3e4 <LCD_WriteReg>
    4094:	0134cb94 	movui	r4,54062
    4098:	014000c4 	movi	r5,3
    409c:	00003e40 	call	3e4 <LCD_WriteReg>
    40a0:	0134cbd4 	movui	r4,54063
    40a4:	01400404 	movi	r5,16
    40a8:	00003e40 	call	3e4 <LCD_WriteReg>
    40ac:	0134cc14 	movui	r4,54064
    40b0:	014000c4 	movi	r5,3
    40b4:	00003e40 	call	3e4 <LCD_WriteReg>
    40b8:	0134cc54 	movui	r4,54065
    40bc:	01400cc4 	movi	r5,51
    40c0:	00003e40 	call	3e4 <LCD_WriteReg>
    40c4:	0134cc94 	movui	r4,54066
    40c8:	014000c4 	movi	r5,3
    40cc:	00003e40 	call	3e4 <LCD_WriteReg>
    40d0:	0134ccd4 	movui	r4,54067
    40d4:	01401b44 	movi	r5,109
    40d8:	00003e40 	call	3e4 <LCD_WriteReg>
    40dc:	01350014 	movui	r4,54272
    40e0:	000b883a 	mov	r5,zero
    40e4:	00003e40 	call	3e4 <LCD_WriteReg>
    40e8:	01350054 	movui	r4,54273
    40ec:	01400cc4 	movi	r5,51
    40f0:	00003e40 	call	3e4 <LCD_WriteReg>
    40f4:	01350094 	movui	r4,54274
    40f8:	000b883a 	mov	r5,zero
    40fc:	00003e40 	call	3e4 <LCD_WriteReg>
    4100:	013500d4 	movui	r4,54275
    4104:	01400d04 	movi	r5,52
    4108:	00003e40 	call	3e4 <LCD_WriteReg>
    410c:	01350114 	movui	r4,54276
    4110:	000b883a 	mov	r5,zero
    4114:	00003e40 	call	3e4 <LCD_WriteReg>
    4118:	01350154 	movui	r4,54277
    411c:	01400e84 	movi	r5,58
    4120:	00003e40 	call	3e4 <LCD_WriteReg>
    4124:	01350194 	movui	r4,54278
    4128:	000b883a 	mov	r5,zero
    412c:	00003e40 	call	3e4 <LCD_WriteReg>
    4130:	013501d4 	movui	r4,54279
    4134:	01401284 	movi	r5,74
    4138:	00003e40 	call	3e4 <LCD_WriteReg>
    413c:	01350214 	movui	r4,54280
    4140:	000b883a 	mov	r5,zero
    4144:	00003e40 	call	3e4 <LCD_WriteReg>
    4148:	01350254 	movui	r4,54281
    414c:	01401704 	movi	r5,92
    4150:	00003e40 	call	3e4 <LCD_WriteReg>
    4154:	01350294 	movui	r4,54282
    4158:	000b883a 	mov	r5,zero
    415c:	00003e40 	call	3e4 <LCD_WriteReg>
    4160:	013502d4 	movui	r4,54283
    4164:	01402044 	movi	r5,129
    4168:	00003e40 	call	3e4 <LCD_WriteReg>
    416c:	01350314 	movui	r4,54284
    4170:	000b883a 	mov	r5,zero
    4174:	00003e40 	call	3e4 <LCD_WriteReg>
    4178:	01350354 	movui	r4,54285
    417c:	01402984 	movi	r5,166
    4180:	00003e40 	call	3e4 <LCD_WriteReg>
    4184:	01350394 	movui	r4,54286
    4188:	000b883a 	mov	r5,zero
    418c:	00003e40 	call	3e4 <LCD_WriteReg>
    4190:	013503d4 	movui	r4,54287
    4194:	01403944 	movi	r5,229
    4198:	00003e40 	call	3e4 <LCD_WriteReg>
    419c:	01350414 	movui	r4,54288
    41a0:	01400044 	movi	r5,1
    41a4:	00003e40 	call	3e4 <LCD_WriteReg>
    41a8:	01350454 	movui	r4,54289
    41ac:	014004c4 	movi	r5,19
    41b0:	00003e40 	call	3e4 <LCD_WriteReg>
    41b4:	01350494 	movui	r4,54290
    41b8:	01400044 	movi	r5,1
    41bc:	00003e40 	call	3e4 <LCD_WriteReg>
    41c0:	013504d4 	movui	r4,54291
    41c4:	01401504 	movi	r5,84
    41c8:	00003e40 	call	3e4 <LCD_WriteReg>
    41cc:	01350514 	movui	r4,54292
    41d0:	01400044 	movi	r5,1
    41d4:	00003e40 	call	3e4 <LCD_WriteReg>
    41d8:	01350554 	movui	r4,54293
    41dc:	01402084 	movi	r5,130
    41e0:	00003e40 	call	3e4 <LCD_WriteReg>
    41e4:	01350594 	movui	r4,54294
    41e8:	01400044 	movi	r5,1
    41ec:	00003e40 	call	3e4 <LCD_WriteReg>
    41f0:	013505d4 	movui	r4,54295
    41f4:	01403284 	movi	r5,202
    41f8:	00003e40 	call	3e4 <LCD_WriteReg>
    41fc:	01350614 	movui	r4,54296
    4200:	01400084 	movi	r5,2
    4204:	00003e40 	call	3e4 <LCD_WriteReg>
    4208:	01350654 	movui	r4,54297
    420c:	000b883a 	mov	r5,zero
    4210:	00003e40 	call	3e4 <LCD_WriteReg>
    4214:	01350694 	movui	r4,54298
    4218:	01400084 	movi	r5,2
    421c:	00003e40 	call	3e4 <LCD_WriteReg>
    4220:	013506d4 	movui	r4,54299
    4224:	01400044 	movi	r5,1
    4228:	00003e40 	call	3e4 <LCD_WriteReg>
    422c:	01350714 	movui	r4,54300
    4230:	01400084 	movi	r5,2
    4234:	00003e40 	call	3e4 <LCD_WriteReg>
    4238:	01350754 	movui	r4,54301
    423c:	01400d04 	movi	r5,52
    4240:	00003e40 	call	3e4 <LCD_WriteReg>
    4244:	01350794 	movui	r4,54302
    4248:	01400084 	movi	r5,2
    424c:	00003e40 	call	3e4 <LCD_WriteReg>
    4250:	013507d4 	movui	r4,54303
    4254:	014019c4 	movi	r5,103
    4258:	00003e40 	call	3e4 <LCD_WriteReg>
    425c:	01350814 	movui	r4,54304
    4260:	01400084 	movi	r5,2
    4264:	00003e40 	call	3e4 <LCD_WriteReg>
    4268:	01350854 	movui	r4,54305
    426c:	01402104 	movi	r5,132
    4270:	00003e40 	call	3e4 <LCD_WriteReg>
    4274:	01350894 	movui	r4,54306
    4278:	01400084 	movi	r5,2
    427c:	00003e40 	call	3e4 <LCD_WriteReg>
    4280:	013508d4 	movui	r4,54307
    4284:	01402904 	movi	r5,164
    4288:	00003e40 	call	3e4 <LCD_WriteReg>
    428c:	01350914 	movui	r4,54308
    4290:	01400084 	movi	r5,2
    4294:	00003e40 	call	3e4 <LCD_WriteReg>
    4298:	01350954 	movui	r4,54309
    429c:	01402dc4 	movi	r5,183
    42a0:	00003e40 	call	3e4 <LCD_WriteReg>
    42a4:	01350994 	movui	r4,54310
    42a8:	01400084 	movi	r5,2
    42ac:	00003e40 	call	3e4 <LCD_WriteReg>
    42b0:	013509d4 	movui	r4,54311
    42b4:	014033c4 	movi	r5,207
    42b8:	00003e40 	call	3e4 <LCD_WriteReg>
    42bc:	01350a14 	movui	r4,54312
    42c0:	01400084 	movi	r5,2
    42c4:	00003e40 	call	3e4 <LCD_WriteReg>
    42c8:	01350a54 	movui	r4,54313
    42cc:	01403784 	movi	r5,222
    42d0:	00003e40 	call	3e4 <LCD_WriteReg>
    42d4:	01350a94 	movui	r4,54314
    42d8:	01400084 	movi	r5,2
    42dc:	00003e40 	call	3e4 <LCD_WriteReg>
    42e0:	01350ad4 	movui	r4,54315
    42e4:	01403c84 	movi	r5,242
    42e8:	00003e40 	call	3e4 <LCD_WriteReg>
    42ec:	01350b14 	movui	r4,54316
    42f0:	01400084 	movi	r5,2
    42f4:	00003e40 	call	3e4 <LCD_WriteReg>
    42f8:	01350b54 	movui	r4,54317
    42fc:	01403f84 	movi	r5,254
    4300:	00003e40 	call	3e4 <LCD_WriteReg>
    4304:	01350b94 	movui	r4,54318
    4308:	014000c4 	movi	r5,3
    430c:	00003e40 	call	3e4 <LCD_WriteReg>
    4310:	01350bd4 	movui	r4,54319
    4314:	01400404 	movi	r5,16
    4318:	00003e40 	call	3e4 <LCD_WriteReg>
    431c:	01350c14 	movui	r4,54320
    4320:	014000c4 	movi	r5,3
    4324:	00003e40 	call	3e4 <LCD_WriteReg>
    4328:	01350c54 	movui	r4,54321
    432c:	01400cc4 	movi	r5,51
    4330:	00003e40 	call	3e4 <LCD_WriteReg>
    4334:	01350c94 	movui	r4,54322
    4338:	014000c4 	movi	r5,3
    433c:	00003e40 	call	3e4 <LCD_WriteReg>
    4340:	01350cd4 	movui	r4,54323
    4344:	01401b44 	movi	r5,109
    4348:	00003e40 	call	3e4 <LCD_WriteReg>
    434c:	01354014 	movui	r4,54528
    4350:	000b883a 	mov	r5,zero
    4354:	00003e40 	call	3e4 <LCD_WriteReg>
    4358:	01354054 	movui	r4,54529
    435c:	01400cc4 	movi	r5,51
    4360:	00003e40 	call	3e4 <LCD_WriteReg>
    4364:	01354094 	movui	r4,54530
    4368:	000b883a 	mov	r5,zero
    436c:	00003e40 	call	3e4 <LCD_WriteReg>
    4370:	013540d4 	movui	r4,54531
    4374:	01400d04 	movi	r5,52
    4378:	00003e40 	call	3e4 <LCD_WriteReg>
    437c:	01354114 	movui	r4,54532
    4380:	000b883a 	mov	r5,zero
    4384:	00003e40 	call	3e4 <LCD_WriteReg>
    4388:	01354154 	movui	r4,54533
    438c:	01400e84 	movi	r5,58
    4390:	00003e40 	call	3e4 <LCD_WriteReg>
    4394:	01354194 	movui	r4,54534
    4398:	000b883a 	mov	r5,zero
    439c:	00003e40 	call	3e4 <LCD_WriteReg>
    43a0:	013541d4 	movui	r4,54535
    43a4:	01401284 	movi	r5,74
    43a8:	00003e40 	call	3e4 <LCD_WriteReg>
    43ac:	01354214 	movui	r4,54536
    43b0:	000b883a 	mov	r5,zero
    43b4:	00003e40 	call	3e4 <LCD_WriteReg>
    43b8:	01354254 	movui	r4,54537
    43bc:	01401704 	movi	r5,92
    43c0:	00003e40 	call	3e4 <LCD_WriteReg>
    43c4:	01354294 	movui	r4,54538
    43c8:	000b883a 	mov	r5,zero
    43cc:	00003e40 	call	3e4 <LCD_WriteReg>
    43d0:	013542d4 	movui	r4,54539
    43d4:	01402044 	movi	r5,129
    43d8:	00003e40 	call	3e4 <LCD_WriteReg>
    43dc:	01354314 	movui	r4,54540
    43e0:	000b883a 	mov	r5,zero
    43e4:	00003e40 	call	3e4 <LCD_WriteReg>
    43e8:	01354354 	movui	r4,54541
    43ec:	01402984 	movi	r5,166
    43f0:	00003e40 	call	3e4 <LCD_WriteReg>
    43f4:	01354394 	movui	r4,54542
    43f8:	000b883a 	mov	r5,zero
    43fc:	00003e40 	call	3e4 <LCD_WriteReg>
    4400:	013543d4 	movui	r4,54543
    4404:	01403944 	movi	r5,229
    4408:	00003e40 	call	3e4 <LCD_WriteReg>
    440c:	01354414 	movui	r4,54544
    4410:	01400044 	movi	r5,1
    4414:	00003e40 	call	3e4 <LCD_WriteReg>
    4418:	01354454 	movui	r4,54545
    441c:	014004c4 	movi	r5,19
    4420:	00003e40 	call	3e4 <LCD_WriteReg>
    4424:	01354494 	movui	r4,54546
    4428:	01400044 	movi	r5,1
    442c:	00003e40 	call	3e4 <LCD_WriteReg>
    4430:	013544d4 	movui	r4,54547
    4434:	01401504 	movi	r5,84
    4438:	00003e40 	call	3e4 <LCD_WriteReg>
    443c:	01354514 	movui	r4,54548
    4440:	01400044 	movi	r5,1
    4444:	00003e40 	call	3e4 <LCD_WriteReg>
    4448:	01354554 	movui	r4,54549
    444c:	01402084 	movi	r5,130
    4450:	00003e40 	call	3e4 <LCD_WriteReg>
    4454:	01354594 	movui	r4,54550
    4458:	01400044 	movi	r5,1
    445c:	00003e40 	call	3e4 <LCD_WriteReg>
    4460:	013545d4 	movui	r4,54551
    4464:	01403284 	movi	r5,202
    4468:	00003e40 	call	3e4 <LCD_WriteReg>
    446c:	01354614 	movui	r4,54552
    4470:	01400084 	movi	r5,2
    4474:	00003e40 	call	3e4 <LCD_WriteReg>
    4478:	01354654 	movui	r4,54553
    447c:	000b883a 	mov	r5,zero
    4480:	00003e40 	call	3e4 <LCD_WriteReg>
    4484:	01354694 	movui	r4,54554
    4488:	01400084 	movi	r5,2
    448c:	00003e40 	call	3e4 <LCD_WriteReg>
    4490:	013546d4 	movui	r4,54555
    4494:	01400044 	movi	r5,1
    4498:	00003e40 	call	3e4 <LCD_WriteReg>
    449c:	01354714 	movui	r4,54556
    44a0:	01400084 	movi	r5,2
    44a4:	00003e40 	call	3e4 <LCD_WriteReg>
    44a8:	01354754 	movui	r4,54557
    44ac:	01400d04 	movi	r5,52
    44b0:	00003e40 	call	3e4 <LCD_WriteReg>
    44b4:	01354794 	movui	r4,54558
    44b8:	01400084 	movi	r5,2
    44bc:	00003e40 	call	3e4 <LCD_WriteReg>
    44c0:	013547d4 	movui	r4,54559
    44c4:	014019c4 	movi	r5,103
    44c8:	00003e40 	call	3e4 <LCD_WriteReg>
    44cc:	01354814 	movui	r4,54560
    44d0:	01400084 	movi	r5,2
    44d4:	00003e40 	call	3e4 <LCD_WriteReg>
    44d8:	01354854 	movui	r4,54561
    44dc:	01402104 	movi	r5,132
    44e0:	00003e40 	call	3e4 <LCD_WriteReg>
    44e4:	01354894 	movui	r4,54562
    44e8:	01400084 	movi	r5,2
    44ec:	00003e40 	call	3e4 <LCD_WriteReg>
    44f0:	013548d4 	movui	r4,54563
    44f4:	01402904 	movi	r5,164
    44f8:	00003e40 	call	3e4 <LCD_WriteReg>
    44fc:	01354914 	movui	r4,54564
    4500:	01400084 	movi	r5,2
    4504:	00003e40 	call	3e4 <LCD_WriteReg>
    4508:	01354954 	movui	r4,54565
    450c:	01402dc4 	movi	r5,183
    4510:	00003e40 	call	3e4 <LCD_WriteReg>
    4514:	01354994 	movui	r4,54566
    4518:	01400084 	movi	r5,2
    451c:	00003e40 	call	3e4 <LCD_WriteReg>
    4520:	013549d4 	movui	r4,54567
    4524:	014033c4 	movi	r5,207
    4528:	00003e40 	call	3e4 <LCD_WriteReg>
    452c:	01354a14 	movui	r4,54568
    4530:	01400084 	movi	r5,2
    4534:	00003e40 	call	3e4 <LCD_WriteReg>
    4538:	01354a54 	movui	r4,54569
    453c:	01403784 	movi	r5,222
    4540:	00003e40 	call	3e4 <LCD_WriteReg>
    4544:	01354a94 	movui	r4,54570
    4548:	01400084 	movi	r5,2
    454c:	00003e40 	call	3e4 <LCD_WriteReg>
    4550:	01354ad4 	movui	r4,54571
    4554:	01403c84 	movi	r5,242
    4558:	00003e40 	call	3e4 <LCD_WriteReg>
    455c:	01354b14 	movui	r4,54572
    4560:	01400084 	movi	r5,2
    4564:	00003e40 	call	3e4 <LCD_WriteReg>
    4568:	01354b54 	movui	r4,54573
    456c:	01403f84 	movi	r5,254
    4570:	00003e40 	call	3e4 <LCD_WriteReg>
    4574:	01354b94 	movui	r4,54574
    4578:	014000c4 	movi	r5,3
    457c:	00003e40 	call	3e4 <LCD_WriteReg>
    4580:	01354bd4 	movui	r4,54575
    4584:	01400404 	movi	r5,16
    4588:	00003e40 	call	3e4 <LCD_WriteReg>
    458c:	01354c14 	movui	r4,54576
    4590:	014000c4 	movi	r5,3
    4594:	00003e40 	call	3e4 <LCD_WriteReg>
    4598:	01354c54 	movui	r4,54577
    459c:	01400cc4 	movi	r5,51
    45a0:	00003e40 	call	3e4 <LCD_WriteReg>
    45a4:	01354c94 	movui	r4,54578
    45a8:	014000c4 	movi	r5,3
    45ac:	00003e40 	call	3e4 <LCD_WriteReg>
    45b0:	01354cd4 	movui	r4,54579
    45b4:	01401b44 	movi	r5,109
    45b8:	00003e40 	call	3e4 <LCD_WriteReg>
    45bc:	01358014 	movui	r4,54784
    45c0:	000b883a 	mov	r5,zero
    45c4:	00003e40 	call	3e4 <LCD_WriteReg>
    45c8:	01358054 	movui	r4,54785
    45cc:	01400cc4 	movi	r5,51
    45d0:	00003e40 	call	3e4 <LCD_WriteReg>
    45d4:	01358094 	movui	r4,54786
    45d8:	000b883a 	mov	r5,zero
    45dc:	00003e40 	call	3e4 <LCD_WriteReg>
    45e0:	013580d4 	movui	r4,54787
    45e4:	01400d04 	movi	r5,52
    45e8:	00003e40 	call	3e4 <LCD_WriteReg>
    45ec:	01358114 	movui	r4,54788
    45f0:	000b883a 	mov	r5,zero
    45f4:	00003e40 	call	3e4 <LCD_WriteReg>
    45f8:	01358154 	movui	r4,54789
    45fc:	01400e84 	movi	r5,58
    4600:	00003e40 	call	3e4 <LCD_WriteReg>
    4604:	01358194 	movui	r4,54790
    4608:	000b883a 	mov	r5,zero
    460c:	00003e40 	call	3e4 <LCD_WriteReg>
    4610:	013581d4 	movui	r4,54791
    4614:	01401284 	movi	r5,74
    4618:	00003e40 	call	3e4 <LCD_WriteReg>
    461c:	01358214 	movui	r4,54792
    4620:	000b883a 	mov	r5,zero
    4624:	00003e40 	call	3e4 <LCD_WriteReg>
    4628:	01358254 	movui	r4,54793
    462c:	01401704 	movi	r5,92
    4630:	00003e40 	call	3e4 <LCD_WriteReg>
    4634:	01358294 	movui	r4,54794
    4638:	000b883a 	mov	r5,zero
    463c:	00003e40 	call	3e4 <LCD_WriteReg>
    4640:	013582d4 	movui	r4,54795
    4644:	01402044 	movi	r5,129
    4648:	00003e40 	call	3e4 <LCD_WriteReg>
    464c:	01358314 	movui	r4,54796
    4650:	000b883a 	mov	r5,zero
    4654:	00003e40 	call	3e4 <LCD_WriteReg>
    4658:	01358354 	movui	r4,54797
    465c:	01402984 	movi	r5,166
    4660:	00003e40 	call	3e4 <LCD_WriteReg>
    4664:	01358394 	movui	r4,54798
    4668:	000b883a 	mov	r5,zero
    466c:	00003e40 	call	3e4 <LCD_WriteReg>
    4670:	013583d4 	movui	r4,54799
    4674:	01403944 	movi	r5,229
    4678:	00003e40 	call	3e4 <LCD_WriteReg>
    467c:	01358414 	movui	r4,54800
    4680:	01400044 	movi	r5,1
    4684:	00003e40 	call	3e4 <LCD_WriteReg>
    4688:	01358454 	movui	r4,54801
    468c:	014004c4 	movi	r5,19
    4690:	00003e40 	call	3e4 <LCD_WriteReg>
    4694:	01358494 	movui	r4,54802
    4698:	01400044 	movi	r5,1
    469c:	00003e40 	call	3e4 <LCD_WriteReg>
    46a0:	013584d4 	movui	r4,54803
    46a4:	01401504 	movi	r5,84
    46a8:	00003e40 	call	3e4 <LCD_WriteReg>
    46ac:	01358514 	movui	r4,54804
    46b0:	01400044 	movi	r5,1
    46b4:	00003e40 	call	3e4 <LCD_WriteReg>
    46b8:	01358554 	movui	r4,54805
    46bc:	01402084 	movi	r5,130
    46c0:	00003e40 	call	3e4 <LCD_WriteReg>
    46c4:	01358594 	movui	r4,54806
    46c8:	01400044 	movi	r5,1
    46cc:	00003e40 	call	3e4 <LCD_WriteReg>
    46d0:	013585d4 	movui	r4,54807
    46d4:	01403284 	movi	r5,202
    46d8:	00003e40 	call	3e4 <LCD_WriteReg>
    46dc:	01358614 	movui	r4,54808
    46e0:	01400084 	movi	r5,2
    46e4:	00003e40 	call	3e4 <LCD_WriteReg>
    46e8:	01358654 	movui	r4,54809
    46ec:	000b883a 	mov	r5,zero
    46f0:	00003e40 	call	3e4 <LCD_WriteReg>
    46f4:	01358694 	movui	r4,54810
    46f8:	01400084 	movi	r5,2
    46fc:	00003e40 	call	3e4 <LCD_WriteReg>
    4700:	013586d4 	movui	r4,54811
    4704:	01400044 	movi	r5,1
    4708:	00003e40 	call	3e4 <LCD_WriteReg>
    470c:	01358714 	movui	r4,54812
    4710:	01400084 	movi	r5,2
    4714:	00003e40 	call	3e4 <LCD_WriteReg>
    4718:	01358754 	movui	r4,54813
    471c:	01400d04 	movi	r5,52
    4720:	00003e40 	call	3e4 <LCD_WriteReg>
    4724:	01358794 	movui	r4,54814
    4728:	01400084 	movi	r5,2
    472c:	00003e40 	call	3e4 <LCD_WriteReg>
    4730:	013587d4 	movui	r4,54815
    4734:	014019c4 	movi	r5,103
    4738:	00003e40 	call	3e4 <LCD_WriteReg>
    473c:	01358814 	movui	r4,54816
    4740:	01400084 	movi	r5,2
    4744:	00003e40 	call	3e4 <LCD_WriteReg>
    4748:	01358854 	movui	r4,54817
    474c:	01402104 	movi	r5,132
    4750:	00003e40 	call	3e4 <LCD_WriteReg>
    4754:	01358894 	movui	r4,54818
    4758:	01400084 	movi	r5,2
    475c:	00003e40 	call	3e4 <LCD_WriteReg>
    4760:	013588d4 	movui	r4,54819
    4764:	01402904 	movi	r5,164
    4768:	00003e40 	call	3e4 <LCD_WriteReg>
    476c:	01358914 	movui	r4,54820
    4770:	01400084 	movi	r5,2
    4774:	00003e40 	call	3e4 <LCD_WriteReg>
    4778:	01358954 	movui	r4,54821
    477c:	01402dc4 	movi	r5,183
    4780:	00003e40 	call	3e4 <LCD_WriteReg>
    4784:	01358994 	movui	r4,54822
    4788:	01400084 	movi	r5,2
    478c:	00003e40 	call	3e4 <LCD_WriteReg>
    4790:	013589d4 	movui	r4,54823
    4794:	014033c4 	movi	r5,207
    4798:	00003e40 	call	3e4 <LCD_WriteReg>
    479c:	01358a14 	movui	r4,54824
    47a0:	01400084 	movi	r5,2
    47a4:	00003e40 	call	3e4 <LCD_WriteReg>
    47a8:	01358a54 	movui	r4,54825
    47ac:	01403784 	movi	r5,222
    47b0:	00003e40 	call	3e4 <LCD_WriteReg>
    47b4:	01358a94 	movui	r4,54826
    47b8:	01400084 	movi	r5,2
    47bc:	00003e40 	call	3e4 <LCD_WriteReg>
    47c0:	01358ad4 	movui	r4,54827
    47c4:	01403c84 	movi	r5,242
    47c8:	00003e40 	call	3e4 <LCD_WriteReg>
    47cc:	01358b14 	movui	r4,54828
    47d0:	01400084 	movi	r5,2
    47d4:	00003e40 	call	3e4 <LCD_WriteReg>
    47d8:	01358b54 	movui	r4,54829
    47dc:	01403f84 	movi	r5,254
    47e0:	00003e40 	call	3e4 <LCD_WriteReg>
    47e4:	01358b94 	movui	r4,54830
    47e8:	014000c4 	movi	r5,3
    47ec:	00003e40 	call	3e4 <LCD_WriteReg>
    47f0:	01358bd4 	movui	r4,54831
    47f4:	01400404 	movi	r5,16
    47f8:	00003e40 	call	3e4 <LCD_WriteReg>
    47fc:	01358c14 	movui	r4,54832
    4800:	014000c4 	movi	r5,3
    4804:	00003e40 	call	3e4 <LCD_WriteReg>
    4808:	01358c54 	movui	r4,54833
    480c:	01400cc4 	movi	r5,51
    4810:	00003e40 	call	3e4 <LCD_WriteReg>
    4814:	01358c94 	movui	r4,54834
    4818:	014000c4 	movi	r5,3
    481c:	00003e40 	call	3e4 <LCD_WriteReg>
    4820:	01358cd4 	movui	r4,54835
    4824:	01401b44 	movi	r5,109
    4828:	00003e40 	call	3e4 <LCD_WriteReg>
    482c:	013c0014 	movui	r4,61440
    4830:	01401544 	movi	r5,85
    4834:	00003e40 	call	3e4 <LCD_WriteReg>
    4838:	013c0054 	movui	r4,61441
    483c:	01402a84 	movi	r5,170
    4840:	00003e40 	call	3e4 <LCD_WriteReg>
    4844:	013c0094 	movui	r4,61442
    4848:	01401484 	movi	r5,82
    484c:	00003e40 	call	3e4 <LCD_WriteReg>
    4850:	013c00d4 	movui	r4,61443
    4854:	01400204 	movi	r5,8
    4858:	00003e40 	call	3e4 <LCD_WriteReg>
    485c:	013c0114 	movui	r4,61444
    4860:	000b883a 	mov	r5,zero
    4864:	00003e40 	call	3e4 <LCD_WriteReg>
    4868:	012c4014 	movui	r4,45312
    486c:	01403304 	movi	r5,204
    4870:	00003e40 	call	3e4 <LCD_WriteReg>
    4874:	012c4054 	movui	r4,45313
    4878:	000b883a 	mov	r5,zero
    487c:	00003e40 	call	3e4 <LCD_WriteReg>
    4880:	012d8014 	movui	r4,46592
    4884:	01400144 	movi	r5,5
    4888:	00003e40 	call	3e4 <LCD_WriteReg>
    488c:	012dc014 	movui	r4,46848
    4890:	01401c04 	movi	r5,112
    4894:	00003e40 	call	3e4 <LCD_WriteReg>
    4898:	012dc054 	movui	r4,46849
    489c:	01401c04 	movi	r5,112
    48a0:	00003e40 	call	3e4 <LCD_WriteReg>
    48a4:	012e0014 	movui	r4,47104
    48a8:	01400044 	movi	r5,1
    48ac:	00003e40 	call	3e4 <LCD_WriteReg>
    48b0:	012e0054 	movui	r4,47105
    48b4:	014000c4 	movi	r5,3
    48b8:	00003e40 	call	3e4 <LCD_WriteReg>
    48bc:	012e0094 	movui	r4,47106
    48c0:	014000c4 	movi	r5,3
    48c4:	00003e40 	call	3e4 <LCD_WriteReg>
    48c8:	012e00d4 	movui	r4,47107
    48cc:	014000c4 	movi	r5,3
    48d0:	00003e40 	call	3e4 <LCD_WriteReg>
    48d4:	012f0014 	movui	r4,48128
    48d8:	01400084 	movi	r5,2
    48dc:	00003e40 	call	3e4 <LCD_WriteReg>
    48e0:	012f0054 	movui	r4,48129
    48e4:	000b883a 	mov	r5,zero
    48e8:	00003e40 	call	3e4 <LCD_WriteReg>
    48ec:	012f0094 	movui	r4,48130
    48f0:	000b883a 	mov	r5,zero
    48f4:	00003e40 	call	3e4 <LCD_WriteReg>
    48f8:	01324014 	movui	r4,51456
    48fc:	01403404 	movi	r5,208
    4900:	00003e40 	call	3e4 <LCD_WriteReg>
    4904:	01324054 	movui	r4,51457
    4908:	01400084 	movi	r5,2
    490c:	00003e40 	call	3e4 <LCD_WriteReg>
    4910:	01324094 	movui	r4,51458
    4914:	01401404 	movi	r5,80
    4918:	00003e40 	call	3e4 <LCD_WriteReg>
    491c:	013240d4 	movui	r4,51459
    4920:	01401404 	movi	r5,80
    4924:	00003e40 	call	3e4 <LCD_WriteReg>
    4928:	01324114 	movui	r4,51460
    492c:	01401404 	movi	r5,80
    4930:	00003e40 	call	3e4 <LCD_WriteReg>
    4934:	010d4004 	movi	r4,13568
    4938:	000b883a 	mov	r5,zero
    493c:	00003e40 	call	3e4 <LCD_WriteReg>
    4940:	010e8004 	movi	r4,14848
    4944:	01401544 	movi	r5,85
    4948:	00003e40 	call	3e4 <LCD_WriteReg>
    494c:	01044004 	movi	r4,4352
    4950:	00002680 	call	268 <LCD_WR_CMD>
    4954:	01001e04 	movi	r4,120
    4958:	0011f9c0 	call	11f9c <usleep>
    495c:	010a4004 	movi	r4,10496
    4960:	00002680 	call	268 <LCD_WR_CMD>
    4964:	00007e06 	br	4b60 <MCULCD_Init+0x2e24>
    4968:	008000b4 	movhi	r2,2
    496c:	10ae6c04 	addi	r2,r2,-18000
    4970:	1080010b 	ldhu	r2,4(r2)
    4974:	10bfffcc 	andi	r2,r2,65535
    4978:	108658d8 	cmpnei	r2,r2,6499
    497c:	1000781e 	bne	r2,zero,4b60 <MCULCD_Init+0x2e24>
    4980:	01003884 	movi	r4,226
    4984:	00002680 	call	268 <LCD_WR_CMD>
    4988:	01000744 	movi	r4,29
    498c:	00002ec0 	call	2ec <LCD_WR_DATA>
    4990:	01000084 	movi	r4,2
    4994:	00002ec0 	call	2ec <LCD_WR_DATA>
    4998:	01000104 	movi	r4,4
    499c:	00002ec0 	call	2ec <LCD_WR_DATA>
    49a0:	01001904 	movi	r4,100
    49a4:	0011f9c0 	call	11f9c <usleep>
    49a8:	01003804 	movi	r4,224
    49ac:	00002680 	call	268 <LCD_WR_CMD>
    49b0:	01000044 	movi	r4,1
    49b4:	00002ec0 	call	2ec <LCD_WR_DATA>
    49b8:	01000284 	movi	r4,10
    49bc:	00002000 	call	200 <delay_ms>
    49c0:	01003804 	movi	r4,224
    49c4:	00002680 	call	268 <LCD_WR_CMD>
    49c8:	010000c4 	movi	r4,3
    49cc:	00002ec0 	call	2ec <LCD_WR_DATA>
    49d0:	01000304 	movi	r4,12
    49d4:	00002000 	call	200 <delay_ms>
    49d8:	01000044 	movi	r4,1
    49dc:	00002680 	call	268 <LCD_WR_CMD>
    49e0:	01000284 	movi	r4,10
    49e4:	00002000 	call	200 <delay_ms>
    49e8:	01003984 	movi	r4,230
    49ec:	00002680 	call	268 <LCD_WR_CMD>
    49f0:	01000bc4 	movi	r4,47
    49f4:	00002ec0 	call	2ec <LCD_WR_DATA>
    49f8:	01003fc4 	movi	r4,255
    49fc:	00002ec0 	call	2ec <LCD_WR_DATA>
    4a00:	01003fc4 	movi	r4,255
    4a04:	00002ec0 	call	2ec <LCD_WR_DATA>
    4a08:	01002c04 	movi	r4,176
    4a0c:	00002680 	call	268 <LCD_WR_CMD>
    4a10:	01000804 	movi	r4,32
    4a14:	00002ec0 	call	2ec <LCD_WR_DATA>
    4a18:	0009883a 	mov	r4,zero
    4a1c:	00002ec0 	call	2ec <LCD_WR_DATA>
    4a20:	010000c4 	movi	r4,3
    4a24:	00002ec0 	call	2ec <LCD_WR_DATA>
    4a28:	0100c7c4 	movi	r4,799
    4a2c:	00002ec0 	call	2ec <LCD_WR_DATA>
    4a30:	01000044 	movi	r4,1
    4a34:	00002ec0 	call	2ec <LCD_WR_DATA>
    4a38:	010077c4 	movi	r4,479
    4a3c:	00002ec0 	call	2ec <LCD_WR_DATA>
    4a40:	0009883a 	mov	r4,zero
    4a44:	00002ec0 	call	2ec <LCD_WR_DATA>
    4a48:	01002d04 	movi	r4,180
    4a4c:	00002680 	call	268 <LCD_WR_CMD>
    4a50:	01000104 	movi	r4,4
    4a54:	00002ec0 	call	2ec <LCD_WR_DATA>
    4a58:	010107c4 	movi	r4,1055
    4a5c:	00002ec0 	call	2ec <LCD_WR_DATA>
    4a60:	0009883a 	mov	r4,zero
    4a64:	00002ec0 	call	2ec <LCD_WR_DATA>
    4a68:	01000b84 	movi	r4,46
    4a6c:	00002ec0 	call	2ec <LCD_WR_DATA>
    4a70:	0009883a 	mov	r4,zero
    4a74:	00002ec0 	call	2ec <LCD_WR_DATA>
    4a78:	0009883a 	mov	r4,zero
    4a7c:	00002ec0 	call	2ec <LCD_WR_DATA>
    4a80:	0009883a 	mov	r4,zero
    4a84:	00002ec0 	call	2ec <LCD_WR_DATA>
    4a88:	0009883a 	mov	r4,zero
    4a8c:	00002ec0 	call	2ec <LCD_WR_DATA>
    4a90:	01002d84 	movi	r4,182
    4a94:	00002680 	call	268 <LCD_WR_CMD>
    4a98:	01000084 	movi	r4,2
    4a9c:	00002ec0 	call	2ec <LCD_WR_DATA>
    4aa0:	01008304 	movi	r4,524
    4aa4:	00002ec0 	call	2ec <LCD_WR_DATA>
    4aa8:	0009883a 	mov	r4,zero
    4aac:	00002ec0 	call	2ec <LCD_WR_DATA>
    4ab0:	010005c4 	movi	r4,23
    4ab4:	00002ec0 	call	2ec <LCD_WR_DATA>
    4ab8:	01000544 	movi	r4,21
    4abc:	00002ec0 	call	2ec <LCD_WR_DATA>
    4ac0:	0009883a 	mov	r4,zero
    4ac4:	00002ec0 	call	2ec <LCD_WR_DATA>
    4ac8:	0009883a 	mov	r4,zero
    4acc:	00002ec0 	call	2ec <LCD_WR_DATA>
    4ad0:	01003c04 	movi	r4,240
    4ad4:	00002680 	call	268 <LCD_WR_CMD>
    4ad8:	010000c4 	movi	r4,3
    4adc:	00002ec0 	call	2ec <LCD_WR_DATA>
    4ae0:	01000a44 	movi	r4,41
    4ae4:	00002680 	call	268 <LCD_WR_CMD>
    4ae8:	01003404 	movi	r4,208
    4aec:	00002680 	call	268 <LCD_WR_CMD>
    4af0:	0009883a 	mov	r4,zero
    4af4:	00002ec0 	call	2ec <LCD_WR_DATA>
    4af8:	01002f84 	movi	r4,190
    4afc:	00002680 	call	268 <LCD_WR_CMD>
    4b00:	01000144 	movi	r4,5
    4b04:	00002ec0 	call	2ec <LCD_WR_DATA>
    4b08:	01003f84 	movi	r4,254
    4b0c:	00002ec0 	call	2ec <LCD_WR_DATA>
    4b10:	01000044 	movi	r4,1
    4b14:	00002ec0 	call	2ec <LCD_WR_DATA>
    4b18:	0009883a 	mov	r4,zero
    4b1c:	00002ec0 	call	2ec <LCD_WR_DATA>
    4b20:	0009883a 	mov	r4,zero
    4b24:	00002ec0 	call	2ec <LCD_WR_DATA>
    4b28:	0009883a 	mov	r4,zero
    4b2c:	00002ec0 	call	2ec <LCD_WR_DATA>
    4b30:	01002e04 	movi	r4,184
    4b34:	00002680 	call	268 <LCD_WR_CMD>
    4b38:	010000c4 	movi	r4,3
    4b3c:	00002ec0 	call	2ec <LCD_WR_DATA>
    4b40:	01000044 	movi	r4,1
    4b44:	00002ec0 	call	2ec <LCD_WR_DATA>
    4b48:	01002e84 	movi	r4,186
    4b4c:	00002680 	call	268 <LCD_WR_CMD>
    4b50:	01000044 	movi	r4,1
    4b54:	00002ec0 	call	2ec <LCD_WR_DATA>
    4b58:	01001904 	movi	r4,100
    4b5c:	00014cc0 	call	14cc <LCD_SSD_BackLightSet>
    4b60:	0009883a 	mov	r4,zero
    4b64:	00015800 	call	1580 <LCD_Display_Dir>
    4b68:	00c00044 	movi	r3,1
    4b6c:	00808034 	movhi	r2,512
    4b70:	10881004 	addi	r2,r2,8256
    4b74:	10c00035 	stwio	r3,0(r2)
    4b78:	013fffd4 	movui	r4,65535
    4b7c:	0004b980 	call	4b98 <LCD_Clear>
    4b80:	e037883a 	mov	sp,fp
    4b84:	dfc00217 	ldw	ra,8(sp)
    4b88:	df000117 	ldw	fp,4(sp)
    4b8c:	dc000017 	ldw	r16,0(sp)
    4b90:	dec00304 	addi	sp,sp,12
    4b94:	f800283a 	ret

00004b98 <LCD_Clear>:
    4b98:	defffb04 	addi	sp,sp,-20
    4b9c:	dfc00415 	stw	ra,16(sp)
    4ba0:	df000315 	stw	fp,12(sp)
    4ba4:	df000304 	addi	fp,sp,12
    4ba8:	e13fff15 	stw	r4,-4(fp)
    4bac:	e03ffd15 	stw	zero,-12(fp)
    4bb0:	008000b4 	movhi	r2,2
    4bb4:	10ae6c04 	addi	r2,r2,-18000
    4bb8:	1080000b 	ldhu	r2,0(r2)
    4bbc:	10bfffcc 	andi	r2,r2,65535
    4bc0:	e0bffe15 	stw	r2,-8(fp)
    4bc4:	008000b4 	movhi	r2,2
    4bc8:	10ae6c04 	addi	r2,r2,-18000
    4bcc:	1080008b 	ldhu	r2,2(r2)
    4bd0:	10bfffcc 	andi	r2,r2,65535
    4bd4:	e0fffe17 	ldw	r3,-8(fp)
    4bd8:	1885383a 	mul	r2,r3,r2
    4bdc:	e0bffe15 	stw	r2,-8(fp)
    4be0:	0009883a 	mov	r4,zero
    4be4:	000b883a 	mov	r5,zero
    4be8:	00008140 	call	814 <LCD_SetCursor>
    4bec:	00004740 	call	474 <LCD_WriteRAM_Prepare>
    4bf0:	e03ffd15 	stw	zero,-12(fp)
    4bf4:	00000706 	br	4c14 <LCD_Clear+0x7c>
    4bf8:	e0bfff17 	ldw	r2,-4(fp)
    4bfc:	10bfffcc 	andi	r2,r2,65535
    4c00:	1009883a 	mov	r4,r2
    4c04:	00002ec0 	call	2ec <LCD_WR_DATA>
    4c08:	e0bffd17 	ldw	r2,-12(fp)
    4c0c:	10800044 	addi	r2,r2,1
    4c10:	e0bffd15 	stw	r2,-12(fp)
    4c14:	e0fffd17 	ldw	r3,-12(fp)
    4c18:	e0bffe17 	ldw	r2,-8(fp)
    4c1c:	18bff636 	bltu	r3,r2,4bf8 <LCD_Clear+0x60>
    4c20:	e037883a 	mov	sp,fp
    4c24:	dfc00117 	ldw	ra,4(sp)
    4c28:	df000017 	ldw	fp,0(sp)
    4c2c:	dec00204 	addi	sp,sp,8
    4c30:	f800283a 	ret

00004c34 <LCD_Fill>:
    4c34:	defff804 	addi	sp,sp,-32
    4c38:	dfc00715 	stw	ra,28(sp)
    4c3c:	df000615 	stw	fp,24(sp)
    4c40:	df000604 	addi	fp,sp,24
    4c44:	2011883a 	mov	r8,r4
    4c48:	2809883a 	mov	r4,r5
    4c4c:	3007883a 	mov	r3,r6
    4c50:	3805883a 	mov	r2,r7
    4c54:	e23ffc0d 	sth	r8,-16(fp)
    4c58:	e13ffd0d 	sth	r4,-12(fp)
    4c5c:	e0fffe0d 	sth	r3,-8(fp)
    4c60:	e0bfff0d 	sth	r2,-4(fp)
    4c64:	e03ffb0d 	sth	zero,-20(fp)
    4c68:	e0fffe0b 	ldhu	r3,-8(fp)
    4c6c:	e0bffc0b 	ldhu	r2,-16(fp)
    4c70:	1885c83a 	sub	r2,r3,r2
    4c74:	10800044 	addi	r2,r2,1
    4c78:	e0bffb0d 	sth	r2,-20(fp)
    4c7c:	e0bffd0b 	ldhu	r2,-12(fp)
    4c80:	e0bffa0d 	sth	r2,-24(fp)
    4c84:	00001506 	br	4cdc <LCD_Fill+0xa8>
    4c88:	e0fffc0b 	ldhu	r3,-16(fp)
    4c8c:	e0bffa0b 	ldhu	r2,-24(fp)
    4c90:	1809883a 	mov	r4,r3
    4c94:	100b883a 	mov	r5,r2
    4c98:	00008140 	call	814 <LCD_SetCursor>
    4c9c:	00004740 	call	474 <LCD_WriteRAM_Prepare>
    4ca0:	e03ffa8d 	sth	zero,-22(fp)
    4ca4:	00000706 	br	4cc4 <LCD_Fill+0x90>
    4ca8:	e0800217 	ldw	r2,8(fp)
    4cac:	10bfffcc 	andi	r2,r2,65535
    4cb0:	1009883a 	mov	r4,r2
    4cb4:	00002ec0 	call	2ec <LCD_WR_DATA>
    4cb8:	e0bffa8b 	ldhu	r2,-22(fp)
    4cbc:	10800044 	addi	r2,r2,1
    4cc0:	e0bffa8d 	sth	r2,-22(fp)
    4cc4:	e0fffa8b 	ldhu	r3,-22(fp)
    4cc8:	e0bffb0b 	ldhu	r2,-20(fp)
    4ccc:	18bff636 	bltu	r3,r2,4ca8 <LCD_Fill+0x74>
    4cd0:	e0bffa0b 	ldhu	r2,-24(fp)
    4cd4:	10800044 	addi	r2,r2,1
    4cd8:	e0bffa0d 	sth	r2,-24(fp)
    4cdc:	e0bffa0b 	ldhu	r2,-24(fp)
    4ce0:	e0ffff0b 	ldhu	r3,-4(fp)
    4ce4:	18bfe82e 	bgeu	r3,r2,4c88 <LCD_Fill+0x54>
    4ce8:	e037883a 	mov	sp,fp
    4cec:	dfc00117 	ldw	ra,4(sp)
    4cf0:	df000017 	ldw	fp,0(sp)
    4cf4:	dec00204 	addi	sp,sp,8
    4cf8:	f800283a 	ret

00004cfc <LCD_Color_Fill>:
    4cfc:	defff804 	addi	sp,sp,-32
    4d00:	dfc00715 	stw	ra,28(sp)
    4d04:	df000615 	stw	fp,24(sp)
    4d08:	df000604 	addi	fp,sp,24
    4d0c:	2011883a 	mov	r8,r4
    4d10:	2809883a 	mov	r4,r5
    4d14:	3007883a 	mov	r3,r6
    4d18:	3805883a 	mov	r2,r7
    4d1c:	e23ffc0d 	sth	r8,-16(fp)
    4d20:	e13ffd0d 	sth	r4,-12(fp)
    4d24:	e0fffe0d 	sth	r3,-8(fp)
    4d28:	e0bfff0d 	sth	r2,-4(fp)
    4d2c:	e0fffe0b 	ldhu	r3,-8(fp)
    4d30:	e0bffc0b 	ldhu	r2,-16(fp)
    4d34:	1885c83a 	sub	r2,r3,r2
    4d38:	10800044 	addi	r2,r2,1
    4d3c:	e0bffb0d 	sth	r2,-20(fp)
    4d40:	e0ffff0b 	ldhu	r3,-4(fp)
    4d44:	e0bffd0b 	ldhu	r2,-12(fp)
    4d48:	1885c83a 	sub	r2,r3,r2
    4d4c:	10800044 	addi	r2,r2,1
    4d50:	e0bffb8d 	sth	r2,-18(fp)
    4d54:	e03ffa0d 	sth	zero,-24(fp)
    4d58:	00002006 	br	4ddc <LCD_Color_Fill+0xe0>
    4d5c:	e0fffc0b 	ldhu	r3,-16(fp)
    4d60:	e13ffd0b 	ldhu	r4,-12(fp)
    4d64:	e0bffa0b 	ldhu	r2,-24(fp)
    4d68:	2085883a 	add	r2,r4,r2
    4d6c:	10bfffcc 	andi	r2,r2,65535
    4d70:	1809883a 	mov	r4,r3
    4d74:	100b883a 	mov	r5,r2
    4d78:	00008140 	call	814 <LCD_SetCursor>
    4d7c:	00004740 	call	474 <LCD_WriteRAM_Prepare>
    4d80:	e03ffa8d 	sth	zero,-22(fp)
    4d84:	00000f06 	br	4dc4 <LCD_Color_Fill+0xc8>
    4d88:	e0fffa0b 	ldhu	r3,-24(fp)
    4d8c:	e0bffb0b 	ldhu	r2,-20(fp)
    4d90:	1887383a 	mul	r3,r3,r2
    4d94:	e0bffa8b 	ldhu	r2,-22(fp)
    4d98:	1885883a 	add	r2,r3,r2
    4d9c:	1085883a 	add	r2,r2,r2
    4da0:	e0c00217 	ldw	r3,8(fp)
    4da4:	1885883a 	add	r2,r3,r2
    4da8:	1080000b 	ldhu	r2,0(r2)
    4dac:	10bfffcc 	andi	r2,r2,65535
    4db0:	1009883a 	mov	r4,r2
    4db4:	00002ec0 	call	2ec <LCD_WR_DATA>
    4db8:	e0bffa8b 	ldhu	r2,-22(fp)
    4dbc:	10800044 	addi	r2,r2,1
    4dc0:	e0bffa8d 	sth	r2,-22(fp)
    4dc4:	e0fffa8b 	ldhu	r3,-22(fp)
    4dc8:	e0bffb0b 	ldhu	r2,-20(fp)
    4dcc:	18bfee36 	bltu	r3,r2,4d88 <LCD_Color_Fill+0x8c>
    4dd0:	e0bffa0b 	ldhu	r2,-24(fp)
    4dd4:	10800044 	addi	r2,r2,1
    4dd8:	e0bffa0d 	sth	r2,-24(fp)
    4ddc:	e0fffa0b 	ldhu	r3,-24(fp)
    4de0:	e0bffb8b 	ldhu	r2,-18(fp)
    4de4:	18bfdd36 	bltu	r3,r2,4d5c <LCD_Color_Fill+0x60>
    4de8:	e037883a 	mov	sp,fp
    4dec:	dfc00117 	ldw	ra,4(sp)
    4df0:	df000017 	ldw	fp,0(sp)
    4df4:	dec00204 	addi	sp,sp,8
    4df8:	f800283a 	ret

00004dfc <LCD_DrawLine>:
    4dfc:	defff004 	addi	sp,sp,-64
    4e00:	dfc00f15 	stw	ra,60(sp)
    4e04:	df000e15 	stw	fp,56(sp)
    4e08:	df000e04 	addi	fp,sp,56
    4e0c:	2011883a 	mov	r8,r4
    4e10:	2809883a 	mov	r4,r5
    4e14:	3007883a 	mov	r3,r6
    4e18:	3805883a 	mov	r2,r7
    4e1c:	e23ffc0d 	sth	r8,-16(fp)
    4e20:	e13ffd0d 	sth	r4,-12(fp)
    4e24:	e0fffe0d 	sth	r3,-8(fp)
    4e28:	e0bfff0d 	sth	r2,-4(fp)
    4e2c:	e03ff315 	stw	zero,-52(fp)
    4e30:	e03ff415 	stw	zero,-48(fp)
    4e34:	e0fffe0b 	ldhu	r3,-8(fp)
    4e38:	e0bffc0b 	ldhu	r2,-16(fp)
    4e3c:	1885c83a 	sub	r2,r3,r2
    4e40:	e0bff515 	stw	r2,-44(fp)
    4e44:	e0ffff0b 	ldhu	r3,-4(fp)
    4e48:	e0bffd0b 	ldhu	r2,-12(fp)
    4e4c:	1885c83a 	sub	r2,r3,r2
    4e50:	e0bff615 	stw	r2,-40(fp)
    4e54:	e0bffc0b 	ldhu	r2,-16(fp)
    4e58:	e0bffa15 	stw	r2,-24(fp)
    4e5c:	e0bffd0b 	ldhu	r2,-12(fp)
    4e60:	e0bffb15 	stw	r2,-20(fp)
    4e64:	e0bff517 	ldw	r2,-44(fp)
    4e68:	0080030e 	bge	zero,r2,4e78 <LCD_DrawLine+0x7c>
    4e6c:	00800044 	movi	r2,1
    4e70:	e0bff815 	stw	r2,-32(fp)
    4e74:	00000906 	br	4e9c <LCD_DrawLine+0xa0>
    4e78:	e0bff517 	ldw	r2,-44(fp)
    4e7c:	1000021e 	bne	r2,zero,4e88 <LCD_DrawLine+0x8c>
    4e80:	e03ff815 	stw	zero,-32(fp)
    4e84:	00000506 	br	4e9c <LCD_DrawLine+0xa0>
    4e88:	00bfffc4 	movi	r2,-1
    4e8c:	e0bff815 	stw	r2,-32(fp)
    4e90:	e0bff517 	ldw	r2,-44(fp)
    4e94:	0085c83a 	sub	r2,zero,r2
    4e98:	e0bff515 	stw	r2,-44(fp)
    4e9c:	e0bff617 	ldw	r2,-40(fp)
    4ea0:	0080030e 	bge	zero,r2,4eb0 <LCD_DrawLine+0xb4>
    4ea4:	00800044 	movi	r2,1
    4ea8:	e0bff915 	stw	r2,-28(fp)
    4eac:	00000906 	br	4ed4 <LCD_DrawLine+0xd8>
    4eb0:	e0bff617 	ldw	r2,-40(fp)
    4eb4:	1000021e 	bne	r2,zero,4ec0 <LCD_DrawLine+0xc4>
    4eb8:	e03ff915 	stw	zero,-28(fp)
    4ebc:	00000506 	br	4ed4 <LCD_DrawLine+0xd8>
    4ec0:	00bfffc4 	movi	r2,-1
    4ec4:	e0bff915 	stw	r2,-28(fp)
    4ec8:	e0bff617 	ldw	r2,-40(fp)
    4ecc:	0085c83a 	sub	r2,zero,r2
    4ed0:	e0bff615 	stw	r2,-40(fp)
    4ed4:	e0bff517 	ldw	r2,-44(fp)
    4ed8:	e0fff617 	ldw	r3,-40(fp)
    4edc:	1880030e 	bge	r3,r2,4eec <LCD_DrawLine+0xf0>
    4ee0:	e0bff517 	ldw	r2,-44(fp)
    4ee4:	e0bff715 	stw	r2,-36(fp)
    4ee8:	00000206 	br	4ef4 <LCD_DrawLine+0xf8>
    4eec:	e0bff617 	ldw	r2,-40(fp)
    4ef0:	e0bff715 	stw	r2,-36(fp)
    4ef4:	e03ff20d 	sth	zero,-56(fp)
    4ef8:	00002806 	br	4f9c <LCD_DrawLine+0x1a0>
    4efc:	e0bffa17 	ldw	r2,-24(fp)
    4f00:	10ffffcc 	andi	r3,r2,65535
    4f04:	e0bffb17 	ldw	r2,-20(fp)
    4f08:	10bfffcc 	andi	r2,r2,65535
    4f0c:	1809883a 	mov	r4,r3
    4f10:	100b883a 	mov	r5,r2
    4f14:	00011900 	call	1190 <LCD_DrawPoint>
    4f18:	e0fff317 	ldw	r3,-52(fp)
    4f1c:	e0bff517 	ldw	r2,-44(fp)
    4f20:	1885883a 	add	r2,r3,r2
    4f24:	e0bff315 	stw	r2,-52(fp)
    4f28:	e0fff417 	ldw	r3,-48(fp)
    4f2c:	e0bff617 	ldw	r2,-40(fp)
    4f30:	1885883a 	add	r2,r3,r2
    4f34:	e0bff415 	stw	r2,-48(fp)
    4f38:	e0bff317 	ldw	r2,-52(fp)
    4f3c:	e0fff717 	ldw	r3,-36(fp)
    4f40:	1880080e 	bge	r3,r2,4f64 <LCD_DrawLine+0x168>
    4f44:	e0fff317 	ldw	r3,-52(fp)
    4f48:	e0bff717 	ldw	r2,-36(fp)
    4f4c:	1885c83a 	sub	r2,r3,r2
    4f50:	e0bff315 	stw	r2,-52(fp)
    4f54:	e0fffa17 	ldw	r3,-24(fp)
    4f58:	e0bff817 	ldw	r2,-32(fp)
    4f5c:	1885883a 	add	r2,r3,r2
    4f60:	e0bffa15 	stw	r2,-24(fp)
    4f64:	e0bff417 	ldw	r2,-48(fp)
    4f68:	e0fff717 	ldw	r3,-36(fp)
    4f6c:	1880080e 	bge	r3,r2,4f90 <LCD_DrawLine+0x194>
    4f70:	e0fff417 	ldw	r3,-48(fp)
    4f74:	e0bff717 	ldw	r2,-36(fp)
    4f78:	1885c83a 	sub	r2,r3,r2
    4f7c:	e0bff415 	stw	r2,-48(fp)
    4f80:	e0fffb17 	ldw	r3,-20(fp)
    4f84:	e0bff917 	ldw	r2,-28(fp)
    4f88:	1885883a 	add	r2,r3,r2
    4f8c:	e0bffb15 	stw	r2,-20(fp)
    4f90:	e0bff20b 	ldhu	r2,-56(fp)
    4f94:	10800044 	addi	r2,r2,1
    4f98:	e0bff20d 	sth	r2,-56(fp)
    4f9c:	e0bff20b 	ldhu	r2,-56(fp)
    4fa0:	e0fff717 	ldw	r3,-36(fp)
    4fa4:	18c00044 	addi	r3,r3,1
    4fa8:	18bfd40e 	bge	r3,r2,4efc <LCD_DrawLine+0x100>
    4fac:	e037883a 	mov	sp,fp
    4fb0:	dfc00117 	ldw	ra,4(sp)
    4fb4:	df000017 	ldw	fp,0(sp)
    4fb8:	dec00204 	addi	sp,sp,8
    4fbc:	f800283a 	ret

00004fc0 <LCD_DrawRectangle>:
    4fc0:	defffa04 	addi	sp,sp,-24
    4fc4:	dfc00515 	stw	ra,20(sp)
    4fc8:	df000415 	stw	fp,16(sp)
    4fcc:	df000404 	addi	fp,sp,16
    4fd0:	2011883a 	mov	r8,r4
    4fd4:	2809883a 	mov	r4,r5
    4fd8:	3007883a 	mov	r3,r6
    4fdc:	3805883a 	mov	r2,r7
    4fe0:	e23ffc0d 	sth	r8,-16(fp)
    4fe4:	e13ffd0d 	sth	r4,-12(fp)
    4fe8:	e0fffe0d 	sth	r3,-8(fp)
    4fec:	e0bfff0d 	sth	r2,-4(fp)
    4ff0:	e13ffc0b 	ldhu	r4,-16(fp)
    4ff4:	e17ffd0b 	ldhu	r5,-12(fp)
    4ff8:	e0fffe0b 	ldhu	r3,-8(fp)
    4ffc:	e0bffd0b 	ldhu	r2,-12(fp)
    5000:	180d883a 	mov	r6,r3
    5004:	100f883a 	mov	r7,r2
    5008:	0004dfc0 	call	4dfc <LCD_DrawLine>
    500c:	e13ffc0b 	ldhu	r4,-16(fp)
    5010:	e17ffd0b 	ldhu	r5,-12(fp)
    5014:	e0fffc0b 	ldhu	r3,-16(fp)
    5018:	e0bfff0b 	ldhu	r2,-4(fp)
    501c:	180d883a 	mov	r6,r3
    5020:	100f883a 	mov	r7,r2
    5024:	0004dfc0 	call	4dfc <LCD_DrawLine>
    5028:	e13ffc0b 	ldhu	r4,-16(fp)
    502c:	e17fff0b 	ldhu	r5,-4(fp)
    5030:	e0fffe0b 	ldhu	r3,-8(fp)
    5034:	e0bfff0b 	ldhu	r2,-4(fp)
    5038:	180d883a 	mov	r6,r3
    503c:	100f883a 	mov	r7,r2
    5040:	0004dfc0 	call	4dfc <LCD_DrawLine>
    5044:	e13ffe0b 	ldhu	r4,-8(fp)
    5048:	e17ffd0b 	ldhu	r5,-12(fp)
    504c:	e0fffe0b 	ldhu	r3,-8(fp)
    5050:	e0bfff0b 	ldhu	r2,-4(fp)
    5054:	180d883a 	mov	r6,r3
    5058:	100f883a 	mov	r7,r2
    505c:	0004dfc0 	call	4dfc <LCD_DrawLine>
    5060:	e037883a 	mov	sp,fp
    5064:	dfc00117 	ldw	ra,4(sp)
    5068:	df000017 	ldw	fp,0(sp)
    506c:	dec00204 	addi	sp,sp,8
    5070:	f800283a 	ret

00005074 <LCD_Draw_Circle>:
    5074:	defff804 	addi	sp,sp,-32
    5078:	dfc00715 	stw	ra,28(sp)
    507c:	df000615 	stw	fp,24(sp)
    5080:	df000604 	addi	fp,sp,24
    5084:	2807883a 	mov	r3,r5
    5088:	3005883a 	mov	r2,r6
    508c:	e13ffd0d 	sth	r4,-12(fp)
    5090:	e0fffe0d 	sth	r3,-8(fp)
    5094:	e0bfff05 	stb	r2,-4(fp)
    5098:	e03ffa15 	stw	zero,-24(fp)
    509c:	e0bfff03 	ldbu	r2,-4(fp)
    50a0:	e0bffb15 	stw	r2,-20(fp)
    50a4:	e0bfff03 	ldbu	r2,-4(fp)
    50a8:	1085883a 	add	r2,r2,r2
    50ac:	00c000c4 	movi	r3,3
    50b0:	1885c83a 	sub	r2,r3,r2
    50b4:	e0bffc15 	stw	r2,-16(fp)
    50b8:	00007906 	br	52a0 <LCD_Draw_Circle+0x22c>
    50bc:	e0bffa17 	ldw	r2,-24(fp)
    50c0:	1007883a 	mov	r3,r2
    50c4:	e0bffd0b 	ldhu	r2,-12(fp)
    50c8:	1885883a 	add	r2,r3,r2
    50cc:	10ffffcc 	andi	r3,r2,65535
    50d0:	e0bffb17 	ldw	r2,-20(fp)
    50d4:	e13ffe0b 	ldhu	r4,-8(fp)
    50d8:	2085c83a 	sub	r2,r4,r2
    50dc:	10bfffcc 	andi	r2,r2,65535
    50e0:	1809883a 	mov	r4,r3
    50e4:	100b883a 	mov	r5,r2
    50e8:	00011900 	call	1190 <LCD_DrawPoint>
    50ec:	e0bffb17 	ldw	r2,-20(fp)
    50f0:	1007883a 	mov	r3,r2
    50f4:	e0bffd0b 	ldhu	r2,-12(fp)
    50f8:	1885883a 	add	r2,r3,r2
    50fc:	10ffffcc 	andi	r3,r2,65535
    5100:	e0bffa17 	ldw	r2,-24(fp)
    5104:	e13ffe0b 	ldhu	r4,-8(fp)
    5108:	2085c83a 	sub	r2,r4,r2
    510c:	10bfffcc 	andi	r2,r2,65535
    5110:	1809883a 	mov	r4,r3
    5114:	100b883a 	mov	r5,r2
    5118:	00011900 	call	1190 <LCD_DrawPoint>
    511c:	e0bffb17 	ldw	r2,-20(fp)
    5120:	1007883a 	mov	r3,r2
    5124:	e0bffd0b 	ldhu	r2,-12(fp)
    5128:	1885883a 	add	r2,r3,r2
    512c:	10ffffcc 	andi	r3,r2,65535
    5130:	e0bffa17 	ldw	r2,-24(fp)
    5134:	1009883a 	mov	r4,r2
    5138:	e0bffe0b 	ldhu	r2,-8(fp)
    513c:	2085883a 	add	r2,r4,r2
    5140:	10bfffcc 	andi	r2,r2,65535
    5144:	1809883a 	mov	r4,r3
    5148:	100b883a 	mov	r5,r2
    514c:	00011900 	call	1190 <LCD_DrawPoint>
    5150:	e0bffa17 	ldw	r2,-24(fp)
    5154:	1007883a 	mov	r3,r2
    5158:	e0bffd0b 	ldhu	r2,-12(fp)
    515c:	1885883a 	add	r2,r3,r2
    5160:	10ffffcc 	andi	r3,r2,65535
    5164:	e0bffb17 	ldw	r2,-20(fp)
    5168:	1009883a 	mov	r4,r2
    516c:	e0bffe0b 	ldhu	r2,-8(fp)
    5170:	2085883a 	add	r2,r4,r2
    5174:	10bfffcc 	andi	r2,r2,65535
    5178:	1809883a 	mov	r4,r3
    517c:	100b883a 	mov	r5,r2
    5180:	00011900 	call	1190 <LCD_DrawPoint>
    5184:	e0bffa17 	ldw	r2,-24(fp)
    5188:	e0fffd0b 	ldhu	r3,-12(fp)
    518c:	1885c83a 	sub	r2,r3,r2
    5190:	10ffffcc 	andi	r3,r2,65535
    5194:	e0bffb17 	ldw	r2,-20(fp)
    5198:	1009883a 	mov	r4,r2
    519c:	e0bffe0b 	ldhu	r2,-8(fp)
    51a0:	2085883a 	add	r2,r4,r2
    51a4:	10bfffcc 	andi	r2,r2,65535
    51a8:	1809883a 	mov	r4,r3
    51ac:	100b883a 	mov	r5,r2
    51b0:	00011900 	call	1190 <LCD_DrawPoint>
    51b4:	e0bffb17 	ldw	r2,-20(fp)
    51b8:	e0fffd0b 	ldhu	r3,-12(fp)
    51bc:	1885c83a 	sub	r2,r3,r2
    51c0:	10ffffcc 	andi	r3,r2,65535
    51c4:	e0bffa17 	ldw	r2,-24(fp)
    51c8:	1009883a 	mov	r4,r2
    51cc:	e0bffe0b 	ldhu	r2,-8(fp)
    51d0:	2085883a 	add	r2,r4,r2
    51d4:	10bfffcc 	andi	r2,r2,65535
    51d8:	1809883a 	mov	r4,r3
    51dc:	100b883a 	mov	r5,r2
    51e0:	00011900 	call	1190 <LCD_DrawPoint>
    51e4:	e0bffa17 	ldw	r2,-24(fp)
    51e8:	e0fffd0b 	ldhu	r3,-12(fp)
    51ec:	1885c83a 	sub	r2,r3,r2
    51f0:	10ffffcc 	andi	r3,r2,65535
    51f4:	e0bffb17 	ldw	r2,-20(fp)
    51f8:	e13ffe0b 	ldhu	r4,-8(fp)
    51fc:	2085c83a 	sub	r2,r4,r2
    5200:	10bfffcc 	andi	r2,r2,65535
    5204:	1809883a 	mov	r4,r3
    5208:	100b883a 	mov	r5,r2
    520c:	00011900 	call	1190 <LCD_DrawPoint>
    5210:	e0bffb17 	ldw	r2,-20(fp)
    5214:	e0fffd0b 	ldhu	r3,-12(fp)
    5218:	1885c83a 	sub	r2,r3,r2
    521c:	10ffffcc 	andi	r3,r2,65535
    5220:	e0bffa17 	ldw	r2,-24(fp)
    5224:	e13ffe0b 	ldhu	r4,-8(fp)
    5228:	2085c83a 	sub	r2,r4,r2
    522c:	10bfffcc 	andi	r2,r2,65535
    5230:	1809883a 	mov	r4,r3
    5234:	100b883a 	mov	r5,r2
    5238:	00011900 	call	1190 <LCD_DrawPoint>
    523c:	e0bffa17 	ldw	r2,-24(fp)
    5240:	10800044 	addi	r2,r2,1
    5244:	e0bffa15 	stw	r2,-24(fp)
    5248:	e0bffc17 	ldw	r2,-16(fp)
    524c:	1000080e 	bge	r2,zero,5270 <LCD_Draw_Circle+0x1fc>
    5250:	e0bffa17 	ldw	r2,-24(fp)
    5254:	1085883a 	add	r2,r2,r2
    5258:	1085883a 	add	r2,r2,r2
    525c:	10800184 	addi	r2,r2,6
    5260:	e0fffc17 	ldw	r3,-16(fp)
    5264:	1885883a 	add	r2,r3,r2
    5268:	e0bffc15 	stw	r2,-16(fp)
    526c:	00000c06 	br	52a0 <LCD_Draw_Circle+0x22c>
    5270:	e0fffa17 	ldw	r3,-24(fp)
    5274:	e0bffb17 	ldw	r2,-20(fp)
    5278:	1885c83a 	sub	r2,r3,r2
    527c:	1085883a 	add	r2,r2,r2
    5280:	1085883a 	add	r2,r2,r2
    5284:	10800284 	addi	r2,r2,10
    5288:	e0fffc17 	ldw	r3,-16(fp)
    528c:	1885883a 	add	r2,r3,r2
    5290:	e0bffc15 	stw	r2,-16(fp)
    5294:	e0bffb17 	ldw	r2,-20(fp)
    5298:	10bfffc4 	addi	r2,r2,-1
    529c:	e0bffb15 	stw	r2,-20(fp)
    52a0:	e0bffa17 	ldw	r2,-24(fp)
    52a4:	e0fffb17 	ldw	r3,-20(fp)
    52a8:	18bf840e 	bge	r3,r2,50bc <LCD_Draw_Circle+0x48>
    52ac:	e037883a 	mov	sp,fp
    52b0:	dfc00117 	ldw	ra,4(sp)
    52b4:	df000017 	ldw	fp,0(sp)
    52b8:	dec00204 	addi	sp,sp,8
    52bc:	f800283a 	ret

000052c0 <LCD_ShowChar>:
    52c0:	defff704 	addi	sp,sp,-36
    52c4:	dfc00815 	stw	ra,32(sp)
    52c8:	df000715 	stw	fp,28(sp)
    52cc:	df000704 	addi	fp,sp,28
    52d0:	2011883a 	mov	r8,r4
    52d4:	2809883a 	mov	r4,r5
    52d8:	3007883a 	mov	r3,r6
    52dc:	3805883a 	mov	r2,r7
    52e0:	e1400217 	ldw	r5,8(fp)
    52e4:	e23ffb0d 	sth	r8,-20(fp)
    52e8:	e13ffc0d 	sth	r4,-16(fp)
    52ec:	e0fffd05 	stb	r3,-12(fp)
    52f0:	e0bffe05 	stb	r2,-8(fp)
    52f4:	e17fff05 	stb	r5,-4(fp)
    52f8:	e0bffc0b 	ldhu	r2,-16(fp)
    52fc:	e0bffa0d 	sth	r2,-24(fp)
    5300:	e0bffe03 	ldbu	r2,-8(fp)
    5304:	1004d0fa 	srli	r2,r2,3
    5308:	10c03fcc 	andi	r3,r2,255
    530c:	e0bffe03 	ldbu	r2,-8(fp)
    5310:	108001cc 	andi	r2,r2,7
    5314:	10803fcc 	andi	r2,r2,255
    5318:	1004c03a 	cmpne	r2,r2,zero
    531c:	10803fcc 	andi	r2,r2,255
    5320:	1885883a 	add	r2,r3,r2
    5324:	1007883a 	mov	r3,r2
    5328:	e0bffe03 	ldbu	r2,-8(fp)
    532c:	1004d07a 	srli	r2,r2,1
    5330:	1885383a 	mul	r2,r3,r2
    5334:	e0bffa85 	stb	r2,-22(fp)
    5338:	e0bffd03 	ldbu	r2,-12(fp)
    533c:	10bff804 	addi	r2,r2,-32
    5340:	e0bffd05 	stb	r2,-12(fp)
    5344:	e03ff985 	stb	zero,-26(fp)
    5348:	00007106 	br	5510 <LCD_ShowChar+0x250>
    534c:	e0bffe03 	ldbu	r2,-8(fp)
    5350:	10800318 	cmpnei	r2,r2,12
    5354:	10000a1e 	bne	r2,zero,5380 <LCD_ShowChar+0xc0>
    5358:	e13ffd03 	ldbu	r4,-12(fp)
    535c:	e0bff983 	ldbu	r2,-26(fp)
    5360:	00c00074 	movhi	r3,1
    5364:	18d44104 	addi	r3,r3,20740
    5368:	21000324 	muli	r4,r4,12
    536c:	2085883a 	add	r2,r4,r2
    5370:	1885883a 	add	r2,r3,r2
    5374:	10800003 	ldbu	r2,0(r2)
    5378:	e0bff905 	stb	r2,-28(fp)
    537c:	00002606 	br	5418 <LCD_ShowChar+0x158>
    5380:	e0bffe03 	ldbu	r2,-8(fp)
    5384:	10800418 	cmpnei	r2,r2,16
    5388:	10000a1e 	bne	r2,zero,53b4 <LCD_ShowChar+0xf4>
    538c:	e13ffd03 	ldbu	r4,-12(fp)
    5390:	e0bff983 	ldbu	r2,-26(fp)
    5394:	00c00074 	movhi	r3,1
    5398:	18d55e04 	addi	r3,r3,21880
    539c:	2008913a 	slli	r4,r4,4
    53a0:	2085883a 	add	r2,r4,r2
    53a4:	1885883a 	add	r2,r3,r2
    53a8:	10800003 	ldbu	r2,0(r2)
    53ac:	e0bff905 	stb	r2,-28(fp)
    53b0:	00001906 	br	5418 <LCD_ShowChar+0x158>
    53b4:	e0bffe03 	ldbu	r2,-8(fp)
    53b8:	10800618 	cmpnei	r2,r2,24
    53bc:	10000a1e 	bne	r2,zero,53e8 <LCD_ShowChar+0x128>
    53c0:	e13ffd03 	ldbu	r4,-12(fp)
    53c4:	e0bff983 	ldbu	r2,-26(fp)
    53c8:	00c00074 	movhi	r3,1
    53cc:	18d6da04 	addi	r3,r3,23400
    53d0:	21000924 	muli	r4,r4,36
    53d4:	2085883a 	add	r2,r4,r2
    53d8:	1885883a 	add	r2,r3,r2
    53dc:	10800003 	ldbu	r2,0(r2)
    53e0:	e0bff905 	stb	r2,-28(fp)
    53e4:	00000c06 	br	5418 <LCD_ShowChar+0x158>
    53e8:	e0bffe03 	ldbu	r2,-8(fp)
    53ec:	10800818 	cmpnei	r2,r2,32
    53f0:	10004b1e 	bne	r2,zero,5520 <LCD_ShowChar+0x260>
    53f4:	e13ffd03 	ldbu	r4,-12(fp)
    53f8:	e0bff983 	ldbu	r2,-26(fp)
    53fc:	00c00074 	movhi	r3,1
    5400:	18da3104 	addi	r3,r3,26820
    5404:	200891fa 	slli	r4,r4,7
    5408:	2085883a 	add	r2,r4,r2
    540c:	1885883a 	add	r2,r3,r2
    5410:	10800003 	ldbu	r2,0(r2)
    5414:	e0bff905 	stb	r2,-28(fp)
    5418:	e03ff945 	stb	zero,-27(fp)
    541c:	00003406 	br	54f0 <LCD_ShowChar+0x230>
    5420:	e0bff903 	ldbu	r2,-28(fp)
    5424:	10803fcc 	andi	r2,r2,255
    5428:	1080201c 	xori	r2,r2,128
    542c:	10bfe004 	addi	r2,r2,-128
    5430:	1000070e 	bge	r2,zero,5450 <LCD_ShowChar+0x190>
    5434:	e13ffb0b 	ldhu	r4,-20(fp)
    5438:	e0fffc0b 	ldhu	r3,-16(fp)
    543c:	d0a00017 	ldw	r2,-32768(gp)
    5440:	180b883a 	mov	r5,r3
    5444:	100d883a 	mov	r6,r2
    5448:	00011ec0 	call	11ec <LCD_Fast_DrawPoint>
    544c:	00000806 	br	5470 <LCD_ShowChar+0x1b0>
    5450:	e0bfff03 	ldbu	r2,-4(fp)
    5454:	1000061e 	bne	r2,zero,5470 <LCD_ShowChar+0x1b0>
    5458:	e13ffb0b 	ldhu	r4,-20(fp)
    545c:	e0fffc0b 	ldhu	r3,-16(fp)
    5460:	d0a00117 	ldw	r2,-32764(gp)
    5464:	180b883a 	mov	r5,r3
    5468:	100d883a 	mov	r6,r2
    546c:	00011ec0 	call	11ec <LCD_Fast_DrawPoint>
    5470:	e0bff903 	ldbu	r2,-28(fp)
    5474:	1085883a 	add	r2,r2,r2
    5478:	e0bff905 	stb	r2,-28(fp)
    547c:	e0bffc0b 	ldhu	r2,-16(fp)
    5480:	10800044 	addi	r2,r2,1
    5484:	e0bffc0d 	sth	r2,-16(fp)
    5488:	008000b4 	movhi	r2,2
    548c:	10ae6c04 	addi	r2,r2,-18000
    5490:	1080008b 	ldhu	r2,2(r2)
    5494:	10bfffcc 	andi	r2,r2,65535
    5498:	e0fffc0b 	ldhu	r3,-16(fp)
    549c:	1880222e 	bgeu	r3,r2,5528 <LCD_ShowChar+0x268>
    54a0:	e0fffc0b 	ldhu	r3,-16(fp)
    54a4:	e0bffa0b 	ldhu	r2,-24(fp)
    54a8:	1887c83a 	sub	r3,r3,r2
    54ac:	e0bffe03 	ldbu	r2,-8(fp)
    54b0:	18800c1e 	bne	r3,r2,54e4 <LCD_ShowChar+0x224>
    54b4:	e0bffa0b 	ldhu	r2,-24(fp)
    54b8:	e0bffc0d 	sth	r2,-16(fp)
    54bc:	e0bffb0b 	ldhu	r2,-20(fp)
    54c0:	10800044 	addi	r2,r2,1
    54c4:	e0bffb0d 	sth	r2,-20(fp)
    54c8:	008000b4 	movhi	r2,2
    54cc:	10ae6c04 	addi	r2,r2,-18000
    54d0:	1080000b 	ldhu	r2,0(r2)
    54d4:	10bfffcc 	andi	r2,r2,65535
    54d8:	e0fffb0b 	ldhu	r3,-20(fp)
    54dc:	18800836 	bltu	r3,r2,5500 <LCD_ShowChar+0x240>
    54e0:	00001206 	br	552c <LCD_ShowChar+0x26c>
    54e4:	e0bff943 	ldbu	r2,-27(fp)
    54e8:	10800044 	addi	r2,r2,1
    54ec:	e0bff945 	stb	r2,-27(fp)
    54f0:	e0bff943 	ldbu	r2,-27(fp)
    54f4:	10800230 	cmpltui	r2,r2,8
    54f8:	103fc91e 	bne	r2,zero,5420 <LCD_ShowChar+0x160>
    54fc:	00000106 	br	5504 <LCD_ShowChar+0x244>
    5500:	0001883a 	nop
    5504:	e0bff983 	ldbu	r2,-26(fp)
    5508:	10800044 	addi	r2,r2,1
    550c:	e0bff985 	stb	r2,-26(fp)
    5510:	e0fff983 	ldbu	r3,-26(fp)
    5514:	e0bffa83 	ldbu	r2,-22(fp)
    5518:	18bf8c36 	bltu	r3,r2,534c <LCD_ShowChar+0x8c>
    551c:	00000306 	br	552c <LCD_ShowChar+0x26c>
    5520:	0001883a 	nop
    5524:	00000106 	br	552c <LCD_ShowChar+0x26c>
    5528:	0001883a 	nop
    552c:	e037883a 	mov	sp,fp
    5530:	dfc00117 	ldw	ra,4(sp)
    5534:	df000017 	ldw	fp,0(sp)
    5538:	dec00204 	addi	sp,sp,8
    553c:	f800283a 	ret

00005540 <LCD_Pow>:
    5540:	defffc04 	addi	sp,sp,-16
    5544:	df000315 	stw	fp,12(sp)
    5548:	df000304 	addi	fp,sp,12
    554c:	2007883a 	mov	r3,r4
    5550:	2805883a 	mov	r2,r5
    5554:	e0fffe05 	stb	r3,-8(fp)
    5558:	e0bfff05 	stb	r2,-4(fp)
    555c:	00800044 	movi	r2,1
    5560:	e0bffd15 	stw	r2,-12(fp)
    5564:	00000406 	br	5578 <LCD_Pow+0x38>
    5568:	e0bffe03 	ldbu	r2,-8(fp)
    556c:	e0fffd17 	ldw	r3,-12(fp)
    5570:	1885383a 	mul	r2,r3,r2
    5574:	e0bffd15 	stw	r2,-12(fp)
    5578:	e0bfff03 	ldbu	r2,-4(fp)
    557c:	1004c03a 	cmpne	r2,r2,zero
    5580:	e0ffff03 	ldbu	r3,-4(fp)
    5584:	18ffffc4 	addi	r3,r3,-1
    5588:	e0ffff05 	stb	r3,-4(fp)
    558c:	10803fcc 	andi	r2,r2,255
    5590:	103ff51e 	bne	r2,zero,5568 <LCD_Pow+0x28>
    5594:	e0bffd17 	ldw	r2,-12(fp)
    5598:	e037883a 	mov	sp,fp
    559c:	df000017 	ldw	fp,0(sp)
    55a0:	dec00104 	addi	sp,sp,4
    55a4:	f800283a 	ret

000055a8 <LCD_ShowNum>:
    55a8:	defff704 	addi	sp,sp,-36
    55ac:	dfc00815 	stw	ra,32(sp)
    55b0:	df000715 	stw	fp,28(sp)
    55b4:	df000704 	addi	fp,sp,28
    55b8:	2807883a 	mov	r3,r5
    55bc:	e1bffd15 	stw	r6,-12(fp)
    55c0:	3805883a 	mov	r2,r7
    55c4:	e1400217 	ldw	r5,8(fp)
    55c8:	e13ffb0d 	sth	r4,-20(fp)
    55cc:	e0fffc0d 	sth	r3,-16(fp)
    55d0:	e0bffe05 	stb	r2,-8(fp)
    55d4:	e17fff05 	stb	r5,-4(fp)
    55d8:	e03ffa45 	stb	zero,-23(fp)
    55dc:	e03ffa05 	stb	zero,-24(fp)
    55e0:	00003f06 	br	56e0 <LCD_ShowNum+0x138>
    55e4:	e0fffe03 	ldbu	r3,-8(fp)
    55e8:	e0bffa03 	ldbu	r2,-24(fp)
    55ec:	1885c83a 	sub	r2,r3,r2
    55f0:	10bfffc4 	addi	r2,r2,-1
    55f4:	10803fcc 	andi	r2,r2,255
    55f8:	01000284 	movi	r4,10
    55fc:	100b883a 	mov	r5,r2
    5600:	00055400 	call	5540 <LCD_Pow>
    5604:	e0fffd17 	ldw	r3,-12(fp)
    5608:	1885203a 	divu	r2,r3,r2
    560c:	00c00284 	movi	r3,10
    5610:	10c7203a 	divu	r3,r2,r3
    5614:	18c002a4 	muli	r3,r3,10
    5618:	10c5c83a 	sub	r2,r2,r3
    561c:	e0bffa85 	stb	r2,-22(fp)
    5620:	e0bffa43 	ldbu	r2,-23(fp)
    5624:	1000191e 	bne	r2,zero,568c <LCD_ShowNum+0xe4>
    5628:	e0fffa03 	ldbu	r3,-24(fp)
    562c:	e0bffe03 	ldbu	r2,-8(fp)
    5630:	10bfffc4 	addi	r2,r2,-1
    5634:	1880150e 	bge	r3,r2,568c <LCD_ShowNum+0xe4>
    5638:	e0bffa83 	ldbu	r2,-22(fp)
    563c:	1000111e 	bne	r2,zero,5684 <LCD_ShowNum+0xdc>
    5640:	e0bfff03 	ldbu	r2,-4(fp)
    5644:	1004d07a 	srli	r2,r2,1
    5648:	10c03fcc 	andi	r3,r2,255
    564c:	e0bffa03 	ldbu	r2,-24(fp)
    5650:	1885383a 	mul	r2,r3,r2
    5654:	1007883a 	mov	r3,r2
    5658:	e0bffb0b 	ldhu	r2,-20(fp)
    565c:	1885883a 	add	r2,r3,r2
    5660:	113fffcc 	andi	r4,r2,65535
    5664:	e0fffc0b 	ldhu	r3,-16(fp)
    5668:	e0bfff03 	ldbu	r2,-4(fp)
    566c:	d8000015 	stw	zero,0(sp)
    5670:	180b883a 	mov	r5,r3
    5674:	01800804 	movi	r6,32
    5678:	100f883a 	mov	r7,r2
    567c:	00052c00 	call	52c0 <LCD_ShowChar>
    5680:	00001406 	br	56d4 <LCD_ShowNum+0x12c>
    5684:	00800044 	movi	r2,1
    5688:	e0bffa45 	stb	r2,-23(fp)
    568c:	e0bfff03 	ldbu	r2,-4(fp)
    5690:	1004d07a 	srli	r2,r2,1
    5694:	10c03fcc 	andi	r3,r2,255
    5698:	e0bffa03 	ldbu	r2,-24(fp)
    569c:	1885383a 	mul	r2,r3,r2
    56a0:	1007883a 	mov	r3,r2
    56a4:	e0bffb0b 	ldhu	r2,-20(fp)
    56a8:	1885883a 	add	r2,r3,r2
    56ac:	113fffcc 	andi	r4,r2,65535
    56b0:	e17ffc0b 	ldhu	r5,-16(fp)
    56b4:	e0bffa83 	ldbu	r2,-22(fp)
    56b8:	10800c04 	addi	r2,r2,48
    56bc:	10c03fcc 	andi	r3,r2,255
    56c0:	e0bfff03 	ldbu	r2,-4(fp)
    56c4:	d8000015 	stw	zero,0(sp)
    56c8:	180d883a 	mov	r6,r3
    56cc:	100f883a 	mov	r7,r2
    56d0:	00052c00 	call	52c0 <LCD_ShowChar>
    56d4:	e0bffa03 	ldbu	r2,-24(fp)
    56d8:	10800044 	addi	r2,r2,1
    56dc:	e0bffa05 	stb	r2,-24(fp)
    56e0:	e0fffa03 	ldbu	r3,-24(fp)
    56e4:	e0bffe03 	ldbu	r2,-8(fp)
    56e8:	18bfbe36 	bltu	r3,r2,55e4 <LCD_ShowNum+0x3c>
    56ec:	e037883a 	mov	sp,fp
    56f0:	dfc00117 	ldw	ra,4(sp)
    56f4:	df000017 	ldw	fp,0(sp)
    56f8:	dec00204 	addi	sp,sp,8
    56fc:	f800283a 	ret

00005700 <LCD_ShowxNum>:
    5700:	defff604 	addi	sp,sp,-40
    5704:	dfc00915 	stw	ra,36(sp)
    5708:	df000815 	stw	fp,32(sp)
    570c:	df000804 	addi	fp,sp,32
    5710:	2807883a 	mov	r3,r5
    5714:	e1bffc15 	stw	r6,-16(fp)
    5718:	3805883a 	mov	r2,r7
    571c:	e1800217 	ldw	r6,8(fp)
    5720:	e1400317 	ldw	r5,12(fp)
    5724:	e13ffa0d 	sth	r4,-24(fp)
    5728:	e0fffb0d 	sth	r3,-20(fp)
    572c:	e0bffd05 	stb	r2,-12(fp)
    5730:	e1bffe05 	stb	r6,-8(fp)
    5734:	e17fff05 	stb	r5,-4(fp)
    5738:	e03ff945 	stb	zero,-27(fp)
    573c:	e03ff905 	stb	zero,-28(fp)
    5740:	00005b06 	br	58b0 <LCD_ShowxNum+0x1b0>
    5744:	e0fffd03 	ldbu	r3,-12(fp)
    5748:	e0bff903 	ldbu	r2,-28(fp)
    574c:	1885c83a 	sub	r2,r3,r2
    5750:	10bfffc4 	addi	r2,r2,-1
    5754:	10803fcc 	andi	r2,r2,255
    5758:	01000284 	movi	r4,10
    575c:	100b883a 	mov	r5,r2
    5760:	00055400 	call	5540 <LCD_Pow>
    5764:	e0fffc17 	ldw	r3,-16(fp)
    5768:	1885203a 	divu	r2,r3,r2
    576c:	00c00284 	movi	r3,10
    5770:	10c7203a 	divu	r3,r2,r3
    5774:	18c002a4 	muli	r3,r3,10
    5778:	10c5c83a 	sub	r2,r2,r3
    577c:	e0bff985 	stb	r2,-26(fp)
    5780:	e0bff943 	ldbu	r2,-27(fp)
    5784:	1000331e 	bne	r2,zero,5854 <LCD_ShowxNum+0x154>
    5788:	e0fff903 	ldbu	r3,-28(fp)
    578c:	e0bffd03 	ldbu	r2,-12(fp)
    5790:	10bfffc4 	addi	r2,r2,-1
    5794:	18802f0e 	bge	r3,r2,5854 <LCD_ShowxNum+0x154>
    5798:	e0bff983 	ldbu	r2,-26(fp)
    579c:	10002b1e 	bne	r2,zero,584c <LCD_ShowxNum+0x14c>
    57a0:	e0bfff03 	ldbu	r2,-4(fp)
    57a4:	10803fcc 	andi	r2,r2,255
    57a8:	1080201c 	xori	r2,r2,128
    57ac:	10bfe004 	addi	r2,r2,-128
    57b0:	1000130e 	bge	r2,zero,5800 <LCD_ShowxNum+0x100>
    57b4:	e0bffe03 	ldbu	r2,-8(fp)
    57b8:	1004d07a 	srli	r2,r2,1
    57bc:	10c03fcc 	andi	r3,r2,255
    57c0:	e0bff903 	ldbu	r2,-28(fp)
    57c4:	1885383a 	mul	r2,r3,r2
    57c8:	1007883a 	mov	r3,r2
    57cc:	e0bffa0b 	ldhu	r2,-24(fp)
    57d0:	1885883a 	add	r2,r3,r2
    57d4:	113fffcc 	andi	r4,r2,65535
    57d8:	e0fffb0b 	ldhu	r3,-20(fp)
    57dc:	e0bffe03 	ldbu	r2,-8(fp)
    57e0:	e17fff03 	ldbu	r5,-4(fp)
    57e4:	2940004c 	andi	r5,r5,1
    57e8:	d9400015 	stw	r5,0(sp)
    57ec:	180b883a 	mov	r5,r3
    57f0:	01800c04 	movi	r6,48
    57f4:	100f883a 	mov	r7,r2
    57f8:	00052c00 	call	52c0 <LCD_ShowChar>
    57fc:	00002906 	br	58a4 <LCD_ShowxNum+0x1a4>
    5800:	e0bffe03 	ldbu	r2,-8(fp)
    5804:	1004d07a 	srli	r2,r2,1
    5808:	10c03fcc 	andi	r3,r2,255
    580c:	e0bff903 	ldbu	r2,-28(fp)
    5810:	1885383a 	mul	r2,r3,r2
    5814:	1007883a 	mov	r3,r2
    5818:	e0bffa0b 	ldhu	r2,-24(fp)
    581c:	1885883a 	add	r2,r3,r2
    5820:	113fffcc 	andi	r4,r2,65535
    5824:	e0fffb0b 	ldhu	r3,-20(fp)
    5828:	e0bffe03 	ldbu	r2,-8(fp)
    582c:	e17fff03 	ldbu	r5,-4(fp)
    5830:	2940004c 	andi	r5,r5,1
    5834:	d9400015 	stw	r5,0(sp)
    5838:	180b883a 	mov	r5,r3
    583c:	01800804 	movi	r6,32
    5840:	100f883a 	mov	r7,r2
    5844:	00052c00 	call	52c0 <LCD_ShowChar>
    5848:	00001606 	br	58a4 <LCD_ShowxNum+0x1a4>
    584c:	00800044 	movi	r2,1
    5850:	e0bff945 	stb	r2,-27(fp)
    5854:	e0bffe03 	ldbu	r2,-8(fp)
    5858:	1004d07a 	srli	r2,r2,1
    585c:	10c03fcc 	andi	r3,r2,255
    5860:	e0bff903 	ldbu	r2,-28(fp)
    5864:	1885383a 	mul	r2,r3,r2
    5868:	1007883a 	mov	r3,r2
    586c:	e0bffa0b 	ldhu	r2,-24(fp)
    5870:	1885883a 	add	r2,r3,r2
    5874:	113fffcc 	andi	r4,r2,65535
    5878:	e17ffb0b 	ldhu	r5,-20(fp)
    587c:	e0bff983 	ldbu	r2,-26(fp)
    5880:	10800c04 	addi	r2,r2,48
    5884:	10c03fcc 	andi	r3,r2,255
    5888:	e0bffe03 	ldbu	r2,-8(fp)
    588c:	e1bfff03 	ldbu	r6,-4(fp)
    5890:	3180004c 	andi	r6,r6,1
    5894:	d9800015 	stw	r6,0(sp)
    5898:	180d883a 	mov	r6,r3
    589c:	100f883a 	mov	r7,r2
    58a0:	00052c00 	call	52c0 <LCD_ShowChar>
    58a4:	e0bff903 	ldbu	r2,-28(fp)
    58a8:	10800044 	addi	r2,r2,1
    58ac:	e0bff905 	stb	r2,-28(fp)
    58b0:	e0fff903 	ldbu	r3,-28(fp)
    58b4:	e0bffd03 	ldbu	r2,-12(fp)
    58b8:	18bfa236 	bltu	r3,r2,5744 <LCD_ShowxNum+0x44>
    58bc:	e037883a 	mov	sp,fp
    58c0:	dfc00117 	ldw	ra,4(sp)
    58c4:	df000017 	ldw	fp,0(sp)
    58c8:	dec00204 	addi	sp,sp,8
    58cc:	f800283a 	ret

000058d0 <LCD_ShowString>:
    58d0:	defff604 	addi	sp,sp,-40
    58d4:	dfc00915 	stw	ra,36(sp)
    58d8:	df000815 	stw	fp,32(sp)
    58dc:	df000804 	addi	fp,sp,32
    58e0:	2011883a 	mov	r8,r4
    58e4:	2809883a 	mov	r4,r5
    58e8:	3007883a 	mov	r3,r6
    58ec:	3805883a 	mov	r2,r7
    58f0:	e1800217 	ldw	r6,8(fp)
    58f4:	e1400317 	ldw	r5,12(fp)
    58f8:	e23ffa0d 	sth	r8,-24(fp)
    58fc:	e13ffb0d 	sth	r4,-20(fp)
    5900:	e0fffc0d 	sth	r3,-16(fp)
    5904:	e0bffd0d 	sth	r2,-12(fp)
    5908:	e1bffe05 	stb	r6,-8(fp)
    590c:	e17fff05 	stb	r5,-4(fp)
    5910:	e0bffa0b 	ldhu	r2,-24(fp)
    5914:	e0bff905 	stb	r2,-28(fp)
    5918:	e0fffc0b 	ldhu	r3,-16(fp)
    591c:	e0bffa0b 	ldhu	r2,-24(fp)
    5920:	1885883a 	add	r2,r3,r2
    5924:	e0bffc0d 	sth	r2,-16(fp)
    5928:	e0fffd0b 	ldhu	r3,-12(fp)
    592c:	e0bffb0b 	ldhu	r2,-20(fp)
    5930:	1885883a 	add	r2,r3,r2
    5934:	e0bffd0d 	sth	r2,-12(fp)
    5938:	00002006 	br	59bc <LCD_ShowString+0xec>
    593c:	e0fffa0b 	ldhu	r3,-24(fp)
    5940:	e0bffc0b 	ldhu	r2,-16(fp)
    5944:	18800636 	bltu	r3,r2,5960 <LCD_ShowString+0x90>
    5948:	e0bff903 	ldbu	r2,-28(fp)
    594c:	e0bffa0d 	sth	r2,-24(fp)
    5950:	e0fffe03 	ldbu	r3,-8(fp)
    5954:	e0bffb0b 	ldhu	r2,-20(fp)
    5958:	1885883a 	add	r2,r3,r2
    595c:	e0bffb0d 	sth	r2,-20(fp)
    5960:	e0fffb0b 	ldhu	r3,-20(fp)
    5964:	e0bffd0b 	ldhu	r2,-12(fp)
    5968:	18801f2e 	bgeu	r3,r2,59e8 <LCD_ShowString+0x118>
    596c:	e13ffa0b 	ldhu	r4,-24(fp)
    5970:	e17ffb0b 	ldhu	r5,-20(fp)
    5974:	e0800417 	ldw	r2,16(fp)
    5978:	10800003 	ldbu	r2,0(r2)
    597c:	10c03fcc 	andi	r3,r2,255
    5980:	e0bffe03 	ldbu	r2,-8(fp)
    5984:	e1bfff03 	ldbu	r6,-4(fp)
    5988:	d9800015 	stw	r6,0(sp)
    598c:	180d883a 	mov	r6,r3
    5990:	100f883a 	mov	r7,r2
    5994:	00052c00 	call	52c0 <LCD_ShowChar>
    5998:	e0bffe03 	ldbu	r2,-8(fp)
    599c:	1004d07a 	srli	r2,r2,1
    59a0:	10c03fcc 	andi	r3,r2,255
    59a4:	e0bffa0b 	ldhu	r2,-24(fp)
    59a8:	1885883a 	add	r2,r3,r2
    59ac:	e0bffa0d 	sth	r2,-24(fp)
    59b0:	e0800417 	ldw	r2,16(fp)
    59b4:	10800044 	addi	r2,r2,1
    59b8:	e0800415 	stw	r2,16(fp)
    59bc:	e0800417 	ldw	r2,16(fp)
    59c0:	10800003 	ldbu	r2,0(r2)
    59c4:	10803fcc 	andi	r2,r2,255
    59c8:	10801fe8 	cmpgeui	r2,r2,127
    59cc:	1000071e 	bne	r2,zero,59ec <LCD_ShowString+0x11c>
    59d0:	e0800417 	ldw	r2,16(fp)
    59d4:	10800003 	ldbu	r2,0(r2)
    59d8:	10803fcc 	andi	r2,r2,255
    59dc:	10800828 	cmpgeui	r2,r2,32
    59e0:	103fd61e 	bne	r2,zero,593c <LCD_ShowString+0x6c>
    59e4:	00000106 	br	59ec <LCD_ShowString+0x11c>
    59e8:	0001883a 	nop
    59ec:	e037883a 	mov	sp,fp
    59f0:	dfc00117 	ldw	ra,4(sp)
    59f4:	df000017 	ldw	fp,0(sp)
    59f8:	dec00204 	addi	sp,sp,8
    59fc:	f800283a 	ret

00005a00 <LCD_DisplayPic>:
    5a00:	defff904 	addi	sp,sp,-28
    5a04:	dfc00615 	stw	ra,24(sp)
    5a08:	df000515 	stw	fp,20(sp)
    5a0c:	df000504 	addi	fp,sp,20
    5a10:	2007883a 	mov	r3,r4
    5a14:	2805883a 	mov	r2,r5
    5a18:	e1bffe15 	stw	r6,-8(fp)
    5a1c:	e1ffff15 	stw	r7,-4(fp)
    5a20:	e0fffc0d 	sth	r3,-16(fp)
    5a24:	e0bffd0d 	sth	r2,-12(fp)
    5a28:	e0fffc0b 	ldhu	r3,-16(fp)
    5a2c:	e0bffd0b 	ldhu	r2,-12(fp)
    5a30:	1809883a 	mov	r4,r3
    5a34:	100b883a 	mov	r5,r2
    5a38:	00008140 	call	814 <LCD_SetCursor>
    5a3c:	00004740 	call	474 <LCD_WriteRAM_Prepare>
    5a40:	e03ffb15 	stw	zero,-20(fp)
    5a44:	00001606 	br	5aa0 <LCD_DisplayPic+0xa0>
    5a48:	e0bffb17 	ldw	r2,-20(fp)
    5a4c:	1085883a 	add	r2,r2,r2
    5a50:	e0ffff17 	ldw	r3,-4(fp)
    5a54:	1885883a 	add	r2,r3,r2
    5a58:	10800003 	ldbu	r2,0(r2)
    5a5c:	10803fcc 	andi	r2,r2,255
    5a60:	1004923a 	slli	r2,r2,8
    5a64:	1007883a 	mov	r3,r2
    5a68:	e0bffb17 	ldw	r2,-20(fp)
    5a6c:	1085883a 	add	r2,r2,r2
    5a70:	10800044 	addi	r2,r2,1
    5a74:	e13fff17 	ldw	r4,-4(fp)
    5a78:	2085883a 	add	r2,r4,r2
    5a7c:	10800003 	ldbu	r2,0(r2)
    5a80:	10803fcc 	andi	r2,r2,255
    5a84:	1884b03a 	or	r2,r3,r2
    5a88:	10bfffcc 	andi	r2,r2,65535
    5a8c:	1009883a 	mov	r4,r2
    5a90:	00002ec0 	call	2ec <LCD_WR_DATA>
    5a94:	e0bffb17 	ldw	r2,-20(fp)
    5a98:	10800044 	addi	r2,r2,1
    5a9c:	e0bffb15 	stw	r2,-20(fp)
    5aa0:	e0fffb17 	ldw	r3,-20(fp)
    5aa4:	e0bffe17 	ldw	r2,-8(fp)
    5aa8:	18bfe736 	bltu	r3,r2,5a48 <LCD_DisplayPic+0x48>
    5aac:	e037883a 	mov	sp,fp
    5ab0:	dfc00117 	ldw	ra,4(sp)
    5ab4:	df000017 	ldw	fp,0(sp)
    5ab8:	dec00204 	addi	sp,sp,8
    5abc:	f800283a 	ret

00005ac0 <FT5206_WR_Reg>:
//reg:
//buf:
//len:
//:0,;1,.
u8 FT5206_WR_Reg(u16 reg,u8 *buf,u8 len)
{
    5ac0:	defffa04 	addi	sp,sp,-24
    5ac4:	dfc00515 	stw	ra,20(sp)
    5ac8:	df000415 	stw	fp,16(sp)
    5acc:	df000404 	addi	fp,sp,16
    5ad0:	2007883a 	mov	r3,r4
    5ad4:	e17ffe15 	stw	r5,-8(fp)
    5ad8:	3005883a 	mov	r2,r6
    5adc:	e0fffd0d 	sth	r3,-12(fp)
    5ae0:	e0bfff05 	stb	r2,-4(fp)
    u8 i;
    u8 ret=0;
    5ae4:	e03ffc45 	stb	zero,-15(fp)
    IIC_Start();
    5ae8:	00073300 	call	7330 <IIC_Start>
    IIC_Send_Byte(FT_CMD_WR);   //
    5aec:	01001c04 	movi	r4,112
    5af0:	00075fc0 	call	75fc <IIC_Send_Byte>
    IIC_Wait_Ack();
    5af4:	00074400 	call	7440 <IIC_Wait_Ack>
    IIC_Send_Byte(reg&0XFF);    //8
    5af8:	e0bffd0b 	ldhu	r2,-12(fp)
    5afc:	10803fcc 	andi	r2,r2,255
    5b00:	1009883a 	mov	r4,r2
    5b04:	00075fc0 	call	75fc <IIC_Send_Byte>
    IIC_Wait_Ack();
    5b08:	00074400 	call	7440 <IIC_Wait_Ack>
    for(i=0; i<len; i++) {
    5b0c:	e03ffc05 	stb	zero,-16(fp)
    5b10:	00000e06 	br	5b4c <FT5206_WR_Reg+0x8c>
        IIC_Send_Byte(buf[i]);  //
    5b14:	e0bffc03 	ldbu	r2,-16(fp)
    5b18:	e0fffe17 	ldw	r3,-8(fp)
    5b1c:	1885883a 	add	r2,r3,r2
    5b20:	10800003 	ldbu	r2,0(r2)
    5b24:	10803fcc 	andi	r2,r2,255
    5b28:	1009883a 	mov	r4,r2
    5b2c:	00075fc0 	call	75fc <IIC_Send_Byte>
        ret=IIC_Wait_Ack();
    5b30:	00074400 	call	7440 <IIC_Wait_Ack>
    5b34:	e0bffc45 	stb	r2,-15(fp)
        if(ret)break;
    5b38:	e0bffc43 	ldbu	r2,-15(fp)
    5b3c:	1000071e 	bne	r2,zero,5b5c <FT5206_WR_Reg+0x9c>
    IIC_Start();
    IIC_Send_Byte(FT_CMD_WR);   //
    IIC_Wait_Ack();
    IIC_Send_Byte(reg&0XFF);    //8
    IIC_Wait_Ack();
    for(i=0; i<len; i++) {
    5b40:	e0bffc03 	ldbu	r2,-16(fp)
    5b44:	10800044 	addi	r2,r2,1
    5b48:	e0bffc05 	stb	r2,-16(fp)
    5b4c:	e0fffc03 	ldbu	r3,-16(fp)
    5b50:	e0bfff03 	ldbu	r2,-4(fp)
    5b54:	18bfef36 	bltu	r3,r2,5b14 <FT5206_WR_Reg+0x54>
    5b58:	00000106 	br	5b60 <FT5206_WR_Reg+0xa0>
        IIC_Send_Byte(buf[i]);  //
        ret=IIC_Wait_Ack();
        if(ret)break;
    5b5c:	0001883a 	nop
    }
    IIC_Stop();                 //
    5b60:	00073b40 	call	73b4 <IIC_Stop>
    return ret;
    5b64:	e0bffc43 	ldbu	r2,-15(fp)
}
    5b68:	e037883a 	mov	sp,fp
    5b6c:	dfc00117 	ldw	ra,4(sp)
    5b70:	df000017 	ldw	fp,0(sp)
    5b74:	dec00204 	addi	sp,sp,8
    5b78:	f800283a 	ret

00005b7c <FT5206_RD_Reg>:
//FT5206
//reg:
//buf:
//len:
void FT5206_RD_Reg(u16 reg,u8 *buf,u8 len)
{
    5b7c:	defff904 	addi	sp,sp,-28
    5b80:	dfc00615 	stw	ra,24(sp)
    5b84:	df000515 	stw	fp,20(sp)
    5b88:	dc000415 	stw	r16,16(sp)
    5b8c:	df000404 	addi	fp,sp,16
    5b90:	2007883a 	mov	r3,r4
    5b94:	e17ffe15 	stw	r5,-8(fp)
    5b98:	3005883a 	mov	r2,r6
    5b9c:	e0fffd0d 	sth	r3,-12(fp)
    5ba0:	e0bfff05 	stb	r2,-4(fp)
    u8 i;
    IIC_Start();
    5ba4:	00073300 	call	7330 <IIC_Start>
    IIC_Send_Byte(FT_CMD_WR);                 //
    5ba8:	01001c04 	movi	r4,112
    5bac:	00075fc0 	call	75fc <IIC_Send_Byte>
    IIC_Wait_Ack();
    5bb0:	00074400 	call	7440 <IIC_Wait_Ack>
    IIC_Send_Byte(reg&0XFF);                  //8
    5bb4:	e0bffd0b 	ldhu	r2,-12(fp)
    5bb8:	10803fcc 	andi	r2,r2,255
    5bbc:	1009883a 	mov	r4,r2
    5bc0:	00075fc0 	call	75fc <IIC_Send_Byte>
    IIC_Wait_Ack();
    5bc4:	00074400 	call	7440 <IIC_Wait_Ack>
    IIC_Start();
    5bc8:	00073300 	call	7330 <IIC_Start>
    IIC_Send_Byte(FT_CMD_RD);                 //
    5bcc:	01001c44 	movi	r4,113
    5bd0:	00075fc0 	call	75fc <IIC_Send_Byte>
    IIC_Wait_Ack();
    5bd4:	00074400 	call	7440 <IIC_Wait_Ack>
    for(i=0; i<len; i++) {
    5bd8:	e03ffc05 	stb	zero,-16(fp)
    5bdc:	00000e06 	br	5c18 <FT5206_RD_Reg+0x9c>
        buf[i]=IIC_Read_Byte(i==(len-1)?0:1); //
    5be0:	e0bffc03 	ldbu	r2,-16(fp)
    5be4:	e0fffe17 	ldw	r3,-8(fp)
    5be8:	18a1883a 	add	r16,r3,r2
    5bec:	e0fffc03 	ldbu	r3,-16(fp)
    5bf0:	e0bfff03 	ldbu	r2,-4(fp)
    5bf4:	10bfffc4 	addi	r2,r2,-1
    5bf8:	1884c03a 	cmpne	r2,r3,r2
    5bfc:	10803fcc 	andi	r2,r2,255
    5c00:	1009883a 	mov	r4,r2
    5c04:	00076c40 	call	76c4 <IIC_Read_Byte>
    5c08:	80800005 	stb	r2,0(r16)
    IIC_Send_Byte(reg&0XFF);                  //8
    IIC_Wait_Ack();
    IIC_Start();
    IIC_Send_Byte(FT_CMD_RD);                 //
    IIC_Wait_Ack();
    for(i=0; i<len; i++) {
    5c0c:	e0bffc03 	ldbu	r2,-16(fp)
    5c10:	10800044 	addi	r2,r2,1
    5c14:	e0bffc05 	stb	r2,-16(fp)
    5c18:	e0fffc03 	ldbu	r3,-16(fp)
    5c1c:	e0bfff03 	ldbu	r2,-4(fp)
    5c20:	18bfef36 	bltu	r3,r2,5be0 <FT5206_RD_Reg+0x64>
        buf[i]=IIC_Read_Byte(i==(len-1)?0:1); //
    }
    IIC_Stop();//
    5c24:	00073b40 	call	73b4 <IIC_Stop>
}
    5c28:	e037883a 	mov	sp,fp
    5c2c:	dfc00217 	ldw	ra,8(sp)
    5c30:	df000117 	ldw	fp,4(sp)
    5c34:	dc000017 	ldw	r16,0(sp)
    5c38:	dec00304 	addi	sp,sp,12
    5c3c:	f800283a 	ret

00005c40 <FT5206_Init>:
//FT5206
//:0,;1,
u8 FT5206_Init(void)
{
    5c40:	defffd04 	addi	sp,sp,-12
    5c44:	dfc00215 	stw	ra,8(sp)
    5c48:	df000115 	stw	fp,4(sp)
    5c4c:	df000104 	addi	fp,sp,4
    u8 temp[2];
    IIC_Init();             //I2C
    5c50:	00072f40 	call	72f4 <IIC_Init>
    FT_RST(0);              //
    5c54:	0007883a 	mov	r3,zero
    5c58:	00808034 	movhi	r2,512
    5c5c:	10880c04 	addi	r2,r2,8240
    5c60:	10c00035 	stwio	r3,0(r2)
    delay_ms(20);
    5c64:	01000504 	movi	r4,20
    5c68:	00002000 	call	200 <delay_ms>
    FT_RST(1);              //
    5c6c:	00c00044 	movi	r3,1
    5c70:	00808034 	movhi	r2,512
    5c74:	10880c04 	addi	r2,r2,8240
    5c78:	10c00035 	stwio	r3,0(r2)
    delay_ms(50);
    5c7c:	01000c84 	movi	r4,50
    5c80:	00002000 	call	200 <delay_ms>
    temp[0]=0;
    5c84:	e03fff05 	stb	zero,-4(fp)
    FT5206_WR_Reg(FT_DEVIDE_MODE,temp,1);   //
    5c88:	0009883a 	mov	r4,zero
    5c8c:	e17fff04 	addi	r5,fp,-4
    5c90:	01800044 	movi	r6,1
    5c94:	0005ac00 	call	5ac0 <FT5206_WR_Reg>
    FT5206_WR_Reg(FT_ID_G_MODE,temp,1);     //
    5c98:	01002904 	movi	r4,164
    5c9c:	e17fff04 	addi	r5,fp,-4
    5ca0:	01800044 	movi	r6,1
    5ca4:	0005ac00 	call	5ac0 <FT5206_WR_Reg>
    temp[0]=22;                             //22
    5ca8:	00800584 	movi	r2,22
    5cac:	e0bfff05 	stb	r2,-4(fp)
    FT5206_WR_Reg(FT_ID_G_THGROUP,temp,1);  //
    5cb0:	01002004 	movi	r4,128
    5cb4:	e17fff04 	addi	r5,fp,-4
    5cb8:	01800044 	movi	r6,1
    5cbc:	0005ac00 	call	5ac0 <FT5206_WR_Reg>
    temp[0]=12;                             //1214
    5cc0:	00800304 	movi	r2,12
    5cc4:	e0bfff05 	stb	r2,-4(fp)
    FT5206_WR_Reg(FT_ID_G_PERIODACTIVE,temp,1);
    5cc8:	01002204 	movi	r4,136
    5ccc:	e17fff04 	addi	r5,fp,-4
    5cd0:	01800044 	movi	r6,1
    5cd4:	0005ac00 	call	5ac0 <FT5206_WR_Reg>
