Archive member included because of file (symbol)

d:/altera/13.1/nios2eds/bin/gnu/h-i686-mingw32/bin/../lib/gcc/nios2-elf/4.7.3/../../../../../H-i686-mingw32/nios2-elf/lib\libc.a(lib_a-printf.o)
                              obj/default/ucosii_mail_msg.o (printf)
d:/altera/13.1/nios2eds/bin/gnu/h-i686-mingw32/bin/../lib/gcc/nios2-elf/4.7.3/../../../../../H-i686-mingw32/nios2-elf/lib\libc.a(lib_a-vfprintf.o)
                              d:/altera/13.1/nios2eds/bin/gnu/h-i686-mingw32/bin/../lib/gcc/nios2-elf/4.7.3/../../../../../H-i686-mingw32/nios2-elf/lib\libc.a(lib_a-printf.o) (___vfprintf_internal_r)
d:/altera/13.1/nios2eds/bin/gnu/h-i686-mingw32/bin/../lib/gcc/nios2-elf/4.7.3/../../../../../H-i686-mingw32/nios2-elf/lib\libc.a(lib_a-wsetup.o)
                              d:/altera/13.1/nios2eds/bin/gnu/h-i686-mingw32/bin/../lib/gcc/nios2-elf/4.7.3/../../../../../H-i686-mingw32/nios2-elf/lib\libc.a(lib_a-vfprintf.o) (__swsetup_r)
d:/altera/13.1/nios2eds/bin/gnu/h-i686-mingw32/bin/../lib/gcc/nios2-elf/4.7.3/../../../../../H-i686-mingw32/nios2-elf/lib\libc.a(lib_a-dtoa.o)
                              d:/altera/13.1/nios2eds/bin/gnu/h-i686-mingw32/bin/../lib/gcc/nios2-elf/4.7.3/../../../../../H-i686-mingw32/nios2-elf/lib\libc.a(lib_a-vfprintf.o) (_dtoa_r)
d:/altera/13.1/nios2eds/bin/gnu/h-i686-mingw32/bin/../lib/gcc/nios2-elf/4.7.3/../../../../../H-i686-mingw32/nios2-elf/lib\libc.a(lib_a-fflush.o)
                              d:/altera/13.1/nios2eds/bin/gnu/h-i686-mingw32/bin/../lib/gcc/nios2-elf/4.7.3/../../../../../H-i686-mingw32/nios2-elf/lib\libc.a(lib_a-vfprintf.o) (_fflush_r)
d:/altera/13.1/nios2eds/bin/gnu/h-i686-mingw32/bin/../lib/gcc/nios2-elf/4.7.3/../../../../../H-i686-mingw32/nios2-elf/lib\libc.a(lib_a-findfp.o)
                              d:/altera/13.1/nios2eds/bin/gnu/h-i686-mingw32/bin/../lib/gcc/nios2-elf/4.7.3/../../../../../H-i686-mingw32/nios2-elf/lib\libc.a(lib_a-vfprintf.o) (__sinit)
d:/altera/13.1/nios2eds/bin/gnu/h-i686-mingw32/bin/../lib/gcc/nios2-elf/4.7.3/../../../../../H-i686-mingw32/nios2-elf/lib\libc.a(lib_a-freer.o)
                              d:/altera/13.1/nios2eds/bin/gnu/h-i686-mingw32/bin/../lib/gcc/nios2-elf/4.7.3/../../../../../H-i686-mingw32/nios2-elf/lib\libc.a(lib_a-wsetup.o) (_free_r)
d:/altera/13.1/nios2eds/bin/gnu/h-i686-mingw32/bin/../lib/gcc/nios2-elf/4.7.3/../../../../../H-i686-mingw32/nios2-elf/lib\libc.a(lib_a-fvwrite.o)
                              d:/altera/13.1/nios2eds/bin/gnu/h-i686-mingw32/bin/../lib/gcc/nios2-elf/4.7.3/../../../../../H-i686-mingw32/nios2-elf/lib\libc.a(lib_a-vfprintf.o) (__sfvwrite_r)
d:/altera/13.1/nios2eds/bin/gnu/h-i686-mingw32/bin/../lib/gcc/nios2-elf/4.7.3/../../../../../H-i686-mingw32/nios2-elf/lib\libc.a(lib_a-fwalk.o)
                              d:/altera/13.1/nios2eds/bin/gnu/h-i686-mingw32/bin/../lib/gcc/nios2-elf/4.7.3/../../../../../H-i686-mingw32/nios2-elf/lib\libc.a(lib_a-findfp.o) (_fwalk)
d:/altera/13.1/nios2eds/bin/gnu/h-i686-mingw32/bin/../lib/gcc/nios2-elf/4.7.3/../../../../../H-i686-mingw32/nios2-elf/lib\libc.a(lib_a-impure.o)
                              d:/altera/13.1/nios2eds/bin/gnu/h-i686-mingw32/bin/../lib/gcc/nios2-elf/4.7.3/../../../../../H-i686-mingw32/nios2-elf/lib\libc.a(lib_a-fflush.o) (_global_impure_ptr)
d:/altera/13.1/nios2eds/bin/gnu/h-i686-mingw32/bin/../lib/gcc/nios2-elf/4.7.3/../../../../../H-i686-mingw32/nios2-elf/lib\libc.a(lib_a-locale.o)
                              d:/altera/13.1/nios2eds/bin/gnu/h-i686-mingw32/bin/../lib/gcc/nios2-elf/4.7.3/../../../../../H-i686-mingw32/nios2-elf/lib\libc.a(lib_a-vfprintf.o) (_localeconv_r)
d:/altera/13.1/nios2eds/bin/gnu/h-i686-mingw32/bin/../lib/gcc/nios2-elf/4.7.3/../../../../../H-i686-mingw32/nios2-elf/lib\libc.a(lib_a-makebuf.o)
                              d:/altera/13.1/nios2eds/bin/gnu/h-i686-mingw32/bin/../lib/gcc/nios2-elf/4.7.3/../../../../../H-i686-mingw32/nios2-elf/lib\libc.a(lib_a-wsetup.o) (__smakebuf_r)
d:/altera/13.1/nios2eds/bin/gnu/h-i686-mingw32/bin/../lib/gcc/nios2-elf/4.7.3/../../../../../H-i686-mingw32/nios2-elf/lib\libc.a(lib_a-mallocr.o)
                              d:/altera/13.1/nios2eds/bin/gnu/h-i686-mingw32/bin/../lib/gcc/nios2-elf/4.7.3/../../../../../H-i686-mingw32/nios2-elf/lib\libc.a(lib_a-findfp.o) (_malloc_r)
d:/altera/13.1/nios2eds/bin/gnu/h-i686-mingw32/bin/../lib/gcc/nios2-elf/4.7.3/../../../../../H-i686-mingw32/nios2-elf/lib\libc.a(lib_a-memchr.o)
                              d:/altera/13.1/nios2eds/bin/gnu/h-i686-mingw32/bin/../lib/gcc/nios2-elf/4.7.3/../../../../../H-i686-mingw32/nios2-elf/lib\libc.a(lib_a-vfprintf.o) (memchr)
d:/altera/13.1/nios2eds/bin/gnu/h-i686-mingw32/bin/../lib/gcc/nios2-elf/4.7.3/../../../../../H-i686-mingw32/nios2-elf/lib\libc.a(lib_a-memcpy.o)
                              d:/altera/13.1/nios2eds/bin/gnu/h-i686-mingw32/bin/../lib/gcc/nios2-elf/4.7.3/../../../../../H-i686-mingw32/nios2-elf/lib\libc.a(lib_a-dtoa.o) (memcpy)
d:/altera/13.1/nios2eds/bin/gnu/h-i686-mingw32/bin/../lib/gcc/nios2-elf/4.7.3/../../../../../H-i686-mingw32/nios2-elf/lib\libc.a(lib_a-memmove.o)
                              d:/altera/13.1/nios2eds/bin/gnu/h-i686-mingw32/bin/../lib/gcc/nios2-elf/4.7.3/../../../../../H-i686-mingw32/nios2-elf/lib\libc.a(lib_a-fvwrite.o) (memmove)
d:/altera/13.1/nios2eds/bin/gnu/h-i686-mingw32/bin/../lib/gcc/nios2-elf/4.7.3/../../../../../H-i686-mingw32/nios2-elf/lib\libc.a(lib_a-memset.o)
                              d:/altera/13.1/nios2eds/bin/gnu/h-i686-mingw32/bin/../lib/gcc/nios2-elf/4.7.3/../../../../../H-i686-mingw32/nios2-elf/lib\libc.a(lib_a-findfp.o) (memset)
d:/altera/13.1/nios2eds/bin/gnu/h-i686-mingw32/bin/../lib/gcc/nios2-elf/4.7.3/../../../../../H-i686-mingw32/nios2-elf/lib\libc.a(lib_a-mprec.o)
                              d:/altera/13.1/nios2eds/bin/gnu/h-i686-mingw32/bin/../lib/gcc/nios2-elf/4.7.3/../../../../../H-i686-mingw32/nios2-elf/lib\libc.a(lib_a-dtoa.o) (_Balloc)
d:/altera/13.1/nios2eds/bin/gnu/h-i686-mingw32/bin/../lib/gcc/nios2-elf/4.7.3/../../../../../H-i686-mingw32/nios2-elf/lib\libc.a(lib_a-reallocr.o)
                              d:/altera/13.1/nios2eds/bin/gnu/h-i686-mingw32/bin/../lib/gcc/nios2-elf/4.7.3/../../../../../H-i686-mingw32/nios2-elf/lib\libc.a(lib_a-fvwrite.o) (_realloc_r)
d:/altera/13.1/nios2eds/bin/gnu/h-i686-mingw32/bin/../lib/gcc/nios2-elf/4.7.3/../../../../../H-i686-mingw32/nios2-elf/lib\libc.a(lib_a-s_isinfd.o)
                              d:/altera/13.1/nios2eds/bin/gnu/h-i686-mingw32/bin/../lib/gcc/nios2-elf/4.7.3/../../../../../H-i686-mingw32/nios2-elf/lib\libc.a(lib_a-vfprintf.o) (__isinfd)
d:/altera/13.1/nios2eds/bin/gnu/h-i686-mingw32/bin/../lib/gcc/nios2-elf/4.7.3/../../../../../H-i686-mingw32/nios2-elf/lib\libc.a(lib_a-s_isnand.o)
                              d:/altera/13.1/nios2eds/bin/gnu/h-i686-mingw32/bin/../lib/gcc/nios2-elf/4.7.3/../../../../../H-i686-mingw32/nios2-elf/lib\libc.a(lib_a-vfprintf.o) (__isnand)
d:/altera/13.1/nios2eds/bin/gnu/h-i686-mingw32/bin/../lib/gcc/nios2-elf/4.7.3/../../../../../H-i686-mingw32/nios2-elf/lib\libc.a(lib_a-sbrkr.o)
                              d:/altera/13.1/nios2eds/bin/gnu/h-i686-mingw32/bin/../lib/gcc/nios2-elf/4.7.3/../../../../../H-i686-mingw32/nios2-elf/lib\libc.a(lib_a-freer.o) (_sbrk_r)
d:/altera/13.1/nios2eds/bin/gnu/h-i686-mingw32/bin/../lib/gcc/nios2-elf/4.7.3/../../../../../H-i686-mingw32/nios2-elf/lib\libc.a(lib_a-stdio.o)
                              d:/altera/13.1/nios2eds/bin/gnu/h-i686-mingw32/bin/../lib/gcc/nios2-elf/4.7.3/../../../../../H-i686-mingw32/nios2-elf/lib\libc.a(lib_a-findfp.o) (__sread)
d:/altera/13.1/nios2eds/bin/gnu/h-i686-mingw32/bin/../lib/gcc/nios2-elf/4.7.3/../../../../../H-i686-mingw32/nios2-elf/lib\libc.a(lib_a-strcmp.o)
                              d:/altera/13.1/nios2eds/bin/gnu/h-i686-mingw32/bin/../lib/gcc/nios2-elf/4.7.3/../../../../../H-i686-mingw32/nios2-elf/lib\libc.a(lib_a-locale.o) (strcmp)
d:/altera/13.1/nios2eds/bin/gnu/h-i686-mingw32/bin/../lib/gcc/nios2-elf/4.7.3/../../../../../H-i686-mingw32/nios2-elf/lib\libc.a(lib_a-strlen.o)
                              d:/altera/13.1/nios2eds/bin/gnu/h-i686-mingw32/bin/../lib/gcc/nios2-elf/4.7.3/../../../../../H-i686-mingw32/nios2-elf/lib\libc.a(lib_a-vfprintf.o) (strlen)
d:/altera/13.1/nios2eds/bin/gnu/h-i686-mingw32/bin/../lib/gcc/nios2-elf/4.7.3/../../../../../H-i686-mingw32/nios2-elf/lib\libc.a(lib_a-writer.o)
                              d:/altera/13.1/nios2eds/bin/gnu/h-i686-mingw32/bin/../lib/gcc/nios2-elf/4.7.3/../../../../../H-i686-mingw32/nios2-elf/lib\libc.a(lib_a-stdio.o) (_write_r)
d:/altera/13.1/nios2eds/bin/gnu/h-i686-mingw32/bin/../lib/gcc/nios2-elf/4.7.3/../../../../../H-i686-mingw32/nios2-elf/lib\libc.a(lib_a-callocr.o)
                              d:/altera/13.1/nios2eds/bin/gnu/h-i686-mingw32/bin/../lib/gcc/nios2-elf/4.7.3/../../../../../H-i686-mingw32/nios2-elf/lib\libc.a(lib_a-mprec.o) (_calloc_r)
d:/altera/13.1/nios2eds/bin/gnu/h-i686-mingw32/bin/../lib/gcc/nios2-elf/4.7.3/../../../../../H-i686-mingw32/nios2-elf/lib\libc.a(lib_a-closer.o)
                              d:/altera/13.1/nios2eds/bin/gnu/h-i686-mingw32/bin/../lib/gcc/nios2-elf/4.7.3/../../../../../H-i686-mingw32/nios2-elf/lib\libc.a(lib_a-stdio.o) (_close_r)
d:/altera/13.1/nios2eds/bin/gnu/h-i686-mingw32/bin/../lib/gcc/nios2-elf/4.7.3/../../../../../H-i686-mingw32/nios2-elf/lib\libc.a(lib_a-fclose.o)
                              d:/altera/13.1/nios2eds/bin/gnu/h-i686-mingw32/bin/../lib/gcc/nios2-elf/4.7.3/../../../../../H-i686-mingw32/nios2-elf/lib\libc.a(lib_a-findfp.o) (fclose)
d:/altera/13.1/nios2eds/bin/gnu/h-i686-mingw32/bin/../lib/gcc/nios2-elf/4.7.3/../../../../../H-i686-mingw32/nios2-elf/lib\libc.a(lib_a-fstatr.o)
                              d:/altera/13.1/nios2eds/bin/gnu/h-i686-mingw32/bin/../lib/gcc/nios2-elf/4.7.3/../../../../../H-i686-mingw32/nios2-elf/lib\libc.a(lib_a-makebuf.o) (_fstat_r)
d:/altera/13.1/nios2eds/bin/gnu/h-i686-mingw32/bin/../lib/gcc/nios2-elf/4.7.3/../../../../../H-i686-mingw32/nios2-elf/lib\libc.a(lib_a-int_errno.o)
                              d:/altera/13.1/nios2eds/bin/gnu/h-i686-mingw32/bin/../lib/gcc/nios2-elf/4.7.3/../../../../../H-i686-mingw32/nios2-elf/lib\libc.a(lib_a-sbrkr.o) (errno)
d:/altera/13.1/nios2eds/bin/gnu/h-i686-mingw32/bin/../lib/gcc/nios2-elf/4.7.3/../../../../../H-i686-mingw32/nios2-elf/lib\libc.a(lib_a-isattyr.o)
                              d:/altera/13.1/nios2eds/bin/gnu/h-i686-mingw32/bin/../lib/gcc/nios2-elf/4.7.3/../../../../../H-i686-mingw32/nios2-elf/lib\libc.a(lib_a-makebuf.o) (_isatty_r)
d:/altera/13.1/nios2eds/bin/gnu/h-i686-mingw32/bin/../lib/gcc/nios2-elf/4.7.3/../../../../../H-i686-mingw32/nios2-elf/lib\libc.a(lib_a-lseekr.o)
                              d:/altera/13.1/nios2eds/bin/gnu/h-i686-mingw32/bin/../lib/gcc/nios2-elf/4.7.3/../../../../../H-i686-mingw32/nios2-elf/lib\libc.a(lib_a-stdio.o) (_lseek_r)
d:/altera/13.1/nios2eds/bin/gnu/h-i686-mingw32/bin/../lib/gcc/nios2-elf/4.7.3/../../../../../H-i686-mingw32/nios2-elf/lib\libc.a(lib_a-readr.o)
                              d:/altera/13.1/nios2eds/bin/gnu/h-i686-mingw32/bin/../lib/gcc/nios2-elf/4.7.3/../../../../../H-i686-mingw32/nios2-elf/lib\libc.a(lib_a-stdio.o) (_read_r)
d:/altera/13.1/nios2eds/bin/gnu/h-i686-mingw32/bin/../lib/gcc/nios2-elf/4.7.3\libgcc.a(_udivdi3.o)
                              d:/altera/13.1/nios2eds/bin/gnu/h-i686-mingw32/bin/../lib/gcc/nios2-elf/4.7.3/../../../../../H-i686-mingw32/nios2-elf/lib\libc.a(lib_a-vfprintf.o) (__udivdi3)
d:/altera/13.1/nios2eds/bin/gnu/h-i686-mingw32/bin/../lib/gcc/nios2-elf/4.7.3\libgcc.a(_umoddi3.o)
                              d:/altera/13.1/nios2eds/bin/gnu/h-i686-mingw32/bin/../lib/gcc/nios2-elf/4.7.3/../../../../../H-i686-mingw32/nios2-elf/lib\libc.a(lib_a-vfprintf.o) (__umoddi3)
d:/altera/13.1/nios2eds/bin/gnu/h-i686-mingw32/bin/../lib/gcc/nios2-elf/4.7.3\libgcc.a(_addsub_df.o)
                              d:/altera/13.1/nios2eds/bin/gnu/h-i686-mingw32/bin/../lib/gcc/nios2-elf/4.7.3/../../../../../H-i686-mingw32/nios2-elf/lib\libc.a(lib_a-dtoa.o) (__adddf3)
d:/altera/13.1/nios2eds/bin/gnu/h-i686-mingw32/bin/../lib/gcc/nios2-elf/4.7.3\libgcc.a(_mul_df.o)
                              d:/altera/13.1/nios2eds/bin/gnu/h-i686-mingw32/bin/../lib/gcc/nios2-elf/4.7.3/../../../../../H-i686-mingw32/nios2-elf/lib\libc.a(lib_a-dtoa.o) (__muldf3)
d:/altera/13.1/nios2eds/bin/gnu/h-i686-mingw32/bin/../lib/gcc/nios2-elf/4.7.3\libgcc.a(_div_df.o)
                              d:/altera/13.1/nios2eds/bin/gnu/h-i686-mingw32/bin/../lib/gcc/nios2-elf/4.7.3/../../../../../H-i686-mingw32/nios2-elf/lib\libc.a(lib_a-dtoa.o) (__divdf3)
d:/altera/13.1/nios2eds/bin/gnu/h-i686-mingw32/bin/../lib/gcc/nios2-elf/4.7.3\libgcc.a(_eq_df.o)
                              d:/altera/13.1/nios2eds/bin/gnu/h-i686-mingw32/bin/../lib/gcc/nios2-elf/4.7.3/../../../../../H-i686-mingw32/nios2-elf/lib\libc.a(lib_a-vfprintf.o) (__eqdf2)
d:/altera/13.1/nios2eds/bin/gnu/h-i686-mingw32/bin/../lib/gcc/nios2-elf/4.7.3\libgcc.a(_ne_df.o)
                              d:/altera/13.1/nios2eds/bin/gnu/h-i686-mingw32/bin/../lib/gcc/nios2-elf/4.7.3/../../../../../H-i686-mingw32/nios2-elf/lib\libc.a(lib_a-vfprintf.o) (__nedf2)
d:/altera/13.1/nios2eds/bin/gnu/h-i686-mingw32/bin/../lib/gcc/nios2-elf/4.7.3\libgcc.a(_gt_df.o)
                              d:/altera/13.1/nios2eds/bin/gnu/h-i686-mingw32/bin/../lib/gcc/nios2-elf/4.7.3/../../../../../H-i686-mingw32/nios2-elf/lib\libc.a(lib_a-dtoa.o) (__gtdf2)
d:/altera/13.1/nios2eds/bin/gnu/h-i686-mingw32/bin/../lib/gcc/nios2-elf/4.7.3\libgcc.a(_ge_df.o)
                              d:/altera/13.1/nios2eds/bin/gnu/h-i686-mingw32/bin/../lib/gcc/nios2-elf/4.7.3/../../../../../H-i686-mingw32/nios2-elf/lib\libc.a(lib_a-dtoa.o) (__gedf2)
d:/altera/13.1/nios2eds/bin/gnu/h-i686-mingw32/bin/../lib/gcc/nios2-elf/4.7.3\libgcc.a(_lt_df.o)
                              d:/altera/13.1/nios2eds/bin/gnu/h-i686-mingw32/bin/../lib/gcc/nios2-elf/4.7.3/../../../../../H-i686-mingw32/nios2-elf/lib\libc.a(lib_a-vfprintf.o) (__ltdf2)
d:/altera/13.1/nios2eds/bin/gnu/h-i686-mingw32/bin/../lib/gcc/nios2-elf/4.7.3\libgcc.a(_si_to_df.o)
                              d:/altera/13.1/nios2eds/bin/gnu/h-i686-mingw32/bin/../lib/gcc/nios2-elf/4.7.3/../../../../../H-i686-mingw32/nios2-elf/lib\libc.a(lib_a-dtoa.o) (__floatsidf)
d:/altera/13.1/nios2eds/bin/gnu/h-i686-mingw32/bin/../lib/gcc/nios2-elf/4.7.3\libgcc.a(_df_to_si.o)
                              d:/altera/13.1/nios2eds/bin/gnu/h-i686-mingw32/bin/../lib/gcc/nios2-elf/4.7.3/../../../../../H-i686-mingw32/nios2-elf/lib\libc.a(lib_a-dtoa.o) (__fixdfsi)
d:/altera/13.1/nios2eds/bin/gnu/h-i686-mingw32/bin/../lib/gcc/nios2-elf/4.7.3\libgcc.a(_thenan_df.o)
                              d:/altera/13.1/nios2eds/bin/gnu/h-i686-mingw32/bin/../lib/gcc/nios2-elf/4.7.3\libgcc.a(_addsub_df.o) (__thenan_df)
d:/altera/13.1/nios2eds/bin/gnu/h-i686-mingw32/bin/../lib/gcc/nios2-elf/4.7.3\libgcc.a(_usi_to_df.o)
                              d:/altera/13.1/nios2eds/bin/gnu/h-i686-mingw32/bin/../lib/gcc/nios2-elf/4.7.3/../../../../../H-i686-mingw32/nios2-elf/lib\libc.a(lib_a-dtoa.o) (__floatunsidf)
d:/altera/13.1/nios2eds/bin/gnu/h-i686-mingw32/bin/../lib/gcc/nios2-elf/4.7.3\libgcc.a(lib2-divmod.o)
                              d:/altera/13.1/nios2eds/bin/gnu/h-i686-mingw32/bin/../lib/gcc/nios2-elf/4.7.3/../../../../../H-i686-mingw32/nios2-elf/lib\libc.a(lib_a-vfprintf.o) (__divsi3)
d:/altera/13.1/nios2eds/bin/gnu/h-i686-mingw32/bin/../lib/gcc/nios2-elf/4.7.3\libgcc.a(_muldi3.o)
                              d:/altera/13.1/nios2eds/bin/gnu/h-i686-mingw32/bin/../lib/gcc/nios2-elf/4.7.3\libgcc.a(_mul_df.o) (__muldi3)
d:/altera/13.1/nios2eds/bin/gnu/h-i686-mingw32/bin/../lib/gcc/nios2-elf/4.7.3\libgcc.a(_clz.o)
                              d:/altera/13.1/nios2eds/bin/gnu/h-i686-mingw32/bin/../lib/gcc/nios2-elf/4.7.3\libgcc.a(_udivdi3.o) (__clz_tab)
d:/altera/13.1/nios2eds/bin/gnu/h-i686-mingw32/bin/../lib/gcc/nios2-elf/4.7.3\libgcc.a(_clzsi2.o)
                              d:/altera/13.1/nios2eds/bin/gnu/h-i686-mingw32/bin/../lib/gcc/nios2-elf/4.7.3\libgcc.a(_si_to_df.o) (__clzsi2)
d:/altera/13.1/nios2eds/bin/gnu/h-i686-mingw32/bin/../lib/gcc/nios2-elf/4.7.3\libgcc.a(_pack_df.o)
                              d:/altera/13.1/nios2eds/bin/gnu/h-i686-mingw32/bin/../lib/gcc/nios2-elf/4.7.3\libgcc.a(_addsub_df.o) (__pack_d)
d:/altera/13.1/nios2eds/bin/gnu/h-i686-mingw32/bin/../lib/gcc/nios2-elf/4.7.3\libgcc.a(_unpack_df.o)
                              d:/altera/13.1/nios2eds/bin/gnu/h-i686-mingw32/bin/../lib/gcc/nios2-elf/4.7.3\libgcc.a(_addsub_df.o) (__unpack_d)
d:/altera/13.1/nios2eds/bin/gnu/h-i686-mingw32/bin/../lib/gcc/nios2-elf/4.7.3\libgcc.a(_fpcmp_parts_df.o)
                              d:/altera/13.1/nios2eds/bin/gnu/h-i686-mingw32/bin/../lib/gcc/nios2-elf/4.7.3\libgcc.a(_eq_df.o) (__fpcmp_parts_d)
d:/altera/13.1/nios2eds/bin/gnu/h-i686-mingw32/bin/../lib/gcc/nios2-elf/4.7.3\libgcc.a(_lshrdi3.o)
                              d:/altera/13.1/nios2eds/bin/gnu/h-i686-mingw32/bin/../lib/gcc/nios2-elf/4.7.3\libgcc.a(_pack_df.o) (__lshrdi3)
d:/altera/13.1/nios2eds/bin/gnu/h-i686-mingw32/bin/../lib/gcc/nios2-elf/4.7.3\libgcc.a(_ashldi3.o)
                              d:/altera/13.1/nios2eds/bin/gnu/h-i686-mingw32/bin/../lib/gcc/nios2-elf/4.7.3\libgcc.a(_pack_df.o) (__ashldi3)
F:/project/qsys_ucosii_mail_msg/qsys/software/uCosii_bsp/\libucosii_bsp.a(alt_close.o)
                              d:/altera/13.1/nios2eds/bin/gnu/h-i686-mingw32/bin/../lib/gcc/nios2-elf/4.7.3/../../../../../H-i686-mingw32/nios2-elf/lib\libc.a(lib_a-closer.o) (close)
F:/project/qsys_ucosii_mail_msg/qsys/software/uCosii_bsp/\libucosii_bsp.a(alt_dev.o)
                              F:/project/qsys_ucosii_mail_msg/qsys/software/uCosii_bsp/\libucosii_bsp.a(alt_close.o) (alt_fd_list)
F:/project/qsys_ucosii_mail_msg/qsys/software/uCosii_bsp/\libucosii_bsp.a(alt_errno.o)
                              F:/project/qsys_ucosii_mail_msg/qsys/software/uCosii_bsp/\libucosii_bsp.a(alt_close.o) (alt_errno)
F:/project/qsys_ucosii_mail_msg/qsys/software/uCosii_bsp/\libucosii_bsp.a(alt_fstat.o)
                              d:/altera/13.1/nios2eds/bin/gnu/h-i686-mingw32/bin/../lib/gcc/nios2-elf/4.7.3/../../../../../H-i686-mingw32/nios2-elf/lib\libc.a(lib_a-fstatr.o) (fstat)
F:/project/qsys_ucosii_mail_msg/qsys/software/uCosii_bsp/\libucosii_bsp.a(alt_isatty.o)
                              d:/altera/13.1/nios2eds/bin/gnu/h-i686-mingw32/bin/../lib/gcc/nios2-elf/4.7.3/../../../../../H-i686-mingw32/nios2-elf/lib\libc.a(lib_a-isattyr.o) (isatty)
F:/project/qsys_ucosii_mail_msg/qsys/software/uCosii_bsp/\libucosii_bsp.a(alt_lseek.o)
                              d:/altera/13.1/nios2eds/bin/gnu/h-i686-mingw32/bin/../lib/gcc/nios2-elf/4.7.3/../../../../../H-i686-mingw32/nios2-elf/lib\libc.a(lib_a-lseekr.o) (lseek)
F:/project/qsys_ucosii_mail_msg/qsys/software/uCosii_bsp/\libucosii_bsp.a(alt_main.o)
                              F:/project/qsys_ucosii_mail_msg/qsys/software/uCosii_bsp//obj/HAL/src/crt0.o (alt_main)
F:/project/qsys_ucosii_mail_msg/qsys/software/uCosii_bsp/\libucosii_bsp.a(alt_read.o)
                              d:/altera/13.1/nios2eds/bin/gnu/h-i686-mingw32/bin/../lib/gcc/nios2-elf/4.7.3/../../../../../H-i686-mingw32/nios2-elf/lib\libc.a(lib_a-readr.o) (read)
F:/project/qsys_ucosii_mail_msg/qsys/software/uCosii_bsp/\libucosii_bsp.a(alt_release_fd.o)
                              F:/project/qsys_ucosii_mail_msg/qsys/software/uCosii_bsp/\libucosii_bsp.a(alt_close.o) (alt_release_fd)
F:/project/qsys_ucosii_mail_msg/qsys/software/uCosii_bsp/\libucosii_bsp.a(alt_sbrk.o)
                              d:/altera/13.1/nios2eds/bin/gnu/h-i686-mingw32/bin/../lib/gcc/nios2-elf/4.7.3/../../../../../H-i686-mingw32/nios2-elf/lib\libc.a(lib_a-sbrkr.o) (sbrk)
F:/project/qsys_ucosii_mail_msg/qsys/software/uCosii_bsp/\libucosii_bsp.a(alt_write.o)
                              d:/altera/13.1/nios2eds/bin/gnu/h-i686-mingw32/bin/../lib/gcc/nios2-elf/4.7.3/../../../../../H-i686-mingw32/nios2-elf/lib\libc.a(lib_a-writer.o) (write)
F:/project/qsys_ucosii_mail_msg/qsys/software/uCosii_bsp/\libucosii_bsp.a(alt_env_lock.o)
                              F:/project/qsys_ucosii_mail_msg/qsys/software/uCosii_bsp/\libucosii_bsp.a(alt_main.o) (alt_envsem)
F:/project/qsys_ucosii_mail_msg/qsys/software/uCosii_bsp/\libucosii_bsp.a(alt_malloc_lock.o)
                              F:/project/qsys_ucosii_mail_msg/qsys/software/uCosii_bsp/\libucosii_bsp.a(alt_main.o) (alt_heapsem)
F:/project/qsys_ucosii_mail_msg/qsys/software/uCosii_bsp/\libucosii_bsp.a(os_core.o)
                              F:/project/qsys_ucosii_mail_msg/qsys/software/uCosii_bsp/\libucosii_bsp.a(alt_malloc_lock.o) (OSRunning)
F:/project/qsys_ucosii_mail_msg/qsys/software/uCosii_bsp/\libucosii_bsp.a(os_dbg.o)
                              F:/project/qsys_ucosii_mail_msg/qsys/software/uCosii_bsp/\libucosii_bsp.a(os_core.o) (OSDebugInit)
F:/project/qsys_ucosii_mail_msg/qsys/software/uCosii_bsp/\libucosii_bsp.a(os_flag.o)
                              F:/project/qsys_ucosii_mail_msg/qsys/software/uCosii_bsp/\libucosii_bsp.a(os_core.o) (OS_FlagInit)
F:/project/qsys_ucosii_mail_msg/qsys/software/uCosii_bsp/\libucosii_bsp.a(os_mbox.o)
                              obj/default/ucosii_mail_msg.o (OSMboxCreate)
F:/project/qsys_ucosii_mail_msg/qsys/software/uCosii_bsp/\libucosii_bsp.a(os_mem.o)
                              F:/project/qsys_ucosii_mail_msg/qsys/software/uCosii_bsp/\libucosii_bsp.a(os_core.o) (OS_MemInit)
F:/project/qsys_ucosii_mail_msg/qsys/software/uCosii_bsp/\libucosii_bsp.a(os_q.o)
                              obj/default/ucosii_mail_msg.o (OSQCreate)
F:/project/qsys_ucosii_mail_msg/qsys/software/uCosii_bsp/\libucosii_bsp.a(os_sem.o)
                              F:/project/qsys_ucosii_mail_msg/qsys/software/uCosii_bsp/\libucosii_bsp.a(alt_main.o) (OSSemCreate)
F:/project/qsys_ucosii_mail_msg/qsys/software/uCosii_bsp/\libucosii_bsp.a(os_task.o)
                              obj/default/ucosii_mail_msg.o (OSTaskCreateExt)
F:/project/qsys_ucosii_mail_msg/qsys/software/uCosii_bsp/\libucosii_bsp.a(os_time.o)
                              F:/project/qsys_ucosii_mail_msg/qsys/software/uCosii_bsp/\libucosii_bsp.a(os_core.o) (OSTimeDly)
F:/project/qsys_ucosii_mail_msg/qsys/software/uCosii_bsp/\libucosii_bsp.a(alt_sys_init.o)
                              F:/project/qsys_ucosii_mail_msg/qsys/software/uCosii_bsp/\libucosii_bsp.a(alt_main.o) (alt_irq_init)
F:/project/qsys_ucosii_mail_msg/qsys/software/uCosii_bsp/\libucosii_bsp.a(altera_avalon_epcs_flash_controller.o)
                              F:/project/qsys_ucosii_mail_msg/qsys/software/uCosii_bsp/\libucosii_bsp.a(alt_sys_init.o) (alt_epcs_flash_init)
F:/project/qsys_ucosii_mail_msg/qsys/software/uCosii_bsp/\libucosii_bsp.a(altera_avalon_jtag_uart_fd.o)
                              F:/project/qsys_ucosii_mail_msg/qsys/software/uCosii_bsp/\libucosii_bsp.a(alt_sys_init.o) (altera_avalon_jtag_uart_read_fd)
F:/project/qsys_ucosii_mail_msg/qsys/software/uCosii_bsp/\libucosii_bsp.a(altera_avalon_jtag_uart_init.o)
                              F:/project/qsys_ucosii_mail_msg/qsys/software/uCosii_bsp/\libucosii_bsp.a(alt_sys_init.o) (altera_avalon_jtag_uart_init)
F:/project/qsys_ucosii_mail_msg/qsys/software/uCosii_bsp/\libucosii_bsp.a(altera_avalon_jtag_uart_ioctl.o)
                              F:/project/qsys_ucosii_mail_msg/qsys/software/uCosii_bsp/\libucosii_bsp.a(altera_avalon_jtag_uart_fd.o) (altera_avalon_jtag_uart_ioctl)
F:/project/qsys_ucosii_mail_msg/qsys/software/uCosii_bsp/\libucosii_bsp.a(altera_avalon_jtag_uart_read.o)
                              F:/project/qsys_ucosii_mail_msg/qsys/software/uCosii_bsp/\libucosii_bsp.a(altera_avalon_jtag_uart_fd.o) (altera_avalon_jtag_uart_read)
F:/project/qsys_ucosii_mail_msg/qsys/software/uCosii_bsp/\libucosii_bsp.a(altera_avalon_jtag_uart_write.o)
                              F:/project/qsys_ucosii_mail_msg/qsys/software/uCosii_bsp/\libucosii_bsp.a(altera_avalon_jtag_uart_fd.o) (altera_avalon_jtag_uart_write)
F:/project/qsys_ucosii_mail_msg/qsys/software/uCosii_bsp/\libucosii_bsp.a(altera_avalon_timer_sc.o)
                              F:/project/qsys_ucosii_mail_msg/qsys/software/uCosii_bsp/\libucosii_bsp.a(alt_sys_init.o) (alt_avalon_timer_sc_init)
F:/project/qsys_ucosii_mail_msg/qsys/software/uCosii_bsp/\libucosii_bsp.a(epcs_commands.o)
                              F:/project/qsys_ucosii_mail_msg/qsys/software/uCosii_bsp/\libucosii_bsp.a(altera_avalon_epcs_flash_controller.o) (epcs_sector_erase)
F:/project/qsys_ucosii_mail_msg/qsys/software/uCosii_bsp/\libucosii_bsp.a(alt_alarm_start.o)
                              F:/project/qsys_ucosii_mail_msg/qsys/software/uCosii_bsp/\libucosii_bsp.a(altera_avalon_jtag_uart_init.o) (alt_alarm_start)
F:/project/qsys_ucosii_mail_msg/qsys/software/uCosii_bsp/\libucosii_bsp.a(alt_dev_llist_insert.o)
                              F:/project/qsys_ucosii_mail_msg/qsys/software/uCosii_bsp/\libucosii_bsp.a(alt_sys_init.o) (alt_dev_llist_insert)
F:/project/qsys_ucosii_mail_msg/qsys/software/uCosii_bsp/\libucosii_bsp.a(alt_do_ctors.o)
                              F:/project/qsys_ucosii_mail_msg/qsys/software/uCosii_bsp/\libucosii_bsp.a(alt_main.o) (_do_ctors)
F:/project/qsys_ucosii_mail_msg/qsys/software/uCosii_bsp/\libucosii_bsp.a(alt_do_dtors.o)
                              F:/project/qsys_ucosii_mail_msg/qsys/software/uCosii_bsp/\libucosii_bsp.a(alt_main.o) (_do_dtors)
F:/project/qsys_ucosii_mail_msg/qsys/software/uCosii_bsp/\libucosii_bsp.a(alt_flash_dev.o)
                              F:/project/qsys_ucosii_mail_msg/qsys/software/uCosii_bsp/\libucosii_bsp.a(altera_avalon_epcs_flash_controller.o) (alt_flash_dev_list)
F:/project/qsys_ucosii_mail_msg/qsys/software/uCosii_bsp/\libucosii_bsp.a(alt_iic.o)
                              F:/project/qsys_ucosii_mail_msg/qsys/software/uCosii_bsp/\libucosii_bsp.a(altera_avalon_jtag_uart_init.o) (alt_ic_isr_register)
F:/project/qsys_ucosii_mail_msg/qsys/software/uCosii_bsp/\libucosii_bsp.a(alt_iic_isr_register.o)
                              F:/project/qsys_ucosii_mail_msg/qsys/software/uCosii_bsp/\libucosii_bsp.a(alt_iic.o) (alt_iic_isr_register)
F:/project/qsys_ucosii_mail_msg/qsys/software/uCosii_bsp/\libucosii_bsp.a(alt_io_redirect.o)
                              F:/project/qsys_ucosii_mail_msg/qsys/software/uCosii_bsp/\libucosii_bsp.a(alt_main.o) (alt_io_redirect)
F:/project/qsys_ucosii_mail_msg/qsys/software/uCosii_bsp/\libucosii_bsp.a(alt_irq_entry.o)
                              F:/project/qsys_ucosii_mail_msg/qsys/software/uCosii_bsp/\libucosii_bsp.a(alt_iic_isr_register.o) (alt_irq_entry)
F:/project/qsys_ucosii_mail_msg/qsys/software/uCosii_bsp/\libucosii_bsp.a(alt_irq_handler.o)
                              F:/project/qsys_ucosii_mail_msg/qsys/software/uCosii_bsp/\libucosii_bsp.a(alt_iic_isr_register.o) (alt_irq)
F:/project/qsys_ucosii_mail_msg/qsys/software/uCosii_bsp/\libucosii_bsp.a(alt_irq_vars.o)
                              F:/project/qsys_ucosii_mail_msg/qsys/software/uCosii_bsp/\libucosii_bsp.a(alt_iic.o) (alt_irq_active)
F:/project/qsys_ucosii_mail_msg/qsys/software/uCosii_bsp/\libucosii_bsp.a(alt_open.o)
                              F:/project/qsys_ucosii_mail_msg/qsys/software/uCosii_bsp/\libucosii_bsp.a(alt_io_redirect.o) (open)
F:/project/qsys_ucosii_mail_msg/qsys/software/uCosii_bsp/\libucosii_bsp.a(alt_tick.o)
                              F:/project/qsys_ucosii_mail_msg/qsys/software/uCosii_bsp/\libucosii_bsp.a(altera_avalon_jtag_uart_init.o) (_alt_tick_rate)
F:/project/qsys_ucosii_mail_msg/qsys/software/uCosii_bsp/\libucosii_bsp.a(altera_nios2_qsys_irq.o)
                              F:/project/qsys_ucosii_mail_msg/qsys/software/uCosii_bsp/\libucosii_bsp.a(alt_sys_init.o) (altera_nios2_qsys_irq_init)
F:/project/qsys_ucosii_mail_msg/qsys/software/uCosii_bsp/\libucosii_bsp.a(os_cpu_a.o)
                              F:/project/qsys_ucosii_mail_msg/qsys/software/uCosii_bsp/\libucosii_bsp.a(os_core.o) (OSIntCtxSw)
F:/project/qsys_ucosii_mail_msg/qsys/software/uCosii_bsp/\libucosii_bsp.a(os_cpu_c.o)
                              F:/project/qsys_ucosii_mail_msg/qsys/software/uCosii_bsp/\libucosii_bsp.a(os_task.o) (OSTaskStkInit)
F:/project/qsys_ucosii_mail_msg/qsys/software/uCosii_bsp/\libucosii_bsp.a(altera_avalon_spi.o)
                              F:/project/qsys_ucosii_mail_msg/qsys/software/uCosii_bsp/\libucosii_bsp.a(epcs_commands.o) (alt_avalon_spi_command)
F:/project/qsys_ucosii_mail_msg/qsys/software/uCosii_bsp/\libucosii_bsp.a(alt_exception_entry.o)
                              F:/project/qsys_ucosii_mail_msg/qsys/software/uCosii_bsp/\libucosii_bsp.a(alt_irq_entry.o) (alt_exception)
F:/project/qsys_ucosii_mail_msg/qsys/software/uCosii_bsp/\libucosii_bsp.a(alt_find_dev.o)
                              F:/project/qsys_ucosii_mail_msg/qsys/software/uCosii_bsp/\libucosii_bsp.a(alt_flash_dev.o) (alt_find_dev)
F:/project/qsys_ucosii_mail_msg/qsys/software/uCosii_bsp/\libucosii_bsp.a(alt_find_file.o)
                              F:/project/qsys_ucosii_mail_msg/qsys/software/uCosii_bsp/\libucosii_bsp.a(alt_open.o) (alt_find_file)
F:/project/qsys_ucosii_mail_msg/qsys/software/uCosii_bsp/\libucosii_bsp.a(alt_get_fd.o)
                              F:/project/qsys_ucosii_mail_msg/qsys/software/uCosii_bsp/\libucosii_bsp.a(alt_open.o) (alt_get_fd)
d:/altera/13.1/nios2eds/bin/gnu/h-i686-mingw32/bin/../lib/gcc/nios2-elf/4.7.3/../../../../../H-i686-mingw32/nios2-elf/lib\libc.a(lib_a-atexit.o)
                              F:/project/qsys_ucosii_mail_msg/qsys/software/uCosii_bsp/\libucosii_bsp.a(alt_main.o) (atexit)
d:/altera/13.1/nios2eds/bin/gnu/h-i686-mingw32/bin/../lib/gcc/nios2-elf/4.7.3/../../../../../H-i686-mingw32/nios2-elf/lib\libc.a(lib_a-exit.o)
                              F:/project/qsys_ucosii_mail_msg/qsys/software/uCosii_bsp/\libucosii_bsp.a(alt_main.o) (exit)
d:/altera/13.1/nios2eds/bin/gnu/h-i686-mingw32/bin/../lib/gcc/nios2-elf/4.7.3/../../../../../H-i686-mingw32/nios2-elf/lib\libc.a(lib_a-memcmp.o)
                              F:/project/qsys_ucosii_mail_msg/qsys/software/uCosii_bsp/\libucosii_bsp.a(altera_avalon_epcs_flash_controller.o) (memcmp)
d:/altera/13.1/nios2eds/bin/gnu/h-i686-mingw32/bin/../lib/gcc/nios2-elf/4.7.3/../../../../../H-i686-mingw32/nios2-elf/lib\libc.a(lib_a-__atexit.o)
                              d:/altera/13.1/nios2eds/bin/gnu/h-i686-mingw32/bin/../lib/gcc/nios2-elf/4.7.3/../../../../../H-i686-mingw32/nios2-elf/lib\libc.a(lib_a-atexit.o) (__register_exitproc)
d:/altera/13.1/nios2eds/bin/gnu/h-i686-mingw32/bin/../lib/gcc/nios2-elf/4.7.3/../../../../../H-i686-mingw32/nios2-elf/lib\libc.a(lib_a-__call_atexit.o)
                              d:/altera/13.1/nios2eds/bin/gnu/h-i686-mingw32/bin/../lib/gcc/nios2-elf/4.7.3/../../../../../H-i686-mingw32/nios2-elf/lib\libc.a(lib_a-exit.o) (__call_exitprocs)
d:/altera/13.1/nios2eds/bin/gnu/h-i686-mingw32/bin/../lib/gcc/nios2-elf/4.7.3\libgcc.a(_fixunsdfsi.o)
                              F:/project/qsys_ucosii_mail_msg/qsys/software/uCosii_bsp/\libucosii_bsp.a(os_time.o) (__fixunsdfsi)
F:/project/qsys_ucosii_mail_msg/qsys/software/uCosii_bsp/\libucosii_bsp.a(alt_exit.o)
                              d:/altera/13.1/nios2eds/bin/gnu/h-i686-mingw32/bin/../lib/gcc/nios2-elf/4.7.3/../../../../../H-i686-mingw32/nios2-elf/lib\libc.a(lib_a-exit.o) (_exit)

Allocating common symbols
Common symbol       size              file

alt_irq             0x100             F:/project/qsys_ucosii_mail_msg/qsys/software/uCosii_bsp/\libucosii_bsp.a(alt_irq_handler.o)
msgqueue            0x4               obj/default/ucosii_mail_msg.o
OSLockNesting       0x1               F:/project/qsys_ucosii_mail_msg/qsys/software/uCosii_bsp/\libucosii_bsp.a(os_core.o)
OSRunning           0x1               F:/project/qsys_ucosii_mail_msg/qsys/software/uCosii_bsp/\libucosii_bsp.a(os_core.o)
OSIdleCtr           0x4               F:/project/qsys_ucosii_mail_msg/qsys/software/uCosii_bsp/\libucosii_bsp.a(os_core.o)
OSPrioHighRdy       0x1               F:/project/qsys_ucosii_mail_msg/qsys/software/uCosii_bsp/\libucosii_bsp.a(os_core.o)
errno               0x4               d:/altera/13.1/nios2eds/bin/gnu/h-i686-mingw32/bin/../lib/gcc/nios2-elf/4.7.3/../../../../../H-i686-mingw32/nios2-elf/lib\libc.a(lib_a-int_errno.o)
start_task_stk      0x2000            obj/default/ucosii_mail_msg.o
alt_heapsem         0x4               F:/project/qsys_ucosii_mail_msg/qsys/software/uCosii_bsp/\libucosii_bsp.a(alt_malloc_lock.o)
OSFlagTbl           0x370             F:/project/qsys_ucosii_mail_msg/qsys/software/uCosii_bsp/\libucosii_bsp.a(os_core.o)
mailbox             0x4               obj/default/ucosii_mail_msg.o
msg_sender_stk      0x2000            obj/default/ucosii_mail_msg.o
OSPrioCur           0x1               F:/project/qsys_ucosii_mail_msg/qsys/software/uCosii_bsp/\libucosii_bsp.a(os_core.o)
OSTCBList           0x4               F:/project/qsys_ucosii_mail_msg/qsys/software/uCosii_bsp/\libucosii_bsp.a(os_core.o)
alt_fd_list_lock    0x4               F:/project/qsys_ucosii_mail_msg/qsys/software/uCosii_bsp/\libucosii_bsp.a(alt_dev.o)
OSMemTbl            0xc30             F:/project/qsys_ucosii_mail_msg/qsys/software/uCosii_bsp/\libucosii_bsp.a(os_core.o)
OSTickStepState     0x1               F:/project/qsys_ucosii_mail_msg/qsys/software/uCosii_bsp/\libucosii_bsp.a(os_core.o)
OSTaskStatStk       0x800             F:/project/qsys_ucosii_mail_msg/qsys/software/uCosii_bsp/\libucosii_bsp.a(os_core.o)
OSCtxSwCtr          0x4               F:/project/qsys_ucosii_mail_msg/qsys/software/uCosii_bsp/\libucosii_bsp.a(os_core.o)
mail_receiver_stk   0x2000            obj/default/ucosii_mail_msg.o
OSIdleCtrMax        0x4               F:/project/qsys_ucosii_mail_msg/qsys/software/uCosii_bsp/\libucosii_bsp.a(os_core.o)
msgqueueTbl         0x28              obj/default/ucosii_mail_msg.o
OSTCBFreeList       0x4               F:/project/qsys_ucosii_mail_msg/qsys/software/uCosii_bsp/\libucosii_bsp.a(os_core.o)
msg_receiver_stk    0x2000            obj/default/ucosii_mail_msg.o
OSCPUUsage          0x1               F:/project/qsys_ucosii_mail_msg/qsys/software/uCosii_bsp/\libucosii_bsp.a(os_core.o)
OSTaskCtr           0x1               F:/project/qsys_ucosii_mail_msg/qsys/software/uCosii_bsp/\libucosii_bsp.a(os_core.o)
mail_sender_stk     0x2000            obj/default/ucosii_mail_msg.o
OSMemFreeList       0x4               F:/project/qsys_ucosii_mail_msg/qsys/software/uCosii_bsp/\libucosii_bsp.a(os_core.o)
OSQTbl              0x1e0             F:/project/qsys_ucosii_mail_msg/qsys/software/uCosii_bsp/\libucosii_bsp.a(os_core.o)
OSTCBHighRdy        0x4               F:/project/qsys_ucosii_mail_msg/qsys/software/uCosii_bsp/\libucosii_bsp.a(os_core.o)
OSQFreeList         0x4               F:/project/qsys_ucosii_mail_msg/qsys/software/uCosii_bsp/\libucosii_bsp.a(os_core.o)
OSRdyGrp            0x1               F:/project/qsys_ucosii_mail_msg/qsys/software/uCosii_bsp/\libucosii_bsp.a(os_core.o)
_atexit0            0x190             d:/altera/13.1/nios2eds/bin/gnu/h-i686-mingw32/bin/../lib/gcc/nios2-elf/4.7.3/../../../../../H-i686-mingw32/nios2-elf/lib\libc.a(lib_a-atexit.o)
OSRdyTbl            0x3               F:/project/qsys_ucosii_mail_msg/qsys/software/uCosii_bsp/\libucosii_bsp.a(os_core.o)
OSEventFreeList     0x4               F:/project/qsys_ucosii_mail_msg/qsys/software/uCosii_bsp/\libucosii_bsp.a(os_core.o)
OSIntNesting        0x1               F:/project/qsys_ucosii_mail_msg/qsys/software/uCosii_bsp/\libucosii_bsp.a(os_core.o)
OSTCBCur            0x4               F:/project/qsys_ucosii_mail_msg/qsys/software/uCosii_bsp/\libucosii_bsp.a(os_core.o)
OSTime              0x4               F:/project/qsys_ucosii_mail_msg/qsys/software/uCosii_bsp/\libucosii_bsp.a(os_core.o)
OSTaskIdleStk       0x800             F:/project/qsys_ucosii_mail_msg/qsys/software/uCosii_bsp/\libucosii_bsp.a(os_core.o)
OSEventTbl          0xb40             F:/project/qsys_ucosii_mail_msg/qsys/software/uCosii_bsp/\libucosii_bsp.a(os_core.o)
OSTCBTbl            0x510             F:/project/qsys_ucosii_mail_msg/qsys/software/uCosii_bsp/\libucosii_bsp.a(os_core.o)
OSFlagFreeList      0x4               F:/project/qsys_ucosii_mail_msg/qsys/software/uCosii_bsp/\libucosii_bsp.a(os_core.o)
OSStatRdy           0x1               F:/project/qsys_ucosii_mail_msg/qsys/software/uCosii_bsp/\libucosii_bsp.a(os_core.o)
OSTCBPrioTbl        0x54              F:/project/qsys_ucosii_mail_msg/qsys/software/uCosii_bsp/\libucosii_bsp.a(os_core.o)
alt_envsem          0x4               F:/project/qsys_ucosii_mail_msg/qsys/software/uCosii_bsp/\libucosii_bsp.a(alt_env_lock.o)
OSIdleCtrRun        0x4               F:/project/qsys_ucosii_mail_msg/qsys/software/uCosii_bsp/\libucosii_bsp.a(os_core.o)

Memory Configuration

Name             Origin             Length             Attributes
sdram_BEFORE_EXCEPTION 0x00000000         0x00000020
sdram            0x00000020         0x01ffffe0
reset            0x02001000         0x00000020
epcs             0x02001020         0x000007e0
*default*        0x00000000         0xffffffff

Linker script and memory map

LOAD F:/project/qsys_ucosii_mail_msg/qsys/software/uCosii_bsp//obj/HAL/src/crt0.o
LOAD obj/default/ucosii_mail_msg.o
LOAD d:/altera/13.1/nios2eds/bin/gnu/h-i686-mingw32/bin/../lib/gcc/nios2-elf/4.7.3/../../../../../H-i686-mingw32/nios2-elf/lib\libstdc++.a
LOAD d:/altera/13.1/nios2eds/bin/gnu/h-i686-mingw32/bin/../lib/gcc/nios2-elf/4.7.3/../../../../../H-i686-mingw32/nios2-elf/lib\libm.a
LOAD d:/altera/13.1/nios2eds/bin/gnu/h-i686-mingw32/bin/../lib/gcc/nios2-elf/4.7.3\libgcc.a
START GROUP
LOAD d:/altera/13.1/nios2eds/bin/gnu/h-i686-mingw32/bin/../lib/gcc/nios2-elf/4.7.3/../../../../../H-i686-mingw32/nios2-elf/lib\libc.a
LOAD d:/altera/13.1/nios2eds/bin/gnu/h-i686-mingw32/bin/../lib/gcc/nios2-elf/4.7.3\libgcc.a
LOAD F:/project/qsys_ucosii_mail_msg/qsys/software/uCosii_bsp/\libucosii_bsp.a
END GROUP
LOAD d:/altera/13.1/nios2eds/bin/gnu/h-i686-mingw32/bin/../lib/gcc/nios2-elf/4.7.3\libgcc.a
                0x00000000                __alt_mem_sdram = 0x0
                0x02001000                __alt_mem_epcs = 0x2001000

.entry          0x02001000        0x0
 *(.entry)
 .entry         0x02001000        0x0 F:/project/qsys_ucosii_mail_msg/qsys/software/uCosii_bsp//obj/HAL/src/crt0.o
                0x02001000                __reset

.exceptions     0x00000020      0x19c
                0x00000020                PROVIDE (__ram_exceptions_start, ABSOLUTE (.))
                0x00000020                . = ALIGN (0x20)
 *(.irq)
 *(.exceptions.entry.label)
 .exceptions.entry.label
                0x00000020        0x0 F:/project/qsys_ucosii_mail_msg/qsys/software/uCosii_bsp/\libucosii_bsp.a(alt_irq_entry.o)
                0x00000020                alt_irq_entry
 .exceptions.entry.label
                0x00000020        0x0 F:/project/qsys_ucosii_mail_msg/qsys/software/uCosii_bsp/\libucosii_bsp.a(alt_exception_entry.o)
                0x00000020                alt_exception
 *(.exceptions.entry.user)
 *(.exceptions.entry.ecc_fatal)
 *(.exceptions.entry)
 .exceptions.entry
                0x00000020       0x54 F:/project/qsys_ucosii_mail_msg/qsys/software/uCosii_bsp/\libucosii_bsp.a(alt_exception_entry.o)
 *(.exceptions.irqtest.user)
 *(.exceptions.irqtest)
 .exceptions.irqtest
                0x00000074       0x10 F:/project/qsys_ucosii_mail_msg/qsys/software/uCosii_bsp/\libucosii_bsp.a(alt_irq_entry.o)
 *(.exceptions.irqhandler.user)
 *(.exceptions.irqhandler)
 .exceptions.irqhandler
                0x00000084        0x4 F:/project/qsys_ucosii_mail_msg/qsys/software/uCosii_bsp/\libucosii_bsp.a(alt_irq_entry.o)
 *(.exceptions.irqreturn.user)
 *(.exceptions.irqreturn)
 .exceptions.irqreturn
                0x00000088        0x4 F:/project/qsys_ucosii_mail_msg/qsys/software/uCosii_bsp/\libucosii_bsp.a(alt_irq_entry.o)
 *(.exceptions.notirq.label)
 .exceptions.notirq.label
                0x0000008c        0x0 F:/project/qsys_ucosii_mail_msg/qsys/software/uCosii_bsp/\libucosii_bsp.a(alt_irq_entry.o)
 *(.exceptions.notirq.user)
 *(.exceptions.notirq)
 .exceptions.notirq
                0x0000008c        0x8 F:/project/qsys_ucosii_mail_msg/qsys/software/uCosii_bsp/\libucosii_bsp.a(alt_exception_entry.o)
 *(.exceptions.soft.user)
 *(.exceptions.soft)
 *(.exceptions.unknown.user)
 *(.exceptions.unknown)
 .exceptions.unknown
                0x00000094        0x4 F:/project/qsys_ucosii_mail_msg/qsys/software/uCosii_bsp/\libucosii_bsp.a(alt_exception_entry.o)
 *(.exceptions.exit.label)
 .exceptions.exit.label
                0x00000098        0x0 F:/project/qsys_ucosii_mail_msg/qsys/software/uCosii_bsp/\libucosii_bsp.a(alt_irq_entry.o)
 .exceptions.exit.label
                0x00000098        0x0 F:/project/qsys_ucosii_mail_msg/qsys/software/uCosii_bsp/\libucosii_bsp.a(alt_exception_entry.o)
 *(.exceptions.exit.user)
 *(.exceptions.exit)
 .exceptions.exit
                0x00000098       0x54 F:/project/qsys_ucosii_mail_msg/qsys/software/uCosii_bsp/\libucosii_bsp.a(alt_exception_entry.o)
 *(.exceptions)
 .exceptions    0x000000ec       0xd0 F:/project/qsys_ucosii_mail_msg/qsys/software/uCosii_bsp/\libucosii_bsp.a(alt_irq_handler.o)
                0x000000ec                alt_irq_handler
                0x000001bc                PROVIDE (__ram_exceptions_end, ABSOLUTE (.))
                0x00000020                PROVIDE (__flash_exceptions_start, LOADADDR (.exceptions))

.text           0x000001bc    0x163d4
                0x000001bc                PROVIDE (stext, ABSOLUTE (.))
 *(.interp)
 *(.hash)
 *(.dynsym)
 *(.dynstr)
 *(.gnu.version)
 *(.gnu.version_d)
 *(.gnu.version_r)
 *(.rel.init)
 *(.rela.init)
 *(.rel.text .rel.text.* .rel.gnu.linkonce.t.*)
 *(.rela.text .rela.text.* .rela.gnu.linkonce.t.*)
 *(.rel.fini)
 *(.rela.fini)
 *(.rel.rodata .rel.rodata.* .rel.gnu.linkonce.r.*)
 *(.rela.rodata .rela.rodata.* .rela.gnu.linkonce.r.*)
 *(.rel.data .rel.data.* .rel.gnu.linkonce.d.*)
 *(.rela.data .rela.data.* .rela.gnu.linkonce.d.*)
 *(.rel.tdata .rel.tdata.* .rel.gnu.linkonce.td.*)
 *(.rela.tdata .rela.tdata.* .rela.gnu.linkonce.td.*)
 *(.rel.tbss .rel.tbss.* .rel.gnu.linkonce.tb.*)
 *(.rela.tbss .rela.tbss.* .rela.gnu.linkonce.tb.*)
 *(.rel.ctors)
 *(.rela.ctors)
 *(.rel.dtors)
 *(.rela.dtors)
 *(.rel.got)
 *(.rela.got)
 *(.rel.sdata .rel.sdata.* .rel.gnu.linkonce.s.*)
 *(.rela.sdata .rela.sdata.* .rela.gnu.linkonce.s.*)
 *(.rel.sbss .rel.sbss.* .rel.gnu.linkonce.sb.*)
 *(.rela.sbss .rela.sbss.* .rela.gnu.linkonce.sb.*)
 *(.rel.sdata2 .rel.sdata2.* .rel.gnu.linkonce.s2.*)
 *(.rela.sdata2 .rela.sdata2.* .rela.gnu.linkonce.s2.*)
 *(.rel.sbss2 .rel.sbss2.* .rel.gnu.linkonce.sb2.*)
 *(.rela.sbss2 .rela.sbss2.* .rela.gnu.linkonce.sb2.*)
 *(.rel.bss .rel.bss.* .rel.gnu.linkonce.b.*)
 *(.rela.bss .rela.bss.* .rela.gnu.linkonce.b.*)
 *(.rel.plt)
 *(.rela.plt)
 *(.rel.dyn)
 *(.init)
 *(.plt)
 *(.text .stub .text.* .gnu.linkonce.t.*)
 .text          0x000001bc       0x48 F:/project/qsys_ucosii_mail_msg/qsys/software/uCosii_bsp//obj/HAL/src/crt0.o
                0x000001bc                _start
 .text          0x00000204      0x3c4 obj/default/ucosii_mail_msg.o
                0x00000204                MailSend
                0x0000025c                MailReceiver
                0x000002c0                MsgSender
                0x00000360                MsgReceiver
                0x000003c4                start_task
                0x000003ec                initOSDataStructs
                0x00000434                initCreateTasks
                0x0000055c                main
 .text          0x000005c8       0x68 d:/altera/13.1/nios2eds/bin/gnu/h-i686-mingw32/bin/../lib/gcc/nios2-elf/4.7.3/../../../../../H-i686-mingw32/nios2-elf/lib\libc.a(lib_a-printf.o)
                0x000005c8                _printf_r
                0x000005f4                printf
 .text          0x00000630     0x1e50 d:/altera/13.1/nios2eds/bin/gnu/h-i686-mingw32/bin/../lib/gcc/nios2-elf/4.7.3/../../../../../H-i686-mingw32/nios2-elf/lib\libc.a(lib_a-vfprintf.o)
                0x00000664                ___vfprintf_internal_r
                0x0000245c                __vfprintf_internal
 .text          0x00002480      0x174 d:/altera/13.1/nios2eds/bin/gnu/h-i686-mingw32/bin/../lib/gcc/nios2-elf/4.7.3/../../../../../H-i686-mingw32/nios2-elf/lib\libc.a(lib_a-wsetup.o)
                0x00002480                __swsetup_r
 .text          0x000025f4     0x1824 d:/altera/13.1/nios2eds/bin/gnu/h-i686-mingw32/bin/../lib/gcc/nios2-elf/4.7.3/../../../../../H-i686-mingw32/nios2-elf/lib\libc.a(lib_a-dtoa.o)
                0x000027fc                _dtoa_r
 .text          0x00003e18      0x218 d:/altera/13.1/nios2eds/bin/gnu/h-i686-mingw32/bin/../lib/gcc/nios2-elf/4.7.3/../../../../../H-i686-mingw32/nios2-elf/lib\libc.a(lib_a-fflush.o)
                0x00003e18                _fflush_r
                0x00004000                fflush
 .text          0x00004030      0x2d8 d:/altera/13.1/nios2eds/bin/gnu/h-i686-mingw32/bin/../lib/gcc/nios2-elf/4.7.3/../../../../../H-i686-mingw32/nios2-elf/lib\libc.a(lib_a-findfp.o)
                0x00004040                _cleanup_r
                0x0000404c                __sfmoreglue
                0x000040b0                _cleanup
                0x000040c0                __sinit
                0x000041cc                __sfp
                0x000042c8                __sfp_lock_acquire
                0x000042cc                __sfp_lock_release
                0x000042d0                __sinit_lock_acquire
                0x000042d4                __sinit_lock_release
                0x000042d8                __fp_lock_all
                0x000042f0                __fp_unlock_all
 .text          0x00004308      0x40c d:/altera/13.1/nios2eds/bin/gnu/h-i686-mingw32/bin/../lib/gcc/nios2-elf/4.7.3/../../../../../H-i686-mingw32/nios2-elf/lib\libc.a(lib_a-freer.o)
                0x00004308                _malloc_trim_r
                0x00004444                _free_r
 .text          0x00004714      0x4e4 d:/altera/13.1/nios2eds/bin/gnu/h-i686-mingw32/bin/../lib/gcc/nios2-elf/4.7.3/../../../../../H-i686-mingw32/nios2-elf/lib\libc.a(lib_a-fvwrite.o)
                0x00004714                __sfvwrite_r
 .text          0x00004bf8      0x160 d:/altera/13.1/nios2eds/bin/gnu/h-i686-mingw32/bin/../lib/gcc/nios2-elf/4.7.3/../../../../../H-i686-mingw32/nios2-elf/lib\libc.a(lib_a-fwalk.o)
                0x00004bf8                _fwalk
                0x00004ca0                _fwalk_reent
 .text          0x00004d58        0x0 d:/altera/13.1/nios2eds/bin/gnu/h-i686-mingw32/bin/../lib/gcc/nios2-elf/4.7.3/../../../../../H-i686-mingw32/nios2-elf/lib\libc.a(lib_a-impure.o)
 .text          0x00004d58       0xdc d:/altera/13.1/nios2eds/bin/gnu/h-i686-mingw32/bin/../lib/gcc/nios2-elf/4.7.3/../../../../../H-i686-mingw32/nios2-elf/lib\libc.a(lib_a-locale.o)
                0x00004d58                _setlocale_r
                0x00004df4                __locale_charset
                0x00004e00                _localeconv_r
                0x00004e0c                setlocale
                0x00004e28                localeconv
 .text          0x00004e34      0x1a8 d:/altera/13.1/nios2eds/bin/gnu/h-i686-mingw32/bin/../lib/gcc/nios2-elf/4.7.3/../../../../../H-i686-mingw32/nios2-elf/lib\libc.a(lib_a-makebuf.o)
                0x00004e34                __smakebuf_r
 .text          0x00004fdc      0x784 d:/altera/13.1/nios2eds/bin/gnu/h-i686-mingw32/bin/../lib/gcc/nios2-elf/4.7.3/../../../../../H-i686-mingw32/nios2-elf/lib\libc.a(lib_a-mallocr.o)
                0x00004fdc                _malloc_r
 .text          0x00005760       0xf8 d:/altera/13.1/nios2eds/bin/gnu/h-i686-mingw32/bin/../lib/gcc/nios2-elf/4.7.3/../../../../../H-i686-mingw32/nios2-elf/lib\libc.a(lib_a-memchr.o)
                0x00005760                memchr
 .text          0x00005858       0xf8 d:/altera/13.1/nios2eds/bin/gnu/h-i686-mingw32/bin/../lib/gcc/nios2-elf/4.7.3/../../../../../H-i686-mingw32/nios2-elf/lib\libc.a(lib_a-memcpy.o)
                0x00005858                memcpy
 .text          0x00005950      0x128 d:/altera/13.1/nios2eds/bin/gnu/h-i686-mingw32/bin/../lib/gcc/nios2-elf/4.7.3/../../../../../H-i686-mingw32/nios2-elf/lib\libc.a(lib_a-memmove.o)
                0x00005950                memmove
 .text          0x00005a78       0xdc d:/altera/13.1/nios2eds/bin/gnu/h-i686-mingw32/bin/../lib/gcc/nios2-elf/4.7.3/../../../../../H-i686-mingw32/nios2-elf/lib\libc.a(lib_a-memset.o)
                0x00005a78                memset
 .text          0x00005b54      0xfa8 d:/altera/13.1/nios2eds/bin/gnu/h-i686-mingw32/bin/../lib/gcc/nios2-elf/4.7.3/../../../../../H-i686-mingw32/nios2-elf/lib\libc.a(lib_a-mprec.o)
                0x00005b54                _Balloc
                0x00005bfc                _Bfree
                0x00005c24                __multadd
                0x00005d38                __s2b
                0x00005e3c                __hi0bits
                0x00005ea4                __lo0bits
                0x00005f54                __i2b
                0x00005f90                __multiply
                0x00006170                __pow5mult
                0x0000629c                __lshift
                0x000063f8                __mcmp
                0x00006450                __mdiff
                0x000065f8                __ulp
                0x00006658                __b2d
                0x000067a0                __d2b
                0x000068e4                __ratio
                0x00006988                _mprec_log10
                0x000069fc                __copybits
                0x00006a78                __any_on
 .text          0x00006afc      0x5fc d:/altera/13.1/nios2eds/bin/gnu/h-i686-mingw32/bin/../lib/gcc/nios2-elf/4.7.3/../../../../../H-i686-mingw32/nios2-elf/lib\libc.a(lib_a-reallocr.o)
                0x00006afc                _realloc_r
 .text          0x000070f8       0x38 d:/altera/13.1/nios2eds/bin/gnu/h-i686-mingw32/bin/../lib/gcc/nios2-elf/4.7.3/../../../../../H-i686-mingw32/nios2-elf/lib\libc.a(lib_a-s_isinfd.o)
                0x000070f8                __isinfd
 .text          0x00007130       0x2c d:/altera/13.1/nios2eds/bin/gnu/h-i686-mingw32/bin/../lib/gcc/nios2-elf/4.7.3/../../../../../H-i686-mingw32/nios2-elf/lib\libc.a(lib_a-s_isnand.o)
                0x00007130                __isnand
 .text          0x0000715c       0x64 d:/altera/13.1/nios2eds/bin/gnu/h-i686-mingw32/bin/../lib/gcc/nios2-elf/4.7.3/../../../../../H-i686-mingw32/nios2-elf/lib\libc.a(lib_a-sbrkr.o)
                0x0000715c                _sbrk_r
 .text          0x000071c0      0x140 d:/altera/13.1/nios2eds/bin/gnu/h-i686-mingw32/bin/../lib/gcc/nios2-elf/4.7.3/../../../../../H-i686-mingw32/nios2-elf/lib\libc.a(lib_a-stdio.o)
                0x000071c0                __sread
                0x00007214                __swrite
                0x0000729c                __sseek
                0x000072f8                __sclose
 .text          0x00007300       0xa4 d:/altera/13.1/nios2eds/bin/gnu/h-i686-mingw32/bin/../lib/gcc/nios2-elf/4.7.3/../../../../../H-i686-mingw32/nios2-elf/lib\libc.a(lib_a-strcmp.o)
                0x00007300                strcmp
 .text          0x000073a4       0x8c d:/altera/13.1/nios2eds/bin/gnu/h-i686-mingw32/bin/../lib/gcc/nios2-elf/4.7.3/../../../../../H-i686-mingw32/nios2-elf/lib\libc.a(lib_a-strlen.o)
                0x000073a4                strlen
 .text          0x00007430       0x6c d:/altera/13.1/nios2eds/bin/gnu/h-i686-mingw32/bin/../lib/gcc/nios2-elf/4.7.3/../../../../../H-i686-mingw32/nios2-elf/lib\libc.a(lib_a-writer.o)
                0x00007430                _write_r
 .text          0x0000749c       0xbc d:/altera/13.1/nios2eds/bin/gnu/h-i686-mingw32/bin/../lib/gcc/nios2-elf/4.7.3/../../../../../H-i686-mingw32/nios2-elf/lib\libc.a(lib_a-callocr.o)
                0x0000749c                _calloc_r
 .text          0x00007558       0x64 d:/altera/13.1/nios2eds/bin/gnu/h-i686-mingw32/bin/../lib/gcc/nios2-elf/4.7.3/../../../../../H-i686-mingw32/nios2-elf/lib\libc.a(lib_a-closer.o)
                0x00007558                _close_r
 .text          0x000075bc      0x150 d:/altera/13.1/nios2eds/bin/gnu/h-i686-mingw32/bin/../lib/gcc/nios2-elf/4.7.3/../../../../../H-i686-mingw32/nios2-elf/lib\libc.a(lib_a-fclose.o)
                0x000075bc                _fclose_r
                0x000076f8                fclose
 .text          0x0000770c       0x68 d:/altera/13.1/nios2eds/bin/gnu/h-i686-mingw32/bin/../lib/gcc/nios2-elf/4.7.3/../../../../../H-i686-mingw32/nios2-elf/lib\libc.a(lib_a-fstatr.o)
                0x0000770c                _fstat_r
 .text          0x00007774        0x0 d:/altera/13.1/nios2eds/bin/gnu/h-i686-mingw32/bin/../lib/gcc/nios2-elf/4.7.3/../../../../../H-i686-mingw32/nios2-elf/lib\libc.a(lib_a-int_errno.o)
 .text          0x00007774       0x64 d:/altera/13.1/nios2eds/bin/gnu/h-i686-mingw32/bin/../lib/gcc/nios2-elf/4.7.3/../../../../../H-i686-mingw32/nios2-elf/lib\libc.a(lib_a-isattyr.o)
                0x00007774                _isatty_r
 .text          0x000077d8       0x6c d:/altera/13.1/nios2eds/bin/gnu/h-i686-mingw32/bin/../lib/gcc/nios2-elf/4.7.3/../../../../../H-i686-mingw32/nios2-elf/lib\libc.a(lib_a-lseekr.o)
                0x000077d8                _lseek_r
 .text          0x00007844       0x6c d:/altera/13.1/nios2eds/bin/gnu/h-i686-mingw32/bin/../lib/gcc/nios2-elf/4.7.3/../../../../../H-i686-mingw32/nios2-elf/lib\libc.a(lib_a-readr.o)
                0x00007844                _read_r
 .text          0x000078b0      0x5c8 d:/altera/13.1/nios2eds/bin/gnu/h-i686-mingw32/bin/../lib/gcc/nios2-elf/4.7.3\libgcc.a(_udivdi3.o)
                0x000078b0                __udivdi3
 .text          0x00007e78      0x58c d:/altera/13.1/nios2eds/bin/gnu/h-i686-mingw32/bin/../lib/gcc/nios2-elf/4.7.3\libgcc.a(_umoddi3.o)
                0x00007e78                __umoddi3
 .text          0x00008404      0x408 d:/altera/13.1/nios2eds/bin/gnu/h-i686-mingw32/bin/../lib/gcc/nios2-elf/4.7.3\libgcc.a(_addsub_df.o)
                0x00008758                __adddf3
                0x000087ac                __subdf3
 .text          0x0000880c      0x2e4 d:/altera/13.1/nios2eds/bin/gnu/h-i686-mingw32/bin/../lib/gcc/nios2-elf/4.7.3\libgcc.a(_mul_df.o)
                0x0000880c                __muldf3
 .text          0x00008af0      0x1b4 d:/altera/13.1/nios2eds/bin/gnu/h-i686-mingw32/bin/../lib/gcc/nios2-elf/4.7.3\libgcc.a(_div_df.o)
                0x00008af0                __divdf3
 .text          0x00008ca4       0x5c d:/altera/13.1/nios2eds/bin/gnu/h-i686-mingw32/bin/../lib/gcc/nios2-elf/4.7.3\libgcc.a(_eq_df.o)
                0x00008ca4                __eqdf2
 .text          0x00008d00       0x5c d:/altera/13.1/nios2eds/bin/gnu/h-i686-mingw32/bin/../lib/gcc/nios2-elf/4.7.3\libgcc.a(_ne_df.o)
                0x00008d00                __nedf2
 .text          0x00008d5c       0x64 d:/altera/13.1/nios2eds/bin/gnu/h-i686-mingw32/bin/../lib/gcc/nios2-elf/4.7.3\libgcc.a(_gt_df.o)
                0x00008d5c                __gtdf2
 .text          0x00008dc0       0x64 d:/altera/13.1/nios2eds/bin/gnu/h-i686-mingw32/bin/../lib/gcc/nios2-elf/4.7.3\libgcc.a(_ge_df.o)
                0x00008dc0                __gedf2
 .text          0x00008e24       0x5c d:/altera/13.1/nios2eds/bin/gnu/h-i686-mingw32/bin/../lib/gcc/nios2-elf/4.7.3\libgcc.a(_lt_df.o)
                0x00008e24                __ltdf2
 .text          0x00008e80       0xd4 d:/altera/13.1/nios2eds/bin/gnu/h-i686-mingw32/bin/../lib/gcc/nios2-elf/4.7.3\libgcc.a(_si_to_df.o)
                0x00008e80                __floatsidf
 .text          0x00008f54       0xd4 d:/altera/13.1/nios2eds/bin/gnu/h-i686-mingw32/bin/../lib/gcc/nios2-elf/4.7.3\libgcc.a(_df_to_si.o)
                0x00008f54                __fixdfsi
 .text          0x00009028        0x0 d:/altera/13.1/nios2eds/bin/gnu/h-i686-mingw32/bin/../lib/gcc/nios2-elf/4.7.3\libgcc.a(_thenan_df.o)
 .text          0x00009028      0x11c d:/altera/13.1/nios2eds/bin/gnu/h-i686-mingw32/bin/../lib/gcc/nios2-elf/4.7.3\libgcc.a(_usi_to_df.o)
                0x00009028                __floatunsidf
 .text          0x00009144      0x130 d:/altera/13.1/nios2eds/bin/gnu/h-i686-mingw32/bin/../lib/gcc/nios2-elf/4.7.3\libgcc.a(lib2-divmod.o)
                0x000091b8                __divsi3
                0x00009208                __modsi3
                0x00009264                __udivsi3
                0x0000926c                __umodsi3
 .text          0x00009274       0x60 d:/altera/13.1/nios2eds/bin/gnu/h-i686-mingw32/bin/../lib/gcc/nios2-elf/4.7.3\libgcc.a(_muldi3.o)
                0x00009274                __muldi3
 .text          0x000092d4        0x0 d:/altera/13.1/nios2eds/bin/gnu/h-i686-mingw32/bin/../lib/gcc/nios2-elf/4.7.3\libgcc.a(_clz.o)
 .text          0x000092d4       0xac d:/altera/13.1/nios2eds/bin/gnu/h-i686-mingw32/bin/../lib/gcc/nios2-elf/4.7.3\libgcc.a(_clzsi2.o)
                0x000092d4                __clzsi2
 .text          0x00009380      0x224 d:/altera/13.1/nios2eds/bin/gnu/h-i686-mingw32/bin/../lib/gcc/nios2-elf/4.7.3\libgcc.a(_pack_df.o)
                0x00009380                __pack_d
 .text          0x000095a4      0x104 d:/altera/13.1/nios2eds/bin/gnu/h-i686-mingw32/bin/../lib/gcc/nios2-elf/4.7.3\libgcc.a(_unpack_df.o)
                0x000095a4                __unpack_d
 .text          0x000096a8       0xd0 d:/altera/13.1/nios2eds/bin/gnu/h-i686-mingw32/bin/../lib/gcc/nios2-elf/4.7.3\libgcc.a(_fpcmp_parts_df.o)
                0x000096a8                __fpcmp_parts_d
 .text          0x00009778       0x44 d:/altera/13.1/nios2eds/bin/gnu/h-i686-mingw32/bin/../lib/gcc/nios2-elf/4.7.3\libgcc.a(_lshrdi3.o)
                0x00009778                __lshrdi3
 .text          0x000097bc       0x44 d:/altera/13.1/nios2eds/bin/gnu/h-i686-mingw32/bin/../lib/gcc/nios2-elf/4.7.3\libgcc.a(_ashldi3.o)
                0x000097bc                __ashldi3
 .text          0x00009800      0x118 F:/project/qsys_ucosii_mail_msg/qsys/software/uCosii_bsp/\libucosii_bsp.a(alt_close.o)
                0x00009850                close
 .text          0x00009918       0x2c F:/project/qsys_ucosii_mail_msg/qsys/software/uCosii_bsp/\libucosii_bsp.a(alt_dev.o)
 .text          0x00009944        0x0 F:/project/qsys_ucosii_mail_msg/qsys/software/uCosii_bsp/\libucosii_bsp.a(alt_errno.o)
 .text          0x00009944       0xfc F:/project/qsys_ucosii_mail_msg/qsys/software/uCosii_bsp/\libucosii_bsp.a(alt_fstat.o)
                0x00009994                fstat
 .text          0x00009a40       0xf0 F:/project/qsys_ucosii_mail_msg/qsys/software/uCosii_bsp/\libucosii_bsp.a(alt_isatty.o)
                0x00009a90                isatty
 .text          0x00009b30      0x120 F:/project/qsys_ucosii_mail_msg/qsys/software/uCosii_bsp/\libucosii_bsp.a(alt_lseek.o)
                0x00009b80                lseek
 .text          0x00009c50       0xcc F:/project/qsys_ucosii_mail_msg/qsys/software/uCosii_bsp/\libucosii_bsp.a(alt_main.o)
                0x00009c50                alt_main
 .text          0x00009d1c      0x140 F:/project/qsys_ucosii_mail_msg/qsys/software/uCosii_bsp/\libucosii_bsp.a(alt_read.o)
                0x00009d6c                read
 .text          0x00009e5c       0x60 F:/project/qsys_ucosii_mail_msg/qsys/software/uCosii_bsp/\libucosii_bsp.a(alt_release_fd.o)
                0x00009e5c                alt_release_fd
 .text          0x00009ebc       0xb0 F:/project/qsys_ucosii_mail_msg/qsys/software/uCosii_bsp/\libucosii_bsp.a(alt_sbrk.o)
                0x00009ebc                sbrk
 .text          0x00009f6c      0x13c F:/project/qsys_ucosii_mail_msg/qsys/software/uCosii_bsp/\libucosii_bsp.a(alt_write.o)
                0x00009fbc                write
 .text          0x0000a0a8      0x118 F:/project/qsys_ucosii_mail_msg/qsys/software/uCosii_bsp/\libucosii_bsp.a(alt_env_lock.o)
                0x0000a0a8                __env_lock
                0x0000a160                __env_unlock
 .text          0x0000a1c0      0x1e8 F:/project/qsys_ucosii_mail_msg/qsys/software/uCosii_bsp/\libucosii_bsp.a(alt_malloc_lock.o)
                0x0000a1c0                __malloc_lock
                0x0000a2d4                __malloc_unlock
 .text          0x0000a3a8     0x2024 F:/project/qsys_ucosii_mail_msg/qsys/software/uCosii_bsp/\libucosii_bsp.a(os_core.o)
                0x0000a3a8                OSEventNameGet
                0x0000a4c8                OSEventNameSet
                0x0000a60c                OSEventPendMulti
                0x0000ac48                OSInit
                0x0000ac9c                OSIntEnter
                0x0000ad18                OSIntExit
                0x0000ae0c                OSSchedLock
                0x0000ae94                OSSchedUnlock
                0x0000af6c                OSStart
                0x0000afd8                OSStatInit
                0x0000b084                OSTimeTick
                0x0000b2a4                OSVersion
                0x0000b2c4                OS_Dummy
                0x0000b2e0                OS_EventTaskRdy
                0x0000b478                OS_EventTaskWait
                0x0000b580                OS_EventTaskWaitMulti
                0x0000b6c8                OS_EventTaskRemove
                0x0000b778                OS_EventTaskRemoveMulti
                0x0000b870                OS_EventWaitListInit
                0x0000bc3c                OS_MemClr
                0x0000bc90                OS_MemCopy
                0x0000bcfc                OS_Sched
                0x0000be38                OS_StrCopy
                0x0000beb4                OS_StrLen
                0x0000bf08                OS_TaskIdle
                0x0000bf64                OS_TaskStat
                0x0000c02c                OS_TaskStatStkChk
                0x0000c0f4                OS_TCBInit
 .text          0x0000c3cc      0x18c F:/project/qsys_ucosii_mail_msg/qsys/software/uCosii_bsp/\libucosii_bsp.a(os_dbg.o)
                0x0000c3cc                OSDebugInit
 .text          0x0000c558     0x1834 F:/project/qsys_ucosii_mail_msg/qsys/software/uCosii_bsp/\libucosii_bsp.a(os_flag.o)
                0x0000c558                OSFlagAccept
                0x0000c860                OSFlagCreate
                0x0000c988                OSFlagDel
                0x0000cbf8                OSFlagNameGet
                0x0000cd28                OSFlagNameSet
                0x0000ce7c                OSFlagPend
                0x0000d47c                OSFlagPendGetFlagsRdy
                0x0000d4e4                OSFlagPost
                0x0000d878                OSFlagQuery
                0x0000dafc                OS_FlagInit
                0x0000dcec                OS_FlagUnlink
 .text          0x0000dd8c      0xba0 F:/project/qsys_ucosii_mail_msg/qsys/software/uCosii_bsp/\libucosii_bsp.a(os_mbox.o)
                0x0000dd8c                OSMboxAccept
                0x0000de24                OSMboxCreate
                0x0000df20                OSMboxDel
                0x0000e190                OSMboxPend
                0x0000e434                OSMboxPendAbort
                0x0000e5a8                OSMboxPost
                0x0000e6b8                OSMboxPostOpt
                0x0000e814                OSMboxQuery
 .text          0x0000e92c      0x788 F:/project/qsys_ucosii_mail_msg/qsys/software/uCosii_bsp/\libucosii_bsp.a(os_mem.o)
                0x0000e92c                OSMemCreate
                0x0000eb20                OSMemGet
                0x0000ec10                OSMemNameGet
                0x0000ed08                OSMemNameSet
                0x0000ee24                OSMemPut
                0x0000eefc                OSMemQuery
                0x0000efe4                OS_MemInit
 .text          0x0000f0b4     0x1224 F:/project/qsys_ucosii_mail_msg/qsys/software/uCosii_bsp/\libucosii_bsp.a(os_q.o)
                0x0000f0b4                OSQAccept
                0x0000f1f4                OSQCreate
                0x0000f3ec                OSQDel
                0x0000f6bc                OSQFlush
                0x0000f774                OSQPend
                0x0000fa70                OSQPendAbort
                0x0000fbe4                OSQPost
                0x0000fd4c                OSQPostFront
                0x0000febc                OSQPostOpt
                0x000100c8                OSQQuery
                0x0001022c                OS_QInit
 .text          0x000102d8      0xb28 F:/project/qsys_ucosii_mail_msg/qsys/software/uCosii_bsp/\libucosii_bsp.a(os_sem.o)
                0x000102d8                OSSemAccept
                0x00010388                OSSemCreate
                0x00010488                OSSemDel
                0x000106f8                OSSemPend
                0x00010964                OSSemPendAbort
                0x00010ad8                OSSemPost
                0x00010be8                OSSemQuery
                0x00010d00                OSSemSet
 .text          0x00010e00     0x18ec F:/project/qsys_ucosii_mail_msg/qsys/software/uCosii_bsp/\libucosii_bsp.a(os_task.o)
                0x00010e00                OSTaskChangePrio
                0x00011328                OSTaskCreate
                0x000114e4                OSTaskCreateExt
                0x000116d8                OSTaskDel
                0x00011ab4                OSTaskDelReq
                0x00011c0c                OSTaskNameGet
                0x00011db4                OSTaskNameSet
                0x00011f78                OSTaskResume
                0x0001216c                OSTaskStkChk
                0x00012340                OSTaskSuspend
                0x00012550                OSTaskQuery
                0x0001267c                OS_TaskStkClr
 .text          0x000126ec      0x634 F:/project/qsys_ucosii_mail_msg/qsys/software/uCosii_bsp/\libucosii_bsp.a(os_time.o)
                0x000126ec                OSTimeDly
                0x00012834                OSTimeDlyHMSM
                0x00012a6c                OSTimeDlyResume
                0x00012c58                OSTimeGet
                0x00012cbc                OSTimeSet
 .text          0x00012d20       0xd8 F:/project/qsys_ucosii_mail_msg/qsys/software/uCosii_bsp/\libucosii_bsp.a(alt_sys_init.o)
                0x00012d58                alt_irq_init
                0x00012d8c                alt_sys_init
 .text          0x00012df8      0x990 F:/project/qsys_ucosii_mail_msg/qsys/software/uCosii_bsp/\libucosii_bsp.a(altera_avalon_epcs_flash_controller.o)
                0x00012e30                alt_epcs_flash_init
                0x000131f8                alt_epcs_flash_write
                0x00013458                alt_epcs_flash_get_info
                0x00013578                alt_epcs_flash_erase_block
                0x000135ec                alt_epcs_flash_write_block
                0x000136f0                alt_epcs_flash_read
 .text          0x00013788      0x164 F:/project/qsys_ucosii_mail_msg/qsys/software/uCosii_bsp/\libucosii_bsp.a(altera_avalon_jtag_uart_fd.o)
                0x00013788                altera_avalon_jtag_uart_read_fd
                0x000137e8                altera_avalon_jtag_uart_write_fd
                0x00013848                altera_avalon_jtag_uart_close_fd
                0x00013898                altera_avalon_jtag_uart_ioctl_fd
 .text          0x000138ec      0x55c F:/project/qsys_ucosii_mail_msg/qsys/software/uCosii_bsp/\libucosii_bsp.a(altera_avalon_jtag_uart_init.o)
                0x000138ec                altera_avalon_jtag_uart_init
                0x00013de0                altera_avalon_jtag_uart_close
 .text          0x00013e48       0xf4 F:/project/qsys_ucosii_mail_msg/qsys/software/uCosii_bsp/\libucosii_bsp.a(altera_avalon_jtag_uart_ioctl.o)
                0x00013e48                altera_avalon_jtag_uart_ioctl
 .text          0x00013f3c      0x2c4 F:/project/qsys_ucosii_mail_msg/qsys/software/uCosii_bsp/\libucosii_bsp.a(altera_avalon_jtag_uart_read.o)
                0x00013f3c                altera_avalon_jtag_uart_read
 .text          0x00014200      0x2d0 F:/project/qsys_ucosii_mail_msg/qsys/software/uCosii_bsp/\libucosii_bsp.a(altera_avalon_jtag_uart_write.o)
                0x00014200                altera_avalon_jtag_uart_write
 .text          0x000144d0       0xfc F:/project/qsys_ucosii_mail_msg/qsys/software/uCosii_bsp/\libucosii_bsp.a(altera_avalon_timer_sc.o)
                0x00014544                alt_avalon_timer_sc_init
 .text          0x000145cc      0x624 F:/project/qsys_ucosii_mail_msg/qsys/software/uCosii_bsp/\libucosii_bsp.a(epcs_commands.o)
                0x000145cc                epcs_read_status_register
                0x00014698                epcs_sector_erase
                0x00014790                epcs_read_buffer
                0x00014884                epcs_write_enable
                0x000148d4                epcs_write_status_register
                0x0001493c                epcs_write_buffer
                0x00014a58                epcs_read_electronic_signature
                0x00014ac0                epcs_read_device_id
                0x00014b40                epcs_enter_4_bytes_mode
                0x00014b98                epcs_exit_4_bytes_mode
 .text          0x00014bf0      0x140 F:/project/qsys_ucosii_mail_msg/qsys/software/uCosii_bsp/\libucosii_bsp.a(alt_alarm_start.o)
                0x00014bf0                alt_alarm_start
 .text          0x00014d30       0xf0 F:/project/qsys_ucosii_mail_msg/qsys/software/uCosii_bsp/\libucosii_bsp.a(alt_dev_llist_insert.o)
                0x00014d80                alt_dev_llist_insert
 .text          0x00014e20       0x5c F:/project/qsys_ucosii_mail_msg/qsys/software/uCosii_bsp/\libucosii_bsp.a(alt_do_ctors.o)
                0x00014e20                _do_ctors
 .text          0x00014e7c       0x5c F:/project/qsys_ucosii_mail_msg/qsys/software/uCosii_bsp/\libucosii_bsp.a(alt_do_dtors.o)
                0x00014e7c                _do_dtors
 .text          0x00014ed8       0xb8 F:/project/qsys_ucosii_mail_msg/qsys/software/uCosii_bsp/\libucosii_bsp.a(alt_flash_dev.o)
                0x00014ed8                alt_flash_open_dev
                0x00014f40                alt_flash_close_dev
 .text          0x00014f90      0x1d8 F:/project/qsys_ucosii_mail_msg/qsys/software/uCosii_bsp/\libucosii_bsp.a(alt_iic.o)
                0x00014f90                alt_ic_isr_register
                0x00014fe0                alt_ic_irq_enable
                0x0001507c                alt_ic_irq_disable
                0x0001511c                alt_ic_irq_enabled
 .text          0x00015168       0xf0 F:/project/qsys_ucosii_mail_msg/qsys/software/uCosii_bsp/\libucosii_bsp.a(alt_iic_isr_register.o)
                0x00015168                alt_iic_isr_register
 .text          0x00015258      0x138 F:/project/qsys_ucosii_mail_msg/qsys/software/uCosii_bsp/\libucosii_bsp.a(alt_io_redirect.o)
                0x00015318                alt_io_redirect
 .text          0x00015390        0x0 F:/project/qsys_ucosii_mail_msg/qsys/software/uCosii_bsp/\libucosii_bsp.a(alt_irq_entry.o)
 .text          0x00015390        0x0 F:/project/qsys_ucosii_mail_msg/qsys/software/uCosii_bsp/\libucosii_bsp.a(alt_irq_handler.o)
 .text          0x00015390        0x0 F:/project/qsys_ucosii_mail_msg/qsys/software/uCosii_bsp/\libucosii_bsp.a(alt_irq_vars.o)
 .text          0x00015390      0x270 F:/project/qsys_ucosii_mail_msg/qsys/software/uCosii_bsp/\libucosii_bsp.a(alt_open.o)
                0x000154ac                open
 .text          0x00015600      0x19c F:/project/qsys_ucosii_mail_msg/qsys/software/uCosii_bsp/\libucosii_bsp.a(alt_tick.o)
                0x00015600                alt_alarm_stop
                0x00015698                alt_tick
 .text          0x0001579c       0x20 F:/project/qsys_ucosii_mail_msg/qsys/software/uCosii_bsp/\libucosii_bsp.a(altera_nios2_qsys_irq.o)
                0x0001579c                altera_nios2_qsys_irq_init
 .text          0x000157bc       0xd0 F:/project/qsys_ucosii_mail_msg/qsys/software/uCosii_bsp/\libucosii_bsp.a(os_cpu_a.o)
                0x000157bc                OSCtxSw
                0x000157bc                OSIntCtxSw
                0x00015848                OSStartHighRdy
                0x00015868                OSStartTsk
 .text          0x0001588c      0x3fc F:/project/qsys_ucosii_mail_msg/qsys/software/uCosii_bsp/\libucosii_bsp.a(os_cpu_c.o)
                0x0001588c                OSTaskStkInit
                0x00015b80                OSTaskCreateHook
                0x00015ba0                OSTaskDelHook
                0x00015bc0                OSTaskSwHook
                0x00015bdc                OSTaskStatHook
                0x00015bf8                OSTimeTickHook
                0x00015c14                OSInitHookBegin
                0x00015c30                OSInitHookEnd
                0x00015c4c                OSTaskIdleHook
                0x00015c68                OSTCBInitHook
 .text          0x00015c88      0x208 F:/project/qsys_ucosii_mail_msg/qsys/software/uCosii_bsp/\libucosii_bsp.a(altera_avalon_spi.o)
                0x00015c88                alt_avalon_spi_command
 .text          0x00015e90        0x0 F:/project/qsys_ucosii_mail_msg/qsys/software/uCosii_bsp/\libucosii_bsp.a(alt_exception_entry.o)
 .text          0x00015e90       0x90 F:/project/qsys_ucosii_mail_msg/qsys/software/uCosii_bsp/\libucosii_bsp.a(alt_find_dev.o)
                0x00015e90                alt_find_dev
 .text          0x00015f20      0x114 F:/project/qsys_ucosii_mail_msg/qsys/software/uCosii_bsp/\libucosii_bsp.a(alt_find_file.o)
                0x00015f20                alt_find_file
 .text          0x00016034       0xfc F:/project/qsys_ucosii_mail_msg/qsys/software/uCosii_bsp/\libucosii_bsp.a(alt_get_fd.o)
                0x00016034                alt_get_fd
 .text          0x00016130       0x14 d:/altera/13.1/nios2eds/bin/gnu/h-i686-mingw32/bin/../lib/gcc/nios2-elf/4.7.3/../../../../../H-i686-mingw32/nios2-elf/lib\libc.a(lib_a-atexit.o)
                0x00016130                atexit
 .text          0x00016144       0x38 d:/altera/13.1/nios2eds/bin/gnu/h-i686-mingw32/bin/../lib/gcc/nios2-elf/4.7.3/../../../../../H-i686-mingw32/nios2-elf/lib\libc.a(lib_a-exit.o)
                0x00016144                exit
 .text          0x0001617c       0x7c d:/altera/13.1/nios2eds/bin/gnu/h-i686-mingw32/bin/../lib/gcc/nios2-elf/4.7.3/../../../../../H-i686-mingw32/nios2-elf/lib\libc.a(lib_a-memcmp.o)
                0x0001617c                memcmp
 .text          0x000161f8      0x130 d:/altera/13.1/nios2eds/bin/gnu/h-i686-mingw32/bin/../lib/gcc/nios2-elf/4.7.3/../../../../../H-i686-mingw32/nios2-elf/lib\libc.a(lib_a-__atexit.o)
                0x000161f8                __register_exitproc
 .text          0x00016328      0x1a0 d:/altera/13.1/nios2eds/bin/gnu/h-i686-mingw32/bin/../lib/gcc/nios2-elf/4.7.3/../../../../../H-i686-mingw32/nios2-elf/lib\libc.a(lib_a-__call_atexit.o)
                0x00016328                __call_exitprocs
 .text          0x000164c8       0x84 d:/altera/13.1/nios2eds/bin/gnu/h-i686-mingw32/bin/../lib/gcc/nios2-elf/4.7.3\libgcc.a(_fixunsdfsi.o)
                0x000164c8                __fixunsdfsi
 .text          0x0001654c       0x44 F:/project/qsys_ucosii_mail_msg/qsys/software/uCosii_bsp/\libucosii_bsp.a(alt_exit.o)
                0x0001654c                _exit
 *(.gnu.warning.*)
 *(.fini)
                0x00016590                PROVIDE (__etext, ABSOLUTE (.))
                0x00016590                PROVIDE (_etext, ABSOLUTE (.))
                0x00016590                PROVIDE (etext, ABSOLUTE (.))
 *(.eh_frame_hdr)
                0x00016590                . = ALIGN (0x4)
                0x00016590                PROVIDE (__preinit_array_start, ABSOLUTE (.))
 *(.preinit_array)
                0x00016590                PROVIDE (__preinit_array_end, ABSOLUTE (.))
                0x00016590                PROVIDE (__init_array_start, ABSOLUTE (.))
 *(.init_array)
                0x00016590                PROVIDE (__init_array_end, ABSOLUTE (.))
                0x00016590                PROVIDE (__fini_array_start, ABSOLUTE (.))
 *(.fini_array)
                0x00016590                PROVIDE (__fini_array_end, ABSOLUTE (.))
 *(.eh_frame)
 *(.gcc_except_table .gcc_except_table.*)
 *(.dynamic)
                0x00016590                PROVIDE (__CTOR_LIST__, ABSOLUTE (.))
 *(.ctors)
 *(SORT(.ctors.*))
                0x00016590                PROVIDE (__CTOR_END__, ABSOLUTE (.))
                0x00016590                PROVIDE (__DTOR_LIST__, ABSOLUTE (.))
 *(.dtors)
 *(SORT(.dtors.*))
                0x00016590                PROVIDE (__DTOR_END__, ABSOLUTE (.))
 *(.jcr)
                0x00016590                . = ALIGN (0x4)

.rodata         0x00016590      0x4b4
                0x00016590                PROVIDE (__ram_rodata_start, ABSOLUTE (.))
                0x00016590                . = ALIGN (0x4)
 *(.rodata .rodata.* .gnu.linkonce.r.*)
 .rodata        0x00016590       0x68 obj/default/ucosii_mail_msg.o
 .rodata.str1.4
                0x000165f8       0x42 d:/altera/13.1/nios2eds/bin/gnu/h-i686-mingw32/bin/../lib/gcc/nios2-elf/4.7.3/../../../../../H-i686-mingw32/nios2-elf/lib\libc.a(lib_a-vfprintf.o)
                                 0x44 (size before relaxing)
 .rodata        0x0001663a       0x20 d:/altera/13.1/nios2eds/bin/gnu/h-i686-mingw32/bin/../lib/gcc/nios2-elf/4.7.3/../../../../../H-i686-mingw32/nios2-elf/lib\libc.a(lib_a-vfprintf.o)
 *fill*         0x0001665a        0x2 
 .rodata.str1.4
                0x0001665c       0x10 d:/altera/13.1/nios2eds/bin/gnu/h-i686-mingw32/bin/../lib/gcc/nios2-elf/4.7.3/../../../../../H-i686-mingw32/nios2-elf/lib\libc.a(lib_a-dtoa.o)
                                 0x14 (size before relaxing)
 .rodata.str1.4
                0x0001666c        0x2 d:/altera/13.1/nios2eds/bin/gnu/h-i686-mingw32/bin/../lib/gcc/nios2-elf/4.7.3/../../../../../H-i686-mingw32/nios2-elf/lib\libc.a(lib_a-impure.o)
                                  0x4 (size before relaxing)
 *fill*         0x0001666e        0x2 
 .rodata.str1.4
                0x00016670       0x10 d:/altera/13.1/nios2eds/bin/gnu/h-i686-mingw32/bin/../lib/gcc/nios2-elf/4.7.3/../../../../../H-i686-mingw32/nios2-elf/lib\libc.a(lib_a-locale.o)
                                 0x18 (size before relaxing)
 .rodata        0x00016680       0x30 d:/altera/13.1/nios2eds/bin/gnu/h-i686-mingw32/bin/../lib/gcc/nios2-elf/4.7.3/../../../../../H-i686-mingw32/nios2-elf/lib\libc.a(lib_a-locale.o)
 .rodata        0x000166b0      0x124 d:/altera/13.1/nios2eds/bin/gnu/h-i686-mingw32/bin/../lib/gcc/nios2-elf/4.7.3/../../../../../H-i686-mingw32/nios2-elf/lib\libc.a(lib_a-mprec.o)
                0x000166b0                __mprec_tinytens
                0x000166d8                __mprec_bigtens
                0x00016700                __mprec_tens
 .rodata        0x000167d4       0x14 d:/altera/13.1/nios2eds/bin/gnu/h-i686-mingw32/bin/../lib/gcc/nios2-elf/4.7.3\libgcc.a(_thenan_df.o)
                0x000167d4                __thenan_df
 .rodata        0x000167e8      0x100 d:/altera/13.1/nios2eds/bin/gnu/h-i686-mingw32/bin/../lib/gcc/nios2-elf/4.7.3\libgcc.a(_clz.o)
                0x000167e8                __clz_tab
 .rodata        0x000168e8        0xc F:/project/qsys_ucosii_mail_msg/qsys/software/uCosii_bsp/\libucosii_bsp.a(alt_dev.o)
 .rodata        0x000168f4       0x10 F:/project/qsys_ucosii_mail_msg/qsys/software/uCosii_bsp/\libucosii_bsp.a(alt_main.o)
 .rodata        0x00016904      0x120 F:/project/qsys_ucosii_mail_msg/qsys/software/uCosii_bsp/\libucosii_bsp.a(os_core.o)
                0x00016904                OSUnMapTbl
 .rodata        0x00016a24       0x1c F:/project/qsys_ucosii_mail_msg/qsys/software/uCosii_bsp/\libucosii_bsp.a(alt_sys_init.o)
 .rodata        0x00016a40        0x4 F:/project/qsys_ucosii_mail_msg/qsys/software/uCosii_bsp/\libucosii_bsp.a(os_cpu_c.o)
 *(.rodata1)
                0x00016a44                . = ALIGN (0x4)
                0x00016a44                PROVIDE (__ram_rodata_end, ABSOLUTE (.))
                0x00016590                PROVIDE (__flash_rodata_start, LOADADDR (.rodata))

.rwdata         0x00016a44     0x1bd8
                0x00016a44                PROVIDE (__ram_rwdata_start, ABSOLUTE (.))
                0x00016a44                . = ALIGN (0x4)
 *(.got.plt)
 *(.got)
 *(.data1)
 *(.data .data.* .gnu.linkonce.d.*)
 .data          0x00016a44        0x0 F:/project/qsys_ucosii_mail_msg/qsys/software/uCosii_bsp//obj/HAL/src/crt0.o
 .data          0x00016a44       0x28 obj/default/ucosii_mail_msg.o
                0x00016a44                data_arr
 .data          0x00016a6c        0x0 d:/altera/13.1/nios2eds/bin/gnu/h-i686-mingw32/bin/../lib/gcc/nios2-elf/4.7.3/../../../../../H-i686-mingw32/nios2-elf/lib\libc.a(lib_a-printf.o)
 .data          0x00016a6c        0x0 d:/altera/13.1/nios2eds/bin/gnu/h-i686-mingw32/bin/../lib/gcc/nios2-elf/4.7.3/../../../../../H-i686-mingw32/nios2-elf/lib\libc.a(lib_a-vfprintf.o)
 .data          0x00016a6c        0x0 d:/altera/13.1/nios2eds/bin/gnu/h-i686-mingw32/bin/../lib/gcc/nios2-elf/4.7.3/../../../../../H-i686-mingw32/nios2-elf/lib\libc.a(lib_a-wsetup.o)
 .data          0x00016a6c        0x0 d:/altera/13.1/nios2eds/bin/gnu/h-i686-mingw32/bin/../lib/gcc/nios2-elf/4.7.3/../../../../../H-i686-mingw32/nios2-elf/lib\libc.a(lib_a-dtoa.o)
 .data          0x00016a6c        0x0 d:/altera/13.1/nios2eds/bin/gnu/h-i686-mingw32/bin/../lib/gcc/nios2-elf/4.7.3/../../../../../H-i686-mingw32/nios2-elf/lib\libc.a(lib_a-fflush.o)
 .data          0x00016a6c        0x0 d:/altera/13.1/nios2eds/bin/gnu/h-i686-mingw32/bin/../lib/gcc/nios2-elf/4.7.3/../../../../../H-i686-mingw32/nios2-elf/lib\libc.a(lib_a-findfp.o)
 .data          0x00016a6c        0x0 d:/altera/13.1/nios2eds/bin/gnu/h-i686-mingw32/bin/../lib/gcc/nios2-elf/4.7.3/../../../../../H-i686-mingw32/nios2-elf/lib\libc.a(lib_a-freer.o)
 .data          0x00016a6c        0x0 d:/altera/13.1/nios2eds/bin/gnu/h-i686-mingw32/bin/../lib/gcc/nios2-elf/4.7.3/../../../../../H-i686-mingw32/nios2-elf/lib\libc.a(lib_a-fvwrite.o)
 .data          0x00016a6c        0x0 d:/altera/13.1/nios2eds/bin/gnu/h-i686-mingw32/bin/../lib/gcc/nios2-elf/4.7.3/../../../../../H-i686-mingw32/nios2-elf/lib\libc.a(lib_a-fwalk.o)
 .data          0x00016a6c      0x400 d:/altera/13.1/nios2eds/bin/gnu/h-i686-mingw32/bin/../lib/gcc/nios2-elf/4.7.3/../../../../../H-i686-mingw32/nios2-elf/lib\libc.a(lib_a-impure.o)
 .data          0x00016e6c        0xc d:/altera/13.1/nios2eds/bin/gnu/h-i686-mingw32/bin/../lib/gcc/nios2-elf/4.7.3/../../../../../H-i686-mingw32/nios2-elf/lib\libc.a(lib_a-locale.o)
                0x00016e6c                __lc_ctype
 .data          0x00016e78        0x0 d:/altera/13.1/nios2eds/bin/gnu/h-i686-mingw32/bin/../lib/gcc/nios2-elf/4.7.3/../../../../../H-i686-mingw32/nios2-elf/lib\libc.a(lib_a-makebuf.o)
 .data          0x00016e78      0x408 d:/altera/13.1/nios2eds/bin/gnu/h-i686-mingw32/bin/../lib/gcc/nios2-elf/4.7.3/../../../../../H-i686-mingw32/nios2-elf/lib\libc.a(lib_a-mallocr.o)
                0x00016e78                __malloc_av_
 .data          0x00017280        0x0 d:/altera/13.1/nios2eds/bin/gnu/h-i686-mingw32/bin/../lib/gcc/nios2-elf/4.7.3/../../../../../H-i686-mingw32/nios2-elf/lib\libc.a(lib_a-memchr.o)
 .data          0x00017280        0x0 d:/altera/13.1/nios2eds/bin/gnu/h-i686-mingw32/bin/../lib/gcc/nios2-elf/4.7.3/../../../../../H-i686-mingw32/nios2-elf/lib\libc.a(lib_a-memcpy.o)
 .data          0x00017280        0x0 d:/altera/13.1/nios2eds/bin/gnu/h-i686-mingw32/bin/../lib/gcc/nios2-elf/4.7.3/../../../../../H-i686-mingw32/nios2-elf/lib\libc.a(lib_a-memmove.o)
 .data          0x00017280        0x0 d:/altera/13.1/nios2eds/bin/gnu/h-i686-mingw32/bin/../lib/gcc/nios2-elf/4.7.3/../../../../../H-i686-mingw32/nios2-elf/lib\libc.a(lib_a-memset.o)
 .data          0x00017280        0x0 d:/altera/13.1/nios2eds/bin/gnu/h-i686-mingw32/bin/../lib/gcc/nios2-elf/4.7.3/../../../../../H-i686-mingw32/nios2-elf/lib\libc.a(lib_a-mprec.o)
 .data          0x00017280        0x0 d:/altera/13.1/nios2eds/bin/gnu/h-i686-mingw32/bin/../lib/gcc/nios2-elf/4.7.3/../../../../../H-i686-mingw32/nios2-elf/lib\libc.a(lib_a-reallocr.o)
 .data          0x00017280        0x0 d:/altera/13.1/nios2eds/bin/gnu/h-i686-mingw32/bin/../lib/gcc/nios2-elf/4.7.3/../../../../../H-i686-mingw32/nios2-elf/lib\libc.a(lib_a-s_isinfd.o)
 .data          0x00017280        0x0 d:/altera/13.1/nios2eds/bin/gnu/h-i686-mingw32/bin/../lib/gcc/nios2-elf/4.7.3/../../../../../H-i686-mingw32/nios2-elf/lib\libc.a(lib_a-s_isnand.o)
 .data          0x00017280        0x0 d:/altera/13.1/nios2eds/bin/gnu/h-i686-mingw32/bin/../lib/gcc/nios2-elf/4.7.3/../../../../../H-i686-mingw32/nios2-elf/lib\libc.a(lib_a-sbrkr.o)
 .data          0x00017280        0x0 d:/altera/13.1/nios2eds/bin/gnu/h-i686-mingw32/bin/../lib/gcc/nios2-elf/4.7.3/../../../../../H-i686-mingw32/nios2-elf/lib\libc.a(lib_a-stdio.o)
 .data          0x00017280        0x0 d:/altera/13.1/nios2eds/bin/gnu/h-i686-mingw32/bin/../lib/gcc/nios2-elf/4.7.3/../../../../../H-i686-mingw32/nios2-elf/lib\libc.a(lib_a-strcmp.o)
 .data          0x00017280        0x0 d:/altera/13.1/nios2eds/bin/gnu/h-i686-mingw32/bin/../lib/gcc/nios2-elf/4.7.3/../../../../../H-i686-mingw32/nios2-elf/lib\libc.a(lib_a-strlen.o)
 .data          0x00017280        0x0 d:/altera/13.1/nios2eds/bin/gnu/h-i686-mingw32/bin/../lib/gcc/nios2-elf/4.7.3/../../../../../H-i686-mingw32/nios2-elf/lib\libc.a(lib_a-writer.o)
 .data          0x00017280        0x0 d:/altera/13.1/nios2eds/bin/gnu/h-i686-mingw32/bin/../lib/gcc/nios2-elf/4.7.3/../../../../../H-i686-mingw32/nios2-elf/lib\libc.a(lib_a-callocr.o)
 .data          0x00017280        0x0 d:/altera/13.1/nios2eds/bin/gnu/h-i686-mingw32/bin/../lib/gcc/nios2-elf/4.7.3/../../../../../H-i686-mingw32/nios2-elf/lib\libc.a(lib_a-closer.o)
 .data          0x00017280        0x0 d:/altera/13.1/nios2eds/bin/gnu/h-i686-mingw32/bin/../lib/gcc/nios2-elf/4.7.3/../../../../../H-i686-mingw32/nios2-elf/lib\libc.a(lib_a-fclose.o)
 .data          0x00017280        0x0 d:/altera/13.1/nios2eds/bin/gnu/h-i686-mingw32/bin/../lib/gcc/nios2-elf/4.7.3/../../../../../H-i686-mingw32/nios2-elf/lib\libc.a(lib_a-fstatr.o)
 .data          0x00017280        0x0 d:/altera/13.1/nios2eds/bin/gnu/h-i686-mingw32/bin/../lib/gcc/nios2-elf/4.7.3/../../../../../H-i686-mingw32/nios2-elf/lib\libc.a(lib_a-int_errno.o)
 .data          0x00017280        0x0 d:/altera/13.1/nios2eds/bin/gnu/h-i686-mingw32/bin/../lib/gcc/nios2-elf/4.7.3/../../../../../H-i686-mingw32/nios2-elf/lib\libc.a(lib_a-isattyr.o)
 .data          0x00017280        0x0 d:/altera/13.1/nios2eds/bin/gnu/h-i686-mingw32/bin/../lib/gcc/nios2-elf/4.7.3/../../../../../H-i686-mingw32/nios2-elf/lib\libc.a(lib_a-lseekr.o)
 .data          0x00017280        0x0 d:/altera/13.1/nios2eds/bin/gnu/h-i686-mingw32/bin/../lib/gcc/nios2-elf/4.7.3/../../../../../H-i686-mingw32/nios2-elf/lib\libc.a(lib_a-readr.o)
 .data          0x00017280        0x0 d:/altera/13.1/nios2eds/bin/gnu/h-i686-mingw32/bin/../lib/gcc/nios2-elf/4.7.3\libgcc.a(_udivdi3.o)
 .data          0x00017280        0x0 d:/altera/13.1/nios2eds/bin/gnu/h-i686-mingw32/bin/../lib/gcc/nios2-elf/4.7.3\libgcc.a(_umoddi3.o)
 .data          0x00017280        0x0 d:/altera/13.1/nios2eds/bin/gnu/h-i686-mingw32/bin/../lib/gcc/nios2-elf/4.7.3\libgcc.a(_addsub_df.o)
 .data          0x00017280        0x0 d:/altera/13.1/nios2eds/bin/gnu/h-i686-mingw32/bin/../lib/gcc/nios2-elf/4.7.3\libgcc.a(_mul_df.o)
 .data          0x00017280        0x0 d:/altera/13.1/nios2eds/bin/gnu/h-i686-mingw32/bin/../lib/gcc/nios2-elf/4.7.3\libgcc.a(_div_df.o)
 .data          0x00017280        0x0 d:/altera/13.1/nios2eds/bin/gnu/h-i686-mingw32/bin/../lib/gcc/nios2-elf/4.7.3\libgcc.a(_eq_df.o)
 .data          0x00017280        0x0 d:/altera/13.1/nios2eds/bin/gnu/h-i686-mingw32/bin/../lib/gcc/nios2-elf/4.7.3\libgcc.a(_ne_df.o)
 .data          0x00017280        0x0 d:/altera/13.1/nios2eds/bin/gnu/h-i686-mingw32/bin/../lib/gcc/nios2-elf/4.7.3\libgcc.a(_gt_df.o)
 .data          0x00017280        0x0 d:/altera/13.1/nios2eds/bin/gnu/h-i686-mingw32/bin/../lib/gcc/nios2-elf/4.7.3\libgcc.a(_ge_df.o)
 .data          0x00017280        0x0 d:/altera/13.1/nios2eds/bin/gnu/h-i686-mingw32/bin/../lib/gcc/nios2-elf/4.7.3\libgcc.a(_lt_df.o)
 .data          0x00017280        0x0 d:/altera/13.1/nios2eds/bin/gnu/h-i686-mingw32/bin/../lib/gcc/nios2-elf/4.7.3\libgcc.a(_si_to_df.o)
 .data          0x00017280        0x0 d:/altera/13.1/nios2eds/bin/gnu/h-i686-mingw32/bin/../lib/gcc/nios2-elf/4.7.3\libgcc.a(_df_to_si.o)
 .data          0x00017280        0x0 d:/altera/13.1/nios2eds/bin/gnu/h-i686-mingw32/bin/../lib/gcc/nios2-elf/4.7.3\libgcc.a(_thenan_df.o)
 .data          0x00017280        0x0 d:/altera/13.1/nios2eds/bin/gnu/h-i686-mingw32/bin/../lib/gcc/nios2-elf/4.7.3\libgcc.a(_usi_to_df.o)
 .data          0x00017280        0x0 d:/altera/13.1/nios2eds/bin/gnu/h-i686-mingw32/bin/../lib/gcc/nios2-elf/4.7.3\libgcc.a(lib2-divmod.o)
 .data          0x00017280        0x0 d:/altera/13.1/nios2eds/bin/gnu/h-i686-mingw32/bin/../lib/gcc/nios2-elf/4.7.3\libgcc.a(_muldi3.o)
 .data          0x00017280        0x0 d:/altera/13.1/nios2eds/bin/gnu/h-i686-mingw32/bin/../lib/gcc/nios2-elf/4.7.3\libgcc.a(_clz.o)
 .data          0x00017280        0x0 d:/altera/13.1/nios2eds/bin/gnu/h-i686-mingw32/bin/../lib/gcc/nios2-elf/4.7.3\libgcc.a(_clzsi2.o)
 .data          0x00017280        0x0 d:/altera/13.1/nios2eds/bin/gnu/h-i686-mingw32/bin/../lib/gcc/nios2-elf/4.7.3\libgcc.a(_pack_df.o)
 .data          0x00017280        0x0 d:/altera/13.1/nios2eds/bin/gnu/h-i686-mingw32/bin/../lib/gcc/nios2-elf/4.7.3\libgcc.a(_unpack_df.o)
 .data          0x00017280        0x0 d:/altera/13.1/nios2eds/bin/gnu/h-i686-mingw32/bin/../lib/gcc/nios2-elf/4.7.3\libgcc.a(_fpcmp_parts_df.o)
 .data          0x00017280        0x0 d:/altera/13.1/nios2eds/bin/gnu/h-i686-mingw32/bin/../lib/gcc/nios2-elf/4.7.3\libgcc.a(_lshrdi3.o)
 .data          0x00017280        0x0 d:/altera/13.1/nios2eds/bin/gnu/h-i686-mingw32/bin/../lib/gcc/nios2-elf/4.7.3\libgcc.a(_ashldi3.o)
 .data          0x00017280        0x0 F:/project/qsys_ucosii_mail_msg/qsys/software/uCosii_bsp/\libucosii_bsp.a(alt_close.o)
 .data          0x00017280      0x1a8 F:/project/qsys_ucosii_mail_msg/qsys/software/uCosii_bsp/\libucosii_bsp.a(alt_dev.o)
                0x00017280                alt_dev_null
                0x000172a8                alt_fd_list
 .data          0x00017428        0x0 F:/project/qsys_ucosii_mail_msg/qsys/software/uCosii_bsp/\libucosii_bsp.a(alt_errno.o)
 .data          0x00017428        0x0 F:/project/qsys_ucosii_mail_msg/qsys/software/uCosii_bsp/\libucosii_bsp.a(alt_fstat.o)
 .data          0x00017428        0x0 F:/project/qsys_ucosii_mail_msg/qsys/software/uCosii_bsp/\libucosii_bsp.a(alt_isatty.o)
 .data          0x00017428        0x0 F:/project/qsys_ucosii_mail_msg/qsys/software/uCosii_bsp/\libucosii_bsp.a(alt_lseek.o)
 .data          0x00017428        0x0 F:/project/qsys_ucosii_mail_msg/qsys/software/uCosii_bsp/\libucosii_bsp.a(alt_main.o)
 .data          0x00017428        0x0 F:/project/qsys_ucosii_mail_msg/qsys/software/uCosii_bsp/\libucosii_bsp.a(alt_read.o)
 .data          0x00017428        0x0 F:/project/qsys_ucosii_mail_msg/qsys/software/uCosii_bsp/\libucosii_bsp.a(alt_release_fd.o)
 .data          0x00017428        0x0 F:/project/qsys_ucosii_mail_msg/qsys/software/uCosii_bsp/\libucosii_bsp.a(alt_sbrk.o)
 .data          0x00017428        0x0 F:/project/qsys_ucosii_mail_msg/qsys/software/uCosii_bsp/\libucosii_bsp.a(alt_write.o)
 .data          0x00017428        0x0 F:/project/qsys_ucosii_mail_msg/qsys/software/uCosii_bsp/\libucosii_bsp.a(alt_env_lock.o)
 .data          0x00017428        0x0 F:/project/qsys_ucosii_mail_msg/qsys/software/uCosii_bsp/\libucosii_bsp.a(alt_malloc_lock.o)
 .data          0x00017428        0x0 F:/project/qsys_ucosii_mail_msg/qsys/software/uCosii_bsp/\libucosii_bsp.a(os_core.o)
 .data          0x00017428        0x0 F:/project/qsys_ucosii_mail_msg/qsys/software/uCosii_bsp/\libucosii_bsp.a(os_dbg.o)
 .data          0x00017428        0x0 F:/project/qsys_ucosii_mail_msg/qsys/software/uCosii_bsp/\libucosii_bsp.a(os_flag.o)
 .data          0x00017428        0x0 F:/project/qsys_ucosii_mail_msg/qsys/software/uCosii_bsp/\libucosii_bsp.a(os_mbox.o)
 .data          0x00017428        0x0 F:/project/qsys_ucosii_mail_msg/qsys/software/uCosii_bsp/\libucosii_bsp.a(os_mem.o)
 .data          0x00017428        0x0 F:/project/qsys_ucosii_mail_msg/qsys/software/uCosii_bsp/\libucosii_bsp.a(os_q.o)
 .data          0x00017428        0x0 F:/project/qsys_ucosii_mail_msg/qsys/software/uCosii_bsp/\libucosii_bsp.a(os_sem.o)
 .data          0x00017428        0x0 F:/project/qsys_ucosii_mail_msg/qsys/software/uCosii_bsp/\libucosii_bsp.a(os_task.o)
 .data          0x00017428        0x0 F:/project/qsys_ucosii_mail_msg/qsys/software/uCosii_bsp/\libucosii_bsp.a(os_time.o)
 .data          0x00017428     0x1134 F:/project/qsys_ucosii_mail_msg/qsys/software/uCosii_bsp/\libucosii_bsp.a(alt_sys_init.o)
 .data          0x0001855c        0x0 F:/project/qsys_ucosii_mail_msg/qsys/software/uCosii_bsp/\libucosii_bsp.a(altera_avalon_epcs_flash_controller.o)
 .data          0x0001855c        0x0 F:/project/qsys_ucosii_mail_msg/qsys/software/uCosii_bsp/\libucosii_bsp.a(altera_avalon_jtag_uart_fd.o)
 .data          0x0001855c        0x0 F:/project/qsys_ucosii_mail_msg/qsys/software/uCosii_bsp/\libucosii_bsp.a(altera_avalon_jtag_uart_init.o)
 .data          0x0001855c        0x0 F:/project/qsys_ucosii_mail_msg/qsys/software/uCosii_bsp/\libucosii_bsp.a(altera_avalon_jtag_uart_ioctl.o)
 .data          0x0001855c        0x0 F:/project/qsys_ucosii_mail_msg/qsys/software/uCosii_bsp/\libucosii_bsp.a(altera_avalon_jtag_uart_read.o)
 .data          0x0001855c        0x0 F:/project/qsys_ucosii_mail_msg/qsys/software/uCosii_bsp/\libucosii_bsp.a(altera_avalon_jtag_uart_write.o)
 .data          0x0001855c        0x0 F:/project/qsys_ucosii_mail_msg/qsys/software/uCosii_bsp/\libucosii_bsp.a(altera_avalon_timer_sc.o)
 .data          0x0001855c        0x0 F:/project/qsys_ucosii_mail_msg/qsys/software/uCosii_bsp/\libucosii_bsp.a(epcs_commands.o)
 .data          0x0001855c        0x0 F:/project/qsys_ucosii_mail_msg/qsys/software/uCosii_bsp/\libucosii_bsp.a(alt_alarm_start.o)
 .data          0x0001855c        0x0 F:/project/qsys_ucosii_mail_msg/qsys/software/uCosii_bsp/\libucosii_bsp.a(alt_dev_llist_insert.o)
 .data          0x0001855c        0x0 F:/project/qsys_ucosii_mail_msg/qsys/software/uCosii_bsp/\libucosii_bsp.a(alt_do_ctors.o)
 .data          0x0001855c        0x0 F:/project/qsys_ucosii_mail_msg/qsys/software/uCosii_bsp/\libucosii_bsp.a(alt_do_dtors.o)
 .data          0x0001855c        0x0 F:/project/qsys_ucosii_mail_msg/qsys/software/uCosii_bsp/\libucosii_bsp.a(alt_flash_dev.o)
 .data          0x0001855c        0x0 F:/project/qsys_ucosii_mail_msg/qsys/software/uCosii_bsp/\libucosii_bsp.a(alt_iic.o)
 .data          0x0001855c        0x0 F:/project/qsys_ucosii_mail_msg/qsys/software/uCosii_bsp/\libucosii_bsp.a(alt_iic_isr_register.o)
 .data          0x0001855c        0x0 F:/project/qsys_ucosii_mail_msg/qsys/software/uCosii_bsp/\libucosii_bsp.a(alt_io_redirect.o)
 .data          0x0001855c        0x0 F:/project/qsys_ucosii_mail_msg/qsys/software/uCosii_bsp/\libucosii_bsp.a(alt_irq_entry.o)
 .data          0x0001855c        0x0 F:/project/qsys_ucosii_mail_msg/qsys/software/uCosii_bsp/\libucosii_bsp.a(alt_irq_handler.o)
 .data          0x0001855c        0x0 F:/project/qsys_ucosii_mail_msg/qsys/software/uCosii_bsp/\libucosii_bsp.a(alt_irq_vars.o)
 .data          0x0001855c        0x0 F:/project/qsys_ucosii_mail_msg/qsys/software/uCosii_bsp/\libucosii_bsp.a(alt_open.o)
 .data          0x0001855c        0x0 F:/project/qsys_ucosii_mail_msg/qsys/software/uCosii_bsp/\libucosii_bsp.a(alt_tick.o)
 .data          0x0001855c        0x0 F:/project/qsys_ucosii_mail_msg/qsys/software/uCosii_bsp/\libucosii_bsp.a(altera_nios2_qsys_irq.o)
 .data          0x0001855c        0x0 F:/project/qsys_ucosii_mail_msg/qsys/software/uCosii_bsp/\libucosii_bsp.a(os_cpu_a.o)
 .data          0x0001855c        0x0 F:/project/qsys_ucosii_mail_msg/qsys/software/uCosii_bsp/\libucosii_bsp.a(os_cpu_c.o)
 .data          0x0001855c        0x0 F:/project/qsys_ucosii_mail_msg/qsys/software/uCosii_bsp/\libucosii_bsp.a(altera_avalon_spi.o)
 .data          0x0001855c        0x0 F:/project/qsys_ucosii_mail_msg/qsys/software/uCosii_bsp/\libucosii_bsp.a(alt_exception_entry.o)
 .data          0x0001855c        0x0 F:/project/qsys_ucosii_mail_msg/qsys/software/uCosii_bsp/\libucosii_bsp.a(alt_find_dev.o)
 .data          0x0001855c        0x0 F:/project/qsys_ucosii_mail_msg/qsys/software/uCosii_bsp/\libucosii_bsp.a(alt_find_file.o)
 .data          0x0001855c        0x0 F:/project/qsys_ucosii_mail_msg/qsys/software/uCosii_bsp/\libucosii_bsp.a(alt_get_fd.o)
 .data          0x0001855c        0x0 d:/altera/13.1/nios2eds/bin/gnu/h-i686-mingw32/bin/../lib/gcc/nios2-elf/4.7.3/../../../../../H-i686-mingw32/nios2-elf/lib\libc.a(lib_a-atexit.o)
 .data          0x0001855c        0x0 d:/altera/13.1/nios2eds/bin/gnu/h-i686-mingw32/bin/../lib/gcc/nios2-elf/4.7.3/../../../../../H-i686-mingw32/nios2-elf/lib\libc.a(lib_a-exit.o)
 .data          0x0001855c        0x0 d:/altera/13.1/nios2eds/bin/gnu/h-i686-mingw32/bin/../lib/gcc/nios2-elf/4.7.3/../../../../../H-i686-mingw32/nios2-elf/lib\libc.a(lib_a-memcmp.o)
 .data          0x0001855c        0x0 d:/altera/13.1/nios2eds/bin/gnu/h-i686-mingw32/bin/../lib/gcc/nios2-elf/4.7.3/../../../../../H-i686-mingw32/nios2-elf/lib\libc.a(lib_a-__atexit.o)
 .data          0x0001855c        0x0 d:/altera/13.1/nios2eds/bin/gnu/h-i686-mingw32/bin/../lib/gcc/nios2-elf/4.7.3/../../../../../H-i686-mingw32/nios2-elf/lib\libc.a(lib_a-__call_atexit.o)
 .data          0x0001855c        0x0 d:/altera/13.1/nios2eds/bin/gnu/h-i686-mingw32/bin/../lib/gcc/nios2-elf/4.7.3\libgcc.a(_fixunsdfsi.o)
 .data          0x0001855c        0x0 F:/project/qsys_ucosii_mail_msg/qsys/software/uCosii_bsp/\libucosii_bsp.a(alt_exit.o)
                0x0002055c                _gp = ABSOLUTE ((. + 0x8000))
                0x0002055c                PROVIDE (gp, _gp)
 *(.rwdata .rwdata.*)
 *(.sdata .sdata.* .gnu.linkonce.s.*)
 .sdata         0x0001855c        0x8 d:/altera/13.1/nios2eds/bin/gnu/h-i686-mingw32/bin/../lib/gcc/nios2-elf/4.7.3/../../../../../H-i686-mingw32/nios2-elf/lib\libc.a(lib_a-impure.o)
                0x0001855c                _global_impure_ptr
                0x00018560                _impure_ptr
 .sdata         0x00018564        0x4 d:/altera/13.1/nios2eds/bin/gnu/h-i686-mingw32/bin/../lib/gcc/nios2-elf/4.7.3/../../../../../H-i686-mingw32/nios2-elf/lib\libc.a(lib_a-locale.o)
                0x00018564                __mb_cur_max
 .sdata         0x00018568        0x8 d:/altera/13.1/nios2eds/bin/gnu/h-i686-mingw32/bin/../lib/gcc/nios2-elf/4.7.3/../../../../../H-i686-mingw32/nios2-elf/lib\libc.a(lib_a-mallocr.o)
                0x00018568                __malloc_sbrk_base
                0x0001856c                __malloc_trim_threshold
 .sdata         0x00018570       0x14 F:/project/qsys_ucosii_mail_msg/qsys/software/uCosii_bsp/\libucosii_bsp.a(alt_dev.o)
                0x00018570                alt_fs_list
                0x00018578                alt_dev_list
                0x00018580                alt_max_fd
 .sdata         0x00018584        0x4 F:/project/qsys_ucosii_mail_msg/qsys/software/uCosii_bsp/\libucosii_bsp.a(alt_errno.o)
                0x00018584                alt_errno
 .sdata         0x00018588        0x4 F:/project/qsys_ucosii_mail_msg/qsys/software/uCosii_bsp/\libucosii_bsp.a(alt_sbrk.o)
 .sdata         0x0001858c        0x4 F:/project/qsys_ucosii_mail_msg/qsys/software/uCosii_bsp/\libucosii_bsp.a(alt_env_lock.o)
 .sdata         0x00018590        0x4 F:/project/qsys_ucosii_mail_msg/qsys/software/uCosii_bsp/\libucosii_bsp.a(alt_malloc_lock.o)
 .sdata         0x00018594       0x74 F:/project/qsys_ucosii_mail_msg/qsys/software/uCosii_bsp/\libucosii_bsp.a(os_dbg.o)
                0x00018594                OSDebugEn
                0x00018598                OSEndiannessTest
                0x0001859c                OSEventEn
                0x0001859e                OSEventMax
                0x000185a0                OSEventNameSize
                0x000185a2                OSEventSize
                0x000185a4                OSEventTblSize
                0x000185a6                OSEventMultiEn
                0x000185a8                OSFlagEn
                0x000185aa                OSFlagGrpSize
                0x000185ac                OSFlagNodeSize
                0x000185ae                OSFlagWidth
                0x000185b0                OSFlagMax
                0x000185b2                OSFlagNameSize
                0x000185b4                OSLowestPrio
                0x000185b6                OSMboxEn
                0x000185b8                OSMemEn
                0x000185ba                OSMemMax
                0x000185bc                OSMemNameSize
                0x000185be                OSMemSize
                0x000185c0                OSMemTblSize
                0x000185c2                OSMutexEn
                0x000185c4                OSPtrSize
                0x000185c6                OSQEn
                0x000185c8                OSQMax
                0x000185ca                OSQSize
                0x000185cc                OSRdyTblSize
                0x000185ce                OSSemEn
                0x000185d0                OSStkWidth
                0x000185d2                OSTaskCreateEn
                0x000185d4                OSTaskCreateExtEn
                0x000185d6                OSTaskDelEn
                0x000185d8                OSTaskIdleStkSize
                0x000185da                OSTaskProfileEn
                0x000185dc                OSTaskMax
                0x000185de                OSTaskNameSize
                0x000185e0                OSTaskStatEn
                0x000185e2                OSTaskStatStkSize
                0x000185e4                OSTaskStatStkChkEn
                0x000185e6                OSTaskSwHookEn
                0x000185e8                OSTCBPrioTblMax
                0x000185ea                OSTCBSize
                0x000185ec                OSTicksPerSec
                0x000185ee                OSTimeTickHookEn
                0x000185f0                OSVersionNbr
                0x000185f2                OSTmrEn
                0x000185f4                OSTmrCfgMax
                0x000185f6                OSTmrCfgNameSize
                0x000185f8                OSTmrCfgWheelSize
                0x000185fa                OSTmrCfgTicksPerSec
                0x000185fc                OSTmrSize
                0x000185fe                OSTmrTblSize
                0x00018600                OSTmrWheelSize
                0x00018602                OSTmrWheelTblSize
                0x00018604                OSDataSize
 .sdata         0x00018608        0x8 F:/project/qsys_ucosii_mail_msg/qsys/software/uCosii_bsp/\libucosii_bsp.a(alt_flash_dev.o)
                0x00018608                alt_flash_dev_list
 .sdata         0x00018610        0x4 F:/project/qsys_ucosii_mail_msg/qsys/software/uCosii_bsp/\libucosii_bsp.a(alt_irq_vars.o)
                0x00018610                alt_priority_mask
 .sdata         0x00018614        0x8 F:/project/qsys_ucosii_mail_msg/qsys/software/uCosii_bsp/\libucosii_bsp.a(alt_tick.o)
                0x00018614                alt_alarm_list
 *(.sdata2 .sdata2.* .gnu.linkonce.s2.*)
                0x0001861c                . = ALIGN (0x4)
                0x0001861c                _edata = ABSOLUTE (.)
                0x0001861c                PROVIDE (edata, ABSOLUTE (.))
                0x0001861c                PROVIDE (__ram_rwdata_end, ABSOLUTE (.))
                0x00016a44                PROVIDE (__flash_rwdata_start, LOADADDR (.rwdata))

.bss            0x0001861c     0xd5a4
                0x0001861c                __bss_start = ABSOLUTE (.)
                0x0001861c                PROVIDE (__sbss_start, ABSOLUTE (.))
                0x0001861c                PROVIDE (___sbss_start, ABSOLUTE (.))
 *(.dynsbss)
 *(.sbss .sbss.* .gnu.linkonce.sb.*)
 .sbss          0x0001861c        0x8 obj/default/ucosii_mail_msg.o
                0x0001861c                msgqueue
                0x00018620                mailbox
 .sbss          0x00018624        0xc d:/altera/13.1/nios2eds/bin/gnu/h-i686-mingw32/bin/../lib/gcc/nios2-elf/4.7.3/../../../../../H-i686-mingw32/nios2-elf/lib\libc.a(lib_a-locale.o)
                0x00018624                _PathLocale
                0x00018628                __mlocale_changed
                0x0001862c                __nlocale_changed
 .sbss          0x00018630        0xc d:/altera/13.1/nios2eds/bin/gnu/h-i686-mingw32/bin/../lib/gcc/nios2-elf/4.7.3/../../../../../H-i686-mingw32/nios2-elf/lib\libc.a(lib_a-mallocr.o)
                0x00018630                __malloc_max_total_mem
                0x00018634                __malloc_max_sbrked_mem
                0x00018638                __malloc_top_pad
 .sbss          0x0001863c        0x4 d:/altera/13.1/nios2eds/bin/gnu/h-i686-mingw32/bin/../lib/gcc/nios2-elf/4.7.3/../../../../../H-i686-mingw32/nios2-elf/lib\libc.a(lib_a-int_errno.o)
                0x0001863c                errno
 .sbss          0x00018640        0x4 F:/project/qsys_ucosii_mail_msg/qsys/software/uCosii_bsp/\libucosii_bsp.a(alt_dev.o)
                0x00018640                alt_fd_list_lock
 .sbss          0x00018644        0xc F:/project/qsys_ucosii_mail_msg/qsys/software/uCosii_bsp/\libucosii_bsp.a(alt_main.o)
                0x00018644                alt_argc
                0x00018648                alt_argv
                0x0001864c                alt_envp
 .sbss          0x00018650        0x8 F:/project/qsys_ucosii_mail_msg/qsys/software/uCosii_bsp/\libucosii_bsp.a(alt_env_lock.o)
                0x00018654                alt_envsem
 .sbss          0x00018658        0x8 F:/project/qsys_ucosii_mail_msg/qsys/software/uCosii_bsp/\libucosii_bsp.a(alt_malloc_lock.o)
                0x0001865c                alt_heapsem
 .sbss          0x00018660       0x50 F:/project/qsys_ucosii_mail_msg/qsys/software/uCosii_bsp/\libucosii_bsp.a(os_core.o)
                0x00018660                OSLockNesting
                0x00018661                OSRunning
                0x00018664                OSIdleCtr
                0x00018668                OSPrioHighRdy
                0x00018669                OSPrioCur
                0x0001866c                OSTCBList
                0x00018670                OSTickStepState
                0x00018674                OSCtxSwCtr
                0x00018678                OSIdleCtrMax
                0x0001867c                OSTCBFreeList
                0x00018680                OSCPUUsage
                0x00018681                OSTaskCtr
                0x00018684                OSMemFreeList
                0x00018688                OSTCBHighRdy
                0x0001868c                OSQFreeList
                0x00018690                OSRdyGrp
                0x00018691                OSRdyTbl
                0x00018694                OSEventFreeList
                0x00018698                OSIntNesting
                0x0001869c                OSTCBCur
                0x000186a0                OSTime
                0x000186a4                OSFlagFreeList
                0x000186a8                OSStatRdy
                0x000186ac                OSIdleCtrRun
 .sbss          0x000186b0        0x4 F:/project/qsys_ucosii_mail_msg/qsys/software/uCosii_bsp/\libucosii_bsp.a(alt_irq_vars.o)
                0x000186b0                alt_irq_active
 .sbss          0x000186b4        0x8 F:/project/qsys_ucosii_mail_msg/qsys/software/uCosii_bsp/\libucosii_bsp.a(alt_tick.o)
                0x000186b4                _alt_tick_rate
                0x000186b8                _alt_nticks
 *(.sbss2 .sbss2.* .gnu.linkonce.sb2.*)
 *(.scommon)
                0x000186bc                PROVIDE (__sbss_end, ABSOLUTE (.))
                0x000186bc                PROVIDE (___sbss_end, ABSOLUTE (.))
 *(.dynbss)
 *(.bss .bss.* .gnu.linkonce.b.*)
 .bss           0x000186bc        0x0 F:/project/qsys_ucosii_mail_msg/qsys/software/uCosii_bsp//obj/HAL/src/crt0.o
 .bss           0x000186bc        0x0 obj/default/ucosii_mail_msg.o
 .bss           0x000186bc        0x0 d:/altera/13.1/nios2eds/bin/gnu/h-i686-mingw32/bin/../lib/gcc/nios2-elf/4.7.3/../../../../../H-i686-mingw32/nios2-elf/lib\libc.a(lib_a-printf.o)
 .bss           0x000186bc        0x0 d:/altera/13.1/nios2eds/bin/gnu/h-i686-mingw32/bin/../lib/gcc/nios2-elf/4.7.3/../../../../../H-i686-mingw32/nios2-elf/lib\libc.a(lib_a-vfprintf.o)
 .bss           0x000186bc        0x0 d:/altera/13.1/nios2eds/bin/gnu/h-i686-mingw32/bin/../lib/gcc/nios2-elf/4.7.3/../../../../../H-i686-mingw32/nios2-elf/lib\libc.a(lib_a-wsetup.o)
 .bss           0x000186bc        0x0 d:/altera/13.1/nios2eds/bin/gnu/h-i686-mingw32/bin/../lib/gcc/nios2-elf/4.7.3/../../../../../H-i686-mingw32/nios2-elf/lib\libc.a(lib_a-dtoa.o)
 .bss           0x000186bc        0x0 d:/altera/13.1/nios2eds/bin/gnu/h-i686-mingw32/bin/../lib/gcc/nios2-elf/4.7.3/../../../../../H-i686-mingw32/nios2-elf/lib\libc.a(lib_a-fflush.o)
 .bss           0x000186bc        0x0 d:/altera/13.1/nios2eds/bin/gnu/h-i686-mingw32/bin/../lib/gcc/nios2-elf/4.7.3/../../../../../H-i686-mingw32/nios2-elf/lib\libc.a(lib_a-findfp.o)
 .bss           0x000186bc        0x0 d:/altera/13.1/nios2eds/bin/gnu/h-i686-mingw32/bin/../lib/gcc/nios2-elf/4.7.3/../../../../../H-i686-mingw32/nios2-elf/lib\libc.a(lib_a-freer.o)
 .bss           0x000186bc        0x0 d:/altera/13.1/nios2eds/bin/gnu/h-i686-mingw32/bin/../lib/gcc/nios2-elf/4.7.3/../../../../../H-i686-mingw32/nios2-elf/lib\libc.a(lib_a-fvwrite.o)
 .bss           0x000186bc        0x0 d:/altera/13.1/nios2eds/bin/gnu/h-i686-mingw32/bin/../lib/gcc/nios2-elf/4.7.3/../../../../../H-i686-mingw32/nios2-elf/lib\libc.a(lib_a-fwalk.o)
 .bss           0x000186bc        0x0 d:/altera/13.1/nios2eds/bin/gnu/h-i686-mingw32/bin/../lib/gcc/nios2-elf/4.7.3/../../../../../H-i686-mingw32/nios2-elf/lib\libc.a(lib_a-impure.o)
 .bss           0x000186bc        0x0 d:/altera/13.1/nios2eds/bin/gnu/h-i686-mingw32/bin/../lib/gcc/nios2-elf/4.7.3/../../../../../H-i686-mingw32/nios2-elf/lib\libc.a(lib_a-locale.o)
 .bss           0x000186bc        0x0 d:/altera/13.1/nios2eds/bin/gnu/h-i686-mingw32/bin/../lib/gcc/nios2-elf/4.7.3/../../../../../H-i686-mingw32/nios2-elf/lib\libc.a(lib_a-makebuf.o)
 .bss           0x000186bc       0x28 d:/altera/13.1/nios2eds/bin/gnu/h-i686-mingw32/bin/../lib/gcc/nios2-elf/4.7.3/../../../../../H-i686-mingw32/nios2-elf/lib\libc.a(lib_a-mallocr.o)
                0x000186bc                __malloc_current_mallinfo
 .bss           0x000186e4        0x0 d:/altera/13.1/nios2eds/bin/gnu/h-i686-mingw32/bin/../lib/gcc/nios2-elf/4.7.3/../../../../../H-i686-mingw32/nios2-elf/lib\libc.a(lib_a-memchr.o)
 .bss           0x000186e4        0x0 d:/altera/13.1/nios2eds/bin/gnu/h-i686-mingw32/bin/../lib/gcc/nios2-elf/4.7.3/../../../../../H-i686-mingw32/nios2-elf/lib\libc.a(lib_a-memcpy.o)
 .bss           0x000186e4        0x0 d:/altera/13.1/nios2eds/bin/gnu/h-i686-mingw32/bin/../lib/gcc/nios2-elf/4.7.3/../../../../../H-i686-mingw32/nios2-elf/lib\libc.a(lib_a-memmove.o)
 .bss           0x000186e4        0x0 d:/altera/13.1/nios2eds/bin/gnu/h-i686-mingw32/bin/../lib/gcc/nios2-elf/4.7.3/../../../../../H-i686-mingw32/nios2-elf/lib\libc.a(lib_a-memset.o)
 .bss           0x000186e4        0x0 d:/altera/13.1/nios2eds/bin/gnu/h-i686-mingw32/bin/../lib/gcc/nios2-elf/4.7.3/../../../../../H-i686-mingw32/nios2-elf/lib\libc.a(lib_a-mprec.o)
 .bss           0x000186e4        0x0 d:/altera/13.1/nios2eds/bin/gnu/h-i686-mingw32/bin/../lib/gcc/nios2-elf/4.7.3/../../../../../H-i686-mingw32/nios2-elf/lib\libc.a(lib_a-reallocr.o)
 .bss           0x000186e4        0x0 d:/altera/13.1/nios2eds/bin/gnu/h-i686-mingw32/bin/../lib/gcc/nios2-elf/4.7.3/../../../../../H-i686-mingw32/nios2-elf/lib\libc.a(lib_a-s_isinfd.o)
 .bss           0x000186e4        0x0 d:/altera/13.1/nios2eds/bin/gnu/h-i686-mingw32/bin/../lib/gcc/nios2-elf/4.7.3/../../../../../H-i686-mingw32/nios2-elf/lib\libc.a(lib_a-s_isnand.o)
 .bss           0x000186e4        0x0 d:/altera/13.1/nios2eds/bin/gnu/h-i686-mingw32/bin/../lib/gcc/nios2-elf/4.7.3/../../../../../H-i686-mingw32/nios2-elf/lib\libc.a(lib_a-sbrkr.o)
 .bss           0x000186e4        0x0 d:/altera/13.1/nios2eds/bin/gnu/h-i686-mingw32/bin/../lib/gcc/nios2-elf/4.7.3/../../../../../H-i686-mingw32/nios2-elf/lib\libc.a(lib_a-stdio.o)
 .bss           0x000186e4        0x0 d:/altera/13.1/nios2eds/bin/gnu/h-i686-mingw32/bin/../lib/gcc/nios2-elf/4.7.3/../../../../../H-i686-mingw32/nios2-elf/lib\libc.a(lib_a-strcmp.o)
 .bss           0x000186e4        0x0 d:/altera/13.1/nios2eds/bin/gnu/h-i686-mingw32/bin/../lib/gcc/nios2-elf/4.7.3/../../../../../H-i686-mingw32/nios2-elf/lib\libc.a(lib_a-strlen.o)
 .bss           0x000186e4        0x0 d:/altera/13.1/nios2eds/bin/gnu/h-i686-mingw32/bin/../lib/gcc/nios2-elf/4.7.3/../../../../../H-i686-mingw32/nios2-elf/lib\libc.a(lib_a-writer.o)
 .bss           0x000186e4        0x0 d:/altera/13.1/nios2eds/bin/gnu/h-i686-mingw32/bin/../lib/gcc/nios2-elf/4.7.3/../../../../../H-i686-mingw32/nios2-elf/lib\libc.a(lib_a-callocr.o)
 .bss           0x000186e4        0x0 d:/altera/13.1/nios2eds/bin/gnu/h-i686-mingw32/bin/../lib/gcc/nios2-elf/4.7.3/../../../../../H-i686-mingw32/nios2-elf/lib\libc.a(lib_a-closer.o)
 .bss           0x000186e4        0x0 d:/altera/13.1/nios2eds/bin/gnu/h-i686-mingw32/bin/../lib/gcc/nios2-elf/4.7.3/../../../../../H-i686-mingw32/nios2-elf/lib\libc.a(lib_a-fclose.o)
 .bss           0x000186e4        0x0 d:/altera/13.1/nios2eds/bin/gnu/h-i686-mingw32/bin/../lib/gcc/nios2-elf/4.7.3/../../../../../H-i686-mingw32/nios2-elf/lib\libc.a(lib_a-fstatr.o)
 .bss           0x000186e4        0x0 d:/altera/13.1/nios2eds/bin/gnu/h-i686-mingw32/bin/../lib/gcc/nios2-elf/4.7.3/../../../../../H-i686-mingw32/nios2-elf/lib\libc.a(lib_a-int_errno.o)
 .bss           0x000186e4        0x0 d:/altera/13.1/nios2eds/bin/gnu/h-i686-mingw32/bin/../lib/gcc/nios2-elf/4.7.3/../../../../../H-i686-mingw32/nios2-elf/lib\libc.a(lib_a-isattyr.o)
 .bss           0x000186e4        0x0 d:/altera/13.1/nios2eds/bin/gnu/h-i686-mingw32/bin/../lib/gcc/nios2-elf/4.7.3/../../../../../H-i686-mingw32/nios2-elf/lib\libc.a(lib_a-lseekr.o)
 .bss           0x000186e4        0x0 d:/altera/13.1/nios2eds/bin/gnu/h-i686-mingw32/bin/../lib/gcc/nios2-elf/4.7.3/../../../../../H-i686-mingw32/nios2-elf/lib\libc.a(lib_a-readr.o)
 .bss           0x000186e4        0x0 d:/altera/13.1/nios2eds/bin/gnu/h-i686-mingw32/bin/../lib/gcc/nios2-elf/4.7.3\libgcc.a(_udivdi3.o)
 .bss           0x000186e4        0x0 d:/altera/13.1/nios2eds/bin/gnu/h-i686-mingw32/bin/../lib/gcc/nios2-elf/4.7.3\libgcc.a(_umoddi3.o)
 .bss           0x000186e4        0x0 d:/altera/13.1/nios2eds/bin/gnu/h-i686-mingw32/bin/../lib/gcc/nios2-elf/4.7.3\libgcc.a(_addsub_df.o)
 .bss           0x000186e4        0x0 d:/altera/13.1/nios2eds/bin/gnu/h-i686-mingw32/bin/../lib/gcc/nios2-elf/4.7.3\libgcc.a(_mul_df.o)
 .bss           0x000186e4        0x0 d:/altera/13.1/nios2eds/bin/gnu/h-i686-mingw32/bin/../lib/gcc/nios2-elf/4.7.3\libgcc.a(_div_df.o)
 .bss           0x000186e4        0x0 d:/altera/13.1/nios2eds/bin/gnu/h-i686-mingw32/bin/../lib/gcc/nios2-elf/4.7.3\libgcc.a(_eq_df.o)
 .bss           0x000186e4        0x0 d:/altera/13.1/nios2eds/bin/gnu/h-i686-mingw32/bin/../lib/gcc/nios2-elf/4.7.3\libgcc.a(_ne_df.o)
 .bss           0x000186e4        0x0 d:/altera/13.1/nios2eds/bin/gnu/h-i686-mingw32/bin/../lib/gcc/nios2-elf/4.7.3\libgcc.a(_gt_df.o)
 .bss           0x000186e4        0x0 d:/altera/13.1/nios2eds/bin/gnu/h-i686-mingw32/bin/../lib/gcc/nios2-elf/4.7.3\libgcc.a(_ge_df.o)
 .bss           0x000186e4        0x0 d:/altera/13.1/nios2eds/bin/gnu/h-i686-mingw32/bin/../lib/gcc/nios2-elf/4.7.3\libgcc.a(_lt_df.o)
 .bss           0x000186e4        0x0 d:/altera/13.1/nios2eds/bin/gnu/h-i686-mingw32/bin/../lib/gcc/nios2-elf/4.7.3\libgcc.a(_si_to_df.o)
 .bss           0x000186e4        0x0 d:/altera/13.1/nios2eds/bin/gnu/h-i686-mingw32/bin/../lib/gcc/nios2-elf/4.7.3\libgcc.a(_df_to_si.o)
 .bss           0x000186e4        0x0 d:/altera/13.1/nios2eds/bin/gnu/h-i686-mingw32/bin/../lib/gcc/nios2-elf/4.7.3\libgcc.a(_thenan_df.o)
 .bss           0x000186e4        0x0 d:/altera/13.1/nios2eds/bin/gnu/h-i686-mingw32/bin/../lib/gcc/nios2-elf/4.7.3\libgcc.a(_usi_to_df.o)
 .bss           0x000186e4        0x0 d:/altera/13.1/nios2eds/bin/gnu/h-i686-mingw32/bin/../lib/gcc/nios2-elf/4.7.3\libgcc.a(lib2-divmod.o)
 .bss           0x000186e4        0x0 d:/altera/13.1/nios2eds/bin/gnu/h-i686-mingw32/bin/../lib/gcc/nios2-elf/4.7.3\libgcc.a(_muldi3.o)
 .bss           0x000186e4        0x0 d:/altera/13.1/nios2eds/bin/gnu/h-i686-mingw32/bin/../lib/gcc/nios2-elf/4.7.3\libgcc.a(_clz.o)
 .bss           0x000186e4        0x0 d:/altera/13.1/nios2eds/bin/gnu/h-i686-mingw32/bin/../lib/gcc/nios2-elf/4.7.3\libgcc.a(_clzsi2.o)
 .bss           0x000186e4        0x0 d:/altera/13.1/nios2eds/bin/gnu/h-i686-mingw32/bin/../lib/gcc/nios2-elf/4.7.3\libgcc.a(_pack_df.o)
 .bss           0x000186e4        0x0 d:/altera/13.1/nios2eds/bin/gnu/h-i686-mingw32/bin/../lib/gcc/nios2-elf/4.7.3\libgcc.a(_unpack_df.o)
 .bss           0x000186e4        0x0 d:/altera/13.1/nios2eds/bin/gnu/h-i686-mingw32/bin/../lib/gcc/nios2-elf/4.7.3\libgcc.a(_fpcmp_parts_df.o)
 .bss           0x000186e4        0x0 d:/altera/13.1/nios2eds/bin/gnu/h-i686-mingw32/bin/../lib/gcc/nios2-elf/4.7.3\libgcc.a(_lshrdi3.o)
 .bss           0x000186e4        0x0 d:/altera/13.1/nios2eds/bin/gnu/h-i686-mingw32/bin/../lib/gcc/nios2-elf/4.7.3\libgcc.a(_ashldi3.o)
 .bss           0x000186e4        0x0 F:/project/qsys_ucosii_mail_msg/qsys/software/uCosii_bsp/\libucosii_bsp.a(alt_close.o)
 .bss           0x000186e4        0x0 F:/project/qsys_ucosii_mail_msg/qsys/software/uCosii_bsp/\libucosii_bsp.a(alt_dev.o)
 .bss           0x000186e4        0x0 F:/project/qsys_ucosii_mail_msg/qsys/software/uCosii_bsp/\libucosii_bsp.a(alt_errno.o)
 .bss           0x000186e4        0x0 F:/project/qsys_ucosii_mail_msg/qsys/software/uCosii_bsp/\libucosii_bsp.a(alt_fstat.o)
 .bss           0x000186e4        0x0 F:/project/qsys_ucosii_mail_msg/qsys/software/uCosii_bsp/\libucosii_bsp.a(alt_isatty.o)
 .bss           0x000186e4        0x0 F:/project/qsys_ucosii_mail_msg/qsys/software/uCosii_bsp/\libucosii_bsp.a(alt_lseek.o)
 .bss           0x000186e4        0x0 F:/project/qsys_ucosii_mail_msg/qsys/software/uCosii_bsp/\libucosii_bsp.a(alt_main.o)
 .bss           0x000186e4        0x0 F:/project/qsys_ucosii_mail_msg/qsys/software/uCosii_bsp/\libucosii_bsp.a(alt_read.o)
 .bss           0x000186e4        0x0 F:/project/qsys_ucosii_mail_msg/qsys/software/uCosii_bsp/\libucosii_bsp.a(alt_release_fd.o)
 .bss           0x000186e4        0x0 F:/project/qsys_ucosii_mail_msg/qsys/software/uCosii_bsp/\libucosii_bsp.a(alt_sbrk.o)
 .bss           0x000186e4        0x0 F:/project/qsys_ucosii_mail_msg/qsys/software/uCosii_bsp/\libucosii_bsp.a(alt_write.o)
 .bss           0x000186e4        0x0 F:/project/qsys_ucosii_mail_msg/qsys/software/uCosii_bsp/\libucosii_bsp.a(alt_env_lock.o)
 .bss           0x000186e4        0x0 F:/project/qsys_ucosii_mail_msg/qsys/software/uCosii_bsp/\libucosii_bsp.a(alt_malloc_lock.o)
 .bss           0x000186e4        0x0 F:/project/qsys_ucosii_mail_msg/qsys/software/uCosii_bsp/\libucosii_bsp.a(os_core.o)
 .bss           0x000186e4        0x0 F:/project/qsys_ucosii_mail_msg/qsys/software/uCosii_bsp/\libucosii_bsp.a(os_dbg.o)
 .bss           0x000186e4        0x0 F:/project/qsys_ucosii_mail_msg/qsys/software/uCosii_bsp/\libucosii_bsp.a(os_flag.o)
 .bss           0x000186e4        0x0 F:/project/qsys_ucosii_mail_msg/qsys/software/uCosii_bsp/\libucosii_bsp.a(os_mbox.o)
 .bss           0x000186e4        0x0 F:/project/qsys_ucosii_mail_msg/qsys/software/uCosii_bsp/\libucosii_bsp.a(os_mem.o)
 .bss           0x000186e4        0x0 F:/project/qsys_ucosii_mail_msg/qsys/software/uCosii_bsp/\libucosii_bsp.a(os_q.o)
 .bss           0x000186e4        0x0 F:/project/qsys_ucosii_mail_msg/qsys/software/uCosii_bsp/\libucosii_bsp.a(os_sem.o)
 .bss           0x000186e4        0x0 F:/project/qsys_ucosii_mail_msg/qsys/software/uCosii_bsp/\libucosii_bsp.a(os_task.o)
 .bss           0x000186e4        0x0 F:/project/qsys_ucosii_mail_msg/qsys/software/uCosii_bsp/\libucosii_bsp.a(os_time.o)
 .bss           0x000186e4        0x0 F:/project/qsys_ucosii_mail_msg/qsys/software/uCosii_bsp/\libucosii_bsp.a(alt_sys_init.o)
 .bss           0x000186e4        0x0 F:/project/qsys_ucosii_mail_msg/qsys/software/uCosii_bsp/\libucosii_bsp.a(altera_avalon_epcs_flash_controller.o)
 .bss           0x000186e4        0x0 F:/project/qsys_ucosii_mail_msg/qsys/software/uCosii_bsp/\libucosii_bsp.a(altera_avalon_jtag_uart_fd.o)
 .bss           0x000186e4        0x0 F:/project/qsys_ucosii_mail_msg/qsys/software/uCosii_bsp/\libucosii_bsp.a(altera_avalon_jtag_uart_init.o)
 .bss           0x000186e4        0x0 F:/project/qsys_ucosii_mail_msg/qsys/software/uCosii_bsp/\libucosii_bsp.a(altera_avalon_jtag_uart_ioctl.o)
 .bss           0x000186e4        0x0 F:/project/qsys_ucosii_mail_msg/qsys/software/uCosii_bsp/\libucosii_bsp.a(altera_avalon_jtag_uart_read.o)
 .bss           0x000186e4        0x0 F:/project/qsys_ucosii_mail_msg/qsys/software/uCosii_bsp/\libucosii_bsp.a(altera_avalon_jtag_uart_write.o)
 .bss           0x000186e4        0x0 F:/project/qsys_ucosii_mail_msg/qsys/software/uCosii_bsp/\libucosii_bsp.a(altera_avalon_timer_sc.o)
 .bss           0x000186e4        0x0 F:/project/qsys_ucosii_mail_msg/qsys/software/uCosii_bsp/\libucosii_bsp.a(epcs_commands.o)
 .bss           0x000186e4        0x0 F:/project/qsys_ucosii_mail_msg/qsys/software/uCosii_bsp/\libucosii_bsp.a(alt_alarm_start.o)
 .bss           0x000186e4        0x0 F:/project/qsys_ucosii_mail_msg/qsys/software/uCosii_bsp/\libucosii_bsp.a(alt_dev_llist_insert.o)
 .bss           0x000186e4        0x0 F:/project/qsys_ucosii_mail_msg/qsys/software/uCosii_bsp/\libucosii_bsp.a(alt_do_ctors.o)
 .bss           0x000186e4        0x0 F:/project/qsys_ucosii_mail_msg/qsys/software/uCosii_bsp/\libucosii_bsp.a(alt_do_dtors.o)
 .bss           0x000186e4        0x0 F:/project/qsys_ucosii_mail_msg/qsys/software/uCosii_bsp/\libucosii_bsp.a(alt_flash_dev.o)
 .bss           0x000186e4        0x0 F:/project/qsys_ucosii_mail_msg/qsys/software/uCosii_bsp/\libucosii_bsp.a(alt_iic.o)
 .bss           0x000186e4        0x0 F:/project/qsys_ucosii_mail_msg/qsys/software/uCosii_bsp/\libucosii_bsp.a(alt_iic_isr_register.o)
 .bss           0x000186e4        0x0 F:/project/qsys_ucosii_mail_msg/qsys/software/uCosii_bsp/\libucosii_bsp.a(alt_io_redirect.o)
 .bss           0x000186e4        0x0 F:/project/qsys_ucosii_mail_msg/qsys/software/uCosii_bsp/\libucosii_bsp.a(alt_irq_entry.o)
 .bss           0x000186e4        0x0 F:/project/qsys_ucosii_mail_msg/qsys/software/uCosii_bsp/\libucosii_bsp.a(alt_irq_handler.o)
 .bss           0x000186e4        0x0 F:/project/qsys_ucosii_mail_msg/qsys/software/uCosii_bsp/\libucosii_bsp.a(alt_irq_vars.o)
 .bss           0x000186e4        0x0 F:/project/qsys_ucosii_mail_msg/qsys/software/uCosii_bsp/\libucosii_bsp.a(alt_open.o)
 .bss           0x000186e4        0x0 F:/project/qsys_ucosii_mail_msg/qsys/software/uCosii_bsp/\libucosii_bsp.a(alt_tick.o)
 .bss           0x000186e4        0x0 F:/project/qsys_ucosii_mail_msg/qsys/software/uCosii_bsp/\libucosii_bsp.a(altera_nios2_qsys_irq.o)
 .bss           0x000186e4        0x0 F:/project/qsys_ucosii_mail_msg/qsys/software/uCosii_bsp/\libucosii_bsp.a(os_cpu_a.o)
 .bss           0x000186e4        0x0 F:/project/qsys_ucosii_mail_msg/qsys/software/uCosii_bsp/\libucosii_bsp.a(os_cpu_c.o)
 .bss           0x000186e4        0x0 F:/project/qsys_ucosii_mail_msg/qsys/software/uCosii_bsp/\libucosii_bsp.a(altera_avalon_spi.o)
 .bss           0x000186e4        0x0 F:/project/qsys_ucosii_mail_msg/qsys/software/uCosii_bsp/\libucosii_bsp.a(alt_exception_entry.o)
 .bss           0x000186e4        0x0 F:/project/qsys_ucosii_mail_msg/qsys/software/uCosii_bsp/\libucosii_bsp.a(alt_find_dev.o)
 .bss           0x000186e4        0x0 F:/project/qsys_ucosii_mail_msg/qsys/software/uCosii_bsp/\libucosii_bsp.a(alt_find_file.o)
 .bss           0x000186e4        0x0 F:/project/qsys_ucosii_mail_msg/qsys/software/uCosii_bsp/\libucosii_bsp.a(alt_get_fd.o)
 .bss           0x000186e4        0x0 d:/altera/13.1/nios2eds/bin/gnu/h-i686-mingw32/bin/../lib/gcc/nios2-elf/4.7.3/../../../../../H-i686-mingw32/nios2-elf/lib\libc.a(lib_a-atexit.o)
 .bss           0x000186e4        0x0 d:/altera/13.1/nios2eds/bin/gnu/h-i686-mingw32/bin/../lib/gcc/nios2-elf/4.7.3/../../../../../H-i686-mingw32/nios2-elf/lib\libc.a(lib_a-exit.o)
 .bss           0x000186e4        0x0 d:/altera/13.1/nios2eds/bin/gnu/h-i686-mingw32/bin/../lib/gcc/nios2-elf/4.7.3/../../../../../H-i686-mingw32/nios2-elf/lib\libc.a(lib_a-memcmp.o)
 .bss           0x000186e4        0x0 d:/altera/13.1/nios2eds/bin/gnu/h-i686-mingw32/bin/../lib/gcc/nios2-elf/4.7.3/../../../../../H-i686-mingw32/nios2-elf/lib\libc.a(lib_a-__atexit.o)
 .bss           0x000186e4        0x0 d:/altera/13.1/nios2eds/bin/gnu/h-i686-mingw32/bin/../lib/gcc/nios2-elf/4.7.3/../../../../../H-i686-mingw32/nios2-elf/lib\libc.a(lib_a-__call_atexit.o)
 .bss           0x000186e4        0x0 d:/altera/13.1/nios2eds/bin/gnu/h-i686-mingw32/bin/../lib/gcc/nios2-elf/4.7.3\libgcc.a(_fixunsdfsi.o)
 .bss           0x000186e4        0x0 F:/project/qsys_ucosii_mail_msg/qsys/software/uCosii_bsp/\libucosii_bsp.a(alt_exit.o)
 *(COMMON)
 COMMON         0x000186e4     0xa028 obj/default/ucosii_mail_msg.o
                0x000186e4                start_task_stk
                0x0001a6e4                msg_sender_stk
                0x0001c6e4                mail_receiver_stk
                0x0001e6e4                msgqueueTbl
                0x0001e70c                msg_receiver_stk
                0x0002070c                mail_sender_stk
 COMMON         0x0002270c     0x3224 F:/project/qsys_ucosii_mail_msg/qsys/software/uCosii_bsp/\libucosii_bsp.a(os_core.o)
                0x0002270c                OSFlagTbl
                0x00022a7c                OSMemTbl
                0x000236ac                OSTaskStatStk
                0x00023eac                OSQTbl
                0x0002408c                OSTaskIdleStk
                0x0002488c                OSEventTbl
                0x000253cc                OSTCBTbl
                0x000258dc                OSTCBPrioTbl
 COMMON         0x00025930      0x100 F:/project/qsys_ucosii_mail_msg/qsys/software/uCosii_bsp/\libucosii_bsp.a(alt_irq_handler.o)
                0x00025930                alt_irq
 COMMON         0x00025a30      0x190 d:/altera/13.1/nios2eds/bin/gnu/h-i686-mingw32/bin/../lib/gcc/nios2-elf/4.7.3/../../../../../H-i686-mingw32/nios2-elf/lib\libc.a(lib_a-atexit.o)
                0x00025a30                _atexit0
                0x00025bc0                . = ALIGN (0x4)
                0x00025bc0                __bss_end = ABSOLUTE (.)

.sdram          0x00025bc0        0x0
                0x00025bc0                PROVIDE (_alt_partition_sdram_start, ABSOLUTE (.))
 *(.sdram .sdram. sdram.*)
                0x00025bc0                . = ALIGN (0x4)
                0x00025bc0                PROVIDE (_alt_partition_sdram_end, ABSOLUTE (.))
                0x00025bc0                _end = ABSOLUTE (.)
                0x00025bc0                end = ABSOLUTE (.)
                0x00025bc0                __alt_stack_base = ABSOLUTE (.)
                0x00025bc0                PROVIDE (_alt_partition_sdram_load_addr, LOADADDR (.sdram))

.epcs           0x02001020        0x0
                0x02001020                PROVIDE (_alt_partition_epcs_start, ABSOLUTE (.))
 *(.epcs .epcs. epcs.*)
                0x02001020                . = ALIGN (0x4)
                0x02001020                PROVIDE (_alt_partition_epcs_end, ABSOLUTE (.))
                0x02001020                PROVIDE (_alt_partition_epcs_load_addr, LOADADDR (.epcs))

.stab
 *(.stab)

.stabstr
 *(.stabstr)

.stab.excl
 *(.stab.excl)

.stab.exclstr
 *(.stab.exclstr)

.stab.index
 *(.stab.index)

.stab.indexstr
 *(.stab.indexstr)

.comment        0x00000000       0x23
 *(.comment)
 .comment       0x00000000       0x23 obj/default/ucosii_mail_msg.o
                                 0x24 (size before relaxing)
 .comment       0x00000000       0x24 d:/altera/13.1/nios2eds/bin/gnu/h-i686-mingw32/bin/../lib/gcc/nios2-elf/4.7.3/../../../../../H-i686-mingw32/nios2-elf/lib\libc.a(lib_a-printf.o)
 .comment       0x00000000       0x24 d:/altera/13.1/nios2eds/bin/gnu/h-i686-mingw32/bin/../lib/gcc/nios2-elf/4.7.3/../../../../../H-i686-mingw32/nios2-elf/lib\libc.a(lib_a-vfprintf.o)
 .comment       0x00000000       0x24 d:/altera/13.1/nios2eds/bin/gnu/h-i686-mingw32/bin/../lib/gcc/nios2-elf/4.7.3/../../../../../H-i686-mingw32/nios2-elf/lib\libc.a(lib_a-wsetup.o)
 .comment       0x00000000       0x24 d:/altera/13.1/nios2eds/bin/gnu/h-i686-mingw32/bin/../lib/gcc/nios2-elf/4.7.3/../../../../../H-i686-mingw32/nios2-elf/lib\libc.a(lib_a-dtoa.o)
 .comment       0x00000000       0x24 d:/altera/13.1/nios2eds/bin/gnu/h-i686-mingw32/bin/../lib/gcc/nios2-elf/4.7.3/../../../../../H-i686-mingw32/nios2-elf/lib\libc.a(lib_a-fflush.o)
 .comment       0x00000000       0x24 d:/altera/13.1/nios2eds/bin/gnu/h-i686-mingw32/bin/../lib/gcc/nios2-elf/4.7.3/../../../../../H-i686-mingw32/nios2-elf/lib\libc.a(lib_a-findfp.o)
 .comment       0x00000000       0x24 d:/altera/13.1/nios2eds/bin/gnu/h-i686-mingw32/bin/../lib/gcc/nios2-elf/4.7.3/../../../../../H-i686-mingw32/nios2-elf/lib\libc.a(lib_a-freer.o)
 .comment       0x00000000       0x24 d:/altera/13.1/nios2eds/bin/gnu/h-i686-mingw32/bin/../lib/gcc/nios2-elf/4.7.3/../../../../../H-i686-mingw32/nios2-elf/lib\libc.a(lib_a-fvwrite.o)
 .comment       0x00000000       0x24 d:/altera/13.1/nios2eds/bin/gnu/h-i686-mingw32/bin/../lib/gcc/nios2-elf/4.7.3/../../../../../H-i686-mingw32/nios2-elf/lib\libc.a(lib_a-fwalk.o)
 .comment       0x00000000       0x24 d:/altera/13.1/nios2eds/bin/gnu/h-i686-mingw32/bin/../lib/gcc/nios2-elf/4.7.3/../../../../../H-i686-mingw32/nios2-elf/lib\libc.a(lib_a-impure.o)
 .comment       0x00000000       0x24 d:/altera/13.1/nios2eds/bin/gnu/h-i686-mingw32/bin/../lib/gcc/nios2-elf/4.7.3/../../../../../H-i686-mingw32/nios2-elf/lib\libc.a(lib_a-locale.o)
 .comment       0x00000000       0x24 d:/altera/13.1/nios2eds/bin/gnu/h-i686-mingw32/bin/../lib/gcc/nios2-elf/4.7.3/../../../../../H-i686-mingw32/nios2-elf/lib\libc.a(lib_a-makebuf.o)
 .comment       0x00000000       0x24 d:/altera/13.1/nios2eds/bin/gnu/h-i686-mingw32/bin/../lib/gcc/nios2-elf/4.7.3/../../../../../H-i686-mingw32/nios2-elf/lib\libc.a(lib_a-mallocr.o)
 .comment       0x00000000       0x24 d:/altera/13.1/nios2eds/bin/gnu/h-i686-mingw32/bin/../lib/gcc/nios2-elf/4.7.3/../../../../../H-i686-mingw32/nios2-elf/lib\libc.a(lib_a-memchr.o)
 .comment       0x00000000       0x24 d:/altera/13.1/nios2eds/bin/gnu/h-i686-mingw32/bin/../lib/gcc/nios2-elf/4.7.3/../../../../../H-i686-mingw32/nios2-elf/lib\libc.a(lib_a-memcpy.o)
 .comment       0x00000000       0x24 d:/altera/13.1/nios2eds/bin/gnu/h-i686-mingw32/bin/../lib/gcc/nios2-elf/4.7.3/../../../../../H-i686-mingw32/nios2-elf/lib\libc.a(lib_a-memmove.o)
 .comment       0x00000000       0x24 d:/altera/13.1/nios2eds/bin/gnu/h-i686-mingw32/bin/../lib/gcc/nios2-elf/4.7.3/../../../../../H-i686-mingw32/nios2-elf/lib\libc.a(lib_a-memset.o)
 .comment       0x00000000       0x24 d:/altera/13.1/nios2eds/bin/gnu/h-i686-mingw32/bin/../lib/gcc/nios2-elf/4.7.3/../../../../../H-i686-mingw32/nios2-elf/lib\libc.a(lib_a-mprec.o)
 .comment       0x00000000       0x24 d:/altera/13.1/nios2eds/bin/gnu/h-i686-mingw32/bin/../lib/gcc/nios2-elf/4.7.3/../../../../../H-i686-mingw32/nios2-elf/lib\libc.a(lib_a-reallocr.o)
 .comment       0x00000000       0x24 d:/altera/13.1/nios2eds/bin/gnu/h-i686-mingw32/bin/../lib/gcc/nios2-elf/4.7.3/../../../../../H-i686-mingw32/nios2-elf/lib\libc.a(lib_a-s_isinfd.o)
 .comment       0x00000000       0x24 d:/altera/13.1/nios2eds/bin/gnu/h-i686-mingw32/bin/../lib/gcc/nios2-elf/4.7.3/../../../../../H-i686-mingw32/nios2-elf/lib\libc.a(lib_a-s_isnand.o)
 .comment       0x00000000       0x24 d:/altera/13.1/nios2eds/bin/gnu/h-i686-mingw32/bin/../lib/gcc/nios2-elf/4.7.3/../../../../../H-i686-mingw32/nios2-elf/lib\libc.a(lib_a-sbrkr.o)
 .comment       0x00000000       0x24 d:/altera/13.1/nios2eds/bin/gnu/h-i686-mingw32/bin/../lib/gcc/nios2-elf/4.7.3/../../../../../H-i686-mingw32/nios2-elf/lib\libc.a(lib_a-stdio.o)
 .comment       0x00000000       0x24 d:/altera/13.1/nios2eds/bin/gnu/h-i686-mingw32/bin/../lib/gcc/nios2-elf/4.7.3/../../../../../H-i686-mingw32/nios2-elf/lib\libc.a(lib_a-strcmp.o)
 .comment       0x00000000       0x24 d:/altera/13.1/nios2eds/bin/gnu/h-i686-mingw32/bin/../lib/gcc/nios2-elf/4.7.3/../../../../../H-i686-mingw32/nios2-elf/lib\libc.a(lib_a-strlen.o)
 .comment       0x00000000       0x24 d:/altera/13.1/nios2eds/bin/gnu/h-i686-mingw32/bin/../lib/gcc/nios2-elf/4.7.3/../../../../../H-i686-mingw32/nios2-elf/lib\libc.a(lib_a-writer.o)
 .comment       0x00000000       0x24 d:/altera/13.1/nios2eds/bin/gnu/h-i686-mingw32/bin/../lib/gcc/nios2-elf/4.7.3/../../../../../H-i686-mingw32/nios2-elf/lib\libc.a(lib_a-callocr.o)
 .comment       0x00000000       0x24 d:/altera/13.1/nios2eds/bin/gnu/h-i686-mingw32/bin/../lib/gcc/nios2-elf/4.7.3/../../../../../H-i686-mingw32/nios2-elf/lib\libc.a(lib_a-closer.o)
 .comment       0x00000000       0x24 d:/altera/13.1/nios2eds/bin/gnu/h-i686-mingw32/bin/../lib/gcc/nios2-elf/4.7.3/../../../../../H-i686-mingw32/nios2-elf/lib\libc.a(lib_a-fclose.o)
 .comment       0x00000000       0x24 d:/altera/13.1/nios2eds/bin/gnu/h-i686-mingw32/bin/../lib/gcc/nios2-elf/4.7.3/../../../../../H-i686-mingw32/nios2-elf/lib\libc.a(lib_a-fstatr.o)
 .comment       0x00000000       0x24 d:/altera/13.1/nios2eds/bin/gnu/h-i686-mingw32/bin/../lib/gcc/nios2-elf/4.7.3/../../../../../H-i686-mingw32/nios2-elf/lib\libc.a(lib_a-int_errno.o)
 .comment       0x00000000       0x24 d:/altera/13.1/nios2eds/bin/gnu/h-i686-mingw32/bin/../lib/gcc/nios2-elf/4.7.3/../../../../../H-i686-mingw32/nios2-elf/lib\libc.a(lib_a-isattyr.o)
 .comment       0x00000000       0x24 d:/altera/13.1/nios2eds/bin/gnu/h-i686-mingw32/bin/../lib/gcc/nios2-elf/4.7.3/../../../../../H-i686-mingw32/nios2-elf/lib\libc.a(lib_a-lseekr.o)
 .comment       0x00000000       0x24 d:/altera/13.1/nios2eds/bin/gnu/h-i686-mingw32/bin/../lib/gcc/nios2-elf/4.7.3/../../../../../H-i686-mingw32/nios2-elf/lib\libc.a(lib_a-readr.o)
 .comment       0x00000000       0x24 d:/altera/13.1/nios2eds/bin/gnu/h-i686-mingw32/bin/../lib/gcc/nios2-elf/4.7.3\libgcc.a(_udivdi3.o)
 .comment       0x00000000       0x24 d:/altera/13.1/nios2eds/bin/gnu/h-i686-mingw32/bin/../lib/gcc/nios2-elf/4.7.3\libgcc.a(_umoddi3.o)
 .comment       0x00000000       0x24 d:/altera/13.1/nios2eds/bin/gnu/h-i686-mingw32/bin/../lib/gcc/nios2-elf/4.7.3\libgcc.a(_addsub_df.o)
 .comment       0x00000000       0x24 d:/altera/13.1/nios2eds/bin/gnu/h-i686-mingw32/bin/../lib/gcc/nios2-elf/4.7.3\libgcc.a(_mul_df.o)
 .comment       0x00000000       0x24 d:/altera/13.1/nios2eds/bin/gnu/h-i686-mingw32/bin/../lib/gcc/nios2-elf/4.7.3\libgcc.a(_div_df.o)
 .comment       0x00000000       0x24 d:/altera/13.1/nios2eds/bin/gnu/h-i686-mingw32/bin/../lib/gcc/nios2-elf/4.7.3\libgcc.a(_eq_df.o)
 .comment       0x00000000       0x24 d:/altera/13.1/nios2eds/bin/gnu/h-i686-mingw32/bin/../lib/gcc/nios2-elf/4.7.3\libgcc.a(_ne_df.o)
 .comment       0x00000000       0x24 d:/altera/13.1/nios2eds/bin/gnu/h-i686-mingw32/bin/../lib/gcc/nios2-elf/4.7.3\libgcc.a(_gt_df.o)
 .comment       0x00000000       0x24 d:/altera/13.1/nios2eds/bin/gnu/h-i686-mingw32/bin/../lib/gcc/nios2-elf/4.7.3\libgcc.a(_ge_df.o)
 .comment       0x00000000       0x24 d:/altera/13.1/nios2eds/bin/gnu/h-i686-mingw32/bin/../lib/gcc/nios2-elf/4.7.3\libgcc.a(_lt_df.o)
 .comment       0x00000000       0x24 d:/altera/13.1/nios2eds/bin/gnu/h-i686-mingw32/bin/../lib/gcc/nios2-elf/4.7.3\libgcc.a(_si_to_df.o)
 .comment       0x00000000       0x24 d:/altera/13.1/nios2eds/bin/gnu/h-i686-mingw32/bin/../lib/gcc/nios2-elf/4.7.3\libgcc.a(_df_to_si.o)
 .comment       0x00000000       0x24 d:/altera/13.1/nios2eds/bin/gnu/h-i686-mingw32/bin/../lib/gcc/nios2-elf/4.7.3\libgcc.a(_thenan_df.o)
 .comment       0x00000000       0x24 d:/altera/13.1/nios2eds/bin/gnu/h-i686-mingw32/bin/../lib/gcc/nios2-elf/4.7.3\libgcc.a(_usi_to_df.o)
 .comment       0x00000000       0x24 d:/altera/13.1/nios2eds/bin/gnu/h-i686-mingw32/bin/../lib/gcc/nios2-elf/4.7.3\libgcc.a(lib2-divmod.o)
 .comment       0x00000000       0x24 d:/altera/13.1/nios2eds/bin/gnu/h-i686-mingw32/bin/../lib/gcc/nios2-elf/4.7.3\libgcc.a(_muldi3.o)
 .comment       0x00000000       0x24 d:/altera/13.1/nios2eds/bin/gnu/h-i686-mingw32/bin/../lib/gcc/nios2-elf/4.7.3\libgcc.a(_clz.o)
 .comment       0x00000000       0x24 d:/altera/13.1/nios2eds/bin/gnu/h-i686-mingw32/bin/../lib/gcc/nios2-elf/4.7.3\libgcc.a(_clzsi2.o)
 .comment       0x00000000       0x24 d:/altera/13.1/nios2eds/bin/gnu/h-i686-mingw32/bin/../lib/gcc/nios2-elf/4.7.3\libgcc.a(_pack_df.o)
 .comment       0x00000000       0x24 d:/altera/13.1/nios2eds/bin/gnu/h-i686-mingw32/bin/../lib/gcc/nios2-elf/4.7.3\libgcc.a(_unpack_df.o)
 .comment       0x00000000       0x24 d:/altera/13.1/nios2eds/bin/gnu/h-i686-mingw32/bin/../lib/gcc/nios2-elf/4.7.3\libgcc.a(_fpcmp_parts_df.o)
 .comment       0x00000000       0x24 d:/altera/13.1/nios2eds/bin/gnu/h-i686-mingw32/bin/../lib/gcc/nios2-elf/4.7.3\libgcc.a(_lshrdi3.o)
 .comment       0x00000000       0x24 d:/altera/13.1/nios2eds/bin/gnu/h-i686-mingw32/bin/../lib/gcc/nios2-elf/4.7.3\libgcc.a(_ashldi3.o)
 .comment       0x00000000       0x24 F:/project/qsys_ucosii_mail_msg/qsys/software/uCosii_bsp/\libucosii_bsp.a(alt_close.o)
 .comment       0x00000000       0x24 F:/project/qsys_ucosii_mail_msg/qsys/software/uCosii_bsp/\libucosii_bsp.a(alt_dev.o)
 .comment       0x00000000       0x24 F:/project/qsys_ucosii_mail_msg/qsys/software/uCosii_bsp/\libucosii_bsp.a(alt_errno.o)
 .comment       0x00000000       0x24 F:/project/qsys_ucosii_mail_msg/qsys/software/uCosii_bsp/\libucosii_bsp.a(alt_fstat.o)
 .comment       0x00000000       0x24 F:/project/qsys_ucosii_mail_msg/qsys/software/uCosii_bsp/\libucosii_bsp.a(alt_isatty.o)
 .comment       0x00000000       0x24 F:/project/qsys_ucosii_mail_msg/qsys/software/uCosii_bsp/\libucosii_bsp.a(alt_lseek.o)
 .comment       0x00000000       0x24 F:/project/qsys_ucosii_mail_msg/qsys/software/uCosii_bsp/\libucosii_bsp.a(alt_main.o)
 .comment       0x00000000       0x24 F:/project/qsys_ucosii_mail_msg/qsys/software/uCosii_bsp/\libucosii_bsp.a(alt_read.o)
 .comment       0x00000000       0x24 F:/project/qsys_ucosii_mail_msg/qsys/software/uCosii_bsp/\libucosii_bsp.a(alt_release_fd.o)
 .comment       0x00000000       0x24 F:/project/qsys_ucosii_mail_msg/qsys/software/uCosii_bsp/\libucosii_bsp.a(alt_sbrk.o)
 .comment       0x00000000       0x24 F:/project/qsys_ucosii_mail_msg/qsys/software/uCosii_bsp/\libucosii_bsp.a(alt_write.o)
 .comment       0x00000000       0x24 F:/project/qsys_ucosii_mail_msg/qsys/software/uCosii_bsp/\libucosii_bsp.a(alt_env_lock.o)
 .comment       0x00000000       0x24 F:/project/qsys_ucosii_mail_msg/qsys/software/uCosii_bsp/\libucosii_bsp.a(alt_malloc_lock.o)
 .comment       0x00000000       0x24 F:/project/qsys_ucosii_mail_msg/qsys/software/uCosii_bsp/\libucosii_bsp.a(os_core.o)
 .comment       0x00000000       0x24 F:/project/qsys_ucosii_mail_msg/qsys/software/uCosii_bsp/\libucosii_bsp.a(os_dbg.o)
 .comment       0x00000000       0x24 F:/project/qsys_ucosii_mail_msg/qsys/software/uCosii_bsp/\libucosii_bsp.a(os_flag.o)
 .comment       0x00000000       0x24 F:/project/qsys_ucosii_mail_msg/qsys/software/uCosii_bsp/\libucosii_bsp.a(os_mbox.o)
 .comment       0x00000000       0x24 F:/project/qsys_ucosii_mail_msg/qsys/software/uCosii_bsp/\libucosii_bsp.a(os_mem.o)
 .comment       0x00000000       0x24 F:/project/qsys_ucosii_mail_msg/qsys/software/uCosii_bsp/\libucosii_bsp.a(os_q.o)
 .comment       0x00000000       0x24 F:/project/qsys_ucosii_mail_msg/qsys/software/uCosii_bsp/\libucosii_bsp.a(os_sem.o)
 .comment       0x00000000       0x24 F:/project/qsys_ucosii_mail_msg/qsys/software/uCosii_bsp/\libucosii_bsp.a(os_task.o)
 .comment       0x00000000       0x24 F:/project/qsys_ucosii_mail_msg/qsys/software/uCosii_bsp/\libucosii_bsp.a(os_time.o)
 .comment       0x00000000       0x24 F:/project/qsys_ucosii_mail_msg/qsys/software/uCosii_bsp/\libucosii_bsp.a(alt_sys_init.o)
 .comment       0x00000000       0x24 F:/project/qsys_ucosii_mail_msg/qsys/software/uCosii_bsp/\libucosii_bsp.a(altera_avalon_epcs_flash_controller.o)
 .comment       0x00000000       0x24 F:/project/qsys_ucosii_mail_msg/qsys/software/uCosii_bsp/\libucosii_bsp.a(altera_avalon_jtag_uart_fd.o)
 .comment       0x00000000       0x24 F:/project/qsys_ucosii_mail_msg/qsys/software/uCosii_bsp/\libucosii_bsp.a(altera_avalon_jtag_uart_init.o)
 .comment       0x00000000       0x24 F:/project/qsys_ucosii_mail_msg/qsys/software/uCosii_bsp/\libucosii_bsp.a(altera_avalon_jtag_uart_ioctl.o)
 .comment       0x00000000       0x24 F:/project/qsys_ucosii_mail_msg/qsys/software/uCosii_bsp/\libucosii_bsp.a(altera_avalon_jtag_uart_read.o)
 .comment       0x00000000       0x24 F:/project/qsys_ucosii_mail_msg/qsys/software/uCosii_bsp/\libucosii_bsp.a(altera_avalon_jtag_uart_write.o)
 .comment       0x00000000       0x24 F:/project/qsys_ucosii_mail_msg/qsys/software/uCosii_bsp/\libucosii_bsp.a(altera_avalon_timer_sc.o)
 .comment       0x00000000       0x24 F:/project/qsys_ucosii_mail_msg/qsys/software/uCosii_bsp/\libucosii_bsp.a(epcs_commands.o)
 .comment       0x00000000       0x24 F:/project/qsys_ucosii_mail_msg/qsys/software/uCosii_bsp/\libucosii_bsp.a(alt_alarm_start.o)
 .comment       0x00000000       0x24 F:/project/qsys_ucosii_mail_msg/qsys/software/uCosii_bsp/\libucosii_bsp.a(alt_dev_llist_insert.o)
 .comment       0x00000000       0x24 F:/project/qsys_ucosii_mail_msg/qsys/software/uCosii_bsp/\libucosii_bsp.a(alt_do_ctors.o)
 .comment       0x00000000       0x24 F:/project/qsys_ucosii_mail_msg/qsys/software/uCosii_bsp/\libucosii_bsp.a(alt_do_dtors.o)
 .comment       0x00000000       0x24 F:/project/qsys_ucosii_mail_msg/qsys/software/uCosii_bsp/\libucosii_bsp.a(alt_flash_dev.o)
 .comment       0x00000000       0x24 F:/project/qsys_ucosii_mail_msg/qsys/software/uCosii_bsp/\libucosii_bsp.a(alt_iic.o)
 .comment       0x00000000       0x24 F:/project/qsys_ucosii_mail_msg/qsys/software/uCosii_bsp/\libucosii_bsp.a(alt_iic_isr_register.o)
 .comment       0x00000000       0x24 F:/project/qsys_ucosii_mail_msg/qsys/software/uCosii_bsp/\libucosii_bsp.a(alt_io_redirect.o)
 .comment       0x00000000       0x24 F:/project/qsys_ucosii_mail_msg/qsys/software/uCosii_bsp/\libucosii_bsp.a(alt_irq_handler.o)
 .comment       0x00000000       0x24 F:/project/qsys_ucosii_mail_msg/qsys/software/uCosii_bsp/\libucosii_bsp.a(alt_irq_vars.o)
 .comment       0x00000000       0x24 F:/project/qsys_ucosii_mail_msg/qsys/software/uCosii_bsp/\libucosii_bsp.a(alt_open.o)
 .comment       0x00000000       0x24 F:/project/qsys_ucosii_mail_msg/qsys/software/uCosii_bsp/\libucosii_bsp.a(alt_tick.o)
 .comment       0x00000000       0x24 F:/project/qsys_ucosii_mail_msg/qsys/software/uCosii_bsp/\libucosii_bsp.a(altera_nios2_qsys_irq.o)
 .comment       0x00000000       0x24 F:/project/qsys_ucosii_mail_msg/qsys/software/uCosii_bsp/\libucosii_bsp.a(os_cpu_c.o)
 .comment       0x00000000       0x24 F:/project/qsys_ucosii_mail_msg/qsys/software/uCosii_bsp/\libucosii_bsp.a(altera_avalon_spi.o)
 .comment       0x00000000       0x24 F:/project/qsys_ucosii_mail_msg/qsys/software/uCosii_bsp/\libucosii_bsp.a(alt_find_dev.o)
 .comment       0x00000000       0x24 F:/project/qsys_ucosii_mail_msg/qsys/software/uCosii_bsp/\libucosii_bsp.a(alt_find_file.o)
 .comment       0x00000000       0x24 F:/project/qsys_ucosii_mail_msg/qsys/software/uCosii_bsp/\libucosii_bsp.a(alt_get_fd.o)
 .comment       0x00000000       0x24 d:/altera/13.1/nios2eds/bin/gnu/h-i686-mingw32/bin/../lib/gcc/nios2-elf/4.7.3/../../../../../H-i686-mingw32/nios2-elf/lib\libc.a(lib_a-atexit.o)
 .comment       0x00000000       0x24 d:/altera/13.1/nios2eds/bin/gnu/h-i686-mingw32/bin/../lib/gcc/nios2-elf/4.7.3/../../../../../H-i686-mingw32/nios2-elf/lib\libc.a(lib_a-exit.o)
 .comment       0x00000000       0x24 d:/altera/13.1/nios2eds/bin/gnu/h-i686-mingw32/bin/../lib/gcc/nios2-elf/4.7.3/../../../../../H-i686-mingw32/nios2-elf/lib\libc.a(lib_a-memcmp.o)
 .comment       0x00000000       0x24 d:/altera/13.1/nios2eds/bin/gnu/h-i686-mingw32/bin/../lib/gcc/nios2-elf/4.7.3/../../../../../H-i686-mingw32/nios2-elf/lib\libc.a(lib_a-__atexit.o)
 .comment       0x00000000       0x24 d:/altera/13.1/nios2eds/bin/gnu/h-i686-mingw32/bin/../lib/gcc/nios2-elf/4.7.3/../../../../../H-i686-mingw32/nios2-elf/lib\libc.a(lib_a-__call_atexit.o)
 .comment       0x00000000       0x24 d:/altera/13.1/nios2eds/bin/gnu/h-i686-mingw32/bin/../lib/gcc/nios2-elf/4.7.3\libgcc.a(_fixunsdfsi.o)
 .comment       0x00000000       0x24 F:/project/qsys_ucosii_mail_msg/qsys/software/uCosii_bsp/\libucosii_bsp.a(alt_exit.o)

.debug
 *(.debug)

.line
 *(.line)

.debug_srcinfo
 *(.debug_srcinfo)

.debug_sfnames
 *(.debug_sfnames)

.debug_aranges  0x00000000      0xeb8
 *(.debug_aranges)
 .debug_aranges
                0x00000000       0x20 F:/project/qsys_ucosii_mail_msg/qsys/software/uCosii_bsp//obj/HAL/src/crt0.o
 .debug_aranges
                0x00000020       0x20 obj/default/ucosii_mail_msg.o
 .debug_aranges
                0x00000040       0x20 d:/altera/13.1/nios2eds/bin/gnu/h-i686-mingw32/bin/../lib/gcc/nios2-elf/4.7.3/../../../../../H-i686-mingw32/nios2-elf/lib\libc.a(lib_a-printf.o)
 .debug_aranges
                0x00000060       0x20 d:/altera/13.1/nios2eds/bin/gnu/h-i686-mingw32/bin/../lib/gcc/nios2-elf/4.7.3/../../../../../H-i686-mingw32/nios2-elf/lib\libc.a(lib_a-vfprintf.o)
 .debug_aranges
                0x00000080       0x20 d:/altera/13.1/nios2eds/bin/gnu/h-i686-mingw32/bin/../lib/gcc/nios2-elf/4.7.3/../../../../../H-i686-mingw32/nios2-elf/lib\libc.a(lib_a-wsetup.o)
 .debug_aranges
                0x000000a0       0x20 d:/altera/13.1/nios2eds/bin/gnu/h-i686-mingw32/bin/../lib/gcc/nios2-elf/4.7.3/../../../../../H-i686-mingw32/nios2-elf/lib\libc.a(lib_a-dtoa.o)
 .debug_aranges
                0x000000c0       0x20 d:/altera/13.1/nios2eds/bin/gnu/h-i686-mingw32/bin/../lib/gcc/nios2-elf/4.7.3/../../../../../H-i686-mingw32/nios2-elf/lib\libc.a(lib_a-fflush.o)
 .debug_aranges
                0x000000e0       0x20 d:/altera/13.1/nios2eds/bin/gnu/h-i686-mingw32/bin/../lib/gcc/nios2-elf/4.7.3/../../../../../H-i686-mingw32/nios2-elf/lib\libc.a(lib_a-findfp.o)
 .debug_aranges
                0x00000100       0x20 d:/altera/13.1/nios2eds/bin/gnu/h-i686-mingw32/bin/../lib/gcc/nios2-elf/4.7.3/../../../../../H-i686-mingw32/nios2-elf/lib\libc.a(lib_a-freer.o)
 .debug_aranges
                0x00000120       0x20 d:/altera/13.1/nios2eds/bin/gnu/h-i686-mingw32/bin/../lib/gcc/nios2-elf/4.7.3/../../../../../H-i686-mingw32/nios2-elf/lib\libc.a(lib_a-fvwrite.o)
 .debug_aranges
                0x00000140       0x20 d:/altera/13.1/nios2eds/bin/gnu/h-i686-mingw32/bin/../lib/gcc/nios2-elf/4.7.3/../../../../../H-i686-mingw32/nios2-elf/lib\libc.a(lib_a-fwalk.o)
 .debug_aranges
                0x00000160       0x18 d:/altera/13.1/nios2eds/bin/gnu/h-i686-mingw32/bin/../lib/gcc/nios2-elf/4.7.3/../../../../../H-i686-mingw32/nios2-elf/lib\libc.a(lib_a-impure.o)
 .debug_aranges
                0x00000178       0x20 d:/altera/13.1/nios2eds/bin/gnu/h-i686-mingw32/bin/../lib/gcc/nios2-elf/4.7.3/../../../../../H-i686-mingw32/nios2-elf/lib\libc.a(lib_a-locale.o)
 .debug_aranges
                0x00000198       0x20 d:/altera/13.1/nios2eds/bin/gnu/h-i686-mingw32/bin/../lib/gcc/nios2-elf/4.7.3/../../../../../H-i686-mingw32/nios2-elf/lib\libc.a(lib_a-makebuf.o)
 .debug_aranges
                0x000001b8       0x20 d:/altera/13.1/nios2eds/bin/gnu/h-i686-mingw32/bin/../lib/gcc/nios2-elf/4.7.3/../../../../../H-i686-mingw32/nios2-elf/lib\libc.a(lib_a-mallocr.o)
 .debug_aranges
                0x000001d8       0x20 d:/altera/13.1/nios2eds/bin/gnu/h-i686-mingw32/bin/../lib/gcc/nios2-elf/4.7.3/../../../../../H-i686-mingw32/nios2-elf/lib\libc.a(lib_a-memchr.o)
 .debug_aranges
                0x000001f8       0x20 d:/altera/13.1/nios2eds/bin/gnu/h-i686-mingw32/bin/../lib/gcc/nios2-elf/4.7.3/../../../../../H-i686-mingw32/nios2-elf/lib\libc.a(lib_a-memcpy.o)
 .debug_aranges
                0x00000218       0x20 d:/altera/13.1/nios2eds/bin/gnu/h-i686-mingw32/bin/../lib/gcc/nios2-elf/4.7.3/../../../../../H-i686-mingw32/nios2-elf/lib\libc.a(lib_a-memmove.o)
 .debug_aranges
                0x00000238       0x20 d:/altera/13.1/nios2eds/bin/gnu/h-i686-mingw32/bin/../lib/gcc/nios2-elf/4.7.3/../../../../../H-i686-mingw32/nios2-elf/lib\libc.a(lib_a-memset.o)
 .debug_aranges
                0x00000258       0x20 d:/altera/13.1/nios2eds/bin/gnu/h-i686-mingw32/bin/../lib/gcc/nios2-elf/4.7.3/../../../../../H-i686-mingw32/nios2-elf/lib\libc.a(lib_a-mprec.o)
 .debug_aranges
                0x00000278       0x20 d:/altera/13.1/nios2eds/bin/gnu/h-i686-mingw32/bin/../lib/gcc/nios2-elf/4.7.3/../../../../../H-i686-mingw32/nios2-elf/lib\libc.a(lib_a-reallocr.o)
 .debug_aranges
                0x00000298       0x20 d:/altera/13.1/nios2eds/bin/gnu/h-i686-mingw32/bin/../lib/gcc/nios2-elf/4.7.3/../../../../../H-i686-mingw32/nios2-elf/lib\libc.a(lib_a-s_isinfd.o)
 .debug_aranges
                0x000002b8       0x20 d:/altera/13.1/nios2eds/bin/gnu/h-i686-mingw32/bin/../lib/gcc/nios2-elf/4.7.3/../../../../../H-i686-mingw32/nios2-elf/lib\libc.a(lib_a-s_isnand.o)
 .debug_aranges
                0x000002d8       0x20 d:/altera/13.1/nios2eds/bin/gnu/h-i686-mingw32/bin/../lib/gcc/nios2-elf/4.7.3/../../../../../H-i686-mingw32/nios2-elf/lib\libc.a(lib_a-sbrkr.o)
 .debug_aranges
                0x000002f8       0x20 d:/altera/13.1/nios2eds/bin/gnu/h-i686-mingw32/bin/../lib/gcc/nios2-elf/4.7.3/../../../../../H-i686-mingw32/nios2-elf/lib\libc.a(lib_a-stdio.o)
 .debug_aranges
                0x00000318       0x20 d:/altera/13.1/nios2eds/bin/gnu/h-i686-mingw32/bin/../lib/gcc/nios2-elf/4.7.3/../../../../../H-i686-mingw32/nios2-elf/lib\libc.a(lib_a-strcmp.o)
 .debug_aranges
                0x00000338       0x20 d:/altera/13.1/nios2eds/bin/gnu/h-i686-mingw32/bin/../lib/gcc/nios2-elf/4.7.3/../../../../../H-i686-mingw32/nios2-elf/lib\libc.a(lib_a-strlen.o)
 .debug_aranges
                0x00000358       0x20 d:/altera/13.1/nios2eds/bin/gnu/h-i686-mingw32/bin/../lib/gcc/nios2-elf/4.7.3/../../../../../H-i686-mingw32/nios2-elf/lib\libc.a(lib_a-writer.o)
 .debug_aranges
                0x00000378       0x20 d:/altera/13.1/nios2eds/bin/gnu/h-i686-mingw32/bin/../lib/gcc/nios2-elf/4.7.3/../../../../../H-i686-mingw32/nios2-elf/lib\libc.a(lib_a-callocr.o)
 .debug_aranges
                0x00000398       0x20 d:/altera/13.1/nios2eds/bin/gnu/h-i686-mingw32/bin/../lib/gcc/nios2-elf/4.7.3/../../../../../H-i686-mingw32/nios2-elf/lib\libc.a(lib_a-closer.o)
 .debug_aranges
                0x000003b8       0x20 d:/altera/13.1/nios2eds/bin/gnu/h-i686-mingw32/bin/../lib/gcc/nios2-elf/4.7.3/../../../../../H-i686-mingw32/nios2-elf/lib\libc.a(lib_a-fclose.o)
 .debug_aranges
                0x000003d8       0x20 d:/altera/13.1/nios2eds/bin/gnu/h-i686-mingw32/bin/../lib/gcc/nios2-elf/4.7.3/../../../../../H-i686-mingw32/nios2-elf/lib\libc.a(lib_a-fstatr.o)
 .debug_aranges
                0x000003f8       0x18 d:/altera/13.1/nios2eds/bin/gnu/h-i686-mingw32/bin/../lib/gcc/nios2-elf/4.7.3/../../../../../H-i686-mingw32/nios2-elf/lib\libc.a(lib_a-int_errno.o)
 .debug_aranges
                0x00000410       0x20 d:/altera/13.1/nios2eds/bin/gnu/h-i686-mingw32/bin/../lib/gcc/nios2-elf/4.7.3/../../../../../H-i686-mingw32/nios2-elf/lib\libc.a(lib_a-isattyr.o)
 .debug_aranges
                0x00000430       0x20 d:/altera/13.1/nios2eds/bin/gnu/h-i686-mingw32/bin/../lib/gcc/nios2-elf/4.7.3/../../../../../H-i686-mingw32/nios2-elf/lib\libc.a(lib_a-lseekr.o)
 .debug_aranges
                0x00000450       0x20 d:/altera/13.1/nios2eds/bin/gnu/h-i686-mingw32/bin/../lib/gcc/nios2-elf/4.7.3/../../../../../H-i686-mingw32/nios2-elf/lib\libc.a(lib_a-readr.o)
 .debug_aranges
                0x00000470       0x20 d:/altera/13.1/nios2eds/bin/gnu/h-i686-mingw32/bin/../lib/gcc/nios2-elf/4.7.3\libgcc.a(_udivdi3.o)
 .debug_aranges
                0x00000490       0x20 d:/altera/13.1/nios2eds/bin/gnu/h-i686-mingw32/bin/../lib/gcc/nios2-elf/4.7.3\libgcc.a(_umoddi3.o)
 .debug_aranges
                0x000004b0       0x20 d:/altera/13.1/nios2eds/bin/gnu/h-i686-mingw32/bin/../lib/gcc/nios2-elf/4.7.3\libgcc.a(_addsub_df.o)
 .debug_aranges
                0x000004d0       0x20 d:/altera/13.1/nios2eds/bin/gnu/h-i686-mingw32/bin/../lib/gcc/nios2-elf/4.7.3\libgcc.a(_mul_df.o)
 .debug_aranges
                0x000004f0       0x20 d:/altera/13.1/nios2eds/bin/gnu/h-i686-mingw32/bin/../lib/gcc/nios2-elf/4.7.3\libgcc.a(_div_df.o)
 .debug_aranges
                0x00000510       0x20 d:/altera/13.1/nios2eds/bin/gnu/h-i686-mingw32/bin/../lib/gcc/nios2-elf/4.7.3\libgcc.a(_eq_df.o)
 .debug_aranges
                0x00000530       0x20 d:/altera/13.1/nios2eds/bin/gnu/h-i686-mingw32/bin/../lib/gcc/nios2-elf/4.7.3\libgcc.a(_ne_df.o)
 .debug_aranges
                0x00000550       0x20 d:/altera/13.1/nios2eds/bin/gnu/h-i686-mingw32/bin/../lib/gcc/nios2-elf/4.7.3\libgcc.a(_gt_df.o)
 .debug_aranges
                0x00000570       0x20 d:/altera/13.1/nios2eds/bin/gnu/h-i686-mingw32/bin/../lib/gcc/nios2-elf/4.7.3\libgcc.a(_ge_df.o)
 .debug_aranges
                0x00000590       0x20 d:/altera/13.1/nios2eds/bin/gnu/h-i686-mingw32/bin/../lib/gcc/nios2-elf/4.7.3\libgcc.a(_lt_df.o)
 .debug_aranges
                0x000005b0       0x20 d:/altera/13.1/nios2eds/bin/gnu/h-i686-mingw32/bin/../lib/gcc/nios2-elf/4.7.3\libgcc.a(_si_to_df.o)
 .debug_aranges
                0x000005d0       0x20 d:/altera/13.1/nios2eds/bin/gnu/h-i686-mingw32/bin/../lib/gcc/nios2-elf/4.7.3\libgcc.a(_df_to_si.o)
 .debug_aranges
                0x000005f0       0x18 d:/altera/13.1/nios2eds/bin/gnu/h-i686-mingw32/bin/../lib/gcc/nios2-elf/4.7.3\libgcc.a(_thenan_df.o)
 .debug_aranges
                0x00000608       0x20 d:/altera/13.1/nios2eds/bin/gnu/h-i686-mingw32/bin/../lib/gcc/nios2-elf/4.7.3\libgcc.a(_usi_to_df.o)
 .debug_aranges
                0x00000628       0x20 d:/altera/13.1/nios2eds/bin/gnu/h-i686-mingw32/bin/../lib/gcc/nios2-elf/4.7.3\libgcc.a(lib2-divmod.o)
 .debug_aranges
                0x00000648       0x20 d:/altera/13.1/nios2eds/bin/gnu/h-i686-mingw32/bin/../lib/gcc/nios2-elf/4.7.3\libgcc.a(_muldi3.o)
 .debug_aranges
                0x00000668       0x18 d:/altera/13.1/nios2eds/bin/gnu/h-i686-mingw32/bin/../lib/gcc/nios2-elf/4.7.3\libgcc.a(_clz.o)
 .debug_aranges
                0x00000680       0x20 d:/altera/13.1/nios2eds/bin/gnu/h-i686-mingw32/bin/../lib/gcc/nios2-elf/4.7.3\libgcc.a(_clzsi2.o)
 .debug_aranges
                0x000006a0       0x20 d:/altera/13.1/nios2eds/bin/gnu/h-i686-mingw32/bin/../lib/gcc/nios2-elf/4.7.3\libgcc.a(_pack_df.o)
 .debug_aranges
                0x000006c0       0x20 d:/altera/13.1/nios2eds/bin/gnu/h-i686-mingw32/bin/../lib/gcc/nios2-elf/4.7.3\libgcc.a(_unpack_df.o)
 .debug_aranges
                0x000006e0       0x20 d:/altera/13.1/nios2eds/bin/gnu/h-i686-mingw32/bin/../lib/gcc/nios2-elf/4.7.3\libgcc.a(_fpcmp_parts_df.o)
 .debug_aranges
                0x00000700       0x20 d:/altera/13.1/nios2eds/bin/gnu/h-i686-mingw32/bin/../lib/gcc/nios2-elf/4.7.3\libgcc.a(_lshrdi3.o)
 .debug_aranges
                0x00000720       0x20 d:/altera/13.1/nios2eds/bin/gnu/h-i686-mingw32/bin/../lib/gcc/nios2-elf/4.7.3\libgcc.a(_ashldi3.o)
 .debug_aranges
                0x00000740       0x20 F:/project/qsys_ucosii_mail_msg/qsys/software/uCosii_bsp/\libucosii_bsp.a(alt_close.o)
 .debug_aranges
                0x00000760       0x20 F:/project/qsys_ucosii_mail_msg/qsys/software/uCosii_bsp/\libucosii_bsp.a(alt_dev.o)
 .debug_aranges
                0x00000780       0x18 F:/project/qsys_ucosii_mail_msg/qsys/software/uCosii_bsp/\libucosii_bsp.a(alt_errno.o)
 .debug_aranges
                0x00000798       0x20 F:/project/qsys_ucosii_mail_msg/qsys/software/uCosii_bsp/\libucosii_bsp.a(alt_fstat.o)
 .debug_aranges
                0x000007b8       0x20 F:/project/qsys_ucosii_mail_msg/qsys/software/uCosii_bsp/\libucosii_bsp.a(alt_isatty.o)
 .debug_aranges
                0x000007d8       0x20 F:/project/qsys_ucosii_mail_msg/qsys/software/uCosii_bsp/\libucosii_bsp.a(alt_lseek.o)
 .debug_aranges
                0x000007f8       0x20 F:/project/qsys_ucosii_mail_msg/qsys/software/uCosii_bsp/\libucosii_bsp.a(alt_main.o)
 .debug_aranges
                0x00000818       0x20 F:/project/qsys_ucosii_mail_msg/qsys/software/uCosii_bsp/\libucosii_bsp.a(alt_read.o)
 .debug_aranges
                0x00000838       0x20 F:/project/qsys_ucosii_mail_msg/qsys/software/uCosii_bsp/\libucosii_bsp.a(alt_release_fd.o)
 .debug_aranges
                0x00000858       0x20 F:/project/qsys_ucosii_mail_msg/qsys/software/uCosii_bsp/\libucosii_bsp.a(alt_sbrk.o)
 .debug_aranges
                0x00000878       0x20 F:/project/qsys_ucosii_mail_msg/qsys/software/uCosii_bsp/\libucosii_bsp.a(alt_write.o)
 .debug_aranges
                0x00000898       0x20 F:/project/qsys_ucosii_mail_msg/qsys/software/uCosii_bsp/\libucosii_bsp.a(alt_env_lock.o)
 .debug_aranges
                0x000008b8       0x20 F:/project/qsys_ucosii_mail_msg/qsys/software/uCosii_bsp/\libucosii_bsp.a(alt_malloc_lock.o)
 .debug_aranges
                0x000008d8       0x20 F:/project/qsys_ucosii_mail_msg/qsys/software/uCosii_bsp/\libucosii_bsp.a(os_core.o)
 .debug_aranges
                0x000008f8       0x20 F:/project/qsys_ucosii_mail_msg/qsys/software/uCosii_bsp/\libucosii_bsp.a(os_dbg.o)
 .debug_aranges
                0x00000918       0x20 F:/project/qsys_ucosii_mail_msg/qsys/software/uCosii_bsp/\libucosii_bsp.a(os_flag.o)
 .debug_aranges
                0x00000938       0x20 F:/project/qsys_ucosii_mail_msg/qsys/software/uCosii_bsp/\libucosii_bsp.a(os_mbox.o)
 .debug_aranges
                0x00000958       0x20 F:/project/qsys_ucosii_mail_msg/qsys/software/uCosii_bsp/\libucosii_bsp.a(os_mem.o)
 .debug_aranges
                0x00000978       0x20 F:/project/qsys_ucosii_mail_msg/qsys/software/uCosii_bsp/\libucosii_bsp.a(os_q.o)
 .debug_aranges
                0x00000998       0x20 F:/project/qsys_ucosii_mail_msg/qsys/software/uCosii_bsp/\libucosii_bsp.a(os_sem.o)
 .debug_aranges
                0x000009b8       0x20 F:/project/qsys_ucosii_mail_msg/qsys/software/uCosii_bsp/\libucosii_bsp.a(os_task.o)
 .debug_aranges
                0x000009d8       0x20 F:/project/qsys_ucosii_mail_msg/qsys/software/uCosii_bsp/\libucosii_bsp.a(os_time.o)
 .debug_aranges
                0x000009f8       0x20 F:/project/qsys_ucosii_mail_msg/qsys/software/uCosii_bsp/\libucosii_bsp.a(alt_sys_init.o)
 .debug_aranges
                0x00000a18       0x20 F:/project/qsys_ucosii_mail_msg/qsys/software/uCosii_bsp/\libucosii_bsp.a(altera_avalon_epcs_flash_controller.o)
 .debug_aranges
                0x00000a38       0x20 F:/project/qsys_ucosii_mail_msg/qsys/software/uCosii_bsp/\libucosii_bsp.a(altera_avalon_jtag_uart_fd.o)
 .debug_aranges
                0x00000a58       0x20 F:/project/qsys_ucosii_mail_msg/qsys/software/uCosii_bsp/\libucosii_bsp.a(altera_avalon_jtag_uart_init.o)
 .debug_aranges
                0x00000a78       0x20 F:/project/qsys_ucosii_mail_msg/qsys/software/uCosii_bsp/\libucosii_bsp.a(altera_avalon_jtag_uart_ioctl.o)
 .debug_aranges
                0x00000a98       0x20 F:/project/qsys_ucosii_mail_msg/qsys/software/uCosii_bsp/\libucosii_bsp.a(altera_avalon_jtag_uart_read.o)
 .debug_aranges
                0x00000ab8       0x20 F:/project/qsys_ucosii_mail_msg/qsys/software/uCosii_bsp/\libucosii_bsp.a(altera_avalon_jtag_uart_write.o)
 .debug_aranges
                0x00000ad8       0x20 F:/project/qsys_ucosii_mail_msg/qsys/software/uCosii_bsp/\libucosii_bsp.a(altera_avalon_timer_sc.o)
 .debug_aranges
                0x00000af8       0x20 F:/project/qsys_ucosii_mail_msg/qsys/software/uCosii_bsp/\libucosii_bsp.a(epcs_commands.o)
 .debug_aranges
                0x00000b18       0x20 F:/project/qsys_ucosii_mail_msg/qsys/software/uCosii_bsp/\libucosii_bsp.a(alt_alarm_start.o)
 .debug_aranges
                0x00000b38       0x20 F:/project/qsys_ucosii_mail_msg/qsys/software/uCosii_bsp/\libucosii_bsp.a(alt_dev_llist_insert.o)
 .debug_aranges
                0x00000b58       0x20 F:/project/qsys_ucosii_mail_msg/qsys/software/uCosii_bsp/\libucosii_bsp.a(alt_do_ctors.o)
 .debug_aranges
                0x00000b78       0x20 F:/project/qsys_ucosii_mail_msg/qsys/software/uCosii_bsp/\libucosii_bsp.a(alt_do_dtors.o)
 .debug_aranges
                0x00000b98       0x20 F:/project/qsys_ucosii_mail_msg/qsys/software/uCosii_bsp/\libucosii_bsp.a(alt_flash_dev.o)
 .debug_aranges
                0x00000bb8       0x20 F:/project/qsys_ucosii_mail_msg/qsys/software/uCosii_bsp/\libucosii_bsp.a(alt_iic.o)
 .debug_aranges
                0x00000bd8       0x20 F:/project/qsys_ucosii_mail_msg/qsys/software/uCosii_bsp/\libucosii_bsp.a(alt_iic_isr_register.o)
 .debug_aranges
                0x00000bf8       0x20 F:/project/qsys_ucosii_mail_msg/qsys/software/uCosii_bsp/\libucosii_bsp.a(alt_io_redirect.o)
 .debug_aranges
                0x00000c18       0x30 F:/project/qsys_ucosii_mail_msg/qsys/software/uCosii_bsp/\libucosii_bsp.a(alt_irq_entry.o)
 .debug_aranges
                0x00000c48       0x20 F:/project/qsys_ucosii_mail_msg/qsys/software/uCosii_bsp/\libucosii_bsp.a(alt_irq_handler.o)
 .debug_aranges
                0x00000c68       0x18 F:/project/qsys_ucosii_mail_msg/qsys/software/uCosii_bsp/\libucosii_bsp.a(alt_irq_vars.o)
 .debug_aranges
                0x00000c80       0x20 F:/project/qsys_ucosii_mail_msg/qsys/software/uCosii_bsp/\libucosii_bsp.a(alt_open.o)
 .debug_aranges
                0x00000ca0       0x20 F:/project/qsys_ucosii_mail_msg/qsys/software/uCosii_bsp/\libucosii_bsp.a(alt_tick.o)
 .debug_aranges
                0x00000cc0       0x20 F:/project/qsys_ucosii_mail_msg/qsys/software/uCosii_bsp/\libucosii_bsp.a(altera_nios2_qsys_irq.o)
 .debug_aranges
                0x00000ce0       0x20 F:/project/qsys_ucosii_mail_msg/qsys/software/uCosii_bsp/\libucosii_bsp.a(os_cpu_a.o)
 .debug_aranges
                0x00000d00       0x20 F:/project/qsys_ucosii_mail_msg/qsys/software/uCosii_bsp/\libucosii_bsp.a(os_cpu_c.o)
 .debug_aranges
                0x00000d20       0x20 F:/project/qsys_ucosii_mail_msg/qsys/software/uCosii_bsp/\libucosii_bsp.a(altera_avalon_spi.o)
 .debug_aranges
                0x00000d40       0x38 F:/project/qsys_ucosii_mail_msg/qsys/software/uCosii_bsp/\libucosii_bsp.a(alt_exception_entry.o)
 .debug_aranges
                0x00000d78       0x20 F:/project/qsys_ucosii_mail_msg/qsys/software/uCosii_bsp/\libucosii_bsp.a(alt_find_dev.o)
 .debug_aranges
                0x00000d98       0x20 F:/project/qsys_ucosii_mail_msg/qsys/software/uCosii_bsp/\libucosii_bsp.a(alt_find_file.o)
 .debug_aranges
                0x00000db8       0x20 F:/project/qsys_ucosii_mail_msg/qsys/software/uCosii_bsp/\libucosii_bsp.a(alt_get_fd.o)
 .debug_aranges
                0x00000dd8       0x20 d:/altera/13.1/nios2eds/bin/gnu/h-i686-mingw32/bin/../lib/gcc/nios2-elf/4.7.3/../../../../../H-i686-mingw32/nios2-elf/lib\libc.a(lib_a-atexit.o)
 .debug_aranges
                0x00000df8       0x20 d:/altera/13.1/nios2eds/bin/gnu/h-i686-mingw32/bin/../lib/gcc/nios2-elf/4.7.3/../../../../../H-i686-mingw32/nios2-elf/lib\libc.a(lib_a-exit.o)
 .debug_aranges
                0x00000e18       0x20 d:/altera/13.1/nios2eds/bin/gnu/h-i686-mingw32/bin/../lib/gcc/nios2-elf/4.7.3/../../../../../H-i686-mingw32/nios2-elf/lib\libc.a(lib_a-memcmp.o)
 .debug_aranges
                0x00000e38       0x20 d:/altera/13.1/nios2eds/bin/gnu/h-i686-mingw32/bin/../lib/gcc/nios2-elf/4.7.3/../../../../../H-i686-mingw32/nios2-elf/lib\libc.a(lib_a-__atexit.o)
 .debug_aranges
                0x00000e58       0x20 d:/altera/13.1/nios2eds/bin/gnu/h-i686-mingw32/bin/../lib/gcc/nios2-elf/4.7.3/../../../../../H-i686-mingw32/nios2-elf/lib\libc.a(lib_a-__call_atexit.o)
 .debug_aranges
                0x00000e78       0x20 d:/altera/13.1/nios2eds/bin/gnu/h-i686-mingw32/bin/../lib/gcc/nios2-elf/4.7.3\libgcc.a(_fixunsdfsi.o)
 .debug_aranges
                0x00000e98       0x20 F:/project/qsys_ucosii_mail_msg/qsys/software/uCosii_bsp/\libucosii_bsp.a(alt_exit.o)

.debug_pubnames
 *(.debug_pubnames)

.debug_info     0x00000000    0x2ddd2
 *(.debug_info .gnu.linkonce.wi.*)
 .debug_info    0x00000000       0x71 F:/project/qsys_ucosii_mail_msg/qsys/software/uCosii_bsp//obj/HAL/src/crt0.o
 .debug_info    0x00000071      0x435 obj/default/ucosii_mail_msg.o
 .debug_info    0x000004a6      0xa6c d:/altera/13.1/nios2eds/bin/gnu/h-i686-mingw32/bin/../lib/gcc/nios2-elf/4.7.3/../../../../../H-i686-mingw32/nios2-elf/lib\libc.a(lib_a-printf.o)
 .debug_info    0x00000f12     0x195a d:/altera/13.1/nios2eds/bin/gnu/h-i686-mingw32/bin/../lib/gcc/nios2-elf/4.7.3/../../../../../H-i686-mingw32/nios2-elf/lib\libc.a(lib_a-vfprintf.o)
 .debug_info    0x0000286c      0x9d4 d:/altera/13.1/nios2eds/bin/gnu/h-i686-mingw32/bin/../lib/gcc/nios2-elf/4.7.3/../../../../../H-i686-mingw32/nios2-elf/lib\libc.a(lib_a-wsetup.o)
 .debug_info    0x00003240     0x1408 d:/altera/13.1/nios2eds/bin/gnu/h-i686-mingw32/bin/../lib/gcc/nios2-elf/4.7.3/../../../../../H-i686-mingw32/nios2-elf/lib\libc.a(lib_a-dtoa.o)
 .debug_info    0x00004648      0xad0 d:/altera/13.1/nios2eds/bin/gnu/h-i686-mingw32/bin/../lib/gcc/nios2-elf/4.7.3/../../../../../H-i686-mingw32/nios2-elf/lib\libc.a(lib_a-fflush.o)
 .debug_info    0x00005118      0xd6f d:/altera/13.1/nios2eds/bin/gnu/h-i686-mingw32/bin/../lib/gcc/nios2-elf/4.7.3/../../../../../H-i686-mingw32/nios2-elf/lib\libc.a(lib_a-findfp.o)
 .debug_info    0x00005e87      0xcf9 d:/altera/13.1/nios2eds/bin/gnu/h-i686-mingw32/bin/../lib/gcc/nios2-elf/4.7.3/../../../../../H-i686-mingw32/nios2-elf/lib\libc.a(lib_a-freer.o)
 .debug_info    0x00006b80      0xd05 d:/altera/13.1/nios2eds/bin/gnu/h-i686-mingw32/bin/../lib/gcc/nios2-elf/4.7.3/../../../../../H-i686-mingw32/nios2-elf/lib\libc.a(lib_a-fvwrite.o)
 .debug_info    0x00007885      0xb72 d:/altera/13.1/nios2eds/bin/gnu/h-i686-mingw32/bin/../lib/gcc/nios2-elf/4.7.3/../../../../../H-i686-mingw32/nios2-elf/lib\libc.a(lib_a-fwalk.o)
 .debug_info    0x000083f7      0x938 d:/altera/13.1/nios2eds/bin/gnu/h-i686-mingw32/bin/../lib/gcc/nios2-elf/4.7.3/../../../../../H-i686-mingw32/nios2-elf/lib\libc.a(lib_a-impure.o)
 .debug_info    0x00008d2f      0xc10 d:/altera/13.1/nios2eds/bin/gnu/h-i686-mingw32/bin/../lib/gcc/nios2-elf/4.7.3/../../../../../H-i686-mingw32/nios2-elf/lib\libc.a(lib_a-locale.o)
 .debug_info    0x0000993f      0xbc2 d:/altera/13.1/nios2eds/bin/gnu/h-i686-mingw32/bin/../lib/gcc/nios2-elf/4.7.3/../../../../../H-i686-mingw32/nios2-elf/lib\libc.a(lib_a-makebuf.o)
 .debug_info    0x0000a501      0xe44 d:/altera/13.1/nios2eds/bin/gnu/h-i686-mingw32/bin/../lib/gcc/nios2-elf/4.7.3/../../../../../H-i686-mingw32/nios2-elf/lib\libc.a(lib_a-mallocr.o)
 .debug_info    0x0000b345      0x13e d:/altera/13.1/nios2eds/bin/gnu/h-i686-mingw32/bin/../lib/gcc/nios2-elf/4.7.3/../../../../../H-i686-mingw32/nios2-elf/lib\libc.a(lib_a-memchr.o)
 .debug_info    0x0000b483      0x10e d:/altera/13.1/nios2eds/bin/gnu/h-i686-mingw32/bin/../lib/gcc/nios2-elf/4.7.3/../../../../../H-i686-mingw32/nios2-elf/lib\libc.a(lib_a-memcpy.o)
 .debug_info    0x0000b591      0x146 d:/altera/13.1/nios2eds/bin/gnu/h-i686-mingw32/bin/../lib/gcc/nios2-elf/4.7.3/../../../../../H-i686-mingw32/nios2-elf/lib\libc.a(lib_a-memmove.o)
 .debug_info    0x0000b6d7      0x117 d:/altera/13.1/nios2eds/bin/gnu/h-i686-mingw32/bin/../lib/gcc/nios2-elf/4.7.3/../../../../../H-i686-mingw32/nios2-elf/lib\libc.a(lib_a-memset.o)
 .debug_info    0x0000b7ee     0x172a d:/altera/13.1/nios2eds/bin/gnu/h-i686-mingw32/bin/../lib/gcc/nios2-elf/4.7.3/../../../../../H-i686-mingw32/nios2-elf/lib\libc.a(lib_a-mprec.o)
 .debug_info    0x0000cf18      0xd8e d:/altera/13.1/nios2eds/bin/gnu/h-i686-mingw32/bin/../lib/gcc/nios2-elf/4.7.3/../../../../../H-i686-mingw32/nios2-elf/lib\libc.a(lib_a-reallocr.o)
 .debug_info    0x0000dca6       0xe8 d:/altera/13.1/nios2eds/bin/gnu/h-i686-mingw32/bin/../lib/gcc/nios2-elf/4.7.3/../../../../../H-i686-mingw32/nios2-elf/lib\libc.a(lib_a-s_isinfd.o)
 .debug_info    0x0000dd8e       0xe8 d:/altera/13.1/nios2eds/bin/gnu/h-i686-mingw32/bin/../lib/gcc/nios2-elf/4.7.3/../../../../../H-i686-mingw32/nios2-elf/lib\libc.a(lib_a-s_isnand.o)
 .debug_info    0x0000de76      0x9a3 d:/altera/13.1/nios2eds/bin/gnu/h-i686-mingw32/bin/../lib/gcc/nios2-elf/4.7.3/../../../../../H-i686-mingw32/nios2-elf/lib\libc.a(lib_a-sbrkr.o)
 .debug_info    0x0000e819      0xbfd d:/altera/13.1/nios2eds/bin/gnu/h-i686-mingw32/bin/../lib/gcc/nios2-elf/4.7.3/../../../../../H-i686-mingw32/nios2-elf/lib\libc.a(lib_a-stdio.o)
 .debug_info    0x0000f416       0xe1 d:/altera/13.1/nios2eds/bin/gnu/h-i686-mingw32/bin/../lib/gcc/nios2-elf/4.7.3/../../../../../H-i686-mingw32/nios2-elf/lib\libc.a(lib_a-strcmp.o)
 .debug_info    0x0000f4f7       0xdf d:/altera/13.1/nios2eds/bin/gnu/h-i686-mingw32/bin/../lib/gcc/nios2-elf/4.7.3/../../../../../H-i686-mingw32/nios2-elf/lib\libc.a(lib_a-strlen.o)
 .debug_info    0x0000f5d6      0x9d2 d:/altera/13.1/nios2eds/bin/gnu/h-i686-mingw32/bin/../lib/gcc/nios2-elf/4.7.3/../../../../../H-i686-mingw32/nios2-elf/lib\libc.a(lib_a-writer.o)
 .debug_info    0x0000ffa8      0xa9b d:/altera/13.1/nios2eds/bin/gnu/h-i686-mingw32/bin/../lib/gcc/nios2-elf/4.7.3/../../../../../H-i686-mingw32/nios2-elf/lib\libc.a(lib_a-callocr.o)
 .debug_info    0x00010a43      0x97f d:/altera/13.1/nios2eds/bin/gnu/h-i686-mingw32/bin/../lib/gcc/nios2-elf/4.7.3/../../../../../H-i686-mingw32/nios2-elf/lib\libc.a(lib_a-closer.o)
 .debug_info    0x000113c2      0xa97 d:/altera/13.1/nios2eds/bin/gnu/h-i686-mingw32/bin/../lib/gcc/nios2-elf/4.7.3/../../../../../H-i686-mingw32/nios2-elf/lib\libc.a(lib_a-fclose.o)
 .debug_info    0x00011e59      0xb2f d:/altera/13.1/nios2eds/bin/gnu/h-i686-mingw32/bin/../lib/gcc/nios2-elf/4.7.3/../../../../../H-i686-mingw32/nios2-elf/lib\libc.a(lib_a-fstatr.o)
 .debug_info    0x00012988       0x84 d:/altera/13.1/nios2eds/bin/gnu/h-i686-mingw32/bin/../lib/gcc/nios2-elf/4.7.3/../../../../../H-i686-mingw32/nios2-elf/lib\libc.a(lib_a-int_errno.o)
 .debug_info    0x00012a0c      0x97f d:/altera/13.1/nios2eds/bin/gnu/h-i686-mingw32/bin/../lib/gcc/nios2-elf/4.7.3/../../../../../H-i686-mingw32/nios2-elf/lib\libc.a(lib_a-isattyr.o)
 .debug_info    0x0001338b      0x9cb d:/altera/13.1/nios2eds/bin/gnu/h-i686-mingw32/bin/../lib/gcc/nios2-elf/4.7.3/../../../../../H-i686-mingw32/nios2-elf/lib\libc.a(lib_a-lseekr.o)
 .debug_info    0x00013d56      0x9cb d:/altera/13.1/nios2eds/bin/gnu/h-i686-mingw32/bin/../lib/gcc/nios2-elf/4.7.3/../../../../../H-i686-mingw32/nios2-elf/lib\libc.a(lib_a-readr.o)
 .debug_info    0x00014721      0x718 d:/altera/13.1/nios2eds/bin/gnu/h-i686-mingw32/bin/../lib/gcc/nios2-elf/4.7.3\libgcc.a(_udivdi3.o)
 .debug_info    0x00014e39      0x771 d:/altera/13.1/nios2eds/bin/gnu/h-i686-mingw32/bin/../lib/gcc/nios2-elf/4.7.3\libgcc.a(_umoddi3.o)
 .debug_info    0x000155aa      0x588 d:/altera/13.1/nios2eds/bin/gnu/h-i686-mingw32/bin/../lib/gcc/nios2-elf/4.7.3\libgcc.a(_addsub_df.o)
 .debug_info    0x00015b32      0x519 d:/altera/13.1/nios2eds/bin/gnu/h-i686-mingw32/bin/../lib/gcc/nios2-elf/4.7.3\libgcc.a(_mul_df.o)
 .debug_info    0x0001604b      0x443 d:/altera/13.1/nios2eds/bin/gnu/h-i686-mingw32/bin/../lib/gcc/nios2-elf/4.7.3\libgcc.a(_div_df.o)
 .debug_info    0x0001648e      0x320 d:/altera/13.1/nios2eds/bin/gnu/h-i686-mingw32/bin/../lib/gcc/nios2-elf/4.7.3\libgcc.a(_eq_df.o)
 .debug_info    0x000167ae      0x320 d:/altera/13.1/nios2eds/bin/gnu/h-i686-mingw32/bin/../lib/gcc/nios2-elf/4.7.3\libgcc.a(_ne_df.o)
 .debug_info    0x00016ace      0x320 d:/altera/13.1/nios2eds/bin/gnu/h-i686-mingw32/bin/../lib/gcc/nios2-elf/4.7.3\libgcc.a(_gt_df.o)
 .debug_info    0x00016dee      0x320 d:/altera/13.1/nios2eds/bin/gnu/h-i686-mingw32/bin/../lib/gcc/nios2-elf/4.7.3\libgcc.a(_ge_df.o)
 .debug_info    0x0001710e      0x320 d:/altera/13.1/nios2eds/bin/gnu/h-i686-mingw32/bin/../lib/gcc/nios2-elf/4.7.3\libgcc.a(_lt_df.o)
 .debug_info    0x0001742e      0x261 d:/altera/13.1/nios2eds/bin/gnu/h-i686-mingw32/bin/../lib/gcc/nios2-elf/4.7.3\libgcc.a(_si_to_df.o)
 .debug_info    0x0001768f      0x30b d:/altera/13.1/nios2eds/bin/gnu/h-i686-mingw32/bin/../lib/gcc/nios2-elf/4.7.3\libgcc.a(_df_to_si.o)
 .debug_info    0x0001799a      0x155 d:/altera/13.1/nios2eds/bin/gnu/h-i686-mingw32/bin/../lib/gcc/nios2-elf/4.7.3\libgcc.a(_thenan_df.o)
 .debug_info    0x00017aef      0x284 d:/altera/13.1/nios2eds/bin/gnu/h-i686-mingw32/bin/../lib/gcc/nios2-elf/4.7.3\libgcc.a(_usi_to_df.o)
 .debug_info    0x00017d73      0x289 d:/altera/13.1/nios2eds/bin/gnu/h-i686-mingw32/bin/../lib/gcc/nios2-elf/4.7.3\libgcc.a(lib2-divmod.o)
 .debug_info    0x00017ffc      0x1ea d:/altera/13.1/nios2eds/bin/gnu/h-i686-mingw32/bin/../lib/gcc/nios2-elf/4.7.3\libgcc.a(_muldi3.o)
 .debug_info    0x000181e6       0xac d:/altera/13.1/nios2eds/bin/gnu/h-i686-mingw32/bin/../lib/gcc/nios2-elf/4.7.3\libgcc.a(_clz.o)
 .debug_info    0x00018292      0x123 d:/altera/13.1/nios2eds/bin/gnu/h-i686-mingw32/bin/../lib/gcc/nios2-elf/4.7.3\libgcc.a(_clzsi2.o)
 .debug_info    0x000183b5      0x2f7 d:/altera/13.1/nios2eds/bin/gnu/h-i686-mingw32/bin/../lib/gcc/nios2-elf/4.7.3\libgcc.a(_pack_df.o)
 .debug_info    0x000186ac      0x265 d:/altera/13.1/nios2eds/bin/gnu/h-i686-mingw32/bin/../lib/gcc/nios2-elf/4.7.3\libgcc.a(_unpack_df.o)
 .debug_info    0x00018911      0x226 d:/altera/13.1/nios2eds/bin/gnu/h-i686-mingw32/bin/../lib/gcc/nios2-elf/4.7.3\libgcc.a(_fpcmp_parts_df.o)
 .debug_info    0x00018b37      0x185 d:/altera/13.1/nios2eds/bin/gnu/h-i686-mingw32/bin/../lib/gcc/nios2-elf/4.7.3\libgcc.a(_lshrdi3.o)
 .debug_info    0x00018cbc      0x185 d:/altera/13.1/nios2eds/bin/gnu/h-i686-mingw32/bin/../lib/gcc/nios2-elf/4.7.3\libgcc.a(_ashldi3.o)
 .debug_info    0x00018e41      0x388 F:/project/qsys_ucosii_mail_msg/qsys/software/uCosii_bsp/\libucosii_bsp.a(alt_close.o)
 .debug_info    0x000191c9      0x5dd F:/project/qsys_ucosii_mail_msg/qsys/software/uCosii_bsp/\libucosii_bsp.a(alt_dev.o)
 .debug_info    0x000197a6       0xa3 F:/project/qsys_ucosii_mail_msg/qsys/software/uCosii_bsp/\libucosii_bsp.a(alt_errno.o)
 .debug_info    0x00019849      0x510 F:/project/qsys_ucosii_mail_msg/qsys/software/uCosii_bsp/\libucosii_bsp.a(alt_fstat.o)
 .debug_info    0x00019d59      0x513 F:/project/qsys_ucosii_mail_msg/qsys/software/uCosii_bsp/\libucosii_bsp.a(alt_isatty.o)
 .debug_info    0x0001a26c      0x3b9 F:/project/qsys_ucosii_mail_msg/qsys/software/uCosii_bsp/\libucosii_bsp.a(alt_lseek.o)
 .debug_info    0x0001a625      0x28b F:/project/qsys_ucosii_mail_msg/qsys/software/uCosii_bsp/\libucosii_bsp.a(alt_main.o)
 .debug_info    0x0001a8b0      0x538 F:/project/qsys_ucosii_mail_msg/qsys/software/uCosii_bsp/\libucosii_bsp.a(alt_read.o)
 .debug_info    0x0001ade8      0x323 F:/project/qsys_ucosii_mail_msg/qsys/software/uCosii_bsp/\libucosii_bsp.a(alt_release_fd.o)
 .debug_info    0x0001b10b      0x1b2 F:/project/qsys_ucosii_mail_msg/qsys/software/uCosii_bsp/\libucosii_bsp.a(alt_sbrk.o)
 .debug_info    0x0001b2bd      0x53f F:/project/qsys_ucosii_mail_msg/qsys/software/uCosii_bsp/\libucosii_bsp.a(alt_write.o)
 .debug_info    0x0001b7fc      0xd5c F:/project/qsys_ucosii_mail_msg/qsys/software/uCosii_bsp/\libucosii_bsp.a(alt_env_lock.o)
 .debug_info    0x0001c558      0xea6 F:/project/qsys_ucosii_mail_msg/qsys/software/uCosii_bsp/\libucosii_bsp.a(alt_malloc_lock.o)
 .debug_info    0x0001d3fe     0x174b F:/project/qsys_ucosii_mail_msg/qsys/software/uCosii_bsp/\libucosii_bsp.a(os_core.o)
 .debug_info    0x0001eb49      0xb93 F:/project/qsys_ucosii_mail_msg/qsys/software/uCosii_bsp/\libucosii_bsp.a(os_dbg.o)
 .debug_info    0x0001f6dc     0x1040 F:/project/qsys_ucosii_mail_msg/qsys/software/uCosii_bsp/\libucosii_bsp.a(os_flag.o)
 .debug_info    0x0002071c      0xae9 F:/project/qsys_ucosii_mail_msg/qsys/software/uCosii_bsp/\libucosii_bsp.a(os_mbox.o)
 .debug_info    0x00021205      0x6ba F:/project/qsys_ucosii_mail_msg/qsys/software/uCosii_bsp/\libucosii_bsp.a(os_mem.o)
 .debug_info    0x000218bf      0xe4d F:/project/qsys_ucosii_mail_msg/qsys/software/uCosii_bsp/\libucosii_bsp.a(os_q.o)
 .debug_info    0x0002270c      0xa89 F:/project/qsys_ucosii_mail_msg/qsys/software/uCosii_bsp/\libucosii_bsp.a(os_sem.o)
 .debug_info    0x00023195     0x11bb F:/project/qsys_ucosii_mail_msg/qsys/software/uCosii_bsp/\libucosii_bsp.a(os_task.o)
 .debug_info    0x00024350      0x75d F:/project/qsys_ucosii_mail_msg/qsys/software/uCosii_bsp/\libucosii_bsp.a(os_time.o)
 .debug_info    0x00024aad      0x9a4 F:/project/qsys_ucosii_mail_msg/qsys/software/uCosii_bsp/\libucosii_bsp.a(alt_sys_init.o)
 .debug_info    0x00025451      0x8ae F:/project/qsys_ucosii_mail_msg/qsys/software/uCosii_bsp/\libucosii_bsp.a(altera_avalon_epcs_flash_controller.o)
 .debug_info    0x00025cff      0x6f3 F:/project/qsys_ucosii_mail_msg/qsys/software/uCosii_bsp/\libucosii_bsp.a(altera_avalon_jtag_uart_fd.o)
 .debug_info    0x000263f2      0x709 F:/project/qsys_ucosii_mail_msg/qsys/software/uCosii_bsp/\libucosii_bsp.a(altera_avalon_jtag_uart_init.o)
 .debug_info    0x00026afb      0x412 F:/project/qsys_ucosii_mail_msg/qsys/software/uCosii_bsp/\libucosii_bsp.a(altera_avalon_jtag_uart_ioctl.o)
 .debug_info    0x00026f0d      0x5c4 F:/project/qsys_ucosii_mail_msg/qsys/software/uCosii_bsp/\libucosii_bsp.a(altera_avalon_jtag_uart_read.o)
 .debug_info    0x000274d1      0x5c2 F:/project/qsys_ucosii_mail_msg/qsys/software/uCosii_bsp/\libucosii_bsp.a(altera_avalon_jtag_uart_write.o)
 .debug_info    0x00027a93      0x235 F:/project/qsys_ucosii_mail_msg/qsys/software/uCosii_bsp/\libucosii_bsp.a(altera_avalon_timer_sc.o)
 .debug_info    0x00027cc8      0x482 F:/project/qsys_ucosii_mail_msg/qsys/software/uCosii_bsp/\libucosii_bsp.a(epcs_commands.o)
 .debug_info    0x0002814a      0x2e4 F:/project/qsys_ucosii_mail_msg/qsys/software/uCosii_bsp/\libucosii_bsp.a(alt_alarm_start.o)
 .debug_info    0x0002842e      0x1b9 F:/project/qsys_ucosii_mail_msg/qsys/software/uCosii_bsp/\libucosii_bsp.a(alt_dev_llist_insert.o)
 .debug_info    0x000285e7       0x8d F:/project/qsys_ucosii_mail_msg/qsys/software/uCosii_bsp/\libucosii_bsp.a(alt_do_ctors.o)
 .debug_info    0x00028674       0x8d F:/project/qsys_ucosii_mail_msg/qsys/software/uCosii_bsp/\libucosii_bsp.a(alt_do_dtors.o)
 .debug_info    0x00028701      0x406 F:/project/qsys_ucosii_mail_msg/qsys/software/uCosii_bsp/\libucosii_bsp.a(alt_flash_dev.o)
 .debug_info    0x00028b07      0x364 F:/project/qsys_ucosii_mail_msg/qsys/software/uCosii_bsp/\libucosii_bsp.a(alt_iic.o)
 .debug_info    0x00028e6b      0x1f6 F:/project/qsys_ucosii_mail_msg/qsys/software/uCosii_bsp/\libucosii_bsp.a(alt_iic_isr_register.o)
 .debug_info    0x00029061      0x528 F:/project/qsys_ucosii_mail_msg/qsys/software/uCosii_bsp/\libucosii_bsp.a(alt_io_redirect.o)
 .debug_info    0x00029589       0x76 F:/project/qsys_ucosii_mail_msg/qsys/software/uCosii_bsp/\libucosii_bsp.a(alt_irq_entry.o)
 .debug_info    0x000295ff      0x1bd F:/project/qsys_ucosii_mail_msg/qsys/software/uCosii_bsp/\libucosii_bsp.a(alt_irq_handler.o)
 .debug_info    0x000297bc       0x8a F:/project/qsys_ucosii_mail_msg/qsys/software/uCosii_bsp/\libucosii_bsp.a(alt_irq_vars.o)
 .debug_info    0x00029846      0x41d F:/project/qsys_ucosii_mail_msg/qsys/software/uCosii_bsp/\libucosii_bsp.a(alt_open.o)
 .debug_info    0x00029c63      0x2bf F:/project/qsys_ucosii_mail_msg/qsys/software/uCosii_bsp/\libucosii_bsp.a(alt_tick.o)
 .debug_info    0x00029f22       0x90 F:/project/qsys_ucosii_mail_msg/qsys/software/uCosii_bsp/\libucosii_bsp.a(altera_nios2_qsys_irq.o)
 .debug_info    0x00029fb2       0x75 F:/project/qsys_ucosii_mail_msg/qsys/software/uCosii_bsp/\libucosii_bsp.a(os_cpu_a.o)
 .debug_info    0x0002a027      0xdff F:/project/qsys_ucosii_mail_msg/qsys/software/uCosii_bsp/\libucosii_bsp.a(os_cpu_c.o)
 .debug_info    0x0002ae26      0x18b F:/project/qsys_ucosii_mail_msg/qsys/software/uCosii_bsp/\libucosii_bsp.a(altera_avalon_spi.o)
 .debug_info    0x0002afb1       0x7c F:/project/qsys_ucosii_mail_msg/qsys/software/uCosii_bsp/\libucosii_bsp.a(alt_exception_entry.o)
 .debug_info    0x0002b02d      0x345 F:/project/qsys_ucosii_mail_msg/qsys/software/uCosii_bsp/\libucosii_bsp.a(alt_find_dev.o)
 .debug_info    0x0002b372      0x344 F:/project/qsys_ucosii_mail_msg/qsys/software/uCosii_bsp/\libucosii_bsp.a(alt_find_file.o)
 .debug_info    0x0002b6b6      0x486 F:/project/qsys_ucosii_mail_msg/qsys/software/uCosii_bsp/\libucosii_bsp.a(alt_get_fd.o)
 .debug_info    0x0002bb3c      0x1e6 d:/altera/13.1/nios2eds/bin/gnu/h-i686-mingw32/bin/../lib/gcc/nios2-elf/4.7.3/../../../../../H-i686-mingw32/nios2-elf/lib\libc.a(lib_a-atexit.o)
 .debug_info    0x0002bd22      0x993 d:/altera/13.1/nios2eds/bin/gnu/h-i686-mingw32/bin/../lib/gcc/nios2-elf/4.7.3/../../../../../H-i686-mingw32/nios2-elf/lib\libc.a(lib_a-exit.o)
 .debug_info    0x0002c6b5      0x117 d:/altera/13.1/nios2eds/bin/gnu/h-i686-mingw32/bin/../lib/gcc/nios2-elf/4.7.3/../../../../../H-i686-mingw32/nios2-elf/lib\libc.a(lib_a-memcmp.o)
 .debug_info    0x0002c7cc      0x9f9 d:/altera/13.1/nios2eds/bin/gnu/h-i686-mingw32/bin/../lib/gcc/nios2-elf/4.7.3/../../../../../H-i686-mingw32/nios2-elf/lib\libc.a(lib_a-__atexit.o)
 .debug_info    0x0002d1c5      0xa07 d:/altera/13.1/nios2eds/bin/gnu/h-i686-mingw32/bin/../lib/gcc/nios2-elf/4.7.3/../../../../../H-i686-mingw32/nios2-elf/lib\libc.a(lib_a-__call_atexit.o)
 .debug_info    0x0002dbcc       0xc5 d:/altera/13.1/nios2eds/bin/gnu/h-i686-mingw32/bin/../lib/gcc/nios2-elf/4.7.3\libgcc.a(_fixunsdfsi.o)
 .debug_info    0x0002dc91      0x141 F:/project/qsys_ucosii_mail_msg/qsys/software/uCosii_bsp/\libucosii_bsp.a(alt_exit.o)

.debug_abbrev   0x00000000     0xac3f
 *(.debug_abbrev)
 .debug_abbrev  0x00000000       0x14 F:/project/qsys_ucosii_mail_msg/qsys/software/uCosii_bsp//obj/HAL/src/crt0.o
 .debug_abbrev  0x00000014      0x108 obj/default/ucosii_mail_msg.o
 .debug_abbrev  0x0000011c      0x209 d:/altera/13.1/nios2eds/bin/gnu/h-i686-mingw32/bin/../lib/gcc/nios2-elf/4.7.3/../../../../../H-i686-mingw32/nios2-elf/lib\libc.a(lib_a-printf.o)
 .debug_abbrev  0x00000325      0x3d9 d:/altera/13.1/nios2eds/bin/gnu/h-i686-mingw32/bin/../lib/gcc/nios2-elf/4.7.3/../../../../../H-i686-mingw32/nios2-elf/lib\libc.a(lib_a-vfprintf.o)
 .debug_abbrev  0x000006fe      0x1d5 d:/altera/13.1/nios2eds/bin/gnu/h-i686-mingw32/bin/../lib/gcc/nios2-elf/4.7.3/../../../../../H-i686-mingw32/nios2-elf/lib\libc.a(lib_a-wsetup.o)
 .debug_abbrev  0x000008d3      0x2ab d:/altera/13.1/nios2eds/bin/gnu/h-i686-mingw32/bin/../lib/gcc/nios2-elf/4.7.3/../../../../../H-i686-mingw32/nios2-elf/lib\libc.a(lib_a-dtoa.o)
 .debug_abbrev  0x00000b7e      0x259 d:/altera/13.1/nios2eds/bin/gnu/h-i686-mingw32/bin/../lib/gcc/nios2-elf/4.7.3/../../../../../H-i686-mingw32/nios2-elf/lib\libc.a(lib_a-fflush.o)
 .debug_abbrev  0x00000dd7      0x317 d:/altera/13.1/nios2eds/bin/gnu/h-i686-mingw32/bin/../lib/gcc/nios2-elf/4.7.3/../../../../../H-i686-mingw32/nios2-elf/lib\libc.a(lib_a-findfp.o)
 .debug_abbrev  0x000010ee      0x25d d:/altera/13.1/nios2eds/bin/gnu/h-i686-mingw32/bin/../lib/gcc/nios2-elf/4.7.3/../../../../../H-i686-mingw32/nios2-elf/lib\libc.a(lib_a-freer.o)
 .debug_abbrev  0x0000134b      0x234 d:/altera/13.1/nios2eds/bin/gnu/h-i686-mingw32/bin/../lib/gcc/nios2-elf/4.7.3/../../../../../H-i686-mingw32/nios2-elf/lib\libc.a(lib_a-fvwrite.o)
 .debug_abbrev  0x0000157f      0x224 d:/altera/13.1/nios2eds/bin/gnu/h-i686-mingw32/bin/../lib/gcc/nios2-elf/4.7.3/../../../../../H-i686-mingw32/nios2-elf/lib\libc.a(lib_a-fwalk.o)
 .debug_abbrev  0x000017a3      0x162 d:/altera/13.1/nios2eds/bin/gnu/h-i686-mingw32/bin/../lib/gcc/nios2-elf/4.7.3/../../../../../H-i686-mingw32/nios2-elf/lib\libc.a(lib_a-impure.o)
 .debug_abbrev  0x00001905      0x29f d:/altera/13.1/nios2eds/bin/gnu/h-i686-mingw32/bin/../lib/gcc/nios2-elf/4.7.3/../../../../../H-i686-mingw32/nios2-elf/lib\libc.a(lib_a-locale.o)
 .debug_abbrev  0x00001ba4      0x1e8 d:/altera/13.1/nios2eds/bin/gnu/h-i686-mingw32/bin/../lib/gcc/nios2-elf/4.7.3/../../../../../H-i686-mingw32/nios2-elf/lib\libc.a(lib_a-makebuf.o)
 .debug_abbrev  0x00001d8c      0x284 d:/altera/13.1/nios2eds/bin/gnu/h-i686-mingw32/bin/../lib/gcc/nios2-elf/4.7.3/../../../../../H-i686-mingw32/nios2-elf/lib\libc.a(lib_a-mallocr.o)
 .debug_abbrev  0x00002010       0xab d:/altera/13.1/nios2eds/bin/gnu/h-i686-mingw32/bin/../lib/gcc/nios2-elf/4.7.3/../../../../../H-i686-mingw32/nios2-elf/lib\libc.a(lib_a-memchr.o)
 .debug_abbrev  0x000020bb       0x9c d:/altera/13.1/nios2eds/bin/gnu/h-i686-mingw32/bin/../lib/gcc/nios2-elf/4.7.3/../../../../../H-i686-mingw32/nios2-elf/lib\libc.a(lib_a-memcpy.o)
 .debug_abbrev  0x00002157       0x9c d:/altera/13.1/nios2eds/bin/gnu/h-i686-mingw32/bin/../lib/gcc/nios2-elf/4.7.3/../../../../../H-i686-mingw32/nios2-elf/lib\libc.a(lib_a-memmove.o)
 .debug_abbrev  0x000021f3       0xac d:/altera/13.1/nios2eds/bin/gnu/h-i686-mingw32/bin/../lib/gcc/nios2-elf/4.7.3/../../../../../H-i686-mingw32/nios2-elf/lib\libc.a(lib_a-memset.o)
 .debug_abbrev  0x0000229f      0x394 d:/altera/13.1/nios2eds/bin/gnu/h-i686-mingw32/bin/../lib/gcc/nios2-elf/4.7.3/../../../../../H-i686-mingw32/nios2-elf/lib\libc.a(lib_a-mprec.o)
 .debug_abbrev  0x00002633      0x242 d:/altera/13.1/nios2eds/bin/gnu/h-i686-mingw32/bin/../lib/gcc/nios2-elf/4.7.3/../../../../../H-i686-mingw32/nios2-elf/lib\libc.a(lib_a-reallocr.o)
 .debug_abbrev  0x00002875       0x6f d:/altera/13.1/nios2eds/bin/gnu/h-i686-mingw32/bin/../lib/gcc/nios2-elf/4.7.3/../../../../../H-i686-mingw32/nios2-elf/lib\libc.a(lib_a-s_isinfd.o)
 .debug_abbrev  0x000028e4       0x6f d:/altera/13.1/nios2eds/bin/gnu/h-i686-mingw32/bin/../lib/gcc/nios2-elf/4.7.3/../../../../../H-i686-mingw32/nios2-elf/lib\libc.a(lib_a-s_isnand.o)
 .debug_abbrev  0x00002953      0x1df d:/altera/13.1/nios2eds/bin/gnu/h-i686-mingw32/bin/../lib/gcc/nios2-elf/4.7.3/../../../../../H-i686-mingw32/nios2-elf/lib\libc.a(lib_a-sbrkr.o)
 .debug_abbrev  0x00002b32      0x226 d:/altera/13.1/nios2eds/bin/gnu/h-i686-mingw32/bin/../lib/gcc/nios2-elf/4.7.3/../../../../../H-i686-mingw32/nios2-elf/lib\libc.a(lib_a-stdio.o)
 .debug_abbrev  0x00002d58       0x74 d:/altera/13.1/nios2eds/bin/gnu/h-i686-mingw32/bin/../lib/gcc/nios2-elf/4.7.3/../../../../../H-i686-mingw32/nios2-elf/lib\libc.a(lib_a-strcmp.o)
 .debug_abbrev  0x00002dcc       0x90 d:/altera/13.1/nios2eds/bin/gnu/h-i686-mingw32/bin/../lib/gcc/nios2-elf/4.7.3/../../../../../H-i686-mingw32/nios2-elf/lib\libc.a(lib_a-strlen.o)
 .debug_abbrev  0x00002e5c      0x1c0 d:/altera/13.1/nios2eds/bin/gnu/h-i686-mingw32/bin/../lib/gcc/nios2-elf/4.7.3/../../../../../H-i686-mingw32/nios2-elf/lib\libc.a(lib_a-writer.o)
 .debug_abbrev  0x0000301c      0x1f5 d:/altera/13.1/nios2eds/bin/gnu/h-i686-mingw32/bin/../lib/gcc/nios2-elf/4.7.3/../../../../../H-i686-mingw32/nios2-elf/lib\libc.a(lib_a-callocr.o)
 .debug_abbrev  0x00003211      0x1bb d:/altera/13.1/nios2eds/bin/gnu/h-i686-mingw32/bin/../lib/gcc/nios2-elf/4.7.3/../../../../../H-i686-mingw32/nios2-elf/lib\libc.a(lib_a-closer.o)
 .debug_abbrev  0x000033cc      0x24e d:/altera/13.1/nios2eds/bin/gnu/h-i686-mingw32/bin/../lib/gcc/nios2-elf/4.7.3/../../../../../H-i686-mingw32/nios2-elf/lib\libc.a(lib_a-fclose.o)
 .debug_abbrev  0x0000361a      0x1ca d:/altera/13.1/nios2eds/bin/gnu/h-i686-mingw32/bin/../lib/gcc/nios2-elf/4.7.3/../../../../../H-i686-mingw32/nios2-elf/lib\libc.a(lib_a-fstatr.o)
 .debug_abbrev  0x000037e4       0x37 d:/altera/13.1/nios2eds/bin/gnu/h-i686-mingw32/bin/../lib/gcc/nios2-elf/4.7.3/../../../../../H-i686-mingw32/nios2-elf/lib\libc.a(lib_a-int_errno.o)
 .debug_abbrev  0x0000381b      0x1bb d:/altera/13.1/nios2eds/bin/gnu/h-i686-mingw32/bin/../lib/gcc/nios2-elf/4.7.3/../../../../../H-i686-mingw32/nios2-elf/lib\libc.a(lib_a-isattyr.o)
 .debug_abbrev  0x000039d6      0x1ca d:/altera/13.1/nios2eds/bin/gnu/h-i686-mingw32/bin/../lib/gcc/nios2-elf/4.7.3/../../../../../H-i686-mingw32/nios2-elf/lib\libc.a(lib_a-lseekr.o)
 .debug_abbrev  0x00003ba0      0x1bb d:/altera/13.1/nios2eds/bin/gnu/h-i686-mingw32/bin/../lib/gcc/nios2-elf/4.7.3/../../../../../H-i686-mingw32/nios2-elf/lib\libc.a(lib_a-readr.o)
 .debug_abbrev  0x00003d5b      0x170 d:/altera/13.1/nios2eds/bin/gnu/h-i686-mingw32/bin/../lib/gcc/nios2-elf/4.7.3\libgcc.a(_udivdi3.o)
 .debug_abbrev  0x00003ecb      0x193 d:/altera/13.1/nios2eds/bin/gnu/h-i686-mingw32/bin/../lib/gcc/nios2-elf/4.7.3\libgcc.a(_umoddi3.o)
 .debug_abbrev  0x0000405e      0x22d d:/altera/13.1/nios2eds/bin/gnu/h-i686-mingw32/bin/../lib/gcc/nios2-elf/4.7.3\libgcc.a(_addsub_df.o)
 .debug_abbrev  0x0000428b      0x240 d:/altera/13.1/nios2eds/bin/gnu/h-i686-mingw32/bin/../lib/gcc/nios2-elf/4.7.3\libgcc.a(_mul_df.o)
 .debug_abbrev  0x000044cb      0x245 d:/altera/13.1/nios2eds/bin/gnu/h-i686-mingw32/bin/../lib/gcc/nios2-elf/4.7.3\libgcc.a(_div_df.o)
 .debug_abbrev  0x00004710      0x1a5 d:/altera/13.1/nios2eds/bin/gnu/h-i686-mingw32/bin/../lib/gcc/nios2-elf/4.7.3\libgcc.a(_eq_df.o)
 .debug_abbrev  0x000048b5      0x1a5 d:/altera/13.1/nios2eds/bin/gnu/h-i686-mingw32/bin/../lib/gcc/nios2-elf/4.7.3\libgcc.a(_ne_df.o)
 .debug_abbrev  0x00004a5a      0x1a5 d:/altera/13.1/nios2eds/bin/gnu/h-i686-mingw32/bin/../lib/gcc/nios2-elf/4.7.3\libgcc.a(_gt_df.o)
 .debug_abbrev  0x00004bff      0x1a5 d:/altera/13.1/nios2eds/bin/gnu/h-i686-mingw32/bin/../lib/gcc/nios2-elf/4.7.3\libgcc.a(_ge_df.o)
 .debug_abbrev  0x00004da4      0x1a5 d:/altera/13.1/nios2eds/bin/gnu/h-i686-mingw32/bin/../lib/gcc/nios2-elf/4.7.3\libgcc.a(_lt_df.o)
 .debug_abbrev  0x00004f49      0x19c d:/altera/13.1/nios2eds/bin/gnu/h-i686-mingw32/bin/../lib/gcc/nios2-elf/4.7.3\libgcc.a(_si_to_df.o)
 .debug_abbrev  0x000050e5      0x1ae d:/altera/13.1/nios2eds/bin/gnu/h-i686-mingw32/bin/../lib/gcc/nios2-elf/4.7.3\libgcc.a(_df_to_si.o)
 .debug_abbrev  0x00005293       0xb6 d:/altera/13.1/nios2eds/bin/gnu/h-i686-mingw32/bin/../lib/gcc/nios2-elf/4.7.3\libgcc.a(_thenan_df.o)
 .debug_abbrev  0x00005349      0x1bf d:/altera/13.1/nios2eds/bin/gnu/h-i686-mingw32/bin/../lib/gcc/nios2-elf/4.7.3\libgcc.a(_usi_to_df.o)
 .debug_abbrev  0x00005508      0x112 d:/altera/13.1/nios2eds/bin/gnu/h-i686-mingw32/bin/../lib/gcc/nios2-elf/4.7.3\libgcc.a(lib2-divmod.o)
 .debug_abbrev  0x0000561a       0xe0 d:/altera/13.1/nios2eds/bin/gnu/h-i686-mingw32/bin/../lib/gcc/nios2-elf/4.7.3\libgcc.a(_muldi3.o)
 .debug_abbrev  0x000056fa       0x5d d:/altera/13.1/nios2eds/bin/gnu/h-i686-mingw32/bin/../lib/gcc/nios2-elf/4.7.3\libgcc.a(_clz.o)
 .debug_abbrev  0x00005757       0xbe d:/altera/13.1/nios2eds/bin/gnu/h-i686-mingw32/bin/../lib/gcc/nios2-elf/4.7.3\libgcc.a(_clzsi2.o)
 .debug_abbrev  0x00005815      0x1b6 d:/altera/13.1/nios2eds/bin/gnu/h-i686-mingw32/bin/../lib/gcc/nios2-elf/4.7.3\libgcc.a(_pack_df.o)
 .debug_abbrev  0x000059cb      0x15d d:/altera/13.1/nios2eds/bin/gnu/h-i686-mingw32/bin/../lib/gcc/nios2-elf/4.7.3\libgcc.a(_unpack_df.o)
 .debug_abbrev  0x00005b28      0x146 d:/altera/13.1/nios2eds/bin/gnu/h-i686-mingw32/bin/../lib/gcc/nios2-elf/4.7.3\libgcc.a(_fpcmp_parts_df.o)
 .debug_abbrev  0x00005c6e       0xf1 d:/altera/13.1/nios2eds/bin/gnu/h-i686-mingw32/bin/../lib/gcc/nios2-elf/4.7.3\libgcc.a(_lshrdi3.o)
 .debug_abbrev  0x00005d5f       0xf1 d:/altera/13.1/nios2eds/bin/gnu/h-i686-mingw32/bin/../lib/gcc/nios2-elf/4.7.3\libgcc.a(_ashldi3.o)
 .debug_abbrev  0x00005e50      0x126 F:/project/qsys_ucosii_mail_msg/qsys/software/uCosii_bsp/\libucosii_bsp.a(alt_close.o)
 .debug_abbrev  0x00005f76      0x11c F:/project/qsys_ucosii_mail_msg/qsys/software/uCosii_bsp/\libucosii_bsp.a(alt_dev.o)
 .debug_abbrev  0x00006092       0x5a F:/project/qsys_ucosii_mail_msg/qsys/software/uCosii_bsp/\libucosii_bsp.a(alt_errno.o)
 .debug_abbrev  0x000060ec      0x126 F:/project/qsys_ucosii_mail_msg/qsys/software/uCosii_bsp/\libucosii_bsp.a(alt_fstat.o)
 .debug_abbrev  0x00006212      0x126 F:/project/qsys_ucosii_mail_msg/qsys/software/uCosii_bsp/\libucosii_bsp.a(alt_isatty.o)
 .debug_abbrev  0x00006338      0x126 F:/project/qsys_ucosii_mail_msg/qsys/software/uCosii_bsp/\libucosii_bsp.a(alt_lseek.o)
 .debug_abbrev  0x0000645e      0x139 F:/project/qsys_ucosii_mail_msg/qsys/software/uCosii_bsp/\libucosii_bsp.a(alt_main.o)
 .debug_abbrev  0x00006597      0x135 F:/project/qsys_ucosii_mail_msg/qsys/software/uCosii_bsp/\libucosii_bsp.a(alt_read.o)
 .debug_abbrev  0x000066cc       0xe5 F:/project/qsys_ucosii_mail_msg/qsys/software/uCosii_bsp/\libucosii_bsp.a(alt_release_fd.o)
 .debug_abbrev  0x000067b1      0x112 F:/project/qsys_ucosii_mail_msg/qsys/software/uCosii_bsp/\libucosii_bsp.a(alt_sbrk.o)
 .debug_abbrev  0x000068c3      0x13a F:/project/qsys_ucosii_mail_msg/qsys/software/uCosii_bsp/\libucosii_bsp.a(alt_write.o)
 .debug_abbrev  0x000069fd      0x1b6 F:/project/qsys_ucosii_mail_msg/qsys/software/uCosii_bsp/\libucosii_bsp.a(alt_env_lock.o)
 .debug_abbrev  0x00006bb3      0x240 F:/project/qsys_ucosii_mail_msg/qsys/software/uCosii_bsp/\libucosii_bsp.a(alt_malloc_lock.o)
 .debug_abbrev  0x00006df3      0x302 F:/project/qsys_ucosii_mail_msg/qsys/software/uCosii_bsp/\libucosii_bsp.a(os_core.o)
 .debug_abbrev  0x000070f5       0xf7 F:/project/qsys_ucosii_mail_msg/qsys/software/uCosii_bsp/\libucosii_bsp.a(os_dbg.o)
 .debug_abbrev  0x000071ec      0x25a F:/project/qsys_ucosii_mail_msg/qsys/software/uCosii_bsp/\libucosii_bsp.a(os_flag.o)
 .debug_abbrev  0x00007446      0x21f F:/project/qsys_ucosii_mail_msg/qsys/software/uCosii_bsp/\libucosii_bsp.a(os_mbox.o)
 .debug_abbrev  0x00007665      0x228 F:/project/qsys_ucosii_mail_msg/qsys/software/uCosii_bsp/\libucosii_bsp.a(os_mem.o)
 .debug_abbrev  0x0000788d      0x248 F:/project/qsys_ucosii_mail_msg/qsys/software/uCosii_bsp/\libucosii_bsp.a(os_q.o)
 .debug_abbrev  0x00007ad5      0x262 F:/project/qsys_ucosii_mail_msg/qsys/software/uCosii_bsp/\libucosii_bsp.a(os_sem.o)
 .debug_abbrev  0x00007d37      0x247 F:/project/qsys_ucosii_mail_msg/qsys/software/uCosii_bsp/\libucosii_bsp.a(os_task.o)
 .debug_abbrev  0x00007f7e      0x20c F:/project/qsys_ucosii_mail_msg/qsys/software/uCosii_bsp/\libucosii_bsp.a(os_time.o)
 .debug_abbrev  0x0000818a      0x1bb F:/project/qsys_ucosii_mail_msg/qsys/software/uCosii_bsp/\libucosii_bsp.a(alt_sys_init.o)
 .debug_abbrev  0x00008345      0x1c9 F:/project/qsys_ucosii_mail_msg/qsys/software/uCosii_bsp/\libucosii_bsp.a(altera_avalon_epcs_flash_controller.o)
 .debug_abbrev  0x0000850e      0x15d F:/project/qsys_ucosii_mail_msg/qsys/software/uCosii_bsp/\libucosii_bsp.a(altera_avalon_jtag_uart_fd.o)
 .debug_abbrev  0x0000866b      0x240 F:/project/qsys_ucosii_mail_msg/qsys/software/uCosii_bsp/\libucosii_bsp.a(altera_avalon_jtag_uart_init.o)
 .debug_abbrev  0x000088ab      0x147 F:/project/qsys_ucosii_mail_msg/qsys/software/uCosii_bsp/\libucosii_bsp.a(altera_avalon_jtag_uart_ioctl.o)
 .debug_abbrev  0x000089f2      0x1e9 F:/project/qsys_ucosii_mail_msg/qsys/software/uCosii_bsp/\libucosii_bsp.a(altera_avalon_jtag_uart_read.o)
 .debug_abbrev  0x00008bdb      0x1e7 F:/project/qsys_ucosii_mail_msg/qsys/software/uCosii_bsp/\libucosii_bsp.a(altera_avalon_jtag_uart_write.o)
 .debug_abbrev  0x00008dc2      0x155 F:/project/qsys_ucosii_mail_msg/qsys/software/uCosii_bsp/\libucosii_bsp.a(altera_avalon_timer_sc.o)
 .debug_abbrev  0x00008f17      0x169 F:/project/qsys_ucosii_mail_msg/qsys/software/uCosii_bsp/\libucosii_bsp.a(epcs_commands.o)
 .debug_abbrev  0x00009080      0x162 F:/project/qsys_ucosii_mail_msg/qsys/software/uCosii_bsp/\libucosii_bsp.a(alt_alarm_start.o)
 .debug_abbrev  0x000091e2      0x114 F:/project/qsys_ucosii_mail_msg/qsys/software/uCosii_bsp/\libucosii_bsp.a(alt_dev_llist_insert.o)
 .debug_abbrev  0x000092f6       0x79 F:/project/qsys_ucosii_mail_msg/qsys/software/uCosii_bsp/\libucosii_bsp.a(alt_do_ctors.o)
 .debug_abbrev  0x0000936f       0x79 F:/project/qsys_ucosii_mail_msg/qsys/software/uCosii_bsp/\libucosii_bsp.a(alt_do_dtors.o)
 .debug_abbrev  0x000093e8      0x121 F:/project/qsys_ucosii_mail_msg/qsys/software/uCosii_bsp/\libucosii_bsp.a(alt_flash_dev.o)
 .debug_abbrev  0x00009509      0x16a F:/project/qsys_ucosii_mail_msg/qsys/software/uCosii_bsp/\libucosii_bsp.a(alt_iic.o)
 .debug_abbrev  0x00009673      0x169 F:/project/qsys_ucosii_mail_msg/qsys/software/uCosii_bsp/\libucosii_bsp.a(alt_iic_isr_register.o)
 .debug_abbrev  0x000097dc      0x11b F:/project/qsys_ucosii_mail_msg/qsys/software/uCosii_bsp/\libucosii_bsp.a(alt_io_redirect.o)
 .debug_abbrev  0x000098f7       0x12 F:/project/qsys_ucosii_mail_msg/qsys/software/uCosii_bsp/\libucosii_bsp.a(alt_irq_entry.o)
 .debug_abbrev  0x00009909      0x13c F:/project/qsys_ucosii_mail_msg/qsys/software/uCosii_bsp/\libucosii_bsp.a(alt_irq_handler.o)
 .debug_abbrev  0x00009a45       0x40 F:/project/qsys_ucosii_mail_msg/qsys/software/uCosii_bsp/\libucosii_bsp.a(alt_irq_vars.o)
 .debug_abbrev  0x00009a85      0x14f F:/project/qsys_ucosii_mail_msg/qsys/software/uCosii_bsp/\libucosii_bsp.a(alt_open.o)
 .debug_abbrev  0x00009bd4      0x15a F:/project/qsys_ucosii_mail_msg/qsys/software/uCosii_bsp/\libucosii_bsp.a(alt_tick.o)
 .debug_abbrev  0x00009d2e       0x42 F:/project/qsys_ucosii_mail_msg/qsys/software/uCosii_bsp/\libucosii_bsp.a(altera_nios2_qsys_irq.o)
 .debug_abbrev  0x00009d70       0x14 F:/project/qsys_ucosii_mail_msg/qsys/software/uCosii_bsp/\libucosii_bsp.a(os_cpu_a.o)
 .debug_abbrev  0x00009d84      0x1f7 F:/project/qsys_ucosii_mail_msg/qsys/software/uCosii_bsp/\libucosii_bsp.a(os_cpu_c.o)
 .debug_abbrev  0x00009f7b       0x8a F:/project/qsys_ucosii_mail_msg/qsys/software/uCosii_bsp/\libucosii_bsp.a(altera_avalon_spi.o)
 .debug_abbrev  0x0000a005       0x12 F:/project/qsys_ucosii_mail_msg/qsys/software/uCosii_bsp/\libucosii_bsp.a(alt_exception_entry.o)
 .debug_abbrev  0x0000a017       0xf7 F:/project/qsys_ucosii_mail_msg/qsys/software/uCosii_bsp/\libucosii_bsp.a(alt_find_dev.o)
 .debug_abbrev  0x0000a10e       0xf7 F:/project/qsys_ucosii_mail_msg/qsys/software/uCosii_bsp/\libucosii_bsp.a(alt_find_file.o)
 .debug_abbrev  0x0000a205      0x19b F:/project/qsys_ucosii_mail_msg/qsys/software/uCosii_bsp/\libucosii_bsp.a(alt_get_fd.o)
 .debug_abbrev  0x0000a3a0      0x106 d:/altera/13.1/nios2eds/bin/gnu/h-i686-mingw32/bin/../lib/gcc/nios2-elf/4.7.3/../../../../../H-i686-mingw32/nios2-elf/lib\libc.a(lib_a-atexit.o)
 .debug_abbrev  0x0000a4a6      0x1c8 d:/altera/13.1/nios2eds/bin/gnu/h-i686-mingw32/bin/../lib/gcc/nios2-elf/4.7.3/../../../../../H-i686-mingw32/nios2-elf/lib\libc.a(lib_a-exit.o)
 .debug_abbrev  0x0000a66e       0x7f d:/altera/13.1/nios2eds/bin/gnu/h-i686-mingw32/bin/../lib/gcc/nios2-elf/4.7.3/../../../../../H-i686-mingw32/nios2-elf/lib\libc.a(lib_a-memcmp.o)
 .debug_abbrev  0x0000a6ed      0x211 d:/altera/13.1/nios2eds/bin/gnu/h-i686-mingw32/bin/../lib/gcc/nios2-elf/4.7.3/../../../../../H-i686-mingw32/nios2-elf/lib\libc.a(lib_a-__atexit.o)
 .debug_abbrev  0x0000a8fe      0x203 d:/altera/13.1/nios2eds/bin/gnu/h-i686-mingw32/bin/../lib/gcc/nios2-elf/4.7.3/../../../../../H-i686-mingw32/nios2-elf/lib\libc.a(lib_a-__call_atexit.o)
 .debug_abbrev  0x0000ab01       0x60 d:/altera/13.1/nios2eds/bin/gnu/h-i686-mingw32/bin/../lib/gcc/nios2-elf/4.7.3\libgcc.a(_fixunsdfsi.o)
 .debug_abbrev  0x0000ab61       0xde F:/project/qsys_ucosii_mail_msg/qsys/software/uCosii_bsp/\libucosii_bsp.a(alt_exit.o)

.debug_line     0x00000000     0xcc11
 *(.debug_line)
 .debug_line    0x00000000       0x57 F:/project/qsys_ucosii_mail_msg/qsys/software/uCosii_bsp//obj/HAL/src/crt0.o
 .debug_line    0x00000057      0x1dd obj/default/ucosii_mail_msg.o
 .debug_line    0x00000234      0x218 d:/altera/13.1/nios2eds/bin/gnu/h-i686-mingw32/bin/../lib/gcc/nios2-elf/4.7.3/../../../../../H-i686-mingw32/nios2-elf/lib\libc.a(lib_a-printf.o)
 .debug_line    0x0000044c      0xaf9 d:/altera/13.1/nios2eds/bin/gnu/h-i686-mingw32/bin/../lib/gcc/nios2-elf/4.7.3/../../../../../H-i686-mingw32/nios2-elf/lib\libc.a(lib_a-vfprintf.o)
 .debug_line    0x00000f45      0x26b d:/altera/13.1/nios2eds/bin/gnu/h-i686-mingw32/bin/../lib/gcc/nios2-elf/4.7.3/../../../../../H-i686-mingw32/nios2-elf/lib\libc.a(lib_a-wsetup.o)
 .debug_line    0x000011b0      0x876 d:/altera/13.1/nios2eds/bin/gnu/h-i686-mingw32/bin/../lib/gcc/nios2-elf/4.7.3/../../../../../H-i686-mingw32/nios2-elf/lib\libc.a(lib_a-dtoa.o)
 .debug_line    0x00001a26      0x29c d:/altera/13.1/nios2eds/bin/gnu/h-i686-mingw32/bin/../lib/gcc/nios2-elf/4.7.3/../../../../../H-i686-mingw32/nios2-elf/lib\libc.a(lib_a-fflush.o)
 .debug_line    0x00001cc2      0x2e6 d:/altera/13.1/nios2eds/bin/gnu/h-i686-mingw32/bin/../lib/gcc/nios2-elf/4.7.3/../../../../../H-i686-mingw32/nios2-elf/lib\libc.a(lib_a-findfp.o)
 .debug_line    0x00001fa8      0x311 d:/altera/13.1/nios2eds/bin/gnu/h-i686-mingw32/bin/../lib/gcc/nios2-elf/4.7.3/../../../../../H-i686-mingw32/nios2-elf/lib\libc.a(lib_a-freer.o)
 .debug_line    0x000022b9      0x360 d:/altera/13.1/nios2eds/bin/gnu/h-i686-mingw32/bin/../lib/gcc/nios2-elf/4.7.3/../../../../../H-i686-mingw32/nios2-elf/lib\libc.a(lib_a-fvwrite.o)
 .debug_line    0x00002619      0x259 d:/altera/13.1/nios2eds/bin/gnu/h-i686-mingw32/bin/../lib/gcc/nios2-elf/4.7.3/../../../../../H-i686-mingw32/nios2-elf/lib\libc.a(lib_a-fwalk.o)
 .debug_line    0x00002872      0x173 d:/altera/13.1/nios2eds/bin/gnu/h-i686-mingw32/bin/../lib/gcc/nios2-elf/4.7.3/../../../../../H-i686-mingw32/nios2-elf/lib\libc.a(lib_a-impure.o)
 .debug_line    0x000029e5      0x231 d:/altera/13.1/nios2eds/bin/gnu/h-i686-mingw32/bin/../lib/gcc/nios2-elf/4.7.3/../../../../../H-i686-mingw32/nios2-elf/lib\libc.a(lib_a-locale.o)
 .debug_line    0x00002c16      0x293 d:/altera/13.1/nios2eds/bin/gnu/h-i686-mingw32/bin/../lib/gcc/nios2-elf/4.7.3/../../../../../H-i686-mingw32/nios2-elf/lib\libc.a(lib_a-makebuf.o)
 .debug_line    0x00002ea9      0x421 d:/altera/13.1/nios2eds/bin/gnu/h-i686-mingw32/bin/../lib/gcc/nios2-elf/4.7.3/../../../../../H-i686-mingw32/nios2-elf/lib\libc.a(lib_a-mallocr.o)
 .debug_line    0x000032ca      0x1f1 d:/altera/13.1/nios2eds/bin/gnu/h-i686-mingw32/bin/../lib/gcc/nios2-elf/4.7.3/../../../../../H-i686-mingw32/nios2-elf/lib\libc.a(lib_a-memchr.o)
 .debug_line    0x000034bb      0x13d d:/altera/13.1/nios2eds/bin/gnu/h-i686-mingw32/bin/../lib/gcc/nios2-elf/4.7.3/../../../../../H-i686-mingw32/nios2-elf/lib\libc.a(lib_a-memcpy.o)
 .debug_line    0x000035f8      0x1ed d:/altera/13.1/nios2eds/bin/gnu/h-i686-mingw32/bin/../lib/gcc/nios2-elf/4.7.3/../../../../../H-i686-mingw32/nios2-elf/lib\libc.a(lib_a-memmove.o)
 .debug_line    0x000037e5      0x1f1 d:/altera/13.1/nios2eds/bin/gnu/h-i686-mingw32/bin/../lib/gcc/nios2-elf/4.7.3/../../../../../H-i686-mingw32/nios2-elf/lib\libc.a(lib_a-memset.o)
 .debug_line    0x000039d6      0x725 d:/altera/13.1/nios2eds/bin/gnu/h-i686-mingw32/bin/../lib/gcc/nios2-elf/4.7.3/../../../../../H-i686-mingw32/nios2-elf/lib\libc.a(lib_a-mprec.o)
 .debug_line    0x000040fb      0x330 d:/altera/13.1/nios2eds/bin/gnu/h-i686-mingw32/bin/../lib/gcc/nios2-elf/4.7.3/../../../../../H-i686-mingw32/nios2-elf/lib\libc.a(lib_a-reallocr.o)
 .debug_line    0x0000442b      0x170 d:/altera/13.1/nios2eds/bin/gnu/h-i686-mingw32/bin/../lib/gcc/nios2-elf/4.7.3/../../../../../H-i686-mingw32/nios2-elf/lib\libc.a(lib_a-s_isinfd.o)
 .debug_line    0x0000459b      0x170 d:/altera/13.1/nios2eds/bin/gnu/h-i686-mingw32/bin/../lib/gcc/nios2-elf/4.7.3/../../../../../H-i686-mingw32/nios2-elf/lib\libc.a(lib_a-s_isnand.o)
 .debug_line    0x0000470b      0x212 d:/altera/13.1/nios2eds/bin/gnu/h-i686-mingw32/bin/../lib/gcc/nios2-elf/4.7.3/../../../../../H-i686-mingw32/nios2-elf/lib\libc.a(lib_a-sbrkr.o)
 .debug_line    0x0000491d      0x245 d:/altera/13.1/nios2eds/bin/gnu/h-i686-mingw32/bin/../lib/gcc/nios2-elf/4.7.3/../../../../../H-i686-mingw32/nios2-elf/lib\libc.a(lib_a-stdio.o)
 .debug_line    0x00004b62      0x110 d:/altera/13.1/nios2eds/bin/gnu/h-i686-mingw32/bin/../lib/gcc/nios2-elf/4.7.3/../../../../../H-i686-mingw32/nios2-elf/lib\libc.a(lib_a-strcmp.o)
 .debug_line    0x00004c72      0x182 d:/altera/13.1/nios2eds/bin/gnu/h-i686-mingw32/bin/../lib/gcc/nios2-elf/4.7.3/../../../../../H-i686-mingw32/nios2-elf/lib\libc.a(lib_a-strlen.o)
 .debug_line    0x00004df4      0x213 d:/altera/13.1/nios2eds/bin/gnu/h-i686-mingw32/bin/../lib/gcc/nios2-elf/4.7.3/../../../../../H-i686-mingw32/nios2-elf/lib\libc.a(lib_a-writer.o)
 .debug_line    0x00005007      0x1c9 d:/altera/13.1/nios2eds/bin/gnu/h-i686-mingw32/bin/../lib/gcc/nios2-elf/4.7.3/../../../../../H-i686-mingw32/nios2-elf/lib\libc.a(lib_a-callocr.o)
 .debug_line    0x000051d0      0x213 d:/altera/13.1/nios2eds/bin/gnu/h-i686-mingw32/bin/../lib/gcc/nios2-elf/4.7.3/../../../../../H-i686-mingw32/nios2-elf/lib\libc.a(lib_a-closer.o)
 .debug_line    0x000053e3      0x266 d:/altera/13.1/nios2eds/bin/gnu/h-i686-mingw32/bin/../lib/gcc/nios2-elf/4.7.3/../../../../../H-i686-mingw32/nios2-elf/lib\libc.a(lib_a-fclose.o)
 .debug_line    0x00005649      0x21c d:/altera/13.1/nios2eds/bin/gnu/h-i686-mingw32/bin/../lib/gcc/nios2-elf/4.7.3/../../../../../H-i686-mingw32/nios2-elf/lib\libc.a(lib_a-fstatr.o)
 .debug_line    0x00005865       0x5d d:/altera/13.1/nios2eds/bin/gnu/h-i686-mingw32/bin/../lib/gcc/nios2-elf/4.7.3/../../../../../H-i686-mingw32/nios2-elf/lib\libc.a(lib_a-int_errno.o)
 .debug_line    0x000058c2      0x214 d:/altera/13.1/nios2eds/bin/gnu/h-i686-mingw32/bin/../lib/gcc/nios2-elf/4.7.3/../../../../../H-i686-mingw32/nios2-elf/lib\libc.a(lib_a-isattyr.o)
 .debug_line    0x00005ad6      0x21e d:/altera/13.1/nios2eds/bin/gnu/h-i686-mingw32/bin/../lib/gcc/nios2-elf/4.7.3/../../../../../H-i686-mingw32/nios2-elf/lib\libc.a(lib_a-lseekr.o)
 .debug_line    0x00005cf4      0x212 d:/altera/13.1/nios2eds/bin/gnu/h-i686-mingw32/bin/../lib/gcc/nios2-elf/4.7.3/../../../../../H-i686-mingw32/nios2-elf/lib\libc.a(lib_a-readr.o)
 .debug_line    0x00005f06      0x119 d:/altera/13.1/nios2eds/bin/gnu/h-i686-mingw32/bin/../lib/gcc/nios2-elf/4.7.3\libgcc.a(_udivdi3.o)
 .debug_line    0x0000601f      0x121 d:/altera/13.1/nios2eds/bin/gnu/h-i686-mingw32/bin/../lib/gcc/nios2-elf/4.7.3\libgcc.a(_umoddi3.o)
 .debug_line    0x00006140      0x131 d:/altera/13.1/nios2eds/bin/gnu/h-i686-mingw32/bin/../lib/gcc/nios2-elf/4.7.3\libgcc.a(_addsub_df.o)
 .debug_line    0x00006271      0x114 d:/altera/13.1/nios2eds/bin/gnu/h-i686-mingw32/bin/../lib/gcc/nios2-elf/4.7.3\libgcc.a(_mul_df.o)
 .debug_line    0x00006385       0xce d:/altera/13.1/nios2eds/bin/gnu/h-i686-mingw32/bin/../lib/gcc/nios2-elf/4.7.3\libgcc.a(_div_df.o)
 .debug_line    0x00006453       0x6d d:/altera/13.1/nios2eds/bin/gnu/h-i686-mingw32/bin/../lib/gcc/nios2-elf/4.7.3\libgcc.a(_eq_df.o)
 .debug_line    0x000064c0       0x6d d:/altera/13.1/nios2eds/bin/gnu/h-i686-mingw32/bin/../lib/gcc/nios2-elf/4.7.3\libgcc.a(_ne_df.o)
 .debug_line    0x0000652d       0x6e d:/altera/13.1/nios2eds/bin/gnu/h-i686-mingw32/bin/../lib/gcc/nios2-elf/4.7.3\libgcc.a(_gt_df.o)
 .debug_line    0x0000659b       0x6e d:/altera/13.1/nios2eds/bin/gnu/h-i686-mingw32/bin/../lib/gcc/nios2-elf/4.7.3\libgcc.a(_ge_df.o)
 .debug_line    0x00006609       0x6d d:/altera/13.1/nios2eds/bin/gnu/h-i686-mingw32/bin/../lib/gcc/nios2-elf/4.7.3\libgcc.a(_lt_df.o)
 .debug_line    0x00006676       0x94 d:/altera/13.1/nios2eds/bin/gnu/h-i686-mingw32/bin/../lib/gcc/nios2-elf/4.7.3\libgcc.a(_si_to_df.o)
 .debug_line    0x0000670a       0x8d d:/altera/13.1/nios2eds/bin/gnu/h-i686-mingw32/bin/../lib/gcc/nios2-elf/4.7.3\libgcc.a(_df_to_si.o)
 .debug_line    0x00006797       0x51 d:/altera/13.1/nios2eds/bin/gnu/h-i686-mingw32/bin/../lib/gcc/nios2-elf/4.7.3\libgcc.a(_thenan_df.o)
 .debug_line    0x000067e8       0x9e d:/altera/13.1/nios2eds/bin/gnu/h-i686-mingw32/bin/../lib/gcc/nios2-elf/4.7.3\libgcc.a(_usi_to_df.o)
 .debug_line    0x00006886       0xd3 d:/altera/13.1/nios2eds/bin/gnu/h-i686-mingw32/bin/../lib/gcc/nios2-elf/4.7.3\libgcc.a(lib2-divmod.o)
 .debug_line    0x00006959       0x8b d:/altera/13.1/nios2eds/bin/gnu/h-i686-mingw32/bin/../lib/gcc/nios2-elf/4.7.3\libgcc.a(_muldi3.o)
 .debug_line    0x000069e4       0x53 d:/altera/13.1/nios2eds/bin/gnu/h-i686-mingw32/bin/../lib/gcc/nios2-elf/4.7.3\libgcc.a(_clz.o)
 .debug_line    0x00006a37       0x8c d:/altera/13.1/nios2eds/bin/gnu/h-i686-mingw32/bin/../lib/gcc/nios2-elf/4.7.3\libgcc.a(_clzsi2.o)
 .debug_line    0x00006ac3       0xc7 d:/altera/13.1/nios2eds/bin/gnu/h-i686-mingw32/bin/../lib/gcc/nios2-elf/4.7.3\libgcc.a(_pack_df.o)
 .debug_line    0x00006b8a       0xa2 d:/altera/13.1/nios2eds/bin/gnu/h-i686-mingw32/bin/../lib/gcc/nios2-elf/4.7.3\libgcc.a(_unpack_df.o)
 .debug_line    0x00006c2c       0x96 d:/altera/13.1/nios2eds/bin/gnu/h-i686-mingw32/bin/../lib/gcc/nios2-elf/4.7.3\libgcc.a(_fpcmp_parts_df.o)
 .debug_line    0x00006cc2       0x77 d:/altera/13.1/nios2eds/bin/gnu/h-i686-mingw32/bin/../lib/gcc/nios2-elf/4.7.3\libgcc.a(_lshrdi3.o)
 .debug_line    0x00006d39       0x75 d:/altera/13.1/nios2eds/bin/gnu/h-i686-mingw32/bin/../lib/gcc/nios2-elf/4.7.3\libgcc.a(_ashldi3.o)
 .debug_line    0x00006dae      0x195 F:/project/qsys_ucosii_mail_msg/qsys/software/uCosii_bsp/\libucosii_bsp.a(alt_close.o)
 .debug_line    0x00006f43      0x15d F:/project/qsys_ucosii_mail_msg/qsys/software/uCosii_bsp/\libucosii_bsp.a(alt_dev.o)
 .debug_line    0x000070a0       0x51 F:/project/qsys_ucosii_mail_msg/qsys/software/uCosii_bsp/\libucosii_bsp.a(alt_errno.o)
 .debug_line    0x000070f1      0x18f F:/project/qsys_ucosii_mail_msg/qsys/software/uCosii_bsp/\libucosii_bsp.a(alt_fstat.o)
 .debug_line    0x00007280      0x18f F:/project/qsys_ucosii_mail_msg/qsys/software/uCosii_bsp/\libucosii_bsp.a(alt_isatty.o)
 .debug_line    0x0000740f      0x193 F:/project/qsys_ucosii_mail_msg/qsys/software/uCosii_bsp/\libucosii_bsp.a(alt_lseek.o)
 .debug_line    0x000075a2      0x130 F:/project/qsys_ucosii_mail_msg/qsys/software/uCosii_bsp/\libucosii_bsp.a(alt_main.o)
 .debug_line    0x000076d2      0x208 F:/project/qsys_ucosii_mail_msg/qsys/software/uCosii_bsp/\libucosii_bsp.a(alt_read.o)
 .debug_line    0x000078da       0xbd F:/project/qsys_ucosii_mail_msg/qsys/software/uCosii_bsp/\libucosii_bsp.a(alt_release_fd.o)
 .debug_line    0x00007997      0x114 F:/project/qsys_ucosii_mail_msg/qsys/software/uCosii_bsp/\libucosii_bsp.a(alt_sbrk.o)
 .debug_line    0x00007aab      0x207 F:/project/qsys_ucosii_mail_msg/qsys/software/uCosii_bsp/\libucosii_bsp.a(alt_write.o)
 .debug_line    0x00007cb2      0x1be F:/project/qsys_ucosii_mail_msg/qsys/software/uCosii_bsp/\libucosii_bsp.a(alt_env_lock.o)
 .debug_line    0x00007e70      0x223 F:/project/qsys_ucosii_mail_msg/qsys/software/uCosii_bsp/\libucosii_bsp.a(alt_malloc_lock.o)
 .debug_line    0x00008093      0x6ac F:/project/qsys_ucosii_mail_msg/qsys/software/uCosii_bsp/\libucosii_bsp.a(os_core.o)
 .debug_line    0x0000873f       0xd2 F:/project/qsys_ucosii_mail_msg/qsys/software/uCosii_bsp/\libucosii_bsp.a(os_dbg.o)
 .debug_line    0x00008811      0x519 F:/project/qsys_ucosii_mail_msg/qsys/software/uCosii_bsp/\libucosii_bsp.a(os_flag.o)
 .debug_line    0x00008d2a      0x322 F:/project/qsys_ucosii_mail_msg/qsys/software/uCosii_bsp/\libucosii_bsp.a(os_mbox.o)
 .debug_line    0x0000904c      0x242 F:/project/qsys_ucosii_mail_msg/qsys/software/uCosii_bsp/\libucosii_bsp.a(os_mem.o)
 .debug_line    0x0000928e      0x424 F:/project/qsys_ucosii_mail_msg/qsys/software/uCosii_bsp/\libucosii_bsp.a(os_q.o)
 .debug_line    0x000096b2      0x2fc F:/project/qsys_ucosii_mail_msg/qsys/software/uCosii_bsp/\libucosii_bsp.a(os_sem.o)
 .debug_line    0x000099ae      0x558 F:/project/qsys_ucosii_mail_msg/qsys/software/uCosii_bsp/\libucosii_bsp.a(os_task.o)
 .debug_line    0x00009f06      0x1b5 F:/project/qsys_ucosii_mail_msg/qsys/software/uCosii_bsp/\libucosii_bsp.a(os_time.o)
 .debug_line    0x0000a0bb      0x1ca F:/project/qsys_ucosii_mail_msg/qsys/software/uCosii_bsp/\libucosii_bsp.a(alt_sys_init.o)
 .debug_line    0x0000a285      0x2af F:/project/qsys_ucosii_mail_msg/qsys/software/uCosii_bsp/\libucosii_bsp.a(altera_avalon_epcs_flash_controller.o)
 .debug_line    0x0000a534      0x157 F:/project/qsys_ucosii_mail_msg/qsys/software/uCosii_bsp/\libucosii_bsp.a(altera_avalon_jtag_uart_fd.o)
 .debug_line    0x0000a68b      0x23c F:/project/qsys_ucosii_mail_msg/qsys/software/uCosii_bsp/\libucosii_bsp.a(altera_avalon_jtag_uart_init.o)
 .debug_line    0x0000a8c7      0x14f F:/project/qsys_ucosii_mail_msg/qsys/software/uCosii_bsp/\libucosii_bsp.a(altera_avalon_jtag_uart_ioctl.o)
 .debug_line    0x0000aa16      0x1e0 F:/project/qsys_ucosii_mail_msg/qsys/software/uCosii_bsp/\libucosii_bsp.a(altera_avalon_jtag_uart_read.o)
 .debug_line    0x0000abf6      0x1e1 F:/project/qsys_ucosii_mail_msg/qsys/software/uCosii_bsp/\libucosii_bsp.a(altera_avalon_jtag_uart_write.o)
 .debug_line    0x0000add7       0xfd F:/project/qsys_ucosii_mail_msg/qsys/software/uCosii_bsp/\libucosii_bsp.a(altera_avalon_timer_sc.o)
 .debug_line    0x0000aed4      0x118 F:/project/qsys_ucosii_mail_msg/qsys/software/uCosii_bsp/\libucosii_bsp.a(epcs_commands.o)
 .debug_line    0x0000afec       0xfa F:/project/qsys_ucosii_mail_msg/qsys/software/uCosii_bsp/\libucosii_bsp.a(alt_alarm_start.o)
 .debug_line    0x0000b0e6       0xd0 F:/project/qsys_ucosii_mail_msg/qsys/software/uCosii_bsp/\libucosii_bsp.a(alt_dev_llist_insert.o)
 .debug_line    0x0000b1b6       0x59 F:/project/qsys_ucosii_mail_msg/qsys/software/uCosii_bsp/\libucosii_bsp.a(alt_do_ctors.o)
 .debug_line    0x0000b20f       0x59 F:/project/qsys_ucosii_mail_msg/qsys/software/uCosii_bsp/\libucosii_bsp.a(alt_do_dtors.o)
 .debug_line    0x0000b268       0xed F:/project/qsys_ucosii_mail_msg/qsys/software/uCosii_bsp/\libucosii_bsp.a(alt_flash_dev.o)
 .debug_line    0x0000b355       0xed F:/project/qsys_ucosii_mail_msg/qsys/software/uCosii_bsp/\libucosii_bsp.a(alt_iic.o)
 .debug_line    0x0000b442       0xdb F:/project/qsys_ucosii_mail_msg/qsys/software/uCosii_bsp/\libucosii_bsp.a(alt_iic_isr_register.o)
 .debug_line    0x0000b51d      0x163 F:/project/qsys_ucosii_mail_msg/qsys/software/uCosii_bsp/\libucosii_bsp.a(alt_io_redirect.o)
 .debug_line    0x0000b680       0x6b F:/project/qsys_ucosii_mail_msg/qsys/software/uCosii_bsp/\libucosii_bsp.a(alt_irq_entry.o)
 .debug_line    0x0000b6eb       0xcc F:/project/qsys_ucosii_mail_msg/qsys/software/uCosii_bsp/\libucosii_bsp.a(alt_irq_handler.o)
 .debug_line    0x0000b7b7       0x50 F:/project/qsys_ucosii_mail_msg/qsys/software/uCosii_bsp/\libucosii_bsp.a(alt_irq_vars.o)
 .debug_line    0x0000b807      0x134 F:/project/qsys_ucosii_mail_msg/qsys/software/uCosii_bsp/\libucosii_bsp.a(alt_open.o)
 .debug_line    0x0000b93b      0x102 F:/project/qsys_ucosii_mail_msg/qsys/software/uCosii_bsp/\libucosii_bsp.a(alt_tick.o)
 .debug_line    0x0000ba3d       0x51 F:/project/qsys_ucosii_mail_msg/qsys/software/uCosii_bsp/\libucosii_bsp.a(altera_nios2_qsys_irq.o)
 .debug_line    0x0000ba8e       0x86 F:/project/qsys_ucosii_mail_msg/qsys/software/uCosii_bsp/\libucosii_bsp.a(os_cpu_a.o)
 .debug_line    0x0000bb14      0x1c7 F:/project/qsys_ucosii_mail_msg/qsys/software/uCosii_bsp/\libucosii_bsp.a(os_cpu_c.o)
 .debug_line    0x0000bcdb       0xb6 F:/project/qsys_ucosii_mail_msg/qsys/software/uCosii_bsp/\libucosii_bsp.a(altera_avalon_spi.o)
 .debug_line    0x0000bd91       0xab F:/project/qsys_ucosii_mail_msg/qsys/software/uCosii_bsp/\libucosii_bsp.a(alt_exception_entry.o)
 .debug_line    0x0000be3c       0xc8 F:/project/qsys_ucosii_mail_msg/qsys/software/uCosii_bsp/\libucosii_bsp.a(alt_find_dev.o)
 .debug_line    0x0000bf04       0xe4 F:/project/qsys_ucosii_mail_msg/qsys/software/uCosii_bsp/\libucosii_bsp.a(alt_find_file.o)
 .debug_line    0x0000bfe8      0x125 F:/project/qsys_ucosii_mail_msg/qsys/software/uCosii_bsp/\libucosii_bsp.a(alt_get_fd.o)
 .debug_line    0x0000c10d      0x16d d:/altera/13.1/nios2eds/bin/gnu/h-i686-mingw32/bin/../lib/gcc/nios2-elf/4.7.3/../../../../../H-i686-mingw32/nios2-elf/lib\libc.a(lib_a-atexit.o)
 .debug_line    0x0000c27a      0x219 d:/altera/13.1/nios2eds/bin/gnu/h-i686-mingw32/bin/../lib/gcc/nios2-elf/4.7.3/../../../../../H-i686-mingw32/nios2-elf/lib\libc.a(lib_a-exit.o)
 .debug_line    0x0000c493      0x18d d:/altera/13.1/nios2eds/bin/gnu/h-i686-mingw32/bin/../lib/gcc/nios2-elf/4.7.3/../../../../../H-i686-mingw32/nios2-elf/lib\libc.a(lib_a-memcmp.o)
 .debug_line    0x0000c620      0x250 d:/altera/13.1/nios2eds/bin/gnu/h-i686-mingw32/bin/../lib/gcc/nios2-elf/4.7.3/../../../../../H-i686-mingw32/nios2-elf/lib\libc.a(lib_a-__atexit.o)
 .debug_line    0x0000c870      0x264 d:/altera/13.1/nios2eds/bin/gnu/h-i686-mingw32/bin/../lib/gcc/nios2-elf/4.7.3/../../../../../H-i686-mingw32/nios2-elf/lib\libc.a(lib_a-__call_atexit.o)
 .debug_line    0x0000cad4       0x6e d:/altera/13.1/nios2eds/bin/gnu/h-i686-mingw32/bin/../lib/gcc/nios2-elf/4.7.3\libgcc.a(_fixunsdfsi.o)
 .debug_line    0x0000cb42       0xcf F:/project/qsys_ucosii_mail_msg/qsys/software/uCosii_bsp/\libucosii_bsp.a(alt_exit.o)

.debug_frame    0x00000000     0x2760
 *(.debug_frame)
 .debug_frame   0x00000000       0xf0 obj/default/ucosii_mail_msg.o
 .debug_frame   0x000000f0       0x40 d:/altera/13.1/nios2eds/bin/gnu/h-i686-mingw32/bin/../lib/gcc/nios2-elf/4.7.3/../../../../../H-i686-mingw32/nios2-elf/lib\libc.a(lib_a-printf.o)
 .debug_frame   0x00000130       0x64 d:/altera/13.1/nios2eds/bin/gnu/h-i686-mingw32/bin/../lib/gcc/nios2-elf/4.7.3/../../../../../H-i686-mingw32/nios2-elf/lib\libc.a(lib_a-vfprintf.o)
 .debug_frame   0x00000194       0x2c d:/altera/13.1/nios2eds/bin/gnu/h-i686-mingw32/bin/../lib/gcc/nios2-elf/4.7.3/../../../../../H-i686-mingw32/nios2-elf/lib\libc.a(lib_a-wsetup.o)
 .debug_frame   0x000001c0       0x64 d:/altera/13.1/nios2eds/bin/gnu/h-i686-mingw32/bin/../lib/gcc/nios2-elf/4.7.3/../../../../../H-i686-mingw32/nios2-elf/lib\libc.a(lib_a-dtoa.o)
 .debug_frame   0x00000224       0x40 d:/altera/13.1/nios2eds/bin/gnu/h-i686-mingw32/bin/../lib/gcc/nios2-elf/4.7.3/../../../../../H-i686-mingw32/nios2-elf/lib\libc.a(lib_a-fflush.o)
 .debug_frame   0x00000264      0x100 d:/altera/13.1/nios2eds/bin/gnu/h-i686-mingw32/bin/../lib/gcc/nios2-elf/4.7.3/../../../../../H-i686-mingw32/nios2-elf/lib\libc.a(lib_a-findfp.o)
 .debug_frame   0x00000364       0x4c d:/altera/13.1/nios2eds/bin/gnu/h-i686-mingw32/bin/../lib/gcc/nios2-elf/4.7.3/../../../../../H-i686-mingw32/nios2-elf/lib\libc.a(lib_a-freer.o)
 .debug_frame   0x000003b0       0x38 d:/altera/13.1/nios2eds/bin/gnu/h-i686-mingw32/bin/../lib/gcc/nios2-elf/4.7.3/../../../../../H-i686-mingw32/nios2-elf/lib\libc.a(lib_a-fvwrite.o)
 .debug_frame   0x000003e8       0x5c d:/altera/13.1/nios2eds/bin/gnu/h-i686-mingw32/bin/../lib/gcc/nios2-elf/4.7.3/../../../../../H-i686-mingw32/nios2-elf/lib\libc.a(lib_a-fwalk.o)
 .debug_frame   0x00000444       0x6c d:/altera/13.1/nios2eds/bin/gnu/h-i686-mingw32/bin/../lib/gcc/nios2-elf/4.7.3/../../../../../H-i686-mingw32/nios2-elf/lib\libc.a(lib_a-locale.o)
 .debug_frame   0x000004b0       0x2c d:/altera/13.1/nios2eds/bin/gnu/h-i686-mingw32/bin/../lib/gcc/nios2-elf/4.7.3/../../../../../H-i686-mingw32/nios2-elf/lib\libc.a(lib_a-makebuf.o)
 .debug_frame   0x000004dc       0x38 d:/altera/13.1/nios2eds/bin/gnu/h-i686-mingw32/bin/../lib/gcc/nios2-elf/4.7.3/../../../../../H-i686-mingw32/nios2-elf/lib\libc.a(lib_a-mallocr.o)
 .debug_frame   0x00000514       0x20 d:/altera/13.1/nios2eds/bin/gnu/h-i686-mingw32/bin/../lib/gcc/nios2-elf/4.7.3/../../../../../H-i686-mingw32/nios2-elf/lib\libc.a(lib_a-memchr.o)
 .debug_frame   0x00000534       0x20 d:/altera/13.1/nios2eds/bin/gnu/h-i686-mingw32/bin/../lib/gcc/nios2-elf/4.7.3/../../../../../H-i686-mingw32/nios2-elf/lib\libc.a(lib_a-memcpy.o)
 .debug_frame   0x00000554       0x20 d:/altera/13.1/nios2eds/bin/gnu/h-i686-mingw32/bin/../lib/gcc/nios2-elf/4.7.3/../../../../../H-i686-mingw32/nios2-elf/lib\libc.a(lib_a-memmove.o)
 .debug_frame   0x00000574       0x20 d:/altera/13.1/nios2eds/bin/gnu/h-i686-mingw32/bin/../lib/gcc/nios2-elf/4.7.3/../../../../../H-i686-mingw32/nios2-elf/lib\libc.a(lib_a-memset.o)
 .debug_frame   0x00000594      0x204 d:/altera/13.1/nios2eds/bin/gnu/h-i686-mingw32/bin/../lib/gcc/nios2-elf/4.7.3/../../../../../H-i686-mingw32/nios2-elf/lib\libc.a(lib_a-mprec.o)
 .debug_frame   0x00000798       0x38 d:/altera/13.1/nios2eds/bin/gnu/h-i686-mingw32/bin/../lib/gcc/nios2-elf/4.7.3/../../../../../H-i686-mingw32/nios2-elf/lib\libc.a(lib_a-reallocr.o)
 .debug_frame   0x000007d0       0x20 d:/altera/13.1/nios2eds/bin/gnu/h-i686-mingw32/bin/../lib/gcc/nios2-elf/4.7.3/../../../../../H-i686-mingw32/nios2-elf/lib\libc.a(lib_a-s_isinfd.o)
 .debug_frame   0x000007f0       0x20 d:/altera/13.1/nios2eds/bin/gnu/h-i686-mingw32/bin/../lib/gcc/nios2-elf/4.7.3/../../../../../H-i686-mingw32/nios2-elf/lib\libc.a(lib_a-s_isnand.o)
 .debug_frame   0x00000810       0x2c d:/altera/13.1/nios2eds/bin/gnu/h-i686-mingw32/bin/../lib/gcc/nios2-elf/4.7.3/../../../../../H-i686-mingw32/nios2-elf/lib\libc.a(lib_a-sbrkr.o)
 .debug_frame   0x0000083c       0x78 d:/altera/13.1/nios2eds/bin/gnu/h-i686-mingw32/bin/../lib/gcc/nios2-elf/4.7.3/../../../../../H-i686-mingw32/nios2-elf/lib\libc.a(lib_a-stdio.o)
 .debug_frame   0x000008b4       0x20 d:/altera/13.1/nios2eds/bin/gnu/h-i686-mingw32/bin/../lib/gcc/nios2-elf/4.7.3/../../../../../H-i686-mingw32/nios2-elf/lib\libc.a(lib_a-strcmp.o)
 .debug_frame   0x000008d4       0x20 d:/altera/13.1/nios2eds/bin/gnu/h-i686-mingw32/bin/../lib/gcc/nios2-elf/4.7.3/../../../../../H-i686-mingw32/nios2-elf/lib\libc.a(lib_a-strlen.o)
 .debug_frame   0x000008f4       0x2c d:/altera/13.1/nios2eds/bin/gnu/h-i686-mingw32/bin/../lib/gcc/nios2-elf/4.7.3/../../../../../H-i686-mingw32/nios2-elf/lib\libc.a(lib_a-writer.o)
 .debug_frame   0x00000920       0x28 d:/altera/13.1/nios2eds/bin/gnu/h-i686-mingw32/bin/../lib/gcc/nios2-elf/4.7.3/../../../../../H-i686-mingw32/nios2-elf/lib\libc.a(lib_a-callocr.o)
 .debug_frame   0x00000948       0x2c d:/altera/13.1/nios2eds/bin/gnu/h-i686-mingw32/bin/../lib/gcc/nios2-elf/4.7.3/../../../../../H-i686-mingw32/nios2-elf/lib\libc.a(lib_a-closer.o)
 .debug_frame   0x00000974       0x3c d:/altera/13.1/nios2eds/bin/gnu/h-i686-mingw32/bin/../lib/gcc/nios2-elf/4.7.3/../../../../../H-i686-mingw32/nios2-elf/lib\libc.a(lib_a-fclose.o)
 .debug_frame   0x000009b0       0x2c d:/altera/13.1/nios2eds/bin/gnu/h-i686-mingw32/bin/../lib/gcc/nios2-elf/4.7.3/../../../../../H-i686-mingw32/nios2-elf/lib\libc.a(lib_a-fstatr.o)
 .debug_frame   0x000009dc       0x2c d:/altera/13.1/nios2eds/bin/gnu/h-i686-mingw32/bin/../lib/gcc/nios2-elf/4.7.3/../../../../../H-i686-mingw32/nios2-elf/lib\libc.a(lib_a-isattyr.o)
 .debug_frame   0x00000a08       0x2c d:/altera/13.1/nios2eds/bin/gnu/h-i686-mingw32/bin/../lib/gcc/nios2-elf/4.7.3/../../../../../H-i686-mingw32/nios2-elf/lib\libc.a(lib_a-lseekr.o)
 .debug_frame   0x00000a34       0x2c d:/altera/13.1/nios2eds/bin/gnu/h-i686-mingw32/bin/../lib/gcc/nios2-elf/4.7.3/../../../../../H-i686-mingw32/nios2-elf/lib\libc.a(lib_a-readr.o)
 .debug_frame   0x00000a60       0x38 d:/altera/13.1/nios2eds/bin/gnu/h-i686-mingw32/bin/../lib/gcc/nios2-elf/4.7.3\libgcc.a(_udivdi3.o)
 .debug_frame   0x00000a98       0x38 d:/altera/13.1/nios2eds/bin/gnu/h-i686-mingw32/bin/../lib/gcc/nios2-elf/4.7.3\libgcc.a(_umoddi3.o)
 .debug_frame   0x00000ad0       0x50 d:/altera/13.1/nios2eds/bin/gnu/h-i686-mingw32/bin/../lib/gcc/nios2-elf/4.7.3\libgcc.a(_addsub_df.o)
 .debug_frame   0x00000b20       0x38 d:/altera/13.1/nios2eds/bin/gnu/h-i686-mingw32/bin/../lib/gcc/nios2-elf/4.7.3\libgcc.a(_mul_df.o)
 .debug_frame   0x00000b58       0x28 d:/altera/13.1/nios2eds/bin/gnu/h-i686-mingw32/bin/../lib/gcc/nios2-elf/4.7.3\libgcc.a(_div_df.o)
 .debug_frame   0x00000b80       0x28 d:/altera/13.1/nios2eds/bin/gnu/h-i686-mingw32/bin/../lib/gcc/nios2-elf/4.7.3\libgcc.a(_eq_df.o)
 .debug_frame   0x00000ba8       0x28 d:/altera/13.1/nios2eds/bin/gnu/h-i686-mingw32/bin/../lib/gcc/nios2-elf/4.7.3\libgcc.a(_ne_df.o)
 .debug_frame   0x00000bd0       0x28 d:/altera/13.1/nios2eds/bin/gnu/h-i686-mingw32/bin/../lib/gcc/nios2-elf/4.7.3\libgcc.a(_gt_df.o)
 .debug_frame   0x00000bf8       0x28 d:/altera/13.1/nios2eds/bin/gnu/h-i686-mingw32/bin/../lib/gcc/nios2-elf/4.7.3\libgcc.a(_ge_df.o)
 .debug_frame   0x00000c20       0x28 d:/altera/13.1/nios2eds/bin/gnu/h-i686-mingw32/bin/../lib/gcc/nios2-elf/4.7.3\libgcc.a(_lt_df.o)
 .debug_frame   0x00000c48       0x28 d:/altera/13.1/nios2eds/bin/gnu/h-i686-mingw32/bin/../lib/gcc/nios2-elf/4.7.3\libgcc.a(_si_to_df.o)
 .debug_frame   0x00000c70       0x28 d:/altera/13.1/nios2eds/bin/gnu/h-i686-mingw32/bin/../lib/gcc/nios2-elf/4.7.3\libgcc.a(_df_to_si.o)
 .debug_frame   0x00000c98       0x28 d:/altera/13.1/nios2eds/bin/gnu/h-i686-mingw32/bin/../lib/gcc/nios2-elf/4.7.3\libgcc.a(_usi_to_df.o)
 .debug_frame   0x00000cc0       0x70 d:/altera/13.1/nios2eds/bin/gnu/h-i686-mingw32/bin/../lib/gcc/nios2-elf/4.7.3\libgcc.a(lib2-divmod.o)
 .debug_frame   0x00000d30       0x20 d:/altera/13.1/nios2eds/bin/gnu/h-i686-mingw32/bin/../lib/gcc/nios2-elf/4.7.3\libgcc.a(_muldi3.o)
 .debug_frame   0x00000d50       0x20 d:/altera/13.1/nios2eds/bin/gnu/h-i686-mingw32/bin/../lib/gcc/nios2-elf/4.7.3\libgcc.a(_clzsi2.o)
 .debug_frame   0x00000d70       0x34 d:/altera/13.1/nios2eds/bin/gnu/h-i686-mingw32/bin/../lib/gcc/nios2-elf/4.7.3\libgcc.a(_pack_df.o)
 .debug_frame   0x00000da4       0x20 d:/altera/13.1/nios2eds/bin/gnu/h-i686-mingw32/bin/../lib/gcc/nios2-elf/4.7.3\libgcc.a(_unpack_df.o)
 .debug_frame   0x00000dc4       0x20 d:/altera/13.1/nios2eds/bin/gnu/h-i686-mingw32/bin/../lib/gcc/nios2-elf/4.7.3\libgcc.a(_fpcmp_parts_df.o)
 .debug_frame   0x00000de4       0x20 d:/altera/13.1/nios2eds/bin/gnu/h-i686-mingw32/bin/../lib/gcc/nios2-elf/4.7.3\libgcc.a(_lshrdi3.o)
 .debug_frame   0x00000e04       0x20 d:/altera/13.1/nios2eds/bin/gnu/h-i686-mingw32/bin/../lib/gcc/nios2-elf/4.7.3\libgcc.a(_ashldi3.o)
 .debug_frame   0x00000e24       0x48 F:/project/qsys_ucosii_mail_msg/qsys/software/uCosii_bsp/\libucosii_bsp.a(alt_close.o)
 .debug_frame   0x00000e6c       0x2c F:/project/qsys_ucosii_mail_msg/qsys/software/uCosii_bsp/\libucosii_bsp.a(alt_dev.o)
 .debug_frame   0x00000e98       0x48 F:/project/qsys_ucosii_mail_msg/qsys/software/uCosii_bsp/\libucosii_bsp.a(alt_fstat.o)
 .debug_frame   0x00000ee0       0x48 F:/project/qsys_ucosii_mail_msg/qsys/software/uCosii_bsp/\libucosii_bsp.a(alt_isatty.o)
 .debug_frame   0x00000f28       0x48 F:/project/qsys_ucosii_mail_msg/qsys/software/uCosii_bsp/\libucosii_bsp.a(alt_lseek.o)
 .debug_frame   0x00000f70       0x2c F:/project/qsys_ucosii_mail_msg/qsys/software/uCosii_bsp/\libucosii_bsp.a(alt_main.o)
 .debug_frame   0x00000f9c       0x48 F:/project/qsys_ucosii_mail_msg/qsys/software/uCosii_bsp/\libucosii_bsp.a(alt_read.o)
 .debug_frame   0x00000fe4       0x2c F:/project/qsys_ucosii_mail_msg/qsys/software/uCosii_bsp/\libucosii_bsp.a(alt_release_fd.o)
 .debug_frame   0x00001010       0x2c F:/project/qsys_ucosii_mail_msg/qsys/software/uCosii_bsp/\libucosii_bsp.a(alt_sbrk.o)
 .debug_frame   0x0000103c       0x48 F:/project/qsys_ucosii_mail_msg/qsys/software/uCosii_bsp/\libucosii_bsp.a(alt_write.o)
 .debug_frame   0x00001084       0x4c F:/project/qsys_ucosii_mail_msg/qsys/software/uCosii_bsp/\libucosii_bsp.a(alt_env_lock.o)
 .debug_frame   0x000010d0       0x4c F:/project/qsys_ucosii_mail_msg/qsys/software/uCosii_bsp/\libucosii_bsp.a(alt_malloc_lock.o)
 .debug_frame   0x0000111c      0x3e4 F:/project/qsys_ucosii_mail_msg/qsys/software/uCosii_bsp/\libucosii_bsp.a(os_core.o)
 .debug_frame   0x00001500       0x2c F:/project/qsys_ucosii_mail_msg/qsys/software/uCosii_bsp/\libucosii_bsp.a(os_dbg.o)
 .debug_frame   0x0000152c      0x17c F:/project/qsys_ucosii_mail_msg/qsys/software/uCosii_bsp/\libucosii_bsp.a(os_flag.o)
 .debug_frame   0x000016a8       0xf0 F:/project/qsys_ucosii_mail_msg/qsys/software/uCosii_bsp/\libucosii_bsp.a(os_mbox.o)
 .debug_frame   0x00001798       0xd4 F:/project/qsys_ucosii_mail_msg/qsys/software/uCosii_bsp/\libucosii_bsp.a(os_mem.o)
 .debug_frame   0x0000186c      0x144 F:/project/qsys_ucosii_mail_msg/qsys/software/uCosii_bsp/\libucosii_bsp.a(os_q.o)
 .debug_frame   0x000019b0       0xf0 F:/project/qsys_ucosii_mail_msg/qsys/software/uCosii_bsp/\libucosii_bsp.a(os_sem.o)
 .debug_frame   0x00001aa0      0x160 F:/project/qsys_ucosii_mail_msg/qsys/software/uCosii_bsp/\libucosii_bsp.a(os_task.o)
 .debug_frame   0x00001c00       0xa0 F:/project/qsys_ucosii_mail_msg/qsys/software/uCosii_bsp/\libucosii_bsp.a(os_time.o)
 .debug_frame   0x00001ca0       0x64 F:/project/qsys_ucosii_mail_msg/qsys/software/uCosii_bsp/\libucosii_bsp.a(alt_sys_init.o)
 .debug_frame   0x00001d04      0x128 F:/project/qsys_ucosii_mail_msg/qsys/software/uCosii_bsp/\libucosii_bsp.a(altera_avalon_epcs_flash_controller.o)
 .debug_frame   0x00001e2c       0x80 F:/project/qsys_ucosii_mail_msg/qsys/software/uCosii_bsp/\libucosii_bsp.a(altera_avalon_jtag_uart_fd.o)
 .debug_frame   0x00001eac       0x80 F:/project/qsys_ucosii_mail_msg/qsys/software/uCosii_bsp/\libucosii_bsp.a(altera_avalon_jtag_uart_init.o)
 .debug_frame   0x00001f2c       0x2c F:/project/qsys_ucosii_mail_msg/qsys/software/uCosii_bsp/\libucosii_bsp.a(altera_avalon_jtag_uart_ioctl.o)
 .debug_frame   0x00001f58       0x2c F:/project/qsys_ucosii_mail_msg/qsys/software/uCosii_bsp/\libucosii_bsp.a(altera_avalon_jtag_uart_read.o)
 .debug_frame   0x00001f84       0x2c F:/project/qsys_ucosii_mail_msg/qsys/software/uCosii_bsp/\libucosii_bsp.a(altera_avalon_jtag_uart_write.o)
 .debug_frame   0x00001fb0       0x48 F:/project/qsys_ucosii_mail_msg/qsys/software/uCosii_bsp/\libucosii_bsp.a(altera_avalon_timer_sc.o)
 .debug_frame   0x00001ff8      0x160 F:/project/qsys_ucosii_mail_msg/qsys/software/uCosii_bsp/\libucosii_bsp.a(epcs_commands.o)
 .debug_frame   0x00002158       0x2c F:/project/qsys_ucosii_mail_msg/qsys/software/uCosii_bsp/\libucosii_bsp.a(alt_alarm_start.o)
 .debug_frame   0x00002184       0x48 F:/project/qsys_ucosii_mail_msg/qsys/software/uCosii_bsp/\libucosii_bsp.a(alt_dev_llist_insert.o)
 .debug_frame   0x000021cc       0x2c F:/project/qsys_ucosii_mail_msg/qsys/software/uCosii_bsp/\libucosii_bsp.a(alt_do_ctors.o)
 .debug_frame   0x000021f8       0x2c F:/project/qsys_ucosii_mail_msg/qsys/software/uCosii_bsp/\libucosii_bsp.a(alt_do_dtors.o)
 .debug_frame   0x00002224       0x48 F:/project/qsys_ucosii_mail_msg/qsys/software/uCosii_bsp/\libucosii_bsp.a(alt_flash_dev.o)
 .debug_frame   0x0000226c       0x80 F:/project/qsys_ucosii_mail_msg/qsys/software/uCosii_bsp/\libucosii_bsp.a(alt_iic.o)
 .debug_frame   0x000022ec       0x2c F:/project/qsys_ucosii_mail_msg/qsys/software/uCosii_bsp/\libucosii_bsp.a(alt_iic_isr_register.o)
 .debug_frame   0x00002318       0x48 F:/project/qsys_ucosii_mail_msg/qsys/software/uCosii_bsp/\libucosii_bsp.a(alt_io_redirect.o)
 .debug_frame   0x00002360       0x2c F:/project/qsys_ucosii_mail_msg/qsys/software/uCosii_bsp/\libucosii_bsp.a(alt_irq_handler.o)
 .debug_frame   0x0000238c       0x64 F:/project/qsys_ucosii_mail_msg/qsys/software/uCosii_bsp/\libucosii_bsp.a(alt_open.o)
 .debug_frame   0x000023f0       0x48 F:/project/qsys_ucosii_mail_msg/qsys/software/uCosii_bsp/\libucosii_bsp.a(alt_tick.o)
 .debug_frame   0x00002438       0x2c F:/project/qsys_ucosii_mail_msg/qsys/software/uCosii_bsp/\libucosii_bsp.a(altera_nios2_qsys_irq.o)
 .debug_frame   0x00002464      0x128 F:/project/qsys_ucosii_mail_msg/qsys/software/uCosii_bsp/\libucosii_bsp.a(os_cpu_c.o)
 .debug_frame   0x0000258c       0x2c F:/project/qsys_ucosii_mail_msg/qsys/software/uCosii_bsp/\libucosii_bsp.a(altera_avalon_spi.o)
 .debug_frame   0x000025b8       0x2c F:/project/qsys_ucosii_mail_msg/qsys/software/uCosii_bsp/\libucosii_bsp.a(alt_find_dev.o)
 .debug_frame   0x000025e4       0x2c F:/project/qsys_ucosii_mail_msg/qsys/software/uCosii_bsp/\libucosii_bsp.a(alt_find_file.o)
 .debug_frame   0x00002610       0x2c F:/project/qsys_ucosii_mail_msg/qsys/software/uCosii_bsp/\libucosii_bsp.a(alt_get_fd.o)
 .debug_frame   0x0000263c       0x20 d:/altera/13.1/nios2eds/bin/gnu/h-i686-mingw32/bin/../lib/gcc/nios2-elf/4.7.3/../../../../../H-i686-mingw32/nios2-elf/lib\libc.a(lib_a-atexit.o)
 .debug_frame   0x0000265c       0x28 d:/altera/13.1/nios2eds/bin/gnu/h-i686-mingw32/bin/../lib/gcc/nios2-elf/4.7.3/../../../../../H-i686-mingw32/nios2-elf/lib\libc.a(lib_a-exit.o)
 .debug_frame   0x00002684       0x20 d:/altera/13.1/nios2eds/bin/gnu/h-i686-mingw32/bin/../lib/gcc/nios2-elf/4.7.3/../../../../../H-i686-mingw32/nios2-elf/lib\libc.a(lib_a-memcmp.o)
 .debug_frame   0x000026a4       0x2c d:/altera/13.1/nios2eds/bin/gnu/h-i686-mingw32/bin/../lib/gcc/nios2-elf/4.7.3/../../../../../H-i686-mingw32/nios2-elf/lib\libc.a(lib_a-__atexit.o)
 .debug_frame   0x000026d0       0x38 d:/altera/13.1/nios2eds/bin/gnu/h-i686-mingw32/bin/../lib/gcc/nios2-elf/4.7.3/../../../../../H-i686-mingw32/nios2-elf/lib\libc.a(lib_a-__call_atexit.o)
 .debug_frame   0x00002708       0x2c d:/altera/13.1/nios2eds/bin/gnu/h-i686-mingw32/bin/../lib/gcc/nios2-elf/4.7.3\libgcc.a(_fixunsdfsi.o)
 .debug_frame   0x00002734       0x2c F:/project/qsys_ucosii_mail_msg/qsys/software/uCosii_bsp/\libucosii_bsp.a(alt_exit.o)

.debug_str      0x00000000     0x42d0
 *(.debug_str)
 .debug_str     0x00000000      0x276 obj/default/ucosii_mail_msg.o
                                0x2c6 (size before relaxing)
 .debug_str     0x00000276      0x442 d:/altera/13.1/nios2eds/bin/gnu/h-i686-mingw32/bin/../lib/gcc/nios2-elf/4.7.3/../../../../../H-i686-mingw32/nios2-elf/lib\libc.a(lib_a-printf.o)
                                0x571 (size before relaxing)
 .debug_str     0x000006b8      0x2de d:/altera/13.1/nios2eds/bin/gnu/h-i686-mingw32/bin/../lib/gcc/nios2-elf/4.7.3/../../../../../H-i686-mingw32/nios2-elf/lib\libc.a(lib_a-vfprintf.o)
                                0x888 (size before relaxing)
 .debug_str     0x00000996       0x4f d:/altera/13.1/nios2eds/bin/gnu/h-i686-mingw32/bin/../lib/gcc/nios2-elf/4.7.3/../../../../../H-i686-mingw32/nios2-elf/lib\libc.a(lib_a-wsetup.o)
                                0x535 (size before relaxing)
 .debug_str     0x000009e5      0x1ed d:/altera/13.1/nios2eds/bin/gnu/h-i686-mingw32/bin/../lib/gcc/nios2-elf/4.7.3/../../../../../H-i686-mingw32/nios2-elf/lib\libc.a(lib_a-dtoa.o)
                                0x678 (size before relaxing)
 .debug_str     0x00000bd2       0x5b d:/altera/13.1/nios2eds/bin/gnu/h-i686-mingw32/bin/../lib/gcc/nios2-elf/4.7.3/../../../../../H-i686-mingw32/nios2-elf/lib\libc.a(lib_a-fflush.o)
                                0x553 (size before relaxing)
 .debug_str     0x00000c2d      0x10b d:/altera/13.1/nios2eds/bin/gnu/h-i686-mingw32/bin/../lib/gcc/nios2-elf/4.7.3/../../../../../H-i686-mingw32/nios2-elf/lib\libc.a(lib_a-findfp.o)
                                0x61f (size before relaxing)
 .debug_str     0x00000d38      0x183 d:/altera/13.1/nios2eds/bin/gnu/h-i686-mingw32/bin/../lib/gcc/nios2-elf/4.7.3/../../../../../H-i686-mingw32/nios2-elf/lib\libc.a(lib_a-freer.o)
                                0x67f (size before relaxing)
 .debug_str     0x00000ebb       0x6c d:/altera/13.1/nios2eds/bin/gnu/h-i686-mingw32/bin/../lib/gcc/nios2-elf/4.7.3/../../../../../H-i686-mingw32/nios2-elf/lib\libc.a(lib_a-fvwrite.o)
                                0x5b8 (size before relaxing)
 .debug_str     0x00000f27       0x5e d:/altera/13.1/nios2eds/bin/gnu/h-i686-mingw32/bin/../lib/gcc/nios2-elf/4.7.3/../../../../../H-i686-mingw32/nios2-elf/lib\libc.a(lib_a-fwalk.o)
                                0x567 (size before relaxing)
 .debug_str     0x00000f85       0xd4 d:/altera/13.1/nios2eds/bin/gnu/h-i686-mingw32/bin/../lib/gcc/nios2-elf/4.7.3/../../../../../H-i686-mingw32/nios2-elf/lib\libc.a(lib_a-impure.o)
                                0x526 (size before relaxing)
 .debug_str     0x00001059      0x14c d:/altera/13.1/nios2eds/bin/gnu/h-i686-mingw32/bin/../lib/gcc/nios2-elf/4.7.3/../../../../../H-i686-mingw32/nios2-elf/lib\libc.a(lib_a-locale.o)
                                0x6bc (size before relaxing)
 .debug_str     0x000011a5      0x129 d:/altera/13.1/nios2eds/bin/gnu/h-i686-mingw32/bin/../lib/gcc/nios2-elf/4.7.3/../../../../../H-i686-mingw32/nios2-elf/lib\libc.a(lib_a-makebuf.o)
                                0x62f (size before relaxing)
 .debug_str     0x000012ce       0xd9 d:/altera/13.1/nios2eds/bin/gnu/h-i686-mingw32/bin/../lib/gcc/nios2-elf/4.7.3/../../../../../H-i686-mingw32/nios2-elf/lib\libc.a(lib_a-mallocr.o)
                                0x735 (size before relaxing)
 .debug_str     0x000013a7       0xd8 d:/altera/13.1/nios2eds/bin/gnu/h-i686-mingw32/bin/../lib/gcc/nios2-elf/4.7.3/../../../../../H-i686-mingw32/nios2-elf/lib\libc.a(lib_a-memchr.o)
                                0x197 (size before relaxing)
 .debug_str     0x0000147f       0x62 d:/altera/13.1/nios2eds/bin/gnu/h-i686-mingw32/bin/../lib/gcc/nios2-elf/4.7.3/../../../../../H-i686-mingw32/nios2-elf/lib\libc.a(lib_a-memcpy.o)
                                0x126 (size before relaxing)
 .debug_str     0x000014e1       0x45 d:/altera/13.1/nios2eds/bin/gnu/h-i686-mingw32/bin/../lib/gcc/nios2-elf/4.7.3/../../../../../H-i686-mingw32/nios2-elf/lib\libc.a(lib_a-memmove.o)
                                0x1a9 (size before relaxing)
 .debug_str     0x00001526       0x48 d:/altera/13.1/nios2eds/bin/gnu/h-i686-mingw32/bin/../lib/gcc/nios2-elf/4.7.3/../../../../../H-i686-mingw32/nios2-elf/lib\libc.a(lib_a-memset.o)
                                0x18a (size before relaxing)
 .debug_str     0x0000156e       0xa5 d:/altera/13.1/nios2eds/bin/gnu/h-i686-mingw32/bin/../lib/gcc/nios2-elf/4.7.3/../../../../../H-i686-mingw32/nios2-elf/lib\libc.a(lib_a-mprec.o)
                                0x632 (size before relaxing)
 .debug_str     0x00001613       0x49 d:/altera/13.1/nios2eds/bin/gnu/h-i686-mingw32/bin/../lib/gcc/nios2-elf/4.7.3/../../../../../H-i686-mingw32/nios2-elf/lib\libc.a(lib_a-reallocr.o)
                                0x607 (size before relaxing)
 .debug_str     0x0000165c       0xd6 d:/altera/13.1/nios2eds/bin/gnu/h-i686-mingw32/bin/../lib/gcc/nios2-elf/4.7.3/../../../../../H-i686-mingw32/nios2-elf/lib\libc.a(lib_a-s_isinfd.o)
                                0x1a1 (size before relaxing)
 .debug_str     0x00001732       0x3d d:/altera/13.1/nios2eds/bin/gnu/h-i686-mingw32/bin/../lib/gcc/nios2-elf/4.7.3/../../../../../H-i686-mingw32/nios2-elf/lib\libc.a(lib_a-s_isnand.o)
                                0x1a1 (size before relaxing)
 .debug_str     0x0000176f       0x43 d:/altera/13.1/nios2eds/bin/gnu/h-i686-mingw32/bin/../lib/gcc/nios2-elf/4.7.3/../../../../../H-i686-mingw32/nios2-elf/lib\libc.a(lib_a-sbrkr.o)
                                0x51c (size before relaxing)
 .debug_str     0x000017b2       0x8e d:/altera/13.1/nios2eds/bin/gnu/h-i686-mingw32/bin/../lib/gcc/nios2-elf/4.7.3/../../../../../H-i686-mingw32/nios2-elf/lib\libc.a(lib_a-stdio.o)
                                0x570 (size before relaxing)
 .debug_str     0x00001840       0x3b d:/altera/13.1/nios2eds/bin/gnu/h-i686-mingw32/bin/../lib/gcc/nios2-elf/4.7.3/../../../../../H-i686-mingw32/nios2-elf/lib\libc.a(lib_a-strcmp.o)
                                0x16f (size before relaxing)
 .debug_str     0x0000187b       0x3b d:/altera/13.1/nios2eds/bin/gnu/h-i686-mingw32/bin/../lib/gcc/nios2-elf/4.7.3/../../../../../H-i686-mingw32/nios2-elf/lib\libc.a(lib_a-strlen.o)
                                0x189 (size before relaxing)
 .debug_str     0x000018b6       0x3a d:/altera/13.1/nios2eds/bin/gnu/h-i686-mingw32/bin/../lib/gcc/nios2-elf/4.7.3/../../../../../H-i686-mingw32/nios2-elf/lib\libc.a(lib_a-writer.o)
                                0x520 (size before relaxing)
 .debug_str     0x000018f0        0xf d:/altera/13.1/nios2eds/bin/gnu/h-i686-mingw32/bin/../lib/gcc/nios2-elf/4.7.3/../../../../../H-i686-mingw32/nios2-elf/lib\libc.a(lib_a-callocr.o)
                                0x55f (size before relaxing)
 .debug_str     0x000018ff       0x3a d:/altera/13.1/nios2eds/bin/gnu/h-i686-mingw32/bin/../lib/gcc/nios2-elf/4.7.3/../../../../../H-i686-mingw32/nios2-elf/lib\libc.a(lib_a-closer.o)
                                0x510 (size before relaxing)
 .debug_str     0x00001939       0x4b d:/altera/13.1/nios2eds/bin/gnu/h-i686-mingw32/bin/../lib/gcc/nios2-elf/4.7.3/../../../../../H-i686-mingw32/nios2-elf/lib\libc.a(lib_a-fclose.o)
                                0x562 (size before relaxing)
 .debug_str     0x00001984       0x46 d:/altera/13.1/nios2eds/bin/gnu/h-i686-mingw32/bin/../lib/gcc/nios2-elf/4.7.3/../../../../../H-i686-mingw32/nios2-elf/lib\libc.a(lib_a-fstatr.o)
                                0x603 (size before relaxing)
 .debug_str     0x000019ca       0x3d d:/altera/13.1/nios2eds/bin/gnu/h-i686-mingw32/bin/../lib/gcc/nios2-elf/4.7.3/../../../../../H-i686-mingw32/nios2-elf/lib\libc.a(lib_a-int_errno.o)
                                0x16f (size before relaxing)
 .debug_str     0x00001a07       0x42 d:/altera/13.1/nios2eds/bin/gnu/h-i686-mingw32/bin/../lib/gcc/nios2-elf/4.7.3/../../../../../H-i686-mingw32/nios2-elf/lib\libc.a(lib_a-isattyr.o)
                                0x513 (size before relaxing)
 .debug_str     0x00001a49       0x40 d:/altera/13.1/nios2eds/bin/gnu/h-i686-mingw32/bin/../lib/gcc/nios2-elf/4.7.3/../../../../../H-i686-mingw32/nios2-elf/lib\libc.a(lib_a-lseekr.o)
                                0x524 (size before relaxing)
 .debug_str     0x00001a89       0x39 d:/altera/13.1/nios2eds/bin/gnu/h-i686-mingw32/bin/../lib/gcc/nios2-elf/4.7.3/../../../../../H-i686-mingw32/nios2-elf/lib\libc.a(lib_a-readr.o)
                                0x51d (size before relaxing)
 .debug_str     0x00001ac2      0x15d d:/altera/13.1/nios2eds/bin/gnu/h-i686-mingw32/bin/../lib/gcc/nios2-elf/4.7.3\libgcc.a(_udivdi3.o)
                                0x1f6 (size before relaxing)
 .debug_str     0x00001c1f        0xa d:/altera/13.1/nios2eds/bin/gnu/h-i686-mingw32/bin/../lib/gcc/nios2-elf/4.7.3\libgcc.a(_umoddi3.o)
                                0x1f6 (size before relaxing)
 .debug_str     0x00001c29      0x16f d:/altera/13.1/nios2eds/bin/gnu/h-i686-mingw32/bin/../lib/gcc/nios2-elf/4.7.3\libgcc.a(_addsub_df.o)
                                0x2a9 (size before relaxing)
 .debug_str     0x00001d98       0x40 d:/altera/13.1/nios2eds/bin/gnu/h-i686-mingw32/bin/../lib/gcc/nios2-elf/4.7.3\libgcc.a(_mul_df.o)
                                0x27b (size before relaxing)
 .debug_str     0x00001dd8       0x35 d:/altera/13.1/nios2eds/bin/gnu/h-i686-mingw32/bin/../lib/gcc/nios2-elf/4.7.3\libgcc.a(_div_df.o)
                                0x26b (size before relaxing)
 .debug_str     0x00001e0d       0x20 d:/altera/13.1/nios2eds/bin/gnu/h-i686-mingw32/bin/../lib/gcc/nios2-elf/4.7.3\libgcc.a(_eq_df.o)
                                0x238 (size before relaxing)
 .debug_str     0x00001e2d        0x8 d:/altera/13.1/nios2eds/bin/gnu/h-i686-mingw32/bin/../lib/gcc/nios2-elf/4.7.3\libgcc.a(_ne_df.o)
                                0x238 (size before relaxing)
 .debug_str     0x00001e35        0x8 d:/altera/13.1/nios2eds/bin/gnu/h-i686-mingw32/bin/../lib/gcc/nios2-elf/4.7.3\libgcc.a(_gt_df.o)
                                0x238 (size before relaxing)
 .debug_str     0x00001e3d        0x8 d:/altera/13.1/nios2eds/bin/gnu/h-i686-mingw32/bin/../lib/gcc/nios2-elf/4.7.3\libgcc.a(_ge_df.o)
                                0x238 (size before relaxing)
 .debug_str     0x00001e45        0x8 d:/altera/13.1/nios2eds/bin/gnu/h-i686-mingw32/bin/../lib/gcc/nios2-elf/4.7.3\libgcc.a(_lt_df.o)
                                0x238 (size before relaxing)
 .debug_str     0x00001e4d       0x21 d:/altera/13.1/nios2eds/bin/gnu/h-i686-mingw32/bin/../lib/gcc/nios2-elf/4.7.3\libgcc.a(_si_to_df.o)
                                0x20e (size before relaxing)
 .debug_str     0x00001e6e        0xa d:/altera/13.1/nios2eds/bin/gnu/h-i686-mingw32/bin/../lib/gcc/nios2-elf/4.7.3\libgcc.a(_df_to_si.o)
                                0x230 (size before relaxing)
 .debug_str     0x00000000      0x1c1 d:/altera/13.1/nios2eds/bin/gnu/h-i686-mingw32/bin/../lib/gcc/nios2-elf/4.7.3\libgcc.a(_thenan_df.o)
 .debug_str     0x00001e78       0x14 d:/altera/13.1/nios2eds/bin/gnu/h-i686-mingw32/bin/../lib/gcc/nios2-elf/4.7.3\libgcc.a(_usi_to_df.o)
                                0x20a (size before relaxing)
 .debug_str     0x00001e8c       0x7c d:/altera/13.1/nios2eds/bin/gnu/h-i686-mingw32/bin/../lib/gcc/nios2-elf/4.7.3\libgcc.a(lib2-divmod.o)
                                0x15b (size before relaxing)
 .debug_str     0x00001f08        0x9 d:/altera/13.1/nios2eds/bin/gnu/h-i686-mingw32/bin/../lib/gcc/nios2-elf/4.7.3\libgcc.a(_muldi3.o)
                                0x1a2 (size before relaxing)
 .debug_str     0x00000000      0x160 d:/altera/13.1/nios2eds/bin/gnu/h-i686-mingw32/bin/../lib/gcc/nios2-elf/4.7.3\libgcc.a(_clz.o)
 .debug_str     0x00000000      0x17d d:/altera/13.1/nios2eds/bin/gnu/h-i686-mingw32/bin/../lib/gcc/nios2-elf/4.7.3\libgcc.a(_clzsi2.o)
 .debug_str     0x00001f11        0x7 d:/altera/13.1/nios2eds/bin/gnu/h-i686-mingw32/bin/../lib/gcc/nios2-elf/4.7.3\libgcc.a(_pack_df.o)
                                0x224 (size before relaxing)
 .debug_str     0x00000000      0x206 d:/altera/13.1/nios2eds/bin/gnu/h-i686-mingw32/bin/../lib/gcc/nios2-elf/4.7.3\libgcc.a(_unpack_df.o)
 .debug_str     0x00000000      0x1e4 d:/altera/13.1/nios2eds/bin/gnu/h-i686-mingw32/bin/../lib/gcc/nios2-elf/4.7.3\libgcc.a(_fpcmp_parts_df.o)
 .debug_str     0x00001f18       0x23 d:/altera/13.1/nios2eds/bin/gnu/h-i686-mingw32/bin/../lib/gcc/nios2-elf/4.7.3\libgcc.a(_lshrdi3.o)
                                0x194 (size before relaxing)
 .debug_str     0x00001f3b        0xa d:/altera/13.1/nios2eds/bin/gnu/h-i686-mingw32/bin/../lib/gcc/nios2-elf/4.7.3\libgcc.a(_ashldi3.o)
                                0x194 (size before relaxing)
 .debug_str     0x00001f45       0xe0 F:/project/qsys_ucosii_mail_msg/qsys/software/uCosii_bsp/\libucosii_bsp.a(alt_close.o)
                                0x1f1 (size before relaxing)
 .debug_str     0x00002025       0x61 F:/project/qsys_ucosii_mail_msg/qsys/software/uCosii_bsp/\libucosii_bsp.a(alt_dev.o)
                                0x35f (size before relaxing)
 .debug_str     0x00002086       0x14 F:/project/qsys_ucosii_mail_msg/qsys/software/uCosii_bsp/\libucosii_bsp.a(alt_errno.o)
                                 0xfb (size before relaxing)
 .debug_str     0x0000209a       0x14 F:/project/qsys_ucosii_mail_msg/qsys/software/uCosii_bsp/\libucosii_bsp.a(alt_fstat.o)
                                0x2d2 (size before relaxing)
 .debug_str     0x000020ae       0x15 F:/project/qsys_ucosii_mail_msg/qsys/software/uCosii_bsp/\libucosii_bsp.a(alt_isatty.o)
                                0x2da (size before relaxing)
 .debug_str     0x000020c3       0x14 F:/project/qsys_ucosii_mail_msg/qsys/software/uCosii_bsp/\libucosii_bsp.a(alt_lseek.o)
                                0x1f7 (size before relaxing)
 .debug_str     0x000020d7       0x5d F:/project/qsys_ucosii_mail_msg/qsys/software/uCosii_bsp/\libucosii_bsp.a(alt_main.o)
                                0x216 (size before relaxing)
 .debug_str     0x00002134       0x13 F:/project/qsys_ucosii_mail_msg/qsys/software/uCosii_bsp/\libucosii_bsp.a(alt_read.o)
                                0x2dd (size before relaxing)
 .debug_str     0x00002147       0x28 F:/project/qsys_ucosii_mail_msg/qsys/software/uCosii_bsp/\libucosii_bsp.a(alt_release_fd.o)
                                0x1db (size before relaxing)
 .debug_str     0x0000216f       0x98 F:/project/qsys_ucosii_mail_msg/qsys/software/uCosii_bsp/\libucosii_bsp.a(alt_sbrk.o)
                                0x18a (size before relaxing)
 .debug_str     0x00002207       0x14 F:/project/qsys_ucosii_mail_msg/qsys/software/uCosii_bsp/\libucosii_bsp.a(alt_write.o)
                                0x2de (size before relaxing)
 .debug_str     0x0000221b      0x23f F:/project/qsys_ucosii_mail_msg/qsys/software/uCosii_bsp/\libucosii_bsp.a(alt_env_lock.o)
                                0x75d (size before relaxing)
 .debug_str     0x0000245a       0x36 F:/project/qsys_ucosii_mail_msg/qsys/software/uCosii_bsp/\libucosii_bsp.a(alt_malloc_lock.o)
                                0x7bf (size before relaxing)
 .debug_str     0x00002490      0x52e F:/project/qsys_ucosii_mail_msg/qsys/software/uCosii_bsp/\libucosii_bsp.a(os_core.o)
                                0x90c (size before relaxing)
 .debug_str     0x000029be      0x2e5 F:/project/qsys_ucosii_mail_msg/qsys/software/uCosii_bsp/\libucosii_bsp.a(os_dbg.o)
                                0x87b (size before relaxing)
 .debug_str     0x00002ca3      0x136 F:/project/qsys_ucosii_mail_msg/qsys/software/uCosii_bsp/\libucosii_bsp.a(os_flag.o)
                                0x5a8 (size before relaxing)
 .debug_str     0x00002dd9       0xb7 F:/project/qsys_ucosii_mail_msg/qsys/software/uCosii_bsp/\libucosii_bsp.a(os_mbox.o)
                                0x4c9 (size before relaxing)
 .debug_str     0x00002e90       0xcf F:/project/qsys_ucosii_mail_msg/qsys/software/uCosii_bsp/\libucosii_bsp.a(os_mem.o)
                                0x2b1 (size before relaxing)
 .debug_str     0x00002f5f       0x86 F:/project/qsys_ucosii_mail_msg/qsys/software/uCosii_bsp/\libucosii_bsp.a(os_q.o)
                                0x52b (size before relaxing)
 .debug_str     0x00002fe5       0x77 F:/project/qsys_ucosii_mail_msg/qsys/software/uCosii_bsp/\libucosii_bsp.a(os_sem.o)
                                0x4b4 (size before relaxing)
 .debug_str     0x0000305c      0x113 F:/project/qsys_ucosii_mail_msg/qsys/software/uCosii_bsp/\libucosii_bsp.a(os_task.o)
                                0x5b7 (size before relaxing)
 .debug_str     0x0000316f       0x6d F:/project/qsys_ucosii_mail_msg/qsys/software/uCosii_bsp/\libucosii_bsp.a(os_time.o)
                                0x457 (size before relaxing)
 .debug_str     0x000031dc      0x2df F:/project/qsys_ucosii_mail_msg/qsys/software/uCosii_bsp/\libucosii_bsp.a(alt_sys_init.o)
                                0x5bd (size before relaxing)
 .debug_str     0x000034bb      0x219 F:/project/qsys_ucosii_mail_msg/qsys/software/uCosii_bsp/\libucosii_bsp.a(altera_avalon_epcs_flash_controller.o)
                                0x4fd (size before relaxing)
 .debug_str     0x000036d4       0xac F:/project/qsys_ucosii_mail_msg/qsys/software/uCosii_bsp/\libucosii_bsp.a(altera_avalon_jtag_uart_fd.o)
                                0x44a (size before relaxing)
 .debug_str     0x00003780       0xf6 F:/project/qsys_ucosii_mail_msg/qsys/software/uCosii_bsp/\libucosii_bsp.a(altera_avalon_jtag_uart_init.o)
                                0x411 (size before relaxing)
 .debug_str     0x00003876       0x4a F:/project/qsys_ucosii_mail_msg/qsys/software/uCosii_bsp/\libucosii_bsp.a(altera_avalon_jtag_uart_ioctl.o)
                                0x339 (size before relaxing)
 .debug_str     0x000038c0       0x63 F:/project/qsys_ucosii_mail_msg/qsys/software/uCosii_bsp/\libucosii_bsp.a(altera_avalon_jtag_uart_read.o)
                                0x3ac (size before relaxing)
 .debug_str     0x00003923       0x4a F:/project/qsys_ucosii_mail_msg/qsys/software/uCosii_bsp/\libucosii_bsp.a(altera_avalon_jtag_uart_write.o)
                                0x3ad (size before relaxing)
 .debug_str     0x0000396d       0x66 F:/project/qsys_ucosii_mail_msg/qsys/software/uCosii_bsp/\libucosii_bsp.a(altera_avalon_timer_sc.o)
                                0x201 (size before relaxing)
 .debug_str     0x000039d3      0x171 F:/project/qsys_ucosii_mail_msg/qsys/software/uCosii_bsp/\libucosii_bsp.a(epcs_commands.o)
                                0x295 (size before relaxing)
 .debug_str     0x00003b44       0x5f F:/project/qsys_ucosii_mail_msg/qsys/software/uCosii_bsp/\libucosii_bsp.a(alt_alarm_start.o)
                                0x234 (size before relaxing)
 .debug_str     0x00003ba3       0x34 F:/project/qsys_ucosii_mail_msg/qsys/software/uCosii_bsp/\libucosii_bsp.a(alt_dev_llist_insert.o)
                                0x182 (size before relaxing)
 .debug_str     0x00003bd7       0x48 F:/project/qsys_ucosii_mail_msg/qsys/software/uCosii_bsp/\libucosii_bsp.a(alt_do_ctors.o)
                                 0x92 (size before relaxing)
 .debug_str     0x00003c1f       0x4c F:/project/qsys_ucosii_mail_msg/qsys/software/uCosii_bsp/\libucosii_bsp.a(alt_do_dtors.o)
                                 0x91 (size before relaxing)
 .debug_str     0x00003c6b       0x3f F:/project/qsys_ucosii_mail_msg/qsys/software/uCosii_bsp/\libucosii_bsp.a(alt_flash_dev.o)
                                0x2d5 (size before relaxing)
 .debug_str     0x00003caa       0xbd F:/project/qsys_ucosii_mail_msg/qsys/software/uCosii_bsp/\libucosii_bsp.a(alt_iic.o)
                                0x1f4 (size before relaxing)
 .debug_str     0x00003d67       0x4c F:/project/qsys_ucosii_mail_msg/qsys/software/uCosii_bsp/\libucosii_bsp.a(alt_iic_isr_register.o)
                                0x19e (size before relaxing)
 .debug_str     0x00003db3       0x56 F:/project/qsys_ucosii_mail_msg/qsys/software/uCosii_bsp/\libucosii_bsp.a(alt_io_redirect.o)
                                0x2fc (size before relaxing)
 .debug_str     0x00003e09       0x3a F:/project/qsys_ucosii_mail_msg/qsys/software/uCosii_bsp/\libucosii_bsp.a(alt_irq_handler.o)
                                0x175 (size before relaxing)
 .debug_str     0x00003e43       0x17 F:/project/qsys_ucosii_mail_msg/qsys/software/uCosii_bsp/\libucosii_bsp.a(alt_irq_vars.o)
                                 0xfc (size before relaxing)
 .debug_str     0x00003e5a       0x29 F:/project/qsys_ucosii_mail_msg/qsys/software/uCosii_bsp/\libucosii_bsp.a(alt_open.o)
                                0x229 (size before relaxing)
 .debug_str     0x00003e83       0x4a F:/project/qsys_ucosii_mail_msg/qsys/software/uCosii_bsp/\libucosii_bsp.a(alt_tick.o)
                                0x215 (size before relaxing)
 .debug_str     0x00003ecd       0x3b F:/project/qsys_ucosii_mail_msg/qsys/software/uCosii_bsp/\libucosii_bsp.a(altera_nios2_qsys_irq.o)
                                0x112 (size before relaxing)
 .debug_str     0x00003f08       0xd5 F:/project/qsys_ucosii_mail_msg/qsys/software/uCosii_bsp/\libucosii_bsp.a(os_cpu_c.o)
                                0x7d2 (size before relaxing)
 .debug_str     0x00003fdd       0xa5 F:/project/qsys_ucosii_mail_msg/qsys/software/uCosii_bsp/\libucosii_bsp.a(altera_avalon_spi.o)
                                0x196 (size before relaxing)
 .debug_str     0x00004082       0x24 F:/project/qsys_ucosii_mail_msg/qsys/software/uCosii_bsp/\libucosii_bsp.a(alt_find_dev.o)
                                0x1d2 (size before relaxing)
 .debug_str     0x000040a6       0x26 F:/project/qsys_ucosii_mail_msg/qsys/software/uCosii_bsp/\libucosii_bsp.a(alt_find_file.o)
                                0x1e0 (size before relaxing)
 .debug_str     0x000040cc       0x30 F:/project/qsys_ucosii_mail_msg/qsys/software/uCosii_bsp/\libucosii_bsp.a(alt_get_fd.o)
                                0x27e (size before relaxing)
 .debug_str     0x000040fc       0x7f d:/altera/13.1/nios2eds/bin/gnu/h-i686-mingw32/bin/../lib/gcc/nios2-elf/4.7.3/../../../../../H-i686-mingw32/nios2-elf/lib\libc.a(lib_a-atexit.o)
                                0x20f (size before relaxing)
 .debug_str     0x0000417b       0x4a d:/altera/13.1/nios2eds/bin/gnu/h-i686-mingw32/bin/../lib/gcc/nios2-elf/4.7.3/../../../../../H-i686-mingw32/nios2-elf/lib\libc.a(lib_a-exit.o)
                                0x52f (size before relaxing)
 .debug_str     0x000041c5       0x3b d:/altera/13.1/nios2eds/bin/gnu/h-i686-mingw32/bin/../lib/gcc/nios2-elf/4.7.3/../../../../../H-i686-mingw32/nios2-elf/lib\libc.a(lib_a-memcmp.o)
                                0x176 (size before relaxing)
 .debug_str     0x00004200       0x3d d:/altera/13.1/nios2eds/bin/gnu/h-i686-mingw32/bin/../lib/gcc/nios2-elf/4.7.3/../../../../../H-i686-mingw32/nios2-elf/lib\libc.a(lib_a-__atexit.o)
                                0x573 (size before relaxing)
 .debug_str     0x0000423d       0x5c d:/altera/13.1/nios2eds/bin/gnu/h-i686-mingw32/bin/../lib/gcc/nios2-elf/4.7.3/../../../../../H-i686-mingw32/nios2-elf/lib\libc.a(lib_a-__call_atexit.o)
                                0x551 (size before relaxing)
 .debug_str     0x00004299        0xd d:/altera/13.1/nios2eds/bin/gnu/h-i686-mingw32/bin/../lib/gcc/nios2-elf/4.7.3\libgcc.a(_fixunsdfsi.o)
                                0x168 (size before relaxing)
 .debug_str     0x000042a6       0x2a F:/project/qsys_ucosii_mail_msg/qsys/software/uCosii_bsp/\libucosii_bsp.a(alt_exit.o)
                                0x149 (size before relaxing)

.debug_loc      0x00000000    0x11c06
 *(.debug_loc)
 .debug_loc     0x00000000      0x160 obj/default/ucosii_mail_msg.o
 .debug_loc     0x00000160      0x132 d:/altera/13.1/nios2eds/bin/gnu/h-i686-mingw32/bin/../lib/gcc/nios2-elf/4.7.3/../../../../../H-i686-mingw32/nios2-elf/lib\libc.a(lib_a-printf.o)
 .debug_loc     0x00000292     0x2b6b d:/altera/13.1/nios2eds/bin/gnu/h-i686-mingw32/bin/../lib/gcc/nios2-elf/4.7.3/../../../../../H-i686-mingw32/nios2-elf/lib\libc.a(lib_a-vfprintf.o)
 .debug_loc     0x00002dfd       0xba d:/altera/13.1/nios2eds/bin/gnu/h-i686-mingw32/bin/../lib/gcc/nios2-elf/4.7.3/../../../../../H-i686-mingw32/nios2-elf/lib\libc.a(lib_a-wsetup.o)
 .debug_loc     0x00002eb7     0x2286 d:/altera/13.1/nios2eds/bin/gnu/h-i686-mingw32/bin/../lib/gcc/nios2-elf/4.7.3/../../../../../H-i686-mingw32/nios2-elf/lib\libc.a(lib_a-dtoa.o)
 .debug_loc     0x0000513d      0x259 d:/altera/13.1/nios2eds/bin/gnu/h-i686-mingw32/bin/../lib/gcc/nios2-elf/4.7.3/../../../../../H-i686-mingw32/nios2-elf/lib\libc.a(lib_a-fflush.o)
 .debug_loc     0x00005396      0x29c d:/altera/13.1/nios2eds/bin/gnu/h-i686-mingw32/bin/../lib/gcc/nios2-elf/4.7.3/../../../../../H-i686-mingw32/nios2-elf/lib\libc.a(lib_a-findfp.o)
 .debug_loc     0x00005632      0x668 d:/altera/13.1/nios2eds/bin/gnu/h-i686-mingw32/bin/../lib/gcc/nios2-elf/4.7.3/../../../../../H-i686-mingw32/nios2-elf/lib\libc.a(lib_a-freer.o)
 .debug_loc     0x00005c9a      0x50c d:/altera/13.1/nios2eds/bin/gnu/h-i686-mingw32/bin/../lib/gcc/nios2-elf/4.7.3/../../../../../H-i686-mingw32/nios2-elf/lib\libc.a(lib_a-fvwrite.o)
 .debug_loc     0x000061a6      0x2ae d:/altera/13.1/nios2eds/bin/gnu/h-i686-mingw32/bin/../lib/gcc/nios2-elf/4.7.3/../../../../../H-i686-mingw32/nios2-elf/lib\libc.a(lib_a-fwalk.o)
 .debug_loc     0x00006454      0x13e d:/altera/13.1/nios2eds/bin/gnu/h-i686-mingw32/bin/../lib/gcc/nios2-elf/4.7.3/../../../../../H-i686-mingw32/nios2-elf/lib\libc.a(lib_a-locale.o)
 .debug_loc     0x00006592      0x16a d:/altera/13.1/nios2eds/bin/gnu/h-i686-mingw32/bin/../lib/gcc/nios2-elf/4.7.3/../../../../../H-i686-mingw32/nios2-elf/lib\libc.a(lib_a-makebuf.o)
 .debug_loc     0x000066fc      0xb50 d:/altera/13.1/nios2eds/bin/gnu/h-i686-mingw32/bin/../lib/gcc/nios2-elf/4.7.3/../../../../../H-i686-mingw32/nios2-elf/lib\libc.a(lib_a-mallocr.o)
 .debug_loc     0x0000724c      0x239 d:/altera/13.1/nios2eds/bin/gnu/h-i686-mingw32/bin/../lib/gcc/nios2-elf/4.7.3/../../../../../H-i686-mingw32/nios2-elf/lib\libc.a(lib_a-memchr.o)
 .debug_loc     0x00007485      0x1f2 d:/altera/13.1/nios2eds/bin/gnu/h-i686-mingw32/bin/../lib/gcc/nios2-elf/4.7.3/../../../../../H-i686-mingw32/nios2-elf/lib\libc.a(lib_a-memcpy.o)
 .debug_loc     0x00007677      0x240 d:/altera/13.1/nios2eds/bin/gnu/h-i686-mingw32/bin/../lib/gcc/nios2-elf/4.7.3/../../../../../H-i686-mingw32/nios2-elf/lib\libc.a(lib_a-memmove.o)
 .debug_loc     0x000078b7      0x1b7 d:/altera/13.1/nios2eds/bin/gnu/h-i686-mingw32/bin/../lib/gcc/nios2-elf/4.7.3/../../../../../H-i686-mingw32/nios2-elf/lib\libc.a(lib_a-memset.o)
 .debug_loc     0x00007a6e     0x1b23 d:/altera/13.1/nios2eds/bin/gnu/h-i686-mingw32/bin/../lib/gcc/nios2-elf/4.7.3/../../../../../H-i686-mingw32/nios2-elf/lib\libc.a(lib_a-mprec.o)
 .debug_loc     0x00009591     0x1136 d:/altera/13.1/nios2eds/bin/gnu/h-i686-mingw32/bin/../lib/gcc/nios2-elf/4.7.3/../../../../../H-i686-mingw32/nios2-elf/lib\libc.a(lib_a-reallocr.o)
 .debug_loc     0x0000a6c7       0x88 d:/altera/13.1/nios2eds/bin/gnu/h-i686-mingw32/bin/../lib/gcc/nios2-elf/4.7.3/../../../../../H-i686-mingw32/nios2-elf/lib\libc.a(lib_a-s_isinfd.o)
 .debug_loc     0x0000a74f       0xa5 d:/altera/13.1/nios2eds/bin/gnu/h-i686-mingw32/bin/../lib/gcc/nios2-elf/4.7.3/../../../../../H-i686-mingw32/nios2-elf/lib\libc.a(lib_a-s_isnand.o)
 .debug_loc     0x0000a7f4       0x86 d:/altera/13.1/nios2eds/bin/gnu/h-i686-mingw32/bin/../lib/gcc/nios2-elf/4.7.3/../../../../../H-i686-mingw32/nios2-elf/lib\libc.a(lib_a-sbrkr.o)
 .debug_loc     0x0000a87a      0x379 d:/altera/13.1/nios2eds/bin/gnu/h-i686-mingw32/bin/../lib/gcc/nios2-elf/4.7.3/../../../../../H-i686-mingw32/nios2-elf/lib\libc.a(lib_a-stdio.o)
 .debug_loc     0x0000abf3       0xb0 d:/altera/13.1/nios2eds/bin/gnu/h-i686-mingw32/bin/../lib/gcc/nios2-elf/4.7.3/../../../../../H-i686-mingw32/nios2-elf/lib\libc.a(lib_a-strcmp.o)
 .debug_loc     0x0000aca3       0x52 d:/altera/13.1/nios2eds/bin/gnu/h-i686-mingw32/bin/../lib/gcc/nios2-elf/4.7.3/../../../../../H-i686-mingw32/nios2-elf/lib\libc.a(lib_a-strlen.o)
 .debug_loc     0x0000acf5       0xde d:/altera/13.1/nios2eds/bin/gnu/h-i686-mingw32/bin/../lib/gcc/nios2-elf/4.7.3/../../../../../H-i686-mingw32/nios2-elf/lib\libc.a(lib_a-writer.o)
 .debug_loc     0x0000add3      0x283 d:/altera/13.1/nios2eds/bin/gnu/h-i686-mingw32/bin/../lib/gcc/nios2-elf/4.7.3/../../../../../H-i686-mingw32/nios2-elf/lib\libc.a(lib_a-callocr.o)
 .debug_loc     0x0000b056       0x86 d:/altera/13.1/nios2eds/bin/gnu/h-i686-mingw32/bin/../lib/gcc/nios2-elf/4.7.3/../../../../../H-i686-mingw32/nios2-elf/lib\libc.a(lib_a-closer.o)
 .debug_loc     0x0000b0dc      0x136 d:/altera/13.1/nios2eds/bin/gnu/h-i686-mingw32/bin/../lib/gcc/nios2-elf/4.7.3/../../../../../H-i686-mingw32/nios2-elf/lib\libc.a(lib_a-fclose.o)
 .debug_loc     0x0000b212       0xb2 d:/altera/13.1/nios2eds/bin/gnu/h-i686-mingw32/bin/../lib/gcc/nios2-elf/4.7.3/../../../../../H-i686-mingw32/nios2-elf/lib\libc.a(lib_a-fstatr.o)
 .debug_loc     0x0000b2c4       0x86 d:/altera/13.1/nios2eds/bin/gnu/h-i686-mingw32/bin/../lib/gcc/nios2-elf/4.7.3/../../../../../H-i686-mingw32/nios2-elf/lib\libc.a(lib_a-isattyr.o)
 .debug_loc     0x0000b34a       0xde d:/altera/13.1/nios2eds/bin/gnu/h-i686-mingw32/bin/../lib/gcc/nios2-elf/4.7.3/../../../../../H-i686-mingw32/nios2-elf/lib\libc.a(lib_a-lseekr.o)
 .debug_loc     0x0000b428       0xde d:/altera/13.1/nios2eds/bin/gnu/h-i686-mingw32/bin/../lib/gcc/nios2-elf/4.7.3/../../../../../H-i686-mingw32/nios2-elf/lib\libc.a(lib_a-readr.o)
 .debug_loc     0x0000b506     0x10da d:/altera/13.1/nios2eds/bin/gnu/h-i686-mingw32/bin/../lib/gcc/nios2-elf/4.7.3\libgcc.a(_udivdi3.o)
 .debug_loc     0x0000c5e0     0x104d d:/altera/13.1/nios2eds/bin/gnu/h-i686-mingw32/bin/../lib/gcc/nios2-elf/4.7.3\libgcc.a(_umoddi3.o)
 .debug_loc     0x0000d62d      0x7a1 d:/altera/13.1/nios2eds/bin/gnu/h-i686-mingw32/bin/../lib/gcc/nios2-elf/4.7.3\libgcc.a(_addsub_df.o)
 .debug_loc     0x0000ddce      0x3ba d:/altera/13.1/nios2eds/bin/gnu/h-i686-mingw32/bin/../lib/gcc/nios2-elf/4.7.3\libgcc.a(_mul_df.o)
 .debug_loc     0x0000e188      0x25e d:/altera/13.1/nios2eds/bin/gnu/h-i686-mingw32/bin/../lib/gcc/nios2-elf/4.7.3\libgcc.a(_div_df.o)
 .debug_loc     0x0000e3e6       0x70 d:/altera/13.1/nios2eds/bin/gnu/h-i686-mingw32/bin/../lib/gcc/nios2-elf/4.7.3\libgcc.a(_eq_df.o)
 .debug_loc     0x0000e456       0x70 d:/altera/13.1/nios2eds/bin/gnu/h-i686-mingw32/bin/../lib/gcc/nios2-elf/4.7.3\libgcc.a(_ne_df.o)
 .debug_loc     0x0000e4c6       0x70 d:/altera/13.1/nios2eds/bin/gnu/h-i686-mingw32/bin/../lib/gcc/nios2-elf/4.7.3\libgcc.a(_gt_df.o)
 .debug_loc     0x0000e536       0x70 d:/altera/13.1/nios2eds/bin/gnu/h-i686-mingw32/bin/../lib/gcc/nios2-elf/4.7.3\libgcc.a(_ge_df.o)
 .debug_loc     0x0000e5a6       0x70 d:/altera/13.1/nios2eds/bin/gnu/h-i686-mingw32/bin/../lib/gcc/nios2-elf/4.7.3\libgcc.a(_lt_df.o)
 .debug_loc     0x0000e616       0xd3 d:/altera/13.1/nios2eds/bin/gnu/h-i686-mingw32/bin/../lib/gcc/nios2-elf/4.7.3\libgcc.a(_si_to_df.o)
 .debug_loc     0x0000e6e9       0xce d:/altera/13.1/nios2eds/bin/gnu/h-i686-mingw32/bin/../lib/gcc/nios2-elf/4.7.3\libgcc.a(_df_to_si.o)
 .debug_loc     0x0000e7b7      0x168 d:/altera/13.1/nios2eds/bin/gnu/h-i686-mingw32/bin/../lib/gcc/nios2-elf/4.7.3\libgcc.a(_usi_to_df.o)
 .debug_loc     0x0000e91f      0x338 d:/altera/13.1/nios2eds/bin/gnu/h-i686-mingw32/bin/../lib/gcc/nios2-elf/4.7.3\libgcc.a(lib2-divmod.o)
 .debug_loc     0x0000ec57      0x15d d:/altera/13.1/nios2eds/bin/gnu/h-i686-mingw32/bin/../lib/gcc/nios2-elf/4.7.3\libgcc.a(_muldi3.o)
 .debug_loc     0x0000edb4      0x19a d:/altera/13.1/nios2eds/bin/gnu/h-i686-mingw32/bin/../lib/gcc/nios2-elf/4.7.3\libgcc.a(_clzsi2.o)
 .debug_loc     0x0000ef4e      0x2ae d:/altera/13.1/nios2eds/bin/gnu/h-i686-mingw32/bin/../lib/gcc/nios2-elf/4.7.3\libgcc.a(_pack_df.o)
 .debug_loc     0x0000f1fc      0x179 d:/altera/13.1/nios2eds/bin/gnu/h-i686-mingw32/bin/../lib/gcc/nios2-elf/4.7.3\libgcc.a(_unpack_df.o)
 .debug_loc     0x0000f375       0x7c d:/altera/13.1/nios2eds/bin/gnu/h-i686-mingw32/bin/../lib/gcc/nios2-elf/4.7.3\libgcc.a(_fpcmp_parts_df.o)
 .debug_loc     0x0000f3f1       0xc4 d:/altera/13.1/nios2eds/bin/gnu/h-i686-mingw32/bin/../lib/gcc/nios2-elf/4.7.3\libgcc.a(_lshrdi3.o)
 .debug_loc     0x0000f4b5       0xc4 d:/altera/13.1/nios2eds/bin/gnu/h-i686-mingw32/bin/../lib/gcc/nios2-elf/4.7.3\libgcc.a(_ashldi3.o)
 .debug_loc     0x0000f579       0x58 F:/project/qsys_ucosii_mail_msg/qsys/software/uCosii_bsp/\libucosii_bsp.a(alt_close.o)
 .debug_loc     0x0000f5d1       0x2c F:/project/qsys_ucosii_mail_msg/qsys/software/uCosii_bsp/\libucosii_bsp.a(alt_dev.o)
 .debug_loc     0x0000f5fd       0x58 F:/project/qsys_ucosii_mail_msg/qsys/software/uCosii_bsp/\libucosii_bsp.a(alt_fstat.o)
 .debug_loc     0x0000f655       0x59 F:/project/qsys_ucosii_mail_msg/qsys/software/uCosii_bsp/\libucosii_bsp.a(alt_isatty.o)
 .debug_loc     0x0000f6ae       0x58 F:/project/qsys_ucosii_mail_msg/qsys/software/uCosii_bsp/\libucosii_bsp.a(alt_lseek.o)
 .debug_loc     0x0000f706       0x2c F:/project/qsys_ucosii_mail_msg/qsys/software/uCosii_bsp/\libucosii_bsp.a(alt_main.o)
 .debug_loc     0x0000f732       0x58 F:/project/qsys_ucosii_mail_msg/qsys/software/uCosii_bsp/\libucosii_bsp.a(alt_read.o)
 .debug_loc     0x0000f78a       0x2c F:/project/qsys_ucosii_mail_msg/qsys/software/uCosii_bsp/\libucosii_bsp.a(alt_release_fd.o)
 .debug_loc     0x0000f7b6       0x2c F:/project/qsys_ucosii_mail_msg/qsys/software/uCosii_bsp/\libucosii_bsp.a(alt_sbrk.o)
 .debug_loc     0x0000f7e2       0x58 F:/project/qsys_ucosii_mail_msg/qsys/software/uCosii_bsp/\libucosii_bsp.a(alt_write.o)
 .debug_loc     0x0000f83a       0x59 F:/project/qsys_ucosii_mail_msg/qsys/software/uCosii_bsp/\libucosii_bsp.a(alt_env_lock.o)
 .debug_loc     0x0000f893       0x59 F:/project/qsys_ucosii_mail_msg/qsys/software/uCosii_bsp/\libucosii_bsp.a(alt_malloc_lock.o)
 .debug_loc     0x0000f8ec      0x605 F:/project/qsys_ucosii_mail_msg/qsys/software/uCosii_bsp/\libucosii_bsp.a(os_core.o)
 .debug_loc     0x0000fef1       0x2c F:/project/qsys_ucosii_mail_msg/qsys/software/uCosii_bsp/\libucosii_bsp.a(os_dbg.o)
 .debug_loc     0x0000ff1d      0x23e F:/project/qsys_ucosii_mail_msg/qsys/software/uCosii_bsp/\libucosii_bsp.a(os_flag.o)
 .debug_loc     0x0001015b      0x160 F:/project/qsys_ucosii_mail_msg/qsys/software/uCosii_bsp/\libucosii_bsp.a(os_mbox.o)
 .debug_loc     0x000102bb      0x134 F:/project/qsys_ucosii_mail_msg/qsys/software/uCosii_bsp/\libucosii_bsp.a(os_mem.o)
 .debug_loc     0x000103ef      0x1e4 F:/project/qsys_ucosii_mail_msg/qsys/software/uCosii_bsp/\libucosii_bsp.a(os_q.o)
 .debug_loc     0x000105d3      0x160 F:/project/qsys_ucosii_mail_msg/qsys/software/uCosii_bsp/\libucosii_bsp.a(os_sem.o)
 .debug_loc     0x00010733      0x212 F:/project/qsys_ucosii_mail_msg/qsys/software/uCosii_bsp/\libucosii_bsp.a(os_task.o)
 .debug_loc     0x00010945       0xdc F:/project/qsys_ucosii_mail_msg/qsys/software/uCosii_bsp/\libucosii_bsp.a(os_time.o)
 .debug_loc     0x00010a21       0x84 F:/project/qsys_ucosii_mail_msg/qsys/software/uCosii_bsp/\libucosii_bsp.a(alt_sys_init.o)
 .debug_loc     0x00010aa5      0x1b9 F:/project/qsys_ucosii_mail_msg/qsys/software/uCosii_bsp/\libucosii_bsp.a(altera_avalon_epcs_flash_controller.o)
 .debug_loc     0x00010c5e       0xb0 F:/project/qsys_ucosii_mail_msg/qsys/software/uCosii_bsp/\libucosii_bsp.a(altera_avalon_jtag_uart_fd.o)
 .debug_loc     0x00010d0e       0xb0 F:/project/qsys_ucosii_mail_msg/qsys/software/uCosii_bsp/\libucosii_bsp.a(altera_avalon_jtag_uart_init.o)
 .debug_loc     0x00010dbe       0x2c F:/project/qsys_ucosii_mail_msg/qsys/software/uCosii_bsp/\libucosii_bsp.a(altera_avalon_jtag_uart_ioctl.o)
 .debug_loc     0x00010dea       0x2d F:/project/qsys_ucosii_mail_msg/qsys/software/uCosii_bsp/\libucosii_bsp.a(altera_avalon_jtag_uart_read.o)
 .debug_loc     0x00010e17       0x2d F:/project/qsys_ucosii_mail_msg/qsys/software/uCosii_bsp/\libucosii_bsp.a(altera_avalon_jtag_uart_write.o)
 .debug_loc     0x00010e44       0x58 F:/project/qsys_ucosii_mail_msg/qsys/software/uCosii_bsp/\libucosii_bsp.a(altera_avalon_timer_sc.o)
 .debug_loc     0x00010e9c      0x210 F:/project/qsys_ucosii_mail_msg/qsys/software/uCosii_bsp/\libucosii_bsp.a(epcs_commands.o)
 .debug_loc     0x000110ac       0x2c F:/project/qsys_ucosii_mail_msg/qsys/software/uCosii_bsp/\libucosii_bsp.a(alt_alarm_start.o)
 .debug_loc     0x000110d8       0x58 F:/project/qsys_ucosii_mail_msg/qsys/software/uCosii_bsp/\libucosii_bsp.a(alt_dev_llist_insert.o)
 .debug_loc     0x00011130       0x2c F:/project/qsys_ucosii_mail_msg/qsys/software/uCosii_bsp/\libucosii_bsp.a(alt_do_ctors.o)
 .debug_loc     0x0001115c       0x2c F:/project/qsys_ucosii_mail_msg/qsys/software/uCosii_bsp/\libucosii_bsp.a(alt_do_dtors.o)
 .debug_loc     0x00011188       0x58 F:/project/qsys_ucosii_mail_msg/qsys/software/uCosii_bsp/\libucosii_bsp.a(alt_flash_dev.o)
 .debug_loc     0x000111e0       0xb0 F:/project/qsys_ucosii_mail_msg/qsys/software/uCosii_bsp/\libucosii_bsp.a(alt_iic.o)
 .debug_loc     0x00011290       0x2c F:/project/qsys_ucosii_mail_msg/qsys/software/uCosii_bsp/\libucosii_bsp.a(alt_iic_isr_register.o)
 .debug_loc     0x000112bc       0x58 F:/project/qsys_ucosii_mail_msg/qsys/software/uCosii_bsp/\libucosii_bsp.a(alt_io_redirect.o)
 .debug_loc     0x00011314       0x2c F:/project/qsys_ucosii_mail_msg/qsys/software/uCosii_bsp/\libucosii_bsp.a(alt_irq_handler.o)
 .debug_loc     0x00011340       0x84 F:/project/qsys_ucosii_mail_msg/qsys/software/uCosii_bsp/\libucosii_bsp.a(alt_open.o)
 .debug_loc     0x000113c4       0x58 F:/project/qsys_ucosii_mail_msg/qsys/software/uCosii_bsp/\libucosii_bsp.a(alt_tick.o)
 .debug_loc     0x0001141c       0x2c F:/project/qsys_ucosii_mail_msg/qsys/software/uCosii_bsp/\libucosii_bsp.a(altera_nios2_qsys_irq.o)
 .debug_loc     0x00011448      0x1b8 F:/project/qsys_ucosii_mail_msg/qsys/software/uCosii_bsp/\libucosii_bsp.a(os_cpu_c.o)
 .debug_loc     0x00011600       0x2c F:/project/qsys_ucosii_mail_msg/qsys/software/uCosii_bsp/\libucosii_bsp.a(altera_avalon_spi.o)
 .debug_loc     0x0001162c       0x2c F:/project/qsys_ucosii_mail_msg/qsys/software/uCosii_bsp/\libucosii_bsp.a(alt_find_dev.o)
 .debug_loc     0x00011658       0x2c F:/project/qsys_ucosii_mail_msg/qsys/software/uCosii_bsp/\libucosii_bsp.a(alt_find_file.o)
 .debug_loc     0x00011684       0x2c F:/project/qsys_ucosii_mail_msg/qsys/software/uCosii_bsp/\libucosii_bsp.a(alt_get_fd.o)
 .debug_loc     0x000116b0       0x2c d:/altera/13.1/nios2eds/bin/gnu/h-i686-mingw32/bin/../lib/gcc/nios2-elf/4.7.3/../../../../../H-i686-mingw32/nios2-elf/lib\libc.a(lib_a-atexit.o)
 .debug_loc     0x000116dc       0x3e d:/altera/13.1/nios2eds/bin/gnu/h-i686-mingw32/bin/../lib/gcc/nios2-elf/4.7.3/../../../../../H-i686-mingw32/nios2-elf/lib\libc.a(lib_a-exit.o)
 .debug_loc     0x0001171a      0x103 d:/altera/13.1/nios2eds/bin/gnu/h-i686-mingw32/bin/../lib/gcc/nios2-elf/4.7.3/../../../../../H-i686-mingw32/nios2-elf/lib\libc.a(lib_a-memcmp.o)
 .debug_loc     0x0001181d      0x194 d:/altera/13.1/nios2eds/bin/gnu/h-i686-mingw32/bin/../lib/gcc/nios2-elf/4.7.3/../../../../../H-i686-mingw32/nios2-elf/lib\libc.a(lib_a-__atexit.o)
 .debug_loc     0x000119b1      0x1e1 d:/altera/13.1/nios2eds/bin/gnu/h-i686-mingw32/bin/../lib/gcc/nios2-elf/4.7.3/../../../../../H-i686-mingw32/nios2-elf/lib\libc.a(lib_a-__call_atexit.o)
 .debug_loc     0x00011b92       0x48 d:/altera/13.1/nios2eds/bin/gnu/h-i686-mingw32/bin/../lib/gcc/nios2-elf/4.7.3\libgcc.a(_fixunsdfsi.o)
 .debug_loc     0x00011bda       0x2c F:/project/qsys_ucosii_mail_msg/qsys/software/uCosii_bsp/\libucosii_bsp.a(alt_exit.o)

.debug_macinfo
 *(.debug_macinfo)

.debug_weaknames
 *(.debug_weaknames)

.debug_funcnames
 *(.debug_funcnames)

.debug_typenames
 *(.debug_typenames)

.debug_varnames
 *(.debug_varnames)

.debug_alt_sim_info
                0x00000000       0x20
 *(.debug_alt_sim_info)
 .debug_alt_sim_info
                0x00000000       0x20 F:/project/qsys_ucosii_mail_msg/qsys/software/uCosii_bsp//obj/HAL/src/crt0.o
                0x02000000                __alt_data_end = 0x2000000
                0x02000000                PROVIDE (__alt_stack_pointer, __alt_data_end)
                0x00025bc0                PROVIDE (__alt_stack_limit, __alt_stack_base)
                0x00025bc0                PROVIDE (__alt_heap_start, end)
                0x02000000                PROVIDE (__alt_heap_limit, 0x2000000)
OUTPUT(uCosii.elf elf32-littlenios2)

.debug_ranges   0x00000000      0xa38
 .debug_ranges  0x00000000      0x150 d:/altera/13.1/nios2eds/bin/gnu/h-i686-mingw32/bin/../lib/gcc/nios2-elf/4.7.3/../../../../../H-i686-mingw32/nios2-elf/lib\libc.a(lib_a-vfprintf.o)
 .debug_ranges  0x00000150       0x20 d:/altera/13.1/nios2eds/bin/gnu/h-i686-mingw32/bin/../lib/gcc/nios2-elf/4.7.3/../../../../../H-i686-mingw32/nios2-elf/lib\libc.a(lib_a-fflush.o)
 .debug_ranges  0x00000170       0x18 d:/altera/13.1/nios2eds/bin/gnu/h-i686-mingw32/bin/../lib/gcc/nios2-elf/4.7.3/../../../../../H-i686-mingw32/nios2-elf/lib\libc.a(lib_a-fvwrite.o)
 .debug_ranges  0x00000188       0x80 d:/altera/13.1/nios2eds/bin/gnu/h-i686-mingw32/bin/../lib/gcc/nios2-elf/4.7.3/../../../../../H-i686-mingw32/nios2-elf/lib\libc.a(lib_a-fwalk.o)
 .debug_ranges  0x00000208       0x70 d:/altera/13.1/nios2eds/bin/gnu/h-i686-mingw32/bin/../lib/gcc/nios2-elf/4.7.3/../../../../../H-i686-mingw32/nios2-elf/lib\libc.a(lib_a-mallocr.o)
 .debug_ranges  0x00000278       0x40 d:/altera/13.1/nios2eds/bin/gnu/h-i686-mingw32/bin/../lib/gcc/nios2-elf/4.7.3/../../../../../H-i686-mingw32/nios2-elf/lib\libc.a(lib_a-mprec.o)
 .debug_ranges  0x000002b8      0x158 d:/altera/13.1/nios2eds/bin/gnu/h-i686-mingw32/bin/../lib/gcc/nios2-elf/4.7.3/../../../../../H-i686-mingw32/nios2-elf/lib\libc.a(lib_a-reallocr.o)
 .debug_ranges  0x00000410       0x48 d:/altera/13.1/nios2eds/bin/gnu/h-i686-mingw32/bin/../lib/gcc/nios2-elf/4.7.3/../../../../../H-i686-mingw32/nios2-elf/lib\libc.a(lib_a-callocr.o)
 .debug_ranges  0x00000458      0x1a0 d:/altera/13.1/nios2eds/bin/gnu/h-i686-mingw32/bin/../lib/gcc/nios2-elf/4.7.3\libgcc.a(_udivdi3.o)
 .debug_ranges  0x000005f8      0x160 d:/altera/13.1/nios2eds/bin/gnu/h-i686-mingw32/bin/../lib/gcc/nios2-elf/4.7.3\libgcc.a(_umoddi3.o)
 .debug_ranges  0x00000758       0x38 d:/altera/13.1/nios2eds/bin/gnu/h-i686-mingw32/bin/../lib/gcc/nios2-elf/4.7.3\libgcc.a(_addsub_df.o)
 .debug_ranges  0x00000790       0x78 d:/altera/13.1/nios2eds/bin/gnu/h-i686-mingw32/bin/../lib/gcc/nios2-elf/4.7.3\libgcc.a(_mul_df.o)
 .debug_ranges  0x00000808       0x50 d:/altera/13.1/nios2eds/bin/gnu/h-i686-mingw32/bin/../lib/gcc/nios2-elf/4.7.3\libgcc.a(_div_df.o)
 .debug_ranges  0x00000858       0x30 d:/altera/13.1/nios2eds/bin/gnu/h-i686-mingw32/bin/../lib/gcc/nios2-elf/4.7.3\libgcc.a(_si_to_df.o)
 .debug_ranges  0x00000888       0x48 d:/altera/13.1/nios2eds/bin/gnu/h-i686-mingw32/bin/../lib/gcc/nios2-elf/4.7.3\libgcc.a(_usi_to_df.o)
 .debug_ranges  0x000008d0       0x30 d:/altera/13.1/nios2eds/bin/gnu/h-i686-mingw32/bin/../lib/gcc/nios2-elf/4.7.3\libgcc.a(_muldi3.o)
 .debug_ranges  0x00000900       0x28 d:/altera/13.1/nios2eds/bin/gnu/h-i686-mingw32/bin/../lib/gcc/nios2-elf/4.7.3\libgcc.a(_clzsi2.o)
 .debug_ranges  0x00000928       0x18 d:/altera/13.1/nios2eds/bin/gnu/h-i686-mingw32/bin/../lib/gcc/nios2-elf/4.7.3\libgcc.a(_pack_df.o)
 .debug_ranges  0x00000940       0x30 F:/project/qsys_ucosii_mail_msg/qsys/software/uCosii_bsp/\libucosii_bsp.a(altera_avalon_jtag_uart_init.o)
 .debug_ranges  0x00000970       0x18 F:/project/qsys_ucosii_mail_msg/qsys/software/uCosii_bsp/\libucosii_bsp.a(altera_avalon_jtag_uart_read.o)
 .debug_ranges  0x00000988       0x30 F:/project/qsys_ucosii_mail_msg/qsys/software/uCosii_bsp/\libucosii_bsp.a(alt_iic.o)
 .debug_ranges  0x000009b8       0x28 F:/project/qsys_ucosii_mail_msg/qsys/software/uCosii_bsp/\libucosii_bsp.a(alt_irq_entry.o)
 .debug_ranges  0x000009e0       0x10 F:/project/qsys_ucosii_mail_msg/qsys/software/uCosii_bsp/\libucosii_bsp.a(alt_irq_handler.o)
 .debug_ranges  0x000009f0       0x30 F:/project/qsys_ucosii_mail_msg/qsys/software/uCosii_bsp/\libucosii_bsp.a(alt_exception_entry.o)
 .debug_ranges  0x00000a20       0x18 d:/altera/13.1/nios2eds/bin/gnu/h-i686-mingw32/bin/../lib/gcc/nios2-elf/4.7.3/../../../../../H-i686-mingw32/nios2-elf/lib\libc.a(lib_a-__call_atexit.o)
