
qsys_epcs_rw.elf:     file format elf32-littlenios2
qsys_epcs_rw.elf
architecture: nios2, flags 0x00000112:
EXEC_P, HAS_SYMS, D_PAGED
start address 0x000081b8

Program Header:
    LOAD off    0x00001020 vaddr 0x00008020 paddr 0x00008020 align 2**12
         filesz 0x00005718 memsz 0x00005834 flags rwx
    LOAD off    0x00007000 vaddr 0x00011000 paddr 0x00011000 align 2**12
         filesz 0x00000000 memsz 0x00000000 flags r-x

Sections:
Idx Name          Size      VMA       LMA       File off  Algn
  0 .entry        00000000  00011000  00011000  00007000  2**5
                  CONTENTS, ALLOC, LOAD, READONLY, CODE
  1 .exceptions   00000198  00008020  00008020  00001020  2**2
                  CONTENTS, ALLOC, LOAD, READONLY, CODE
  2 .text         00003fb8  000081b8  000081b8  000011b8  2**2
                  CONTENTS, ALLOC, LOAD, READONLY, CODE
  3 .rodata       000001e4  0000c170  0000c170  00005170  2**2
                  CONTENTS, ALLOC, LOAD, READONLY, DATA
  4 .rwdata       000013e4  0000c354  0000c354  00005354  2**2
                  CONTENTS, ALLOC, LOAD, DATA, SMALL_DATA
  5 .bss          0000011c  0000d738  0000d738  00006738  2**2
                  ALLOC, SMALL_DATA
  6 .comment      00000023  00000000  00000000  00007000  2**0
                  CONTENTS, READONLY
  7 .debug_aranges 00000628  00000000  00000000  00007028  2**3
                  CONTENTS, READONLY, DEBUGGING
  8 .debug_info   0000ae4e  00000000  00000000  00007650  2**0
                  CONTENTS, READONLY, DEBUGGING
  9 .debug_abbrev 0000346d  00000000  00000000  0001249e  2**0
                  CONTENTS, READONLY, DEBUGGING
 10 .debug_line   00003b3f  00000000  00000000  0001590b  2**0
                  CONTENTS, READONLY, DEBUGGING
 11 .debug_frame  00000bf4  00000000  00000000  0001944c  2**2
                  CONTENTS, READONLY, DEBUGGING
 12 .debug_str    00001c22  00000000  00000000  0001a040  2**0
                  CONTENTS, READONLY, DEBUGGING
 13 .debug_loc    00002208  00000000  00000000  0001bc62  2**0
                  CONTENTS, READONLY, DEBUGGING
 14 .debug_alt_sim_info 00000020  00000000  00000000  0001de6c  2**2
                  CONTENTS, READONLY, DEBUGGING
 15 .debug_ranges 00000280  00000000  00000000  0001de90  2**3
                  CONTENTS, READONLY, DEBUGGING
 16 .thread_model 00000003  00000000  00000000  0001ff11  2**0
                  CONTENTS, READONLY
 17 .cpu          00000005  00000000  00000000  0001ff14  2**0
                  CONTENTS, READONLY
 18 .qsys         00000001  00000000  00000000  0001ff19  2**0
                  CONTENTS, READONLY
 19 .simulation_enabled 00000001  00000000  00000000  0001ff1a  2**0
                  CONTENTS, READONLY
 20 .sysid_hash   00000004  00000000  00000000  0001ff1b  2**0
                  CONTENTS, READONLY
 21 .sysid_base   00000004  00000000  00000000  0001ff1f  2**0
                  CONTENTS, READONLY
 22 .sysid_time   00000004  00000000  00000000  0001ff23  2**0
                  CONTENTS, READONLY
 23 .stderr_dev   00000009  00000000  00000000  0001ff27  2**0
                  CONTENTS, READONLY
 24 .stdin_dev    00000009  00000000  00000000  0001ff30  2**0
                  CONTENTS, READONLY
 25 .stdout_dev   00000009  00000000  00000000  0001ff39  2**0
                  CONTENTS, READONLY
 26 .sopc_system_name 00000009  00000000  00000000  0001ff42  2**0
                  CONTENTS, READONLY
 27 .quartus_project_dir 00000022  00000000  00000000  0001ff4b  2**0
                  CONTENTS, READONLY
 28 .sopcinfo     00031547  00000000  00000000  0001ff6d  2**0
                  CONTENTS, READONLY
SYMBOL TABLE:
00011000 l    d  .entry	00000000 .entry
00008020 l    d  .exceptions	00000000 .exceptions
000081b8 l    d  .text	00000000 .text
0000c170 l    d  .rodata	00000000 .rodata
0000c354 l    d  .rwdata	00000000 .rwdata
0000d738 l    d  .bss	00000000 .bss
00000000 l    d  .comment	00000000 .comment
00000000 l    d  .debug_aranges	00000000 .debug_aranges
00000000 l    d  .debug_info	00000000 .debug_info
00000000 l    d  .debug_abbrev	00000000 .debug_abbrev
00000000 l    d  .debug_line	00000000 .debug_line
00000000 l    d  .debug_frame	00000000 .debug_frame
00000000 l    d  .debug_str	00000000 .debug_str
00000000 l    d  .debug_loc	00000000 .debug_loc
00000000 l    d  .debug_alt_sim_info	00000000 .debug_alt_sim_info
00000000 l    d  .debug_ranges	00000000 .debug_ranges
00000000 l    df *ABS*	00000000 D:/project/qsys_epcs/qsys/software/qsys_epcs_rw_bsp//obj/HAL/src/crt0.o
000081fc l       .text	00000000 alt_after_alt_main
00000000 l    df *ABS*	00000000 alt_exception_entry.o
00008094 l       .exceptions	00000000 alt_exception_unknown
00000000 l    df *ABS*	00000000 alt_irq_handler.c
00000000 l    df *ABS*	00000000 hello_world.c
00000000 l    df *ABS*	00000000 memset.c
00000000 l    df *ABS*	00000000 printf.c
00000000 l    df *ABS*	00000000 putchar.c
00000000 l    df *ABS*	00000000 puts.c
00000000 l    df *ABS*	00000000 strlen.c
00000000 l    df *ABS*	00000000 vfprintf.c
00000000 l    df *ABS*	00000000 fvwrite_small_dev.c
00000000 l    df *ABS*	00000000 impure.c
0000c354 l     O .rwdata	000000e0 impure_data
00000000 l    df *ABS*	00000000 putc.c
00000000 l    df *ABS*	00000000 writer.c
00000000 l    df *ABS*	00000000 int_errno.c
00000000 l    df *ABS*	00000000 lib2-divmod.c
0000918c l     F .text	00000074 udivmodsi4
00000000 l    df *ABS*	00000000 alt_dcache_flush.c
00000000 l    df *ABS*	00000000 alt_flash_dev.c
00000000 l    df *ABS*	00000000 alt_main.c
00000000 l    df *ABS*	00000000 alt_write.c
00009450 l     F .text	00000050 alt_get_errno
00000000 l    df *ABS*	00000000 alt_sys_init.c
0000958c l     F .text	00000038 alt_dev_reg
0000c434 l     O .rwdata	000000c8 epcs_flash
0000c4fc l     O .rwdata	00001060 jtag_uart
00000000 l    df *ABS*	00000000 altera_avalon_epcs_flash_controller.c
0000964c l     F .text	00000038 alt_flash_device_register
000096d8 l     F .text	0000028c alt_epcs_flash_query
00009964 l     F .text	000000e8 alt_epcs_flash_memcmp
00009d38 l     F .text	00000094 alt_epcs_test_address
00000000 l    df *ABS*	00000000 altera_avalon_jtag_uart_fd.c
00000000 l    df *ABS*	00000000 altera_avalon_jtag_uart_init.c
0000a200 l     F .text	00000204 altera_avalon_jtag_uart_irq
0000a404 l     F .text	000000a4 altera_avalon_jtag_uart_timeout
00000000 l    df *ABS*	00000000 altera_avalon_jtag_uart_ioctl.c
00000000 l    df *ABS*	00000000 altera_avalon_jtag_uart_read.c
00000000 l    df *ABS*	00000000 altera_avalon_jtag_uart_write.c
00000000 l    df *ABS*	00000000 epcs_commands.c
0000aa9c l     F .text	00000038 epcs_test_wip
0000aad4 l     F .text	00000038 epcs_await_wip_released
00000000 l    df *ABS*	00000000 alt_alarm_start.c
00000000 l    df *ABS*	00000000 alt_close.c
0000b1a4 l     F .text	00000050 alt_get_errno
00000000 l    df *ABS*	00000000 alt_dev.c
0000b2bc l     F .text	0000002c alt_dev_null_write
00000000 l    df *ABS*	00000000 alt_dev_llist_insert.c
0000b2e8 l     F .text	00000050 alt_get_errno
00000000 l    df *ABS*	00000000 alt_errno.c
00000000 l    df *ABS*	00000000 alt_exit.c
00000000 l    df *ABS*	00000000 alt_find_dev.c
00000000 l    df *ABS*	00000000 alt_iic.c
00000000 l    df *ABS*	00000000 alt_iic_isr_register.c
00000000 l    df *ABS*	00000000 alt_io_redirect.c
0000b76c l     F .text	000000c0 alt_open_fd
00000000 l    df *ABS*	00000000 alt_irq_vars.c
00000000 l    df *ABS*	00000000 alt_open.c
0000b8a4 l     F .text	00000050 alt_get_errno
0000b8f4 l     F .text	000000cc alt_file_locked
00000000 l    df *ABS*	00000000 alt_release_fd.c
00000000 l    df *ABS*	00000000 alt_tick.c
00000000 l    df *ABS*	00000000 altera_nios2_qsys_irq.c
00000000 l    df *ABS*	00000000 altera_avalon_spi.c
00000000 l    df *ABS*	00000000 alt_find_file.c
00000000 l    df *ABS*	00000000 alt_get_fd.c
00000000 l    df *ABS*	00000000 memcmp.c
00000000 l    df *ABS*	00000000 memcpy.c
00000000 l    df *ABS*	00000000 
000087c4 g     F .text	0000001c putchar
00009cac g     F .text	0000008c alt_epcs_flash_get_info
000093e8 g     F .text	00000068 alt_main
000087e0 g     F .text	00000080 _puts_r
0000d754 g     O .bss	00000100 alt_irq
00008770 g     F .text	0000004c printf
00011000 g       *ABS*	00000000 __alt_mem_epcs_flash
00000000  w      *UND*	00000000 __errno
0000ab0c g     F .text	000000f8 epcs_sector_erase
00011000 g     F .entry	00000000 __reset
0000d738 g     O .bss	00000004 errno
0000d740 g     O .bss	00000004 alt_argv
00015704 g       *ABS*	00000000 _gp
0000d584 g     O .rwdata	00000180 alt_fd_list
000087bc g     F .text	00000008 _putchar_r
0000ad48 g     F .text	00000068 epcs_write_status_register
0000b414 g     F .text	00000090 alt_find_dev
0000c148 g     F .text	00000028 memcpy
0000b82c g     F .text	00000078 alt_io_redirect
00008860 g     F .text	00000014 puts
00009e40 g     F .text	00000104 alt_epcs_flash_write_block
0000a604 g     F .text	00000218 altera_avalon_jtag_uart_read
00008734 g     F .text	0000003c _printf_r
000092ac g     F .text	00000008 __udivsi3
000092bc g     F .text	00000074 alt_dcache_flush
0000d724 g     O .rwdata	00000004 alt_max_fd
00009dcc g     F .text	00000074 alt_epcs_flash_erase_block
0000d704 g     O .rwdata	00000004 _global_impure_ptr
0000b00c g     F .text	00000058 epcs_exit_4_bytes_mode
0000d854 g       *ABS*	00000000 __bss_end
0000b67c g     F .text	000000f0 alt_iic_isr_register
0000bc0c g     F .text	00000104 alt_tick
0000b630 g     F .text	0000004c alt_ic_irq_enabled
0000bb74 g     F .text	00000098 alt_alarm_stop
0000d748 g     O .bss	00000004 alt_irq_active
000080ec g     F .exceptions	000000cc alt_irq_handler
0000d55c g     O .rwdata	00000028 alt_dev_null
0000d71c g     O .rwdata	00000008 alt_dev_list
000094a0 g     F .text	000000ec write
000090c0 g     F .text	00000060 _putc_r
000092b4 g     F .text	00000008 __umodsi3
0000aecc g     F .text	00000068 epcs_read_electronic_signature
0000d854 g       *ABS*	00000000 end
0000a140 g     F .text	000000c0 altera_avalon_jtag_uart_init
0000f800 g       *ABS*	00000000 __alt_stack_pointer
0000a81c g     F .text	00000224 altera_avalon_jtag_uart_write
0000889c g     F .text	000006c4 ___vfprintf_internal_r
000081b8 g     F .text	00000048 _start
0000d74c g     O .bss	00000004 _alt_tick_rate
0000bd30 g     F .text	00000208 alt_avalon_spi_command
0000d750 g     O .bss	00000004 _alt_nticks
000095f8 g     F .text	00000054 alt_sys_init
0000a4a8 g     F .text	00000068 altera_avalon_jtag_uart_close
0000aa40 g     F .text	0000005c epcs_read_status_register
00009fdc g     F .text	00000060 altera_avalon_jtag_uart_read_fd
0000c04c g     F .text	000000b4 alt_get_fd
0000af34 g     F .text	00000080 epcs_read_device_id
0000c100 g     F .text	00000048 memcmp
0000a09c g     F .text	00000050 altera_avalon_jtag_uart_close_fd
0000d854 g       *ABS*	00000000 __alt_stack_base
0000a0ec g     F .text	00000054 altera_avalon_jtag_uart_ioctl_fd
0000bf38 g     F .text	00000114 alt_find_file
0000b338 g     F .text	000000a0 alt_dev_llist_insert
0000d70c g     O .rwdata	00000008 alt_flash_dev_list
00008f84 g     F .text	000000e0 __sfvwrite_small_dev
0000d738 g       *ABS*	00000000 __bss_start
00008714 g     F .text	00000020 memset
00008200 g     F .text	00000514 main
0000d744 g     O .bss	00000004 alt_envp
0000a03c g     F .text	00000060 altera_avalon_jtag_uart_write_fd
0000d728 g     O .rwdata	00000004 alt_errno
00009064 g     F .text	0000005c putc
00009200 g     F .text	00000050 __divsi3
00009a4c g     F .text	00000260 alt_epcs_flash_write
000095c4 g     F .text	00000034 alt_irq_init
0000bb14 g     F .text	00000060 alt_release_fd
00009120 g     F .text	0000006c _write_r
0000d708 g     O .rwdata	00000004 _impure_ptr
0000d73c g     O .bss	00000004 alt_argc
00008020 g       .exceptions	00000000 alt_irq_entry
0000d714 g     O .rwdata	00000008 alt_fs_list
0000ac04 g     F .text	000000f4 epcs_read_buffer
00009684 g     F .text	00000054 alt_epcs_flash_init
0000b4a4 g     F .text	00000050 alt_ic_isr_register
0000d738 g       *ABS*	00000000 _edata
0000d854 g       *ABS*	00000000 _end
00009330 g     F .text	00000068 alt_flash_open_dev
0000a510 g     F .text	000000f4 altera_avalon_jtag_uart_ioctl
0000b590 g     F .text	000000a0 alt_ic_irq_disable
0000afb4 g     F .text	00000058 epcs_enter_4_bytes_mode
0000bd10 g     F .text	00000020 altera_nios2_qsys_irq_init
00009398 g     F .text	00000050 alt_flash_close_dev
00009250 g     F .text	0000005c __modsi3
0000f800 g       *ABS*	00000000 __alt_data_end
00008020 g     F .exceptions	00000000 alt_exception
00008000 g       *ABS*	00000000 __alt_mem_onchip_ram
0000b3d8 g     F .text	0000003c _exit
0000b064 g     F .text	00000140 alt_alarm_start
00008874 g     F .text	00000028 strlen
0000acf8 g     F .text	00000050 epcs_write_enable
0000b9c0 g     F .text	00000154 open
0000d72c g     O .rwdata	00000004 alt_priority_mask
0000b4f4 g     F .text	0000009c alt_ic_irq_enable
00008f60 g     F .text	00000024 __vfprintf_internal
00009f44 g     F .text	00000098 alt_epcs_flash_read
0000d730 g     O .rwdata	00000008 alt_alarm_list
0000b1f4 g     F .text	000000c8 close
0000adb0 g     F .text	0000011c epcs_write_buffer



Disassembly of section .exceptions:

00008020 <alt_exception>:

#else /* ALT_EXCEPTION_STACK disabled */
        /* 
         * Reserve space on normal stack for registers about to be pushed.
         */
        addi  sp, sp, -76
    8020:	deffed04 	addi	sp,sp,-76
         * documentation for details).
         *
         * Leave a gap in the stack frame at 4(sp) for the muldiv handler to
         * store zero into.
         */
        stw   ra,  0(sp)
    8024:	dfc00015 	stw	ra,0(sp)
        stw   r1,   8(sp)
    8028:	d8400215 	stw	at,8(sp)
        stw   r2,  12(sp)
    802c:	d8800315 	stw	r2,12(sp)
        stw   r3,  16(sp)
    8030:	d8c00415 	stw	r3,16(sp)
        stw   r4,  20(sp)
    8034:	d9000515 	stw	r4,20(sp)
        stw   r5,  24(sp)
    8038:	d9400615 	stw	r5,24(sp)
        stw   r6,  28(sp)
    803c:	d9800715 	stw	r6,28(sp)
        stw   r7,  32(sp)
    8040:	d9c00815 	stw	r7,32(sp)
        rdctl r5, estatus   /* Read early to avoid usage stall */
    8044:	000b307a 	rdctl	r5,estatus
        stw   r8,  36(sp)
    8048:	da000915 	stw	r8,36(sp)
        stw   r9,  40(sp)
    804c:	da400a15 	stw	r9,40(sp)
        stw   r10, 44(sp)
    8050:	da800b15 	stw	r10,44(sp)
        stw   r11, 48(sp)
    8054:	dac00c15 	stw	r11,48(sp)
        stw   r12, 52(sp)
    8058:	db000d15 	stw	r12,52(sp)
        stw   r13, 56(sp)
    805c:	db400e15 	stw	r13,56(sp)
        stw   r14, 60(sp)
    8060:	db800f15 	stw	r14,60(sp)
        stw   r15, 64(sp)
    8064:	dbc01015 	stw	r15,64(sp)
        /*
         * ea-4 contains the address of the instruction being executed
         * when the exception occured. For interrupt exceptions, we will
         * will be re-issue the isntruction. Store it in 72(sp)
         */
        stw   r5,  68(sp)  /* estatus */
    8068:	d9401115 	stw	r5,68(sp)
        addi  r15, ea, -4  /* instruction that caused exception */
    806c:	ebffff04 	addi	r15,ea,-4
        stw   r15,  72(sp)
    8070:	dbc01215 	stw	r15,72(sp)
#else
        /*
         * Test to see if the exception was a software exception or caused 
         * by an external interrupt, and vector accordingly.
         */
        rdctl r4, ipending
    8074:	0009313a 	rdctl	r4,ipending
        andi  r2, r5, 1
    8078:	2880004c 	andi	r2,r5,1
        beq   r2, zero, .Lnot_irq
    807c:	10000326 	beq	r2,zero,808c <alt_exception+0x6c>
        beq   r4, zero, .Lnot_irq
    8080:	20000226 	beq	r4,zero,808c <alt_exception+0x6c>
        /*
         * Now that all necessary registers have been preserved, call 
         * alt_irq_handler() to process the interrupts.
         */

        call alt_irq_handler
    8084:	00080ec0 	call	80ec <alt_irq_handler>

        .section .exceptions.irqreturn, "xa"

        br    .Lexception_exit
    8088:	00000306 	br	8098 <alt_exception_unknown+0x4>
         * upon completion, so we write ea (address of instruction *after*
         * the one where the exception occured) into 72(sp). The actual
         * instruction that caused the exception is written in r2, which these
         * handlers will utilize.
         */
        stw   ea,  72(sp)  /* Don't re-issue */
    808c:	df401215 	stw	ea,72(sp)
        ldw   r2, -4(ea)   /* Instruction that caused exception */
    8090:	e8bfff17 	ldw	r2,-4(ea)

00008094 <alt_exception_unknown>:
#ifdef NIOS2_HAS_DEBUG_STUB
       /*
        *  Either tell the user now (if there is a debugger attached) or go into
        *  the debug monitor which will loop until a debugger is attached.
        */
        break
    8094:	003da03a 	break	0
        /* 
         * Restore the saved registers, so that all general purpose registers 
         * have been restored to their state at the time the interrupt occured.
         */

        ldw   r5,  68(sp)
    8098:	d9401117 	ldw	r5,68(sp)
        ldw   ea,  72(sp)  /* This becomes the PC once eret is executed */
    809c:	df401217 	ldw	ea,72(sp)
        ldw   ra,   0(sp)
    80a0:	dfc00017 	ldw	ra,0(sp)

        wrctl estatus, r5
    80a4:	2801707a 	wrctl	estatus,r5

        ldw   r1,   8(sp)
    80a8:	d8400217 	ldw	at,8(sp)
        ldw   r2,  12(sp)
    80ac:	d8800317 	ldw	r2,12(sp)
        ldw   r3,  16(sp)
    80b0:	d8c00417 	ldw	r3,16(sp)
        ldw   r4,  20(sp)
    80b4:	d9000517 	ldw	r4,20(sp)
        ldw   r5,  24(sp)
    80b8:	d9400617 	ldw	r5,24(sp)
        ldw   r6,  28(sp)
    80bc:	d9800717 	ldw	r6,28(sp)
        ldw   r7,  32(sp)
    80c0:	d9c00817 	ldw	r7,32(sp)

#if defined(ALT_EXCEPTION_STACK) && defined(ALT_STACK_CHECK)
        ldw   et, %gprel(alt_exception_old_stack_limit)(gp)
#endif

        ldw   r8,  36(sp)
    80c4:	da000917 	ldw	r8,36(sp)
        ldw   r9,  40(sp)
    80c8:	da400a17 	ldw	r9,40(sp)
        ldw   r10, 44(sp)
    80cc:	da800b17 	ldw	r10,44(sp)
        ldw   r11, 48(sp)
    80d0:	dac00c17 	ldw	r11,48(sp)
        ldw   r12, 52(sp)
    80d4:	db000d17 	ldw	r12,52(sp)
        ldw   r13, 56(sp)
    80d8:	db400e17 	ldw	r13,56(sp)
        ldw   r14, 60(sp)
    80dc:	db800f17 	ldw	r14,60(sp)
        ldw   r15, 64(sp)
    80e0:	dbc01017 	ldw	r15,64(sp)
        stw   et, %gprel(alt_stack_limit_value)(gp)
        stw   zero, %gprel(alt_exception_old_stack_limit)(gp)
#endif /* ALT_STACK_CHECK */
        ldw   sp,  76(sp)
#else /* ALT_EXCEPTION_STACK disabled */
        addi  sp, sp, 76
    80e4:	dec01304 	addi	sp,sp,76

        /*
         * Return to the interrupted instruction.
         */

        eret
    80e8:	ef80083a 	eret

000080ec <alt_irq_handler>:
 * instruction is present if the macro ALT_CI_INTERRUPT_VECTOR defined.
 */

void alt_irq_handler (void) __attribute__ ((section (".exceptions")));
void alt_irq_handler (void)
{
    80ec:	defff904 	addi	sp,sp,-28
    80f0:	dfc00615 	stw	ra,24(sp)
    80f4:	df000515 	stw	fp,20(sp)
    80f8:	df000504 	addi	fp,sp,20
  
  /*
   * Notify the operating system that we are at interrupt level.
   */ 
  
  ALT_OS_INT_ENTER();
    80fc:	0001883a 	nop
#ifndef NIOS2_EIC_PRESENT
static ALT_INLINE alt_u32 ALT_ALWAYS_INLINE alt_irq_pending (void)
{
  alt_u32 active;

  NIOS2_READ_IPENDING (active);
    8100:	0005313a 	rdctl	r2,ipending
    8104:	e0bffe15 	stw	r2,-8(fp)

  return active;
    8108:	e0bffe17 	ldw	r2,-8(fp)
   * Consider the case where the high priority interupt is asserted during
   * the interrupt entry sequence for a lower priority interrupt to see why
   * this is the case.
   */

  active = alt_irq_pending ();
    810c:	e0bffb15 	stw	r2,-20(fp)

  do
  {
    i = 0;
    8110:	e03ffd15 	stw	zero,-12(fp)
    mask = 1;
    8114:	00800044 	movi	r2,1
    8118:	e0bffc15 	stw	r2,-16(fp)
     * called to clear the interrupt condition.
     */

    do
    {
      if (active & mask)
    811c:	e0fffb17 	ldw	r3,-20(fp)
    8120:	e0bffc17 	ldw	r2,-16(fp)
    8124:	1884703a 	and	r2,r3,r2
    8128:	10001726 	beq	r2,zero,8188 <alt_irq_handler+0x9c>
      { 
#ifdef ALT_ENHANCED_INTERRUPT_API_PRESENT
        alt_irq[i].handler(alt_irq[i].context); 
    812c:	00c00074 	movhi	r3,1
    8130:	18f5d504 	addi	r3,r3,-10412
    8134:	e0bffd17 	ldw	r2,-12(fp)
    8138:	100490fa 	slli	r2,r2,3
    813c:	1885883a 	add	r2,r3,r2
    8140:	10c00017 	ldw	r3,0(r2)
    8144:	01000074 	movhi	r4,1
    8148:	2135d504 	addi	r4,r4,-10412
    814c:	e0bffd17 	ldw	r2,-12(fp)
    8150:	100490fa 	slli	r2,r2,3
    8154:	2085883a 	add	r2,r4,r2
    8158:	10800104 	addi	r2,r2,4
    815c:	10800017 	ldw	r2,0(r2)
    8160:	1009883a 	mov	r4,r2
    8164:	183ee83a 	callr	r3
#else
        alt_irq[i].handler(alt_irq[i].context, i); 
#endif
        break;
    8168:	0001883a 	nop
#ifndef NIOS2_EIC_PRESENT
static ALT_INLINE alt_u32 ALT_ALWAYS_INLINE alt_irq_pending (void)
{
  alt_u32 active;

  NIOS2_READ_IPENDING (active);
    816c:	0005313a 	rdctl	r2,ipending
    8170:	e0bfff15 	stw	r2,-4(fp)

  return active;
    8174:	e0bfff17 	ldw	r2,-4(fp)
      mask <<= 1;
      i++;

    } while (1);

    active = alt_irq_pending ();
    8178:	e0bffb15 	stw	r2,-20(fp)
    
  } while (active);
    817c:	e0bffb17 	ldw	r2,-20(fp)
    8180:	103fe31e 	bne	r2,zero,8110 <alt_irq_handler+0x24>

  /*
   * Notify the operating system that interrupt processing is complete.
   */ 

  ALT_OS_INT_EXIT();
    8184:	00000706 	br	81a4 <alt_irq_handler+0xb8>
#else
        alt_irq[i].handler(alt_irq[i].context, i); 
#endif
        break;
      }
      mask <<= 1;
    8188:	e0bffc17 	ldw	r2,-16(fp)
    818c:	1085883a 	add	r2,r2,r2
    8190:	e0bffc15 	stw	r2,-16(fp)
      i++;
    8194:	e0bffd17 	ldw	r2,-12(fp)
    8198:	10800044 	addi	r2,r2,1
    819c:	e0bffd15 	stw	r2,-12(fp)

    } while (1);
    81a0:	003fde06 	br	811c <alt_irq_handler+0x30>
  /*
   * Notify the operating system that interrupt processing is complete.
   */ 

  ALT_OS_INT_EXIT();
}
    81a4:	e037883a 	mov	sp,fp
    81a8:	dfc00117 	ldw	ra,4(sp)
    81ac:	df000017 	ldw	fp,0(sp)
    81b0:	dec00204 	addi	sp,sp,8
    81b4:	f800283a 	ret

Disassembly of section .text:

000081b8 <_start>:

    /* Assume the data cache size is always a power of two. */
#if NIOS2_DCACHE_SIZE > 0x8000
    movhi r2, %hi(NIOS2_DCACHE_SIZE)
#else
    movui r2, NIOS2_DCACHE_SIZE
    81b8:	00820014 	movui	r2,2048
#endif

0:
    initd 0(r2)
    81bc:	10000033 	initd	0(r2)
#ifdef NIOS2_ECC_PRESENT
    addi r2, r2, -4
#else
    addi r2, r2, -NIOS2_DCACHE_LINE_SIZE
    81c0:	10bff804 	addi	r2,r2,-32
#endif
    bgt r2, zero, 0b
    81c4:	00bffd16 	blt	zero,r2,81bc <_start+0x4>

    /*
     * Now that the caches are initialized, set up the stack pointer and global pointer.
     * The values provided by the linker are assumed to be correctly aligned.
     */
    movhi sp, %hi(__alt_stack_pointer)
    81c8:	06c00034 	movhi	sp,0
    ori sp, sp, %lo(__alt_stack_pointer)
    81cc:	defe0014 	ori	sp,sp,63488
    movhi gp, %hi(_gp)
    81d0:	06800074 	movhi	gp,1
    ori gp, gp, %lo(_gp)
    81d4:	d695c114 	ori	gp,gp,22276
 */
#ifndef ALT_SIM_OPTIMIZE
    /* Log that the BSS is about to be cleared. */
    ALT_LOG_PUTS(alt_log_msg_bss)

    movhi r2, %hi(__bss_start)
    81d8:	00800034 	movhi	r2,0
    ori r2, r2, %lo(__bss_start)
    81dc:	10b5ce14 	ori	r2,r2,55096

    movhi r3, %hi(__bss_end)
    81e0:	00c00034 	movhi	r3,0
    ori r3, r3, %lo(__bss_end)
    81e4:	18f61514 	ori	r3,r3,55380

    beq r2, r3, 1f
    81e8:	10c00326 	beq	r2,r3,81f8 <_start+0x40>

0:
    stw zero, (r2)
    81ec:	10000015 	stw	zero,0(r2)
    addi r2, r2, 4
    81f0:	10800104 	addi	r2,r2,4
    bltu r2, r3, 0b
    81f4:	10fffd36 	bltu	r2,r3,81ec <_start+0x34>

    /* Log that alt_main is about to be called. */
    ALT_LOG_PUTS(alt_log_msg_alt_main)

    /* Call the C entry point. It should never return. */
    call alt_main
    81f8:	00093e80 	call	93e8 <alt_main>

000081fc <alt_after_alt_main>:

    /* Wait in infinite loop in case alt_main does return. */
alt_after_alt_main:
    br alt_after_alt_main
    81fc:	003fff06 	br	81fc <alt_after_alt_main>

00008200 <main>:
#include "sys/alt_flash.h"

#define BUF_SIZE 100

int main(void)
{
    8200:	deff9504 	addi	sp,sp,-428
    8204:	dfc06a15 	stw	ra,424(sp)
    8208:	df006915 	stw	fp,420(sp)
    820c:	df006904 	addi	fp,sp,420
    char data_wr0[50];
    char data_wr[BUF_SIZE];
    char data_rd[BUF_SIZE];

    //将data_wr0数组初始化为0
    memset(data_wr0,0,50);
    8210:	e0bfc104 	addi	r2,fp,-252
    8214:	1009883a 	mov	r4,r2
    8218:	000b883a 	mov	r5,zero
    821c:	01800c84 	movi	r6,50
    8220:	00087140 	call	8714 <memset>

    //初始化data_wr数组
    printf("写入flash的数据： ");
    8224:	01000074 	movhi	r4,1
    8228:	21305c04 	addi	r4,r4,-16016
    822c:	00087700 	call	8770 <printf>
    for (i=0; i<BUF_SIZE; i++){
    8230:	e03f9815 	stw	zero,-416(fp)
    8234:	00001406 	br	8288 <main+0x88>
        data_wr[i] = i;
    8238:	e0bf9817 	ldw	r2,-416(fp)
    823c:	1007883a 	mov	r3,r2
    8240:	e13fcd84 	addi	r4,fp,-202
    8244:	e0bf9817 	ldw	r2,-416(fp)
    8248:	2085883a 	add	r2,r4,r2
    824c:	10c00005 	stb	r3,0(r2)
        printf("%d,",data_wr[i]);
    8250:	e0ffcd84 	addi	r3,fp,-202
    8254:	e0bf9817 	ldw	r2,-416(fp)
    8258:	1885883a 	add	r2,r3,r2
    825c:	10800003 	ldbu	r2,0(r2)
    8260:	10803fcc 	andi	r2,r2,255
    8264:	1080201c 	xori	r2,r2,128
    8268:	10bfe004 	addi	r2,r2,-128
    826c:	01000074 	movhi	r4,1
    8270:	21306104 	addi	r4,r4,-15996
    8274:	100b883a 	mov	r5,r2
    8278:	00087700 	call	8770 <printf>
    //将data_wr0数组初始化为0
    memset(data_wr0,0,50);

    //初始化data_wr数组
    printf("写入flash的数据： ");
    for (i=0; i<BUF_SIZE; i++){
    827c:	e0bf9817 	ldw	r2,-416(fp)
    8280:	10800044 	addi	r2,r2,1
    8284:	e0bf9815 	stw	r2,-416(fp)
    8288:	e0bf9817 	ldw	r2,-416(fp)
    828c:	10801910 	cmplti	r2,r2,100
    8290:	103fe91e 	bne	r2,zero,8238 <main+0x38>
        data_wr[i] = i;
        printf("%d,",data_wr[i]);
    }
    printf("\n");
    8294:	01000284 	movi	r4,10
    8298:	00087c40 	call	87c4 <putchar>

    //打开 EPCS_FLASH 器件，获取 EPCS_FLASH 器件句柄
    fd = alt_flash_open_dev(EPCS_FLASH_NAME);
    829c:	01000074 	movhi	r4,1
    82a0:	21306204 	addi	r4,r4,-15992
    82a4:	00093300 	call	9330 <alt_flash_open_dev>
    82a8:	e0bf9915 	stw	r2,-412(fp)

    //返回值为0表示打开器件失败
    if(!fd){
    82ac:	e0bf9917 	ldw	r2,-412(fp)
    82b0:	1000041e 	bne	r2,zero,82c4 <main+0xc4>
        printf("Can't open flash device\n");
    82b4:	01000074 	movhi	r4,1
    82b8:	21306604 	addi	r4,r4,-15976
    82bc:	00088600 	call	8860 <puts>
    82c0:	00010e06 	br	86fc <main+0x4fc>
    82c4:	e0bf9917 	ldw	r2,-412(fp)
    82c8:	e0bf9c15 	stw	r2,-400(fp)
    }
    //成功打开 EPCS_FLASH 器件
    else {
    	//获取 EPCS_FLASH 器件信息
        ret_code = alt_get_flash_info(fd, &regions_info, &number_of_regions);
    82cc:	e0bfbf04 	addi	r2,fp,-260
    82d0:	e0bf9d15 	stw	r2,-396(fp)
    82d4:	e0bfc004 	addi	r2,fp,-256
    82d8:	e0bf9e15 	stw	r2,-392(fp)
 */
static __inline__ int __attribute__ ((always_inline)) alt_get_flash_info( 
                                      alt_flash_fd* fd, flash_region** info, 
                                      int* number_of_regions)
{
  return fd->get_info( fd, info, number_of_regions);
    82dc:	e0bf9c17 	ldw	r2,-400(fp)
    82e0:	10800717 	ldw	r2,28(r2)
    82e4:	e13f9c17 	ldw	r4,-400(fp)
    82e8:	e17f9d17 	ldw	r5,-396(fp)
    82ec:	e1bf9e17 	ldw	r6,-392(fp)
    82f0:	103ee83a 	callr	r2
    82f4:	e0bf9a15 	stw	r2,-408(fp)

		//返回值ret_code为0,表示获取成功FLASH信息
		if(!ret_code){
    82f8:	e0bf9a17 	ldw	r2,-408(fp)
    82fc:	1000fa1e 	bne	r2,zero,86e8 <main+0x4e8>

			//打印FLASH信息
			printf("\nFlash Region 信息：\n");
    8300:	01000074 	movhi	r4,1
    8304:	21306c04 	addi	r4,r4,-15952
    8308:	00088600 	call	8860 <puts>
			printf("region_number = %d\n"	   ,number_of_regions);
    830c:	e0bfc017 	ldw	r2,-256(fp)
    8310:	01000074 	movhi	r4,1
    8314:	21307204 	addi	r4,r4,-15928
    8318:	100b883a 	mov	r5,r2
    831c:	00087700 	call	8770 <printf>
			printf("region_offset = %d\n"      ,regions_info->offset);
    8320:	e0bfbf17 	ldw	r2,-260(fp)
    8324:	10800017 	ldw	r2,0(r2)
    8328:	01000074 	movhi	r4,1
    832c:	21307704 	addi	r4,r4,-15908
    8330:	100b883a 	mov	r5,r2
    8334:	00087700 	call	8770 <printf>
			printf("region_size   = %d Bytes\n",regions_info->region_size);
    8338:	e0bfbf17 	ldw	r2,-260(fp)
    833c:	10800117 	ldw	r2,4(r2)
    8340:	01000074 	movhi	r4,1
    8344:	21307c04 	addi	r4,r4,-15888
    8348:	100b883a 	mov	r5,r2
    834c:	00087700 	call	8770 <printf>
			printf("block_number  = %d\n"	   ,regions_info->number_of_blocks);
    8350:	e0bfbf17 	ldw	r2,-260(fp)
    8354:	10800217 	ldw	r2,8(r2)
    8358:	01000074 	movhi	r4,1
    835c:	21308304 	addi	r4,r4,-15860
    8360:	100b883a 	mov	r5,r2
    8364:	00087700 	call	8770 <printf>
			printf("block_size    = %d Bytes\n",regions_info->block_size);
    8368:	e0bfbf17 	ldw	r2,-260(fp)
    836c:	10800317 	ldw	r2,12(r2)
    8370:	01000074 	movhi	r4,1
    8374:	21308804 	addi	r4,r4,-15840
    8378:	100b883a 	mov	r5,r2
    837c:	00087700 	call	8770 <printf>

			//指定FLASH读写的偏移地址为 "第九个Block的起始地址"
			flash_rw_offset = regions_info->offset + (regions_info->block_size)*8;
    8380:	e0bfbf17 	ldw	r2,-260(fp)
    8384:	10c00017 	ldw	r3,0(r2)
    8388:	e0bfbf17 	ldw	r2,-260(fp)
    838c:	10800317 	ldw	r2,12(r2)
    8390:	100490fa 	slli	r2,r2,3
    8394:	1885883a 	add	r2,r3,r2
    8398:	e0bf9b15 	stw	r2,-404(fp)

			//擦除第九个Block的内容
			alt_erase_flash_block(fd,flash_rw_offset,regions_info->block_size);
    839c:	e0bfbf17 	ldw	r2,-260(fp)
    83a0:	10800317 	ldw	r2,12(r2)
    83a4:	e0ff9917 	ldw	r3,-412(fp)
    83a8:	e0ff9f15 	stw	r3,-388(fp)
    83ac:	e0ff9b17 	ldw	r3,-404(fp)
    83b0:	e0ffa015 	stw	r3,-384(fp)
    83b4:	e0bfa115 	stw	r2,-380(fp)
 */
static __inline__ int __attribute__ ((always_inline)) alt_erase_flash_block( 
                                      alt_flash_fd* fd, int offset, int length) 
{
  int ret_code;
  ret_code = fd->erase_block( fd, offset );
    83b8:	e0bf9f17 	ldw	r2,-388(fp)
    83bc:	10800817 	ldw	r2,32(r2)
    83c0:	e13f9f17 	ldw	r4,-388(fp)
    83c4:	e17fa017 	ldw	r5,-384(fp)
    83c8:	103ee83a 	callr	r2
    83cc:	e0bfa215 	stw	r2,-376(fp)
  
  if(!ret_code)
    83d0:	e0bfa217 	ldw	r2,-376(fp)
    83d4:	1000081e 	bne	r2,zero,83f8 <main+0x1f8>
      alt_dcache_flush((alt_u8*)fd->base_addr + offset, length);
    83d8:	e0bf9f17 	ldw	r2,-388(fp)
    83dc:	10c00a17 	ldw	r3,40(r2)
    83e0:	e0bfa017 	ldw	r2,-384(fp)
    83e4:	1887883a 	add	r3,r3,r2
    83e8:	e0bfa117 	ldw	r2,-380(fp)
    83ec:	1809883a 	mov	r4,r3
    83f0:	100b883a 	mov	r5,r2
    83f4:	00092bc0 	call	92bc <alt_dcache_flush>
    83f8:	e0bf9917 	ldw	r2,-412(fp)
    83fc:	e0bfa315 	stw	r2,-372(fp)
    8400:	e0bf9b17 	ldw	r2,-404(fp)
    8404:	e0bfa415 	stw	r2,-368(fp)
    8408:	e0bf9b17 	ldw	r2,-404(fp)
    840c:	e0bfa515 	stw	r2,-364(fp)

			//使用  “精确访问” 把data_wr数组的数据写入第九个Block
			alt_write_flash_block(fd,flash_rw_offset,flash_rw_offset,data_wr,BUF_SIZE);
    8410:	e0bfcd84 	addi	r2,fp,-202
    8414:	e0bfa615 	stw	r2,-360(fp)
    8418:	00801904 	movi	r2,100
    841c:	e0bfa715 	stw	r2,-356(fp)
                                      int data_offset,
                                      const void *data, int length)
{

  int ret_code;
  ret_code = fd->write_block( fd, block_offset, data_offset, data, length );
    8420:	e0bfa317 	ldw	r2,-372(fp)
    8424:	10800917 	ldw	r2,36(r2)
    8428:	e0ffa717 	ldw	r3,-356(fp)
    842c:	d8c00015 	stw	r3,0(sp)
    8430:	e13fa317 	ldw	r4,-372(fp)
    8434:	e17fa417 	ldw	r5,-368(fp)
    8438:	e1bfa517 	ldw	r6,-364(fp)
    843c:	e1ffa617 	ldw	r7,-360(fp)
    8440:	103ee83a 	callr	r2
    8444:	e0bfa815 	stw	r2,-352(fp)

  if(!ret_code)
    8448:	e0bfa817 	ldw	r2,-352(fp)
    844c:	1000081e 	bne	r2,zero,8470 <main+0x270>
      alt_dcache_flush((alt_u8*)fd->base_addr + data_offset, length);
    8450:	e0bfa317 	ldw	r2,-372(fp)
    8454:	10c00a17 	ldw	r3,40(r2)
    8458:	e0bfa517 	ldw	r2,-364(fp)
    845c:	1887883a 	add	r3,r3,r2
    8460:	e0bfa717 	ldw	r2,-356(fp)
    8464:	1809883a 	mov	r4,r3
    8468:	100b883a 	mov	r5,r2
    846c:	00092bc0 	call	92bc <alt_dcache_flush>
    8470:	e0bf9917 	ldw	r2,-412(fp)
    8474:	e0bfa915 	stw	r2,-348(fp)
    8478:	e0bf9b17 	ldw	r2,-404(fp)
    847c:	e0bfaa15 	stw	r2,-344(fp)
			//读取第九个Block的数据
			alt_read_flash(fd,flash_rw_offset,data_rd,BUF_SIZE);
    8480:	e0bfe684 	addi	r2,fp,-102
    8484:	e0bfab15 	stw	r2,-340(fp)
    8488:	00801904 	movi	r2,100
    848c:	e0bfac15 	stw	r2,-336(fp)
 */
static __inline__ int __attribute__ ((always_inline)) alt_read_flash( 
                                      alt_flash_fd* fd, int offset, 
                                      void* dest_addr, int length )
{
  return fd->read( fd, offset, dest_addr, length );
    8490:	e0bfa917 	ldw	r2,-348(fp)
    8494:	10800617 	ldw	r2,24(r2)
    8498:	e13fa917 	ldw	r4,-348(fp)
    849c:	e17faa17 	ldw	r5,-344(fp)
    84a0:	e1bfab17 	ldw	r6,-340(fp)
    84a4:	e1ffac17 	ldw	r7,-336(fp)
    84a8:	103ee83a 	callr	r2
			printf("\n使用“精确访问”写入100个数据，从flash读取到的数据：\n");
    84ac:	01000074 	movhi	r4,1
    84b0:	21308f04 	addi	r4,r4,-15812
    84b4:	00088600 	call	8860 <puts>
			for(i=0;i<BUF_SIZE;i++){
    84b8:	e03f9815 	stw	zero,-416(fp)
    84bc:	00000e06 	br	84f8 <main+0x2f8>
				printf("%d,",data_rd[i]);
    84c0:	e0ffe684 	addi	r3,fp,-102
    84c4:	e0bf9817 	ldw	r2,-416(fp)
    84c8:	1885883a 	add	r2,r3,r2
    84cc:	10800003 	ldbu	r2,0(r2)
    84d0:	10803fcc 	andi	r2,r2,255
    84d4:	1080201c 	xori	r2,r2,128
    84d8:	10bfe004 	addi	r2,r2,-128
    84dc:	01000074 	movhi	r4,1
    84e0:	21306104 	addi	r4,r4,-15996
    84e4:	100b883a 	mov	r5,r2
    84e8:	00087700 	call	8770 <printf>
			//使用  “精确访问” 把data_wr数组的数据写入第九个Block
			alt_write_flash_block(fd,flash_rw_offset,flash_rw_offset,data_wr,BUF_SIZE);
			//读取第九个Block的数据
			alt_read_flash(fd,flash_rw_offset,data_rd,BUF_SIZE);
			printf("\n使用“精确访问”写入100个数据，从flash读取到的数据：\n");
			for(i=0;i<BUF_SIZE;i++){
    84ec:	e0bf9817 	ldw	r2,-416(fp)
    84f0:	10800044 	addi	r2,r2,1
    84f4:	e0bf9815 	stw	r2,-416(fp)
    84f8:	e0bf9817 	ldw	r2,-416(fp)
    84fc:	10801910 	cmplti	r2,r2,100
    8500:	103fef1e 	bne	r2,zero,84c0 <main+0x2c0>
				printf("%d,",data_rd[i]);
			}

			//使用  “精确访问” 将后50个数据重写为0
			alt_write_flash_block(fd,flash_rw_offset,flash_rw_offset+50,data_wr0,50);
    8504:	e0bf9b17 	ldw	r2,-404(fp)
    8508:	10800c84 	addi	r2,r2,50
    850c:	e0ff9917 	ldw	r3,-412(fp)
    8510:	e0ffad15 	stw	r3,-332(fp)
    8514:	e0ff9b17 	ldw	r3,-404(fp)
    8518:	e0ffae15 	stw	r3,-328(fp)
    851c:	e0bfaf15 	stw	r2,-324(fp)
    8520:	e0bfc104 	addi	r2,fp,-252
    8524:	e0bfb015 	stw	r2,-320(fp)
    8528:	00800c84 	movi	r2,50
    852c:	e0bfb115 	stw	r2,-316(fp)
                                      int data_offset,
                                      const void *data, int length)
{

  int ret_code;
  ret_code = fd->write_block( fd, block_offset, data_offset, data, length );
    8530:	e0bfad17 	ldw	r2,-332(fp)
    8534:	10800917 	ldw	r2,36(r2)
    8538:	e0ffb117 	ldw	r3,-316(fp)
    853c:	d8c00015 	stw	r3,0(sp)
    8540:	e13fad17 	ldw	r4,-332(fp)
    8544:	e17fae17 	ldw	r5,-328(fp)
    8548:	e1bfaf17 	ldw	r6,-324(fp)
    854c:	e1ffb017 	ldw	r7,-320(fp)
    8550:	103ee83a 	callr	r2
    8554:	e0bfb215 	stw	r2,-312(fp)

  if(!ret_code)
    8558:	e0bfb217 	ldw	r2,-312(fp)
    855c:	1000081e 	bne	r2,zero,8580 <main+0x380>
      alt_dcache_flush((alt_u8*)fd->base_addr + data_offset, length);
    8560:	e0bfad17 	ldw	r2,-332(fp)
    8564:	10c00a17 	ldw	r3,40(r2)
    8568:	e0bfaf17 	ldw	r2,-324(fp)
    856c:	1887883a 	add	r3,r3,r2
    8570:	e0bfb117 	ldw	r2,-316(fp)
    8574:	1809883a 	mov	r4,r3
    8578:	100b883a 	mov	r5,r2
    857c:	00092bc0 	call	92bc <alt_dcache_flush>
    8580:	e0bf9917 	ldw	r2,-412(fp)
    8584:	e0bfb315 	stw	r2,-308(fp)
    8588:	e0bf9b17 	ldw	r2,-404(fp)
    858c:	e0bfb415 	stw	r2,-304(fp)
			//读取第九个Block的数据
			alt_read_flash(fd,flash_rw_offset,data_rd,BUF_SIZE);
    8590:	e0bfe684 	addi	r2,fp,-102
    8594:	e0bfb515 	stw	r2,-300(fp)
    8598:	00801904 	movi	r2,100
    859c:	e0bfb615 	stw	r2,-296(fp)
 */
static __inline__ int __attribute__ ((always_inline)) alt_read_flash( 
                                      alt_flash_fd* fd, int offset, 
                                      void* dest_addr, int length )
{
  return fd->read( fd, offset, dest_addr, length );
    85a0:	e0bfb317 	ldw	r2,-308(fp)
    85a4:	10800617 	ldw	r2,24(r2)
    85a8:	e13fb317 	ldw	r4,-308(fp)
    85ac:	e17fb417 	ldw	r5,-304(fp)
    85b0:	e1bfb517 	ldw	r6,-300(fp)
    85b4:	e1ffb617 	ldw	r7,-296(fp)
    85b8:	103ee83a 	callr	r2
			printf("\n\n使用“精确访问”将后50个数据重写为0，从flash读取到的数据：\n");
    85bc:	01000074 	movhi	r4,1
    85c0:	21309d04 	addi	r4,r4,-15756
    85c4:	00088600 	call	8860 <puts>
			for(i=0;i<BUF_SIZE;i++){
    85c8:	e03f9815 	stw	zero,-416(fp)
    85cc:	00000e06 	br	8608 <main+0x408>
				printf("%d,",data_rd[i]);
    85d0:	e0ffe684 	addi	r3,fp,-102
    85d4:	e0bf9817 	ldw	r2,-416(fp)
    85d8:	1885883a 	add	r2,r3,r2
    85dc:	10800003 	ldbu	r2,0(r2)
    85e0:	10803fcc 	andi	r2,r2,255
    85e4:	1080201c 	xori	r2,r2,128
    85e8:	10bfe004 	addi	r2,r2,-128
    85ec:	01000074 	movhi	r4,1
    85f0:	21306104 	addi	r4,r4,-15996
    85f4:	100b883a 	mov	r5,r2
    85f8:	00087700 	call	8770 <printf>
			//使用  “精确访问” 将后50个数据重写为0
			alt_write_flash_block(fd,flash_rw_offset,flash_rw_offset+50,data_wr0,50);
			//读取第九个Block的数据
			alt_read_flash(fd,flash_rw_offset,data_rd,BUF_SIZE);
			printf("\n\n使用“精确访问”将后50个数据重写为0，从flash读取到的数据：\n");
			for(i=0;i<BUF_SIZE;i++){
    85fc:	e0bf9817 	ldw	r2,-416(fp)
    8600:	10800044 	addi	r2,r2,1
    8604:	e0bf9815 	stw	r2,-416(fp)
    8608:	e0bf9817 	ldw	r2,-416(fp)
    860c:	10801910 	cmplti	r2,r2,100
    8610:	103fef1e 	bne	r2,zero,85d0 <main+0x3d0>
    8614:	e0bf9917 	ldw	r2,-412(fp)
    8618:	e0bfb715 	stw	r2,-292(fp)
    861c:	e0bf9b17 	ldw	r2,-404(fp)
    8620:	e0bfb815 	stw	r2,-288(fp)
				printf("%d,",data_rd[i]);
			}

			//使用  “简单访问” 重写前50个数据为0
			alt_write_flash(fd,flash_rw_offset,data_wr0,50);
    8624:	e0bfc104 	addi	r2,fp,-252
    8628:	e0bfb915 	stw	r2,-284(fp)
    862c:	00800c84 	movi	r2,50
    8630:	e0bfba15 	stw	r2,-280(fp)
                                                           alt_flash_fd* fd, 
                                                           int offset, 
                                                           const void* src_addr, 
                                                           int length )
{
  return fd->write( fd, offset, src_addr, length );
    8634:	e0bfb717 	ldw	r2,-292(fp)
    8638:	10800517 	ldw	r2,20(r2)
    863c:	e13fb717 	ldw	r4,-292(fp)
    8640:	e17fb817 	ldw	r5,-288(fp)
    8644:	e1bfb917 	ldw	r6,-284(fp)
    8648:	e1ffba17 	ldw	r7,-280(fp)
    864c:	103ee83a 	callr	r2
    8650:	e0bf9917 	ldw	r2,-412(fp)
    8654:	e0bfbb15 	stw	r2,-276(fp)
    8658:	e0bf9b17 	ldw	r2,-404(fp)
    865c:	e0bfbc15 	stw	r2,-272(fp)
			//读取第九个Block的数据
			alt_read_flash(fd,flash_rw_offset,data_rd,BUF_SIZE);
    8660:	e0bfe684 	addi	r2,fp,-102
    8664:	e0bfbd15 	stw	r2,-268(fp)
    8668:	00801904 	movi	r2,100
    866c:	e0bfbe15 	stw	r2,-264(fp)
 */
static __inline__ int __attribute__ ((always_inline)) alt_read_flash( 
                                      alt_flash_fd* fd, int offset, 
                                      void* dest_addr, int length )
{
  return fd->read( fd, offset, dest_addr, length );
    8670:	e0bfbb17 	ldw	r2,-276(fp)
    8674:	10800617 	ldw	r2,24(r2)
    8678:	e13fbb17 	ldw	r4,-276(fp)
    867c:	e17fbc17 	ldw	r5,-272(fp)
    8680:	e1bfbd17 	ldw	r6,-268(fp)
    8684:	e1ffbe17 	ldw	r7,-264(fp)
    8688:	103ee83a 	callr	r2
			printf("\n\n使用“简单访问”重写前50个数据为0，从flash读取到的数据：\n");
    868c:	01000074 	movhi	r4,1
    8690:	2130ad04 	addi	r4,r4,-15692
    8694:	00088600 	call	8860 <puts>
			for(i=0;i<BUF_SIZE;i++){
    8698:	e03f9815 	stw	zero,-416(fp)
    869c:	00000e06 	br	86d8 <main+0x4d8>
				   printf("%d,",data_rd[i]);
    86a0:	e0ffe684 	addi	r3,fp,-102
    86a4:	e0bf9817 	ldw	r2,-416(fp)
    86a8:	1885883a 	add	r2,r3,r2
    86ac:	10800003 	ldbu	r2,0(r2)
    86b0:	10803fcc 	andi	r2,r2,255
    86b4:	1080201c 	xori	r2,r2,128
    86b8:	10bfe004 	addi	r2,r2,-128
    86bc:	01000074 	movhi	r4,1
    86c0:	21306104 	addi	r4,r4,-15996
    86c4:	100b883a 	mov	r5,r2
    86c8:	00087700 	call	8770 <printf>
			//使用  “简单访问” 重写前50个数据为0
			alt_write_flash(fd,flash_rw_offset,data_wr0,50);
			//读取第九个Block的数据
			alt_read_flash(fd,flash_rw_offset,data_rd,BUF_SIZE);
			printf("\n\n使用“简单访问”重写前50个数据为0，从flash读取到的数据：\n");
			for(i=0;i<BUF_SIZE;i++){
    86cc:	e0bf9817 	ldw	r2,-416(fp)
    86d0:	10800044 	addi	r2,r2,1
    86d4:	e0bf9815 	stw	r2,-416(fp)
    86d8:	e0bf9817 	ldw	r2,-416(fp)
    86dc:	10801910 	cmplti	r2,r2,100
    86e0:	103fef1e 	bne	r2,zero,86a0 <main+0x4a0>
    86e4:	00000306 	br	86f4 <main+0x4f4>
			}

		}
		//返回值 ret_code 非0,表示获取FLASH信息失败
		else{
			printf("Can't get EPCS flash device info"); //没有获得 EPCS_FLASH 信息
    86e8:	01000074 	movhi	r4,1
    86ec:	2130bc04 	addi	r4,r4,-15632
    86f0:	00087700 	call	8770 <printf>
		}

		alt_flash_close_dev(fd); //关闭 EPCS_FLASH 器件
    86f4:	e13f9917 	ldw	r4,-412(fp)
    86f8:	00093980 	call	9398 <alt_flash_close_dev>
	}

    return 0;
    86fc:	0005883a 	mov	r2,zero
}
    8700:	e037883a 	mov	sp,fp
    8704:	dfc00117 	ldw	ra,4(sp)
    8708:	df000017 	ldw	fp,0(sp)
    870c:	dec00204 	addi	sp,sp,8
    8710:	f800283a 	ret

00008714 <memset>:
    8714:	2005883a 	mov	r2,r4
    8718:	30000526 	beq	r6,zero,8730 <memset+0x1c>
    871c:	218d883a 	add	r6,r4,r6
    8720:	2007883a 	mov	r3,r4
    8724:	19400005 	stb	r5,0(r3)
    8728:	18c00044 	addi	r3,r3,1
    872c:	19bffd1e 	bne	r3,r6,8724 <memset+0x10>
    8730:	f800283a 	ret

00008734 <_printf_r>:
    8734:	defffd04 	addi	sp,sp,-12
    8738:	dfc00015 	stw	ra,0(sp)
    873c:	d9800115 	stw	r6,4(sp)
    8740:	d9c00215 	stw	r7,8(sp)
    8744:	20800217 	ldw	r2,8(r4)
    8748:	00c00074 	movhi	r3,1
    874c:	18e3e104 	addi	r3,r3,-28796
    8750:	280d883a 	mov	r6,r5
    8754:	10c00115 	stw	r3,4(r2)
    8758:	100b883a 	mov	r5,r2
    875c:	d9c00104 	addi	r7,sp,4
    8760:	000889c0 	call	889c <___vfprintf_internal_r>
    8764:	dfc00017 	ldw	ra,0(sp)
    8768:	dec00304 	addi	sp,sp,12
    876c:	f800283a 	ret

00008770 <printf>:
    8770:	defffc04 	addi	sp,sp,-16
    8774:	dfc00015 	stw	ra,0(sp)
    8778:	d9400115 	stw	r5,4(sp)
    877c:	d9800215 	stw	r6,8(sp)
    8780:	d9c00315 	stw	r7,12(sp)
    8784:	00800074 	movhi	r2,1
    8788:	10b5c204 	addi	r2,r2,-10488
    878c:	10800017 	ldw	r2,0(r2)
    8790:	00c00074 	movhi	r3,1
    8794:	18e3e104 	addi	r3,r3,-28796
    8798:	200b883a 	mov	r5,r4
    879c:	10800217 	ldw	r2,8(r2)
    87a0:	d9800104 	addi	r6,sp,4
    87a4:	10c00115 	stw	r3,4(r2)
    87a8:	1009883a 	mov	r4,r2
    87ac:	0008f600 	call	8f60 <__vfprintf_internal>
    87b0:	dfc00017 	ldw	ra,0(sp)
    87b4:	dec00404 	addi	sp,sp,16
    87b8:	f800283a 	ret

000087bc <_putchar_r>:
    87bc:	21800217 	ldw	r6,8(r4)
    87c0:	00090c01 	jmpi	90c0 <_putc_r>

000087c4 <putchar>:
    87c4:	00800074 	movhi	r2,1
    87c8:	10b5c204 	addi	r2,r2,-10488
    87cc:	10800017 	ldw	r2,0(r2)
    87d0:	200b883a 	mov	r5,r4
    87d4:	11800217 	ldw	r6,8(r2)
    87d8:	1009883a 	mov	r4,r2
    87dc:	00090c01 	jmpi	90c0 <_putc_r>

000087e0 <_puts_r>:
    87e0:	defffd04 	addi	sp,sp,-12
    87e4:	dc000015 	stw	r16,0(sp)
    87e8:	2021883a 	mov	r16,r4
    87ec:	2809883a 	mov	r4,r5
    87f0:	dfc00215 	stw	ra,8(sp)
    87f4:	dc400115 	stw	r17,4(sp)
    87f8:	2823883a 	mov	r17,r5
    87fc:	00088740 	call	8874 <strlen>
    8800:	81400217 	ldw	r5,8(r16)
    8804:	00c00074 	movhi	r3,1
    8808:	18e3e104 	addi	r3,r3,-28796
    880c:	880d883a 	mov	r6,r17
    8810:	8009883a 	mov	r4,r16
    8814:	28c00115 	stw	r3,4(r5)
    8818:	100f883a 	mov	r7,r2
    881c:	183ee83a 	callr	r3
    8820:	047fffc4 	movi	r17,-1
    8824:	14400926 	beq	r2,r17,884c <_puts_r+0x6c>
    8828:	81400217 	ldw	r5,8(r16)
    882c:	8009883a 	mov	r4,r16
    8830:	01800074 	movhi	r6,1
    8834:	31b0c504 	addi	r6,r6,-15596
    8838:	28800117 	ldw	r2,4(r5)
    883c:	01c00044 	movi	r7,1
    8840:	103ee83a 	callr	r2
    8844:	14400126 	beq	r2,r17,884c <_puts_r+0x6c>
    8848:	0005883a 	mov	r2,zero
    884c:	dfc00217 	ldw	ra,8(sp)
    8850:	dc400117 	ldw	r17,4(sp)
    8854:	dc000017 	ldw	r16,0(sp)
    8858:	dec00304 	addi	sp,sp,12
    885c:	f800283a 	ret

00008860 <puts>:
    8860:	00800074 	movhi	r2,1
    8864:	10b5c204 	addi	r2,r2,-10488
    8868:	200b883a 	mov	r5,r4
    886c:	11000017 	ldw	r4,0(r2)
    8870:	00087e01 	jmpi	87e0 <_puts_r>

00008874 <strlen>:
    8874:	20800007 	ldb	r2,0(r4)
    8878:	10000626 	beq	r2,zero,8894 <strlen+0x20>
    887c:	2005883a 	mov	r2,r4
    8880:	10800044 	addi	r2,r2,1
    8884:	10c00007 	ldb	r3,0(r2)
    8888:	183ffd1e 	bne	r3,zero,8880 <strlen+0xc>
    888c:	1105c83a 	sub	r2,r2,r4
    8890:	f800283a 	ret
    8894:	0005883a 	mov	r2,zero
    8898:	f800283a 	ret

0000889c <___vfprintf_internal_r>:
    889c:	deffe204 	addi	sp,sp,-120
    88a0:	d8c00804 	addi	r3,sp,32
    88a4:	df001c15 	stw	fp,112(sp)
    88a8:	ddc01b15 	stw	r23,108(sp)
    88ac:	dd401915 	stw	r21,100(sp)
    88b0:	dd001815 	stw	r20,96(sp)
    88b4:	dcc01715 	stw	r19,92(sp)
    88b8:	dc801615 	stw	r18,88(sp)
    88bc:	dc001415 	stw	r16,80(sp)
    88c0:	dfc01d15 	stw	ra,116(sp)
    88c4:	dd801a15 	stw	r22,104(sp)
    88c8:	dc401515 	stw	r17,84(sp)
    88cc:	2039883a 	mov	fp,r4
    88d0:	d9c00e15 	stw	r7,56(sp)
    88d4:	3021883a 	mov	r16,r6
    88d8:	0025883a 	mov	r18,zero
    88dc:	d8001315 	stw	zero,76(sp)
    88e0:	d8000d15 	stw	zero,52(sp)
    88e4:	0029883a 	mov	r20,zero
    88e8:	d8000b15 	stw	zero,44(sp)
    88ec:	d8000c15 	stw	zero,48(sp)
    88f0:	d8001115 	stw	zero,68(sp)
    88f4:	d8001015 	stw	zero,64(sp)
    88f8:	002b883a 	mov	r21,zero
    88fc:	04c00044 	movi	r19,1
    8900:	d8c00a15 	stw	r3,40(sp)
    8904:	282f883a 	mov	r23,r5
    8908:	80c00003 	ldbu	r3,0(r16)
    890c:	84000044 	addi	r16,r16,1
    8910:	18803fcc 	andi	r2,r3,255
    8914:	1080201c 	xori	r2,r2,128
    8918:	10bfe004 	addi	r2,r2,-128
    891c:	10001426 	beq	r2,zero,8970 <___vfprintf_internal_r+0xd4>
    8920:	acc02f26 	beq	r21,r19,89e0 <___vfprintf_internal_r+0x144>
    8924:	9d401f16 	blt	r19,r21,89a4 <___vfprintf_internal_r+0x108>
    8928:	a83ff71e 	bne	r21,zero,8908 <___vfprintf_internal_r+0x6c>
    892c:	01000944 	movi	r4,37
    8930:	1100d526 	beq	r2,r4,8c88 <___vfprintf_internal_r+0x3ec>
    8934:	b8800117 	ldw	r2,4(r23)
    8938:	d8c00905 	stb	r3,36(sp)
    893c:	e009883a 	mov	r4,fp
    8940:	b80b883a 	mov	r5,r23
    8944:	d9800904 	addi	r6,sp,36
    8948:	01c00044 	movi	r7,1
    894c:	103ee83a 	callr	r2
    8950:	10009c1e 	bne	r2,zero,8bc4 <___vfprintf_internal_r+0x328>
    8954:	80c00003 	ldbu	r3,0(r16)
    8958:	94800044 	addi	r18,r18,1
    895c:	84000044 	addi	r16,r16,1
    8960:	18803fcc 	andi	r2,r3,255
    8964:	1080201c 	xori	r2,r2,128
    8968:	10bfe004 	addi	r2,r2,-128
    896c:	103fec1e 	bne	r2,zero,8920 <___vfprintf_internal_r+0x84>
    8970:	9005883a 	mov	r2,r18
    8974:	dfc01d17 	ldw	ra,116(sp)
    8978:	df001c17 	ldw	fp,112(sp)
    897c:	ddc01b17 	ldw	r23,108(sp)
    8980:	dd801a17 	ldw	r22,104(sp)
    8984:	dd401917 	ldw	r21,100(sp)
    8988:	dd001817 	ldw	r20,96(sp)
    898c:	dcc01717 	ldw	r19,92(sp)
    8990:	dc801617 	ldw	r18,88(sp)
    8994:	dc401517 	ldw	r17,84(sp)
    8998:	dc001417 	ldw	r16,80(sp)
    899c:	dec01e04 	addi	sp,sp,120
    89a0:	f800283a 	ret
    89a4:	01000084 	movi	r4,2
    89a8:	a9001126 	beq	r21,r4,89f0 <___vfprintf_internal_r+0x154>
    89ac:	010000c4 	movi	r4,3
    89b0:	a93fd51e 	bne	r21,r4,8908 <___vfprintf_internal_r+0x6c>
    89b4:	193ff404 	addi	r4,r3,-48
    89b8:	21003fcc 	andi	r4,r4,255
    89bc:	01400244 	movi	r5,9
    89c0:	29001936 	bltu	r5,r4,8a28 <___vfprintf_internal_r+0x18c>
    89c4:	d8c00b17 	ldw	r3,44(sp)
    89c8:	00bfffc4 	movi	r2,-1
    89cc:	1880e126 	beq	r3,r2,8d54 <___vfprintf_internal_r+0x4b8>
    89d0:	188002a4 	muli	r2,r3,10
    89d4:	2089883a 	add	r4,r4,r2
    89d8:	d9000b15 	stw	r4,44(sp)
    89dc:	003fca06 	br	8908 <___vfprintf_internal_r+0x6c>
    89e0:	01000c04 	movi	r4,48
    89e4:	1100d626 	beq	r2,r4,8d40 <___vfprintf_internal_r+0x4a4>
    89e8:	01000944 	movi	r4,37
    89ec:	1100f026 	beq	r2,r4,8db0 <___vfprintf_internal_r+0x514>
    89f0:	193ff404 	addi	r4,r3,-48
    89f4:	21003fcc 	andi	r4,r4,255
    89f8:	01400244 	movi	r5,9
    89fc:	29000836 	bltu	r5,r4,8a20 <___vfprintf_internal_r+0x184>
    8a00:	d8c00c17 	ldw	r3,48(sp)
    8a04:	00bfffc4 	movi	r2,-1
    8a08:	1880d026 	beq	r3,r2,8d4c <___vfprintf_internal_r+0x4b0>
    8a0c:	188002a4 	muli	r2,r3,10
    8a10:	2089883a 	add	r4,r4,r2
    8a14:	d9000c15 	stw	r4,48(sp)
    8a18:	05400084 	movi	r21,2
    8a1c:	003fba06 	br	8908 <___vfprintf_internal_r+0x6c>
    8a20:	01000b84 	movi	r4,46
    8a24:	1100a526 	beq	r2,r4,8cbc <___vfprintf_internal_r+0x420>
    8a28:	01001b04 	movi	r4,108
    8a2c:	1100a126 	beq	r2,r4,8cb4 <___vfprintf_internal_r+0x418>
    8a30:	d9400b17 	ldw	r5,44(sp)
    8a34:	00bfffc4 	movi	r2,-1
    8a38:	2880da26 	beq	r5,r2,8da4 <___vfprintf_internal_r+0x508>
    8a3c:	d8001015 	stw	zero,64(sp)
    8a40:	18ffea04 	addi	r3,r3,-88
    8a44:	18c03fcc 	andi	r3,r3,255
    8a48:	00800804 	movi	r2,32
    8a4c:	10c0022e 	bgeu	r2,r3,8a58 <___vfprintf_internal_r+0x1bc>
    8a50:	002b883a 	mov	r21,zero
    8a54:	003fac06 	br	8908 <___vfprintf_internal_r+0x6c>
    8a58:	18c7883a 	add	r3,r3,r3
    8a5c:	18c7883a 	add	r3,r3,r3
    8a60:	01000074 	movhi	r4,1
    8a64:	21229d04 	addi	r4,r4,-30092
    8a68:	1907883a 	add	r3,r3,r4
    8a6c:	18800017 	ldw	r2,0(r3)
    8a70:	1000683a 	jmp	r2
    8a74:	00008ddc 	xori	zero,zero,567
    8a78:	00008a50 	cmplti	zero,zero,553
    8a7c:	00008a50 	cmplti	zero,zero,553
    8a80:	00008a50 	cmplti	zero,zero,553
    8a84:	00008a50 	cmplti	zero,zero,553
    8a88:	00008a50 	cmplti	zero,zero,553
    8a8c:	00008a50 	cmplti	zero,zero,553
    8a90:	00008a50 	cmplti	zero,zero,553
    8a94:	00008a50 	cmplti	zero,zero,553
    8a98:	00008a50 	cmplti	zero,zero,553
    8a9c:	00008a50 	cmplti	zero,zero,553
    8aa0:	00008dec 	andhi	zero,zero,567
    8aa4:	00008af8 	rdprs	zero,zero,555
    8aa8:	00008a50 	cmplti	zero,zero,553
    8aac:	00008a50 	cmplti	zero,zero,553
    8ab0:	00008a50 	cmplti	zero,zero,553
    8ab4:	00008a50 	cmplti	zero,zero,553
    8ab8:	00008af8 	rdprs	zero,zero,555
    8abc:	00008a50 	cmplti	zero,zero,553
    8ac0:	00008a50 	cmplti	zero,zero,553
    8ac4:	00008a50 	cmplti	zero,zero,553
    8ac8:	00008a50 	cmplti	zero,zero,553
    8acc:	00008a50 	cmplti	zero,zero,553
    8ad0:	00008bcc 	andi	zero,zero,559
    8ad4:	00008a50 	cmplti	zero,zero,553
    8ad8:	00008a50 	cmplti	zero,zero,553
    8adc:	00008a50 	cmplti	zero,zero,553
    8ae0:	00008e34 	movhi	zero,568
    8ae4:	00008a50 	cmplti	zero,zero,553
    8ae8:	00008bd0 	cmplti	zero,zero,559
    8aec:	00008a50 	cmplti	zero,zero,553
    8af0:	00008a50 	cmplti	zero,zero,553
    8af4:	00008de4 	muli	zero,zero,567
    8af8:	d8c00d17 	ldw	r3,52(sp)
    8afc:	18003426 	beq	r3,zero,8bd0 <___vfprintf_internal_r+0x334>
    8b00:	d9000e17 	ldw	r4,56(sp)
    8b04:	00c00044 	movi	r3,1
    8b08:	25800017 	ldw	r22,0(r4)
    8b0c:	21000104 	addi	r4,r4,4
    8b10:	d9000e15 	stw	r4,56(sp)
    8b14:	d8c00d15 	stw	r3,52(sp)
    8b18:	b0010b16 	blt	r22,zero,8f48 <___vfprintf_internal_r+0x6ac>
    8b1c:	d8001215 	stw	zero,72(sp)
    8b20:	d82b883a 	mov	r21,sp
    8b24:	b000321e 	bne	r22,zero,8bf0 <___vfprintf_internal_r+0x354>
    8b28:	d8c00b17 	ldw	r3,44(sp)
    8b2c:	d809883a 	mov	r4,sp
    8b30:	00c00b0e 	bge	zero,r3,8b60 <___vfprintf_internal_r+0x2c4>
    8b34:	d8800b17 	ldw	r2,44(sp)
    8b38:	d82b883a 	mov	r21,sp
    8b3c:	00c00c04 	movi	r3,48
    8b40:	00000206 	br	8b4c <___vfprintf_internal_r+0x2b0>
    8b44:	d9400a17 	ldw	r5,40(sp)
    8b48:	a9400426 	beq	r21,r5,8b5c <___vfprintf_internal_r+0x2c0>
    8b4c:	a8c00005 	stb	r3,0(r21)
    8b50:	10bfffc4 	addi	r2,r2,-1
    8b54:	ad400044 	addi	r21,r21,1
    8b58:	103ffa1e 	bne	r2,zero,8b44 <___vfprintf_internal_r+0x2a8>
    8b5c:	a92dc83a 	sub	r22,r21,r4
    8b60:	d8c01217 	ldw	r3,72(sp)
    8b64:	b0c5883a 	add	r2,r22,r3
    8b68:	d8c00c17 	ldw	r3,48(sp)
    8b6c:	1885c83a 	sub	r2,r3,r2
    8b70:	d8c01017 	ldw	r3,64(sp)
    8b74:	d8800f15 	stw	r2,60(sp)
    8b78:	18007826 	beq	r3,zero,8d5c <___vfprintf_internal_r+0x4c0>
    8b7c:	d8c01217 	ldw	r3,72(sp)
    8b80:	1800e41e 	bne	r3,zero,8f14 <___vfprintf_internal_r+0x678>
    8b84:	d8c00f17 	ldw	r3,60(sp)
    8b88:	00c05c0e 	bge	zero,r3,8cfc <___vfprintf_internal_r+0x460>
    8b8c:	00800c04 	movi	r2,48
    8b90:	d88008c5 	stb	r2,35(sp)
    8b94:	1c7fffc4 	addi	r17,r3,-1
    8b98:	00000306 	br	8ba8 <___vfprintf_internal_r+0x30c>
    8b9c:	8c7fffc4 	addi	r17,r17,-1
    8ba0:	013fffc4 	movi	r4,-1
    8ba4:	8900eb26 	beq	r17,r4,8f54 <___vfprintf_internal_r+0x6b8>
    8ba8:	b8800117 	ldw	r2,4(r23)
    8bac:	e009883a 	mov	r4,fp
    8bb0:	b80b883a 	mov	r5,r23
    8bb4:	d98008c4 	addi	r6,sp,35
    8bb8:	01c00044 	movi	r7,1
    8bbc:	103ee83a 	callr	r2
    8bc0:	103ff626 	beq	r2,zero,8b9c <___vfprintf_internal_r+0x300>
    8bc4:	04bfffc4 	movi	r18,-1
    8bc8:	003f6906 	br	8970 <___vfprintf_internal_r+0xd4>
    8bcc:	05000204 	movi	r20,8
    8bd0:	d9400e17 	ldw	r5,56(sp)
    8bd4:	2d800017 	ldw	r22,0(r5)
    8bd8:	29400104 	addi	r5,r5,4
    8bdc:	d9400e15 	stw	r5,56(sp)
    8be0:	d8000d15 	stw	zero,52(sp)
    8be4:	d8001215 	stw	zero,72(sp)
    8be8:	d82b883a 	mov	r21,sp
    8bec:	b03fce26 	beq	r22,zero,8b28 <___vfprintf_internal_r+0x28c>
    8bf0:	9005883a 	mov	r2,r18
    8bf4:	dc000f15 	stw	r16,60(sp)
    8bf8:	a025883a 	mov	r18,r20
    8bfc:	04400244 	movi	r17,9
    8c00:	dc001317 	ldw	r16,76(sp)
    8c04:	1029883a 	mov	r20,r2
    8c08:	00000506 	br	8c20 <___vfprintf_internal_r+0x384>
    8c0c:	b5800c04 	addi	r22,r22,48
    8c10:	ad800005 	stb	r22,0(r21)
    8c14:	102d883a 	mov	r22,r2
    8c18:	ad400044 	addi	r21,r21,1
    8c1c:	10000c26 	beq	r2,zero,8c50 <___vfprintf_internal_r+0x3b4>
    8c20:	b009883a 	mov	r4,r22
    8c24:	900b883a 	mov	r5,r18
    8c28:	00092ac0 	call	92ac <__udivsi3>
    8c2c:	9089383a 	mul	r4,r18,r2
    8c30:	b12dc83a 	sub	r22,r22,r4
    8c34:	8dbff50e 	bge	r17,r22,8c0c <___vfprintf_internal_r+0x370>
    8c38:	80001126 	beq	r16,zero,8c80 <___vfprintf_internal_r+0x3e4>
    8c3c:	b5800dc4 	addi	r22,r22,55
    8c40:	ad800005 	stb	r22,0(r21)
    8c44:	102d883a 	mov	r22,r2
    8c48:	ad400044 	addi	r21,r21,1
    8c4c:	103ff41e 	bne	r2,zero,8c20 <___vfprintf_internal_r+0x384>
    8c50:	d8c00b17 	ldw	r3,44(sp)
    8c54:	a005883a 	mov	r2,r20
    8c58:	aeedc83a 	sub	r22,r21,sp
    8c5c:	9029883a 	mov	r20,r18
    8c60:	1025883a 	mov	r18,r2
    8c64:	1d85c83a 	sub	r2,r3,r22
    8c68:	dc000f17 	ldw	r16,60(sp)
    8c6c:	d809883a 	mov	r4,sp
    8c70:	00bfbb0e 	bge	zero,r2,8b60 <___vfprintf_internal_r+0x2c4>
    8c74:	d8c00a17 	ldw	r3,40(sp)
    8c78:	a8ffb036 	bltu	r21,r3,8b3c <___vfprintf_internal_r+0x2a0>
    8c7c:	003fb806 	br	8b60 <___vfprintf_internal_r+0x2c4>
    8c80:	b58015c4 	addi	r22,r22,87
    8c84:	003fe206 	br	8c10 <___vfprintf_internal_r+0x374>
    8c88:	00c00044 	movi	r3,1
    8c8c:	d8c00d15 	stw	r3,52(sp)
    8c90:	00ffffc4 	movi	r3,-1
    8c94:	d8c00b15 	stw	r3,44(sp)
    8c98:	d8001315 	stw	zero,76(sp)
    8c9c:	05000284 	movi	r20,10
    8ca0:	d8c00c15 	stw	r3,48(sp)
    8ca4:	d8001115 	stw	zero,68(sp)
    8ca8:	d8001015 	stw	zero,64(sp)
    8cac:	dd400d17 	ldw	r21,52(sp)
    8cb0:	003f1506 	br	8908 <___vfprintf_internal_r+0x6c>
    8cb4:	00c00044 	movi	r3,1
    8cb8:	d8c01115 	stw	r3,68(sp)
    8cbc:	054000c4 	movi	r21,3
    8cc0:	003f1106 	br	8908 <___vfprintf_internal_r+0x6c>
    8cc4:	d8c00f17 	ldw	r3,60(sp)
    8cc8:	90e5883a 	add	r18,r18,r3
    8ccc:	d8c01217 	ldw	r3,72(sp)
    8cd0:	18000a26 	beq	r3,zero,8cfc <___vfprintf_internal_r+0x460>
    8cd4:	b8800117 	ldw	r2,4(r23)
    8cd8:	00c00b44 	movi	r3,45
    8cdc:	d8c00905 	stb	r3,36(sp)
    8ce0:	e009883a 	mov	r4,fp
    8ce4:	b80b883a 	mov	r5,r23
    8ce8:	d9800904 	addi	r6,sp,36
    8cec:	01c00044 	movi	r7,1
    8cf0:	103ee83a 	callr	r2
    8cf4:	103fb31e 	bne	r2,zero,8bc4 <___vfprintf_internal_r+0x328>
    8cf8:	94800044 	addi	r18,r18,1
    8cfc:	ada3c83a 	sub	r17,r21,r22
    8d00:	05800316 	blt	zero,r22,8d10 <___vfprintf_internal_r+0x474>
    8d04:	003f5206 	br	8a50 <___vfprintf_internal_r+0x1b4>
    8d08:	94800044 	addi	r18,r18,1
    8d0c:	ac7f5026 	beq	r21,r17,8a50 <___vfprintf_internal_r+0x1b4>
    8d10:	ad7fffc4 	addi	r21,r21,-1
    8d14:	a8c00003 	ldbu	r3,0(r21)
    8d18:	b8800117 	ldw	r2,4(r23)
    8d1c:	e009883a 	mov	r4,fp
    8d20:	d8c00905 	stb	r3,36(sp)
    8d24:	b80b883a 	mov	r5,r23
    8d28:	d9800904 	addi	r6,sp,36
    8d2c:	01c00044 	movi	r7,1
    8d30:	103ee83a 	callr	r2
    8d34:	103ff426 	beq	r2,zero,8d08 <___vfprintf_internal_r+0x46c>
    8d38:	04bfffc4 	movi	r18,-1
    8d3c:	003f0c06 	br	8970 <___vfprintf_internal_r+0xd4>
    8d40:	dd401015 	stw	r21,64(sp)
    8d44:	05400084 	movi	r21,2
    8d48:	003eef06 	br	8908 <___vfprintf_internal_r+0x6c>
    8d4c:	0005883a 	mov	r2,zero
    8d50:	003f2f06 	br	8a10 <___vfprintf_internal_r+0x174>
    8d54:	0005883a 	mov	r2,zero
    8d58:	003f1e06 	br	89d4 <___vfprintf_internal_r+0x138>
    8d5c:	d8c00f17 	ldw	r3,60(sp)
    8d60:	00ffda0e 	bge	zero,r3,8ccc <___vfprintf_internal_r+0x430>
    8d64:	00800804 	movi	r2,32
    8d68:	d8800885 	stb	r2,34(sp)
    8d6c:	1c7fffc4 	addi	r17,r3,-1
    8d70:	00000306 	br	8d80 <___vfprintf_internal_r+0x4e4>
    8d74:	8c7fffc4 	addi	r17,r17,-1
    8d78:	013fffc4 	movi	r4,-1
    8d7c:	893fd126 	beq	r17,r4,8cc4 <___vfprintf_internal_r+0x428>
    8d80:	b8800117 	ldw	r2,4(r23)
    8d84:	e009883a 	mov	r4,fp
    8d88:	b80b883a 	mov	r5,r23
    8d8c:	d9800884 	addi	r6,sp,34
    8d90:	01c00044 	movi	r7,1
    8d94:	103ee83a 	callr	r2
    8d98:	103ff626 	beq	r2,zero,8d74 <___vfprintf_internal_r+0x4d8>
    8d9c:	04bfffc4 	movi	r18,-1
    8da0:	003ef306 	br	8970 <___vfprintf_internal_r+0xd4>
    8da4:	00800044 	movi	r2,1
    8da8:	d8800b15 	stw	r2,44(sp)
    8dac:	003f2406 	br	8a40 <___vfprintf_internal_r+0x1a4>
    8db0:	b8c00117 	ldw	r3,4(r23)
    8db4:	d8800905 	stb	r2,36(sp)
    8db8:	e009883a 	mov	r4,fp
    8dbc:	b80b883a 	mov	r5,r23
    8dc0:	d9800904 	addi	r6,sp,36
    8dc4:	a80f883a 	mov	r7,r21
    8dc8:	183ee83a 	callr	r3
    8dcc:	103f7d1e 	bne	r2,zero,8bc4 <___vfprintf_internal_r+0x328>
    8dd0:	94800044 	addi	r18,r18,1
    8dd4:	002b883a 	mov	r21,zero
    8dd8:	003ecb06 	br	8908 <___vfprintf_internal_r+0x6c>
    8ddc:	00c00044 	movi	r3,1
    8de0:	d8c01315 	stw	r3,76(sp)
    8de4:	05000404 	movi	r20,16
    8de8:	003f7906 	br	8bd0 <___vfprintf_internal_r+0x334>
    8dec:	d8c00c17 	ldw	r3,48(sp)
    8df0:	98c0380e 	bge	r19,r3,8ed4 <___vfprintf_internal_r+0x638>
    8df4:	1dbfffc4 	addi	r22,r3,-1
    8df8:	00800804 	movi	r2,32
    8dfc:	d8800845 	stb	r2,33(sp)
    8e00:	b023883a 	mov	r17,r22
    8e04:	057fffc4 	movi	r21,-1
    8e08:	8c7fffc4 	addi	r17,r17,-1
    8e0c:	8d403026 	beq	r17,r21,8ed0 <___vfprintf_internal_r+0x634>
    8e10:	b8800117 	ldw	r2,4(r23)
    8e14:	e009883a 	mov	r4,fp
    8e18:	b80b883a 	mov	r5,r23
    8e1c:	d9800844 	addi	r6,sp,33
    8e20:	01c00044 	movi	r7,1
    8e24:	103ee83a 	callr	r2
    8e28:	103ff726 	beq	r2,zero,8e08 <___vfprintf_internal_r+0x56c>
    8e2c:	04bfffc4 	movi	r18,-1
    8e30:	003ecf06 	br	8970 <___vfprintf_internal_r+0xd4>
    8e34:	d9000e17 	ldw	r4,56(sp)
    8e38:	d8c00e17 	ldw	r3,56(sp)
    8e3c:	21000017 	ldw	r4,0(r4)
    8e40:	18c00104 	addi	r3,r3,4
    8e44:	d8c00e15 	stw	r3,56(sp)
    8e48:	d9000f15 	stw	r4,60(sp)
    8e4c:	00088740 	call	8874 <strlen>
    8e50:	d8c00c17 	ldw	r3,48(sp)
    8e54:	102d883a 	mov	r22,r2
    8e58:	1887c83a 	sub	r3,r3,r2
    8e5c:	d8c01215 	stw	r3,72(sp)
    8e60:	00c0110e 	bge	zero,r3,8ea8 <___vfprintf_internal_r+0x60c>
    8e64:	00800804 	movi	r2,32
    8e68:	d8800805 	stb	r2,32(sp)
    8e6c:	1c7fffc4 	addi	r17,r3,-1
    8e70:	057fffc4 	movi	r21,-1
    8e74:	00000206 	br	8e80 <___vfprintf_internal_r+0x5e4>
    8e78:	8c7fffc4 	addi	r17,r17,-1
    8e7c:	8d400826 	beq	r17,r21,8ea0 <___vfprintf_internal_r+0x604>
    8e80:	b8800117 	ldw	r2,4(r23)
    8e84:	e009883a 	mov	r4,fp
    8e88:	b80b883a 	mov	r5,r23
    8e8c:	d9800804 	addi	r6,sp,32
    8e90:	01c00044 	movi	r7,1
    8e94:	103ee83a 	callr	r2
    8e98:	103ff726 	beq	r2,zero,8e78 <___vfprintf_internal_r+0x5dc>
    8e9c:	003f4906 	br	8bc4 <___vfprintf_internal_r+0x328>
    8ea0:	d8c01217 	ldw	r3,72(sp)
    8ea4:	90e5883a 	add	r18,r18,r3
    8ea8:	b8800117 	ldw	r2,4(r23)
    8eac:	d9800f17 	ldw	r6,60(sp)
    8eb0:	e009883a 	mov	r4,fp
    8eb4:	b80b883a 	mov	r5,r23
    8eb8:	b00f883a 	mov	r7,r22
    8ebc:	103ee83a 	callr	r2
    8ec0:	103f401e 	bne	r2,zero,8bc4 <___vfprintf_internal_r+0x328>
    8ec4:	95a5883a 	add	r18,r18,r22
    8ec8:	002b883a 	mov	r21,zero
    8ecc:	003e8e06 	br	8908 <___vfprintf_internal_r+0x6c>
    8ed0:	95a5883a 	add	r18,r18,r22
    8ed4:	d9000e17 	ldw	r4,56(sp)
    8ed8:	b8800117 	ldw	r2,4(r23)
    8edc:	b80b883a 	mov	r5,r23
    8ee0:	20c00017 	ldw	r3,0(r4)
    8ee4:	d9800904 	addi	r6,sp,36
    8ee8:	e009883a 	mov	r4,fp
    8eec:	d8c00905 	stb	r3,36(sp)
    8ef0:	d8c00e17 	ldw	r3,56(sp)
    8ef4:	01c00044 	movi	r7,1
    8ef8:	1c400104 	addi	r17,r3,4
    8efc:	103ee83a 	callr	r2
    8f00:	103f301e 	bne	r2,zero,8bc4 <___vfprintf_internal_r+0x328>
    8f04:	94800044 	addi	r18,r18,1
    8f08:	dc400e15 	stw	r17,56(sp)
    8f0c:	002b883a 	mov	r21,zero
    8f10:	003e7d06 	br	8908 <___vfprintf_internal_r+0x6c>
    8f14:	b8800117 	ldw	r2,4(r23)
    8f18:	00c00b44 	movi	r3,45
    8f1c:	d8c00905 	stb	r3,36(sp)
    8f20:	e009883a 	mov	r4,fp
    8f24:	b80b883a 	mov	r5,r23
    8f28:	d9800904 	addi	r6,sp,36
    8f2c:	01c00044 	movi	r7,1
    8f30:	103ee83a 	callr	r2
    8f34:	103f231e 	bne	r2,zero,8bc4 <___vfprintf_internal_r+0x328>
    8f38:	d8c00f17 	ldw	r3,60(sp)
    8f3c:	94800044 	addi	r18,r18,1
    8f40:	00ff1216 	blt	zero,r3,8b8c <___vfprintf_internal_r+0x2f0>
    8f44:	003f6d06 	br	8cfc <___vfprintf_internal_r+0x460>
    8f48:	05adc83a 	sub	r22,zero,r22
    8f4c:	d8c01215 	stw	r3,72(sp)
    8f50:	003f2506 	br	8be8 <___vfprintf_internal_r+0x34c>
    8f54:	d8c00f17 	ldw	r3,60(sp)
    8f58:	90e5883a 	add	r18,r18,r3
    8f5c:	003f6706 	br	8cfc <___vfprintf_internal_r+0x460>

00008f60 <__vfprintf_internal>:
    8f60:	00800074 	movhi	r2,1
    8f64:	10b5c204 	addi	r2,r2,-10488
    8f68:	2007883a 	mov	r3,r4
    8f6c:	11000017 	ldw	r4,0(r2)
    8f70:	2805883a 	mov	r2,r5
    8f74:	300f883a 	mov	r7,r6
    8f78:	180b883a 	mov	r5,r3
    8f7c:	100d883a 	mov	r6,r2
    8f80:	000889c1 	jmpi	889c <___vfprintf_internal_r>

00008f84 <__sfvwrite_small_dev>:
    8f84:	2880000b 	ldhu	r2,0(r5)
    8f88:	defffa04 	addi	sp,sp,-24
    8f8c:	dcc00315 	stw	r19,12(sp)
    8f90:	10c0020c 	andi	r3,r2,8
    8f94:	18ffffcc 	andi	r3,r3,65535
    8f98:	18e0001c 	xori	r3,r3,32768
    8f9c:	dc800215 	stw	r18,8(sp)
    8fa0:	dc400115 	stw	r17,4(sp)
    8fa4:	dfc00515 	stw	ra,20(sp)
    8fa8:	dd000415 	stw	r20,16(sp)
    8fac:	dc000015 	stw	r16,0(sp)
    8fb0:	18e00004 	addi	r3,r3,-32768
    8fb4:	2825883a 	mov	r18,r5
    8fb8:	2027883a 	mov	r19,r4
    8fbc:	3023883a 	mov	r17,r6
    8fc0:	18002626 	beq	r3,zero,905c <__sfvwrite_small_dev+0xd8>
    8fc4:	2940008f 	ldh	r5,2(r5)
    8fc8:	28001016 	blt	r5,zero,900c <__sfvwrite_small_dev+0x88>
    8fcc:	01c01a0e 	bge	zero,r7,9038 <__sfvwrite_small_dev+0xb4>
    8fd0:	3821883a 	mov	r16,r7
    8fd4:	05010004 	movi	r20,1024
    8fd8:	00000306 	br	8fe8 <__sfvwrite_small_dev+0x64>
    8fdc:	88a3883a 	add	r17,r17,r2
    8fe0:	0400150e 	bge	zero,r16,9038 <__sfvwrite_small_dev+0xb4>
    8fe4:	9140008f 	ldh	r5,2(r18)
    8fe8:	880d883a 	mov	r6,r17
    8fec:	9809883a 	mov	r4,r19
    8ff0:	800f883a 	mov	r7,r16
    8ff4:	a400010e 	bge	r20,r16,8ffc <__sfvwrite_small_dev+0x78>
    8ff8:	01c10004 	movi	r7,1024
    8ffc:	00091200 	call	9120 <_write_r>
    9000:	80a1c83a 	sub	r16,r16,r2
    9004:	00bff516 	blt	zero,r2,8fdc <__sfvwrite_small_dev+0x58>
    9008:	9080000b 	ldhu	r2,0(r18)
    900c:	10801014 	ori	r2,r2,64
    9010:	9080000d 	sth	r2,0(r18)
    9014:	00bfffc4 	movi	r2,-1
    9018:	dfc00517 	ldw	ra,20(sp)
    901c:	dd000417 	ldw	r20,16(sp)
    9020:	dcc00317 	ldw	r19,12(sp)
    9024:	dc800217 	ldw	r18,8(sp)
    9028:	dc400117 	ldw	r17,4(sp)
    902c:	dc000017 	ldw	r16,0(sp)
    9030:	dec00604 	addi	sp,sp,24
    9034:	f800283a 	ret
    9038:	0005883a 	mov	r2,zero
    903c:	dfc00517 	ldw	ra,20(sp)
    9040:	dd000417 	ldw	r20,16(sp)
    9044:	dcc00317 	ldw	r19,12(sp)
    9048:	dc800217 	ldw	r18,8(sp)
    904c:	dc400117 	ldw	r17,4(sp)
    9050:	dc000017 	ldw	r16,0(sp)
    9054:	dec00604 	addi	sp,sp,24
    9058:	f800283a 	ret
    905c:	00bfffc4 	movi	r2,-1
    9060:	003fed06 	br	9018 <__sfvwrite_small_dev+0x94>

00009064 <putc>:
    9064:	defffd04 	addi	sp,sp,-12
    9068:	00800074 	movhi	r2,1
    906c:	10b5c204 	addi	r2,r2,-10488
    9070:	dc000115 	stw	r16,4(sp)
    9074:	2021883a 	mov	r16,r4
    9078:	11000017 	ldw	r4,0(r2)
    907c:	dfc00215 	stw	ra,8(sp)
    9080:	00800074 	movhi	r2,1
    9084:	10a3e104 	addi	r2,r2,-28796
    9088:	28800115 	stw	r2,4(r5)
    908c:	d80d883a 	mov	r6,sp
    9090:	01c00044 	movi	r7,1
    9094:	dc000005 	stb	r16,0(sp)
    9098:	103ee83a 	callr	r2
    909c:	00ffffc4 	movi	r3,-1
    90a0:	10c00526 	beq	r2,r3,90b8 <putc+0x54>
    90a4:	8005883a 	mov	r2,r16
    90a8:	dfc00217 	ldw	ra,8(sp)
    90ac:	dc000117 	ldw	r16,4(sp)
    90b0:	dec00304 	addi	sp,sp,12
    90b4:	f800283a 	ret
    90b8:	1021883a 	mov	r16,r2
    90bc:	003ff906 	br	90a4 <putc+0x40>

000090c0 <_putc_r>:
    90c0:	00800074 	movhi	r2,1
    90c4:	10b5c204 	addi	r2,r2,-10488
    90c8:	defffd04 	addi	sp,sp,-12
    90cc:	11000017 	ldw	r4,0(r2)
    90d0:	dc000115 	stw	r16,4(sp)
    90d4:	dfc00215 	stw	ra,8(sp)
    90d8:	00800074 	movhi	r2,1
    90dc:	10a3e104 	addi	r2,r2,-28796
    90e0:	2821883a 	mov	r16,r5
    90e4:	30800115 	stw	r2,4(r6)
    90e8:	300b883a 	mov	r5,r6
    90ec:	01c00044 	movi	r7,1
    90f0:	d80d883a 	mov	r6,sp
    90f4:	dc000005 	stb	r16,0(sp)
    90f8:	103ee83a 	callr	r2
    90fc:	00ffffc4 	movi	r3,-1
    9100:	10c00526 	beq	r2,r3,9118 <_putc_r+0x58>
    9104:	8005883a 	mov	r2,r16
    9108:	dfc00217 	ldw	ra,8(sp)
    910c:	dc000117 	ldw	r16,4(sp)
    9110:	dec00304 	addi	sp,sp,12
    9114:	f800283a 	ret
    9118:	1021883a 	mov	r16,r2
    911c:	003ff906 	br	9104 <_putc_r+0x44>

00009120 <_write_r>:
    9120:	defffd04 	addi	sp,sp,-12
    9124:	dc400115 	stw	r17,4(sp)
    9128:	dc000015 	stw	r16,0(sp)
    912c:	2023883a 	mov	r17,r4
    9130:	04000074 	movhi	r16,1
    9134:	8435ce04 	addi	r16,r16,-10440
    9138:	2809883a 	mov	r4,r5
    913c:	300b883a 	mov	r5,r6
    9140:	380d883a 	mov	r6,r7
    9144:	dfc00215 	stw	ra,8(sp)
    9148:	80000015 	stw	zero,0(r16)
    914c:	00094a00 	call	94a0 <write>
    9150:	00ffffc4 	movi	r3,-1
    9154:	10c00526 	beq	r2,r3,916c <_write_r+0x4c>
    9158:	dfc00217 	ldw	ra,8(sp)
    915c:	dc400117 	ldw	r17,4(sp)
    9160:	dc000017 	ldw	r16,0(sp)
    9164:	dec00304 	addi	sp,sp,12
    9168:	f800283a 	ret
    916c:	80c00017 	ldw	r3,0(r16)
    9170:	183ff926 	beq	r3,zero,9158 <_write_r+0x38>
    9174:	88c00015 	stw	r3,0(r17)
    9178:	dfc00217 	ldw	ra,8(sp)
    917c:	dc400117 	ldw	r17,4(sp)
    9180:	dc000017 	ldw	r16,0(sp)
    9184:	dec00304 	addi	sp,sp,12
    9188:	f800283a 	ret

0000918c <udivmodsi4>:
    918c:	2005883a 	mov	r2,r4
    9190:	2900182e 	bgeu	r5,r4,91f4 <udivmodsi4+0x68>
    9194:	28001716 	blt	r5,zero,91f4 <udivmodsi4+0x68>
    9198:	01000804 	movi	r4,32
    919c:	00c00044 	movi	r3,1
    91a0:	00000206 	br	91ac <udivmodsi4+0x20>
    91a4:	20001126 	beq	r4,zero,91ec <udivmodsi4+0x60>
    91a8:	28000516 	blt	r5,zero,91c0 <udivmodsi4+0x34>
    91ac:	294b883a 	add	r5,r5,r5
    91b0:	213fffc4 	addi	r4,r4,-1
    91b4:	18c7883a 	add	r3,r3,r3
    91b8:	28bffa36 	bltu	r5,r2,91a4 <udivmodsi4+0x18>
    91bc:	18000b26 	beq	r3,zero,91ec <udivmodsi4+0x60>
    91c0:	0009883a 	mov	r4,zero
    91c4:	11400236 	bltu	r2,r5,91d0 <udivmodsi4+0x44>
    91c8:	1145c83a 	sub	r2,r2,r5
    91cc:	20c8b03a 	or	r4,r4,r3
    91d0:	1806d07a 	srli	r3,r3,1
    91d4:	280ad07a 	srli	r5,r5,1
    91d8:	183ffa1e 	bne	r3,zero,91c4 <udivmodsi4+0x38>
    91dc:	3000021e 	bne	r6,zero,91e8 <udivmodsi4+0x5c>
    91e0:	2005883a 	mov	r2,r4
    91e4:	f800283a 	ret
    91e8:	f800283a 	ret
    91ec:	0009883a 	mov	r4,zero
    91f0:	003ffa06 	br	91dc <udivmodsi4+0x50>
    91f4:	00c00044 	movi	r3,1
    91f8:	0009883a 	mov	r4,zero
    91fc:	003ff106 	br	91c4 <udivmodsi4+0x38>

00009200 <__divsi3>:
    9200:	defffe04 	addi	sp,sp,-8
    9204:	dfc00115 	stw	ra,4(sp)
    9208:	dc000015 	stw	r16,0(sp)
    920c:	20000a16 	blt	r4,zero,9238 <__divsi3+0x38>
    9210:	0021883a 	mov	r16,zero
    9214:	28000b16 	blt	r5,zero,9244 <__divsi3+0x44>
    9218:	000d883a 	mov	r6,zero
    921c:	000918c0 	call	918c <udivmodsi4>
    9220:	80000126 	beq	r16,zero,9228 <__divsi3+0x28>
    9224:	0085c83a 	sub	r2,zero,r2
    9228:	dfc00117 	ldw	ra,4(sp)
    922c:	dc000017 	ldw	r16,0(sp)
    9230:	dec00204 	addi	sp,sp,8
    9234:	f800283a 	ret
    9238:	0109c83a 	sub	r4,zero,r4
    923c:	04000044 	movi	r16,1
    9240:	283ff50e 	bge	r5,zero,9218 <__divsi3+0x18>
    9244:	014bc83a 	sub	r5,zero,r5
    9248:	8400005c 	xori	r16,r16,1
    924c:	003ff206 	br	9218 <__divsi3+0x18>

00009250 <__modsi3>:
    9250:	deffff04 	addi	sp,sp,-4
    9254:	dfc00015 	stw	ra,0(sp)
    9258:	20000516 	blt	r4,zero,9270 <__modsi3+0x20>
    925c:	28000c16 	blt	r5,zero,9290 <__modsi3+0x40>
    9260:	01800044 	movi	r6,1
    9264:	dfc00017 	ldw	ra,0(sp)
    9268:	dec00104 	addi	sp,sp,4
    926c:	000918c1 	jmpi	918c <udivmodsi4>
    9270:	0109c83a 	sub	r4,zero,r4
    9274:	28000b16 	blt	r5,zero,92a4 <__modsi3+0x54>
    9278:	01800044 	movi	r6,1
    927c:	000918c0 	call	918c <udivmodsi4>
    9280:	0085c83a 	sub	r2,zero,r2
    9284:	dfc00017 	ldw	ra,0(sp)
    9288:	dec00104 	addi	sp,sp,4
    928c:	f800283a 	ret
    9290:	014bc83a 	sub	r5,zero,r5
    9294:	01800044 	movi	r6,1
    9298:	dfc00017 	ldw	ra,0(sp)
    929c:	dec00104 	addi	sp,sp,4
    92a0:	000918c1 	jmpi	918c <udivmodsi4>
    92a4:	014bc83a 	sub	r5,zero,r5
    92a8:	003ff306 	br	9278 <__modsi3+0x28>

000092ac <__udivsi3>:
    92ac:	000d883a 	mov	r6,zero
    92b0:	000918c1 	jmpi	918c <udivmodsi4>

000092b4 <__umodsi3>:
    92b4:	01800044 	movi	r6,1
    92b8:	000918c1 	jmpi	918c <udivmodsi4>

000092bc <alt_dcache_flush>:
 *
 * Any dirty lines in the data cache are written back to memory.
 */

void alt_dcache_flush (void* start, alt_u32 len)
{
    92bc:	defffb04 	addi	sp,sp,-20
    92c0:	df000415 	stw	fp,16(sp)
    92c4:	df000404 	addi	fp,sp,16
    92c8:	e13ffe15 	stw	r4,-8(fp)
    92cc:	e17fff15 	stw	r5,-4(fp)
  {
    len = NIOS2_DCACHE_SIZE;
  }
  #endif

  end = ((char*) start) + len; 
    92d0:	e0fffe17 	ldw	r3,-8(fp)
    92d4:	e0bfff17 	ldw	r2,-4(fp)
    92d8:	1885883a 	add	r2,r3,r2
    92dc:	e0bffd15 	stw	r2,-12(fp)

  for (i = start; i < end; i+= NIOS2_DCACHE_LINE_SIZE)
    92e0:	e0bffe17 	ldw	r2,-8(fp)
    92e4:	e0bffc15 	stw	r2,-16(fp)
    92e8:	00000506 	br	9300 <alt_dcache_flush+0x44>
  { 
    ALT_FLUSH_DATA(i); 
    92ec:	e0bffc17 	ldw	r2,-16(fp)
    92f0:	1000001b 	flushda	0(r2)
  }
  #endif

  end = ((char*) start) + len; 

  for (i = start; i < end; i+= NIOS2_DCACHE_LINE_SIZE)
    92f4:	e0bffc17 	ldw	r2,-16(fp)
    92f8:	10800804 	addi	r2,r2,32
    92fc:	e0bffc15 	stw	r2,-16(fp)
    9300:	e0fffc17 	ldw	r3,-16(fp)
    9304:	e0bffd17 	ldw	r2,-12(fp)
    9308:	18bff836 	bltu	r3,r2,92ec <alt_dcache_flush+0x30>
   * For an unaligned flush request, we've got one more line left.
   * Note that this is dependent on NIOS2_DCACHE_LINE_SIZE to be a 
   * multiple of 2 (which it always is).
   */

  if (((alt_u32) start) & (NIOS2_DCACHE_LINE_SIZE - 1))
    930c:	e0bffe17 	ldw	r2,-8(fp)
    9310:	108007cc 	andi	r2,r2,31
    9314:	10000226 	beq	r2,zero,9320 <alt_dcache_flush+0x64>
  {
    ALT_FLUSH_DATA(i);
    9318:	e0bffc17 	ldw	r2,-16(fp)
    931c:	1000001b 	flushda	0(r2)
  }

#endif /* NIOS2_DCACHE_SIZE > 0 */
}
    9320:	e037883a 	mov	sp,fp
    9324:	df000017 	ldw	fp,0(sp)
    9328:	dec00104 	addi	sp,sp,4
    932c:	f800283a 	ret

00009330 <alt_flash_open_dev>:
#include "priv/alt_file.h"

ALT_LLIST_HEAD(alt_flash_dev_list);

alt_flash_fd* alt_flash_open_dev(const char* name)
{
    9330:	defffc04 	addi	sp,sp,-16
    9334:	dfc00315 	stw	ra,12(sp)
    9338:	df000215 	stw	fp,8(sp)
    933c:	df000204 	addi	fp,sp,8
    9340:	e13fff15 	stw	r4,-4(fp)
  alt_flash_dev* dev = (alt_flash_dev*)alt_find_dev(name, &alt_flash_dev_list);
    9344:	e13fff17 	ldw	r4,-4(fp)
    9348:	d1600204 	addi	r5,gp,-32760
    934c:	000b4140 	call	b414 <alt_find_dev>
    9350:	e0bffe15 	stw	r2,-8(fp)

  if ((dev) && dev->open)
    9354:	e0bffe17 	ldw	r2,-8(fp)
    9358:	10000926 	beq	r2,zero,9380 <alt_flash_open_dev+0x50>
    935c:	e0bffe17 	ldw	r2,-8(fp)
    9360:	10800317 	ldw	r2,12(r2)
    9364:	10000626 	beq	r2,zero,9380 <alt_flash_open_dev+0x50>
  {
    return dev->open(dev, name);
    9368:	e0bffe17 	ldw	r2,-8(fp)
    936c:	10800317 	ldw	r2,12(r2)
    9370:	e13ffe17 	ldw	r4,-8(fp)
    9374:	e17fff17 	ldw	r5,-4(fp)
    9378:	103ee83a 	callr	r2
    937c:	00000106 	br	9384 <alt_flash_open_dev+0x54>
  }

  return dev;
    9380:	e0bffe17 	ldw	r2,-8(fp)
}
    9384:	e037883a 	mov	sp,fp
    9388:	dfc00117 	ldw	ra,4(sp)
    938c:	df000017 	ldw	fp,0(sp)
    9390:	dec00204 	addi	sp,sp,8
    9394:	f800283a 	ret

00009398 <alt_flash_close_dev>:

void alt_flash_close_dev(alt_flash_fd* fd)
{
    9398:	defffd04 	addi	sp,sp,-12
    939c:	dfc00215 	stw	ra,8(sp)
    93a0:	df000115 	stw	fp,4(sp)
    93a4:	df000104 	addi	fp,sp,4
    93a8:	e13fff15 	stw	r4,-4(fp)
  if (fd && fd->close)
    93ac:	e0bfff17 	ldw	r2,-4(fp)
    93b0:	10000726 	beq	r2,zero,93d0 <alt_flash_close_dev+0x38>
    93b4:	e0bfff17 	ldw	r2,-4(fp)
    93b8:	10800417 	ldw	r2,16(r2)
    93bc:	10000426 	beq	r2,zero,93d0 <alt_flash_close_dev+0x38>
  {
    fd->close(fd);
    93c0:	e0bfff17 	ldw	r2,-4(fp)
    93c4:	10800417 	ldw	r2,16(r2)
    93c8:	e13fff17 	ldw	r4,-4(fp)
    93cc:	103ee83a 	callr	r2
  }
  return;
    93d0:	0001883a 	nop
}
    93d4:	e037883a 	mov	sp,fp
    93d8:	dfc00117 	ldw	ra,4(sp)
    93dc:	df000017 	ldw	fp,0(sp)
    93e0:	dec00204 	addi	sp,sp,8
    93e4:	f800283a 	ret

000093e8 <alt_main>:
 * devices/filesystems/components in the system; and call the entry point for
 * the users application, i.e. main().
 */

void alt_main (void)
{
    93e8:	defffd04 	addi	sp,sp,-12
    93ec:	dfc00215 	stw	ra,8(sp)
    93f0:	df000115 	stw	fp,4(sp)
    93f4:	df000104 	addi	fp,sp,4
#endif

  /* ALT LOG - please see HAL/sys/alt_log_printf.h for details */
  ALT_LOG_PRINT_BOOT("[alt_main.c] Entering alt_main, calling alt_irq_init.\r\n");
  /* Initialize the interrupt controller. */
  alt_irq_init (NULL);
    93f8:	0009883a 	mov	r4,zero
    93fc:	00095c40 	call	95c4 <alt_irq_init>

  /* Initialize the operating system */
  ALT_LOG_PRINT_BOOT("[alt_main.c] Done alt_irq_init, calling alt_os_init.\r\n");
  ALT_OS_INIT();
    9400:	0001883a 	nop
  ALT_LOG_PRINT_BOOT("[alt_main.c] Done OS Init, calling alt_sem_create.\r\n");
  ALT_SEM_CREATE (&alt_fd_list_lock, 1);

  /* Initialize the device drivers/software components. */
  ALT_LOG_PRINT_BOOT("[alt_main.c] Calling alt_sys_init.\r\n");
  alt_sys_init();
    9404:	00095f80 	call	95f8 <alt_sys_init>
   * devices be present (not equal to /dev/null) and if direct drivers
   * aren't being used.
   */

    ALT_LOG_PRINT_BOOT("[alt_main.c] Redirecting IO.\r\n");
    alt_io_redirect(ALT_STDOUT, ALT_STDIN, ALT_STDERR);
    9408:	01000074 	movhi	r4,1
    940c:	2130c604 	addi	r4,r4,-15592
    9410:	01400074 	movhi	r5,1
    9414:	2970c604 	addi	r5,r5,-15592
    9418:	01800074 	movhi	r6,1
    941c:	31b0c604 	addi	r6,r6,-15592
    9420:	000b82c0 	call	b82c <alt_io_redirect>
  ALT_LOG_PRINT_BOOT("[alt_main.c] Calling main.\r\n");

#ifdef ALT_NO_EXIT
  main (alt_argc, alt_argv, alt_envp);
#else
  result = main (alt_argc, alt_argv, alt_envp);
    9424:	d1200e17 	ldw	r4,-32712(gp)
    9428:	d0e00f17 	ldw	r3,-32708(gp)
    942c:	d0a01017 	ldw	r2,-32704(gp)
    9430:	180b883a 	mov	r5,r3
    9434:	100d883a 	mov	r6,r2
    9438:	00082000 	call	8200 <main>
    943c:	e0bfff15 	stw	r2,-4(fp)
  close(STDOUT_FILENO);
    9440:	01000044 	movi	r4,1
    9444:	000b1f40 	call	b1f4 <close>
  exit (result);
    9448:	e13fff17 	ldw	r4,-4(fp)
    944c:	000b3d80 	call	b3d8 <_exit>

00009450 <alt_get_errno>:
#undef errno

extern int errno;

static ALT_INLINE int* alt_get_errno(void)
{
    9450:	defffe04 	addi	sp,sp,-8
    9454:	dfc00115 	stw	ra,4(sp)
    9458:	df000015 	stw	fp,0(sp)
    945c:	d839883a 	mov	fp,sp
  return ((alt_errno) ? alt_errno() : &errno);
    9460:	00800074 	movhi	r2,1
    9464:	10b5ca04 	addi	r2,r2,-10456
    9468:	10800017 	ldw	r2,0(r2)
    946c:	10000526 	beq	r2,zero,9484 <alt_get_errno+0x34>
    9470:	00800074 	movhi	r2,1
    9474:	10b5ca04 	addi	r2,r2,-10456
    9478:	10800017 	ldw	r2,0(r2)
    947c:	103ee83a 	callr	r2
    9480:	00000206 	br	948c <alt_get_errno+0x3c>
    9484:	00800074 	movhi	r2,1
    9488:	10b5ce04 	addi	r2,r2,-10440
}
    948c:	e037883a 	mov	sp,fp
    9490:	dfc00117 	ldw	ra,4(sp)
    9494:	df000017 	ldw	fp,0(sp)
    9498:	dec00204 	addi	sp,sp,8
    949c:	f800283a 	ret

000094a0 <write>:
}

#else /* !ALT_USE_DIRECT_DRIVERS */

int ALT_WRITE (int file, const void *ptr, size_t len)
{
    94a0:	defff904 	addi	sp,sp,-28
    94a4:	dfc00615 	stw	ra,24(sp)
    94a8:	df000515 	stw	fp,20(sp)
    94ac:	df000504 	addi	fp,sp,20
    94b0:	e13ffd15 	stw	r4,-12(fp)
    94b4:	e17ffe15 	stw	r5,-8(fp)
    94b8:	e1bfff15 	stw	r6,-4(fp)
   * A common error case is that when the file descriptor was created, the call
   * to open() failed resulting in a negative file descriptor. This is trapped
   * below so that we don't try and process an invalid file descriptor.
   */

  fd = (file < 0) ? NULL : &alt_fd_list[file];
    94bc:	e0bffd17 	ldw	r2,-12(fp)
    94c0:	10000616 	blt	r2,zero,94dc <write+0x3c>
    94c4:	e0bffd17 	ldw	r2,-12(fp)
    94c8:	10c00324 	muli	r3,r2,12
    94cc:	00800074 	movhi	r2,1
    94d0:	10b56104 	addi	r2,r2,-10876
    94d4:	1885883a 	add	r2,r3,r2
    94d8:	00000106 	br	94e0 <write+0x40>
    94dc:	0005883a 	mov	r2,zero
    94e0:	e0bffb15 	stw	r2,-20(fp)
  
  if (fd)
    94e4:	e0bffb17 	ldw	r2,-20(fp)
    94e8:	10001f26 	beq	r2,zero,9568 <write+0xc8>
     * If the file has not been opened with write access, or if the driver does
     * not provide an implementation of write(), generate an error. Otherwise
     * call the drivers write() function to process the request.
     */

    if (((fd->fd_flags & O_ACCMODE) != O_RDONLY) && fd->dev->write)
    94ec:	e0bffb17 	ldw	r2,-20(fp)
    94f0:	10800217 	ldw	r2,8(r2)
    94f4:	108000cc 	andi	r2,r2,3
    94f8:	10001726 	beq	r2,zero,9558 <write+0xb8>
    94fc:	e0bffb17 	ldw	r2,-20(fp)
    9500:	10800017 	ldw	r2,0(r2)
    9504:	10800617 	ldw	r2,24(r2)
    9508:	10001326 	beq	r2,zero,9558 <write+0xb8>
    {
      
      /* ALT_LOG - see altera_hal/HAL/inc/sys/alt_log_printf.h */
      ALT_LOG_WRITE_FUNCTION(ptr,len);

      if ((rval = fd->dev->write(fd, ptr, len)) < 0)
    950c:	e0bffb17 	ldw	r2,-20(fp)
    9510:	10800017 	ldw	r2,0(r2)
    9514:	10c00617 	ldw	r3,24(r2)
    9518:	e0bfff17 	ldw	r2,-4(fp)
    951c:	e13ffb17 	ldw	r4,-20(fp)
    9520:	e17ffe17 	ldw	r5,-8(fp)
    9524:	100d883a 	mov	r6,r2
    9528:	183ee83a 	callr	r3
    952c:	e0bffc15 	stw	r2,-16(fp)
    9530:	e0bffc17 	ldw	r2,-16(fp)
    9534:	1000060e 	bge	r2,zero,9550 <write+0xb0>
      {
        ALT_ERRNO = -rval;
    9538:	00094500 	call	9450 <alt_get_errno>
    953c:	e0fffc17 	ldw	r3,-16(fp)
    9540:	00c7c83a 	sub	r3,zero,r3
    9544:	10c00015 	stw	r3,0(r2)
        return -1;
    9548:	00bfffc4 	movi	r2,-1
    954c:	00000a06 	br	9578 <write+0xd8>
      }
      return rval;
    9550:	e0bffc17 	ldw	r2,-16(fp)
    9554:	00000806 	br	9578 <write+0xd8>
    }
    else
    {
      ALT_ERRNO = EACCES;
    9558:	00094500 	call	9450 <alt_get_errno>
    955c:	00c00344 	movi	r3,13
    9560:	10c00015 	stw	r3,0(r2)
    9564:	00000306 	br	9574 <write+0xd4>
    }
  }
  else  
  {
    ALT_ERRNO = EBADFD;
    9568:	00094500 	call	9450 <alt_get_errno>
    956c:	00c01444 	movi	r3,81
    9570:	10c00015 	stw	r3,0(r2)
  }
  return -1;
    9574:	00bfffc4 	movi	r2,-1
}
    9578:	e037883a 	mov	sp,fp
    957c:	dfc00117 	ldw	ra,4(sp)
    9580:	df000017 	ldw	fp,0(sp)
    9584:	dec00204 	addi	sp,sp,8
    9588:	f800283a 	ret

0000958c <alt_dev_reg>:
 */

extern int alt_fs_reg  (alt_dev* dev); 

static ALT_INLINE int alt_dev_reg (alt_dev* dev)
{
    958c:	defffd04 	addi	sp,sp,-12
    9590:	dfc00215 	stw	ra,8(sp)
    9594:	df000115 	stw	fp,4(sp)
    9598:	df000104 	addi	fp,sp,4
    959c:	e13fff15 	stw	r4,-4(fp)
  extern alt_llist alt_dev_list;

  return alt_dev_llist_insert ((alt_dev_llist*) dev, &alt_dev_list);
    95a0:	e13fff17 	ldw	r4,-4(fp)
    95a4:	01400074 	movhi	r5,1
    95a8:	2975c704 	addi	r5,r5,-10468
    95ac:	000b3380 	call	b338 <alt_dev_llist_insert>
}
    95b0:	e037883a 	mov	sp,fp
    95b4:	dfc00117 	ldw	ra,4(sp)
    95b8:	df000017 	ldw	fp,0(sp)
    95bc:	dec00204 	addi	sp,sp,8
    95c0:	f800283a 	ret

000095c4 <alt_irq_init>:
 * The "base" parameter is ignored and only
 * present for backwards-compatibility.
 */

void alt_irq_init ( const void* base )
{
    95c4:	defffd04 	addi	sp,sp,-12
    95c8:	dfc00215 	stw	ra,8(sp)
    95cc:	df000115 	stw	fp,4(sp)
    95d0:	df000104 	addi	fp,sp,4
    95d4:	e13fff15 	stw	r4,-4(fp)
    ALTERA_NIOS2_QSYS_IRQ_INIT ( NIOS2, nios2);
    95d8:	000bd100 	call	bd10 <altera_nios2_qsys_irq_init>
 * alt_irq_cpu_enable_interrupts() enables the CPU to start taking interrupts.
 */
static ALT_INLINE void ALT_ALWAYS_INLINE 
       alt_irq_cpu_enable_interrupts ()
{
    NIOS2_WRITE_STATUS(NIOS2_STATUS_PIE_MSK
    95dc:	00800044 	movi	r2,1
    95e0:	1001703a 	wrctl	status,r2
    alt_irq_cpu_enable_interrupts();
}
    95e4:	e037883a 	mov	sp,fp
    95e8:	dfc00117 	ldw	ra,4(sp)
    95ec:	df000017 	ldw	fp,0(sp)
    95f0:	dec00204 	addi	sp,sp,8
    95f4:	f800283a 	ret

000095f8 <alt_sys_init>:
 * Initialize the non-interrupt controller devices.
 * Called after alt_irq_init().
 */

void alt_sys_init( void )
{
    95f8:	defffe04 	addi	sp,sp,-8
    95fc:	dfc00115 	stw	ra,4(sp)
    9600:	df000015 	stw	fp,0(sp)
    9604:	d839883a 	mov	fp,sp
    ALTERA_AVALON_EPCS_FLASH_CONTROLLER_INIT ( EPCS_FLASH, epcs_flash);
    9608:	01000074 	movhi	r4,1
    960c:	21310d04 	addi	r4,r4,-15308
    9610:	00096840 	call	9684 <alt_epcs_flash_init>
    ALTERA_AVALON_JTAG_UART_INIT ( JTAG_UART, jtag_uart);
    9614:	01000074 	movhi	r4,1
    9618:	21314904 	addi	r4,r4,-15068
    961c:	000b883a 	mov	r5,zero
    9620:	01800044 	movi	r6,1
    9624:	000a1400 	call	a140 <altera_avalon_jtag_uart_init>
    9628:	01000074 	movhi	r4,1
    962c:	21313f04 	addi	r4,r4,-15108
    9630:	000958c0 	call	958c <alt_dev_reg>
    ALTERA_AVALON_SYSID_QSYS_INIT ( SYSID_QSYS, sysid_qsys);
    9634:	0001883a 	nop
}
    9638:	e037883a 	mov	sp,fp
    963c:	dfc00117 	ldw	ra,4(sp)
    9640:	df000017 	ldw	fp,0(sp)
    9644:	dec00204 	addi	sp,sp,8
    9648:	f800283a 	ret

0000964c <alt_flash_device_register>:

typedef struct alt_flash_dev alt_flash_dev; 
typedef alt_flash_dev alt_flash_fd;

static ALT_INLINE int alt_flash_device_register( alt_flash_fd* fd)
{
    964c:	defffd04 	addi	sp,sp,-12
    9650:	dfc00215 	stw	ra,8(sp)
    9654:	df000115 	stw	fp,4(sp)
    9658:	df000104 	addi	fp,sp,4
    965c:	e13fff15 	stw	r4,-4(fp)
  extern alt_llist alt_flash_dev_list;

  return alt_dev_llist_insert ((alt_dev_llist*) fd, &alt_flash_dev_list);
    9660:	e13fff17 	ldw	r4,-4(fp)
    9664:	01400074 	movhi	r5,1
    9668:	2975c304 	addi	r5,r5,-10484
    966c:	000b3380 	call	b338 <alt_dev_llist_insert>
}
    9670:	e037883a 	mov	sp,fp
    9674:	dfc00117 	ldw	ra,4(sp)
    9678:	df000017 	ldw	fp,0(sp)
    967c:	dec00204 	addi	sp,sp,8
    9680:	f800283a 	ret

00009684 <alt_epcs_flash_init>:
/*
 * alt_epcs_flash_init
 *
 */
int alt_epcs_flash_init(alt_flash_epcs_dev* flash)
{
    9684:	defffc04 	addi	sp,sp,-16
    9688:	dfc00315 	stw	ra,12(sp)
    968c:	df000215 	stw	fp,8(sp)
    9690:	df000204 	addi	fp,sp,8
    9694:	e13fff15 	stw	r4,-4(fp)
  int ret_code = 0;
    9698:	e03ffe15 	stw	zero,-8(fp)

  /* Set up function pointers and/or data structures as needed. */
  ret_code = alt_epcs_flash_query(flash);
    969c:	e13fff17 	ldw	r4,-4(fp)
    96a0:	00096d80 	call	96d8 <alt_epcs_flash_query>
    96a4:	e0bffe15 	stw	r2,-8(fp)
  */

  /*
  *  Register this device as a valid flash device type
  */
  if (!ret_code)
    96a8:	e0bffe17 	ldw	r2,-8(fp)
    96ac:	1000041e 	bne	r2,zero,96c0 <alt_epcs_flash_init+0x3c>
    ret_code = alt_flash_device_register(&(flash->dev));
    96b0:	e0bfff17 	ldw	r2,-4(fp)
    96b4:	1009883a 	mov	r4,r2
    96b8:	000964c0 	call	964c <alt_flash_device_register>
    96bc:	e0bffe15 	stw	r2,-8(fp)

  return ret_code;
    96c0:	e0bffe17 	ldw	r2,-8(fp)
}
    96c4:	e037883a 	mov	sp,fp
    96c8:	dfc00117 	ldw	ra,4(sp)
    96cc:	df000017 	ldw	fp,0(sp)
    96d0:	dec00204 	addi	sp,sp,8
    96d4:	f800283a 	ret

000096d8 <alt_epcs_flash_query>:


static int alt_epcs_flash_query(alt_flash_epcs_dev* flash)
{
    96d8:	defffc04 	addi	sp,sp,-16
    96dc:	dfc00315 	stw	ra,12(sp)
    96e0:	df000215 	stw	fp,8(sp)
    96e4:	df000204 	addi	fp,sp,8
    96e8:	e13fff15 	stw	r4,-4(fp)
  int ret_code = 0;
    96ec:	e03ffe15 	stw	zero,-8(fp)
   * reset the device, or whatever, to ensure that
   * it's in a known working state.
  */
  
  /* Disable 4-bytes address mode. */
  flash->four_bytes_mode = 0;
    96f0:	e0bfff17 	ldw	r2,-4(fp)
    96f4:	10003115 	stw	zero,196(r2)
  
  /* Send the RES command sequence */
  flash->silicon_id =
    epcs_read_electronic_signature(flash->register_base);
    96f8:	e0bfff17 	ldw	r2,-4(fp)
    96fc:	10802d17 	ldw	r2,180(r2)
    9700:	1009883a 	mov	r4,r2
    9704:	000aecc0 	call	aecc <epcs_read_electronic_signature>
  
  /* Disable 4-bytes address mode. */
  flash->four_bytes_mode = 0;
  
  /* Send the RES command sequence */
  flash->silicon_id =
    9708:	10c03fcc 	andi	r3,r2,255
    970c:	e0bfff17 	ldw	r2,-4(fp)
    9710:	10c02f15 	stw	r3,188(r2)
    epcs_read_electronic_signature(flash->register_base);

  /* Fill in all device-specific parameters. */
  if (flash->silicon_id == 0x16) /* EPCS64 */
    9714:	e0bfff17 	ldw	r2,-4(fp)
    9718:	10802f17 	ldw	r2,188(r2)
    971c:	10800598 	cmpnei	r2,r2,22
    9720:	10000a1e 	bne	r2,zero,974c <alt_epcs_flash_query+0x74>
  {
    flash->dev.region_info[0].region_size = 64 * 1024 * 1024 / 8;
    9724:	e0bfff17 	ldw	r2,-4(fp)
    9728:	00c02034 	movhi	r3,128
    972c:	10c00e15 	stw	r3,56(r2)
    flash->dev.region_info[0].number_of_blocks = 128;
    9730:	e0bfff17 	ldw	r2,-4(fp)
    9734:	00c02004 	movi	r3,128
    9738:	10c00f15 	stw	r3,60(r2)
    flash->dev.region_info[0].block_size = 65536;
    973c:	e0bfff17 	ldw	r2,-4(fp)
    9740:	00c00074 	movhi	r3,1
    9744:	10c01015 	stw	r3,64(r2)
    9748:	00007306 	br	9918 <alt_epcs_flash_query+0x240>
  }
  else if (flash->silicon_id == 0x14) /* EPCS16 */
    974c:	e0bfff17 	ldw	r2,-4(fp)
    9750:	10802f17 	ldw	r2,188(r2)
    9754:	10800518 	cmpnei	r2,r2,20
    9758:	10000a1e 	bne	r2,zero,9784 <alt_epcs_flash_query+0xac>
  {
    flash->dev.region_info[0].region_size = 16 * 1024 * 1024 / 8;
    975c:	e0bfff17 	ldw	r2,-4(fp)
    9760:	00c00834 	movhi	r3,32
    9764:	10c00e15 	stw	r3,56(r2)
    flash->dev.region_info[0].number_of_blocks = 32;
    9768:	e0bfff17 	ldw	r2,-4(fp)
    976c:	00c00804 	movi	r3,32
    9770:	10c00f15 	stw	r3,60(r2)
    flash->dev.region_info[0].block_size = 65536;
    9774:	e0bfff17 	ldw	r2,-4(fp)
    9778:	00c00074 	movhi	r3,1
    977c:	10c01015 	stw	r3,64(r2)
    9780:	00006506 	br	9918 <alt_epcs_flash_query+0x240>
  }
  else if (flash->silicon_id == 0x13) /* EPCS8 */
    9784:	e0bfff17 	ldw	r2,-4(fp)
    9788:	10802f17 	ldw	r2,188(r2)
    978c:	108004d8 	cmpnei	r2,r2,19
    9790:	10000a1e 	bne	r2,zero,97bc <alt_epcs_flash_query+0xe4>
  {
    flash->dev.region_info[0].region_size = 8 * 1024 * 1024 / 8;
    9794:	e0bfff17 	ldw	r2,-4(fp)
    9798:	00c00434 	movhi	r3,16
    979c:	10c00e15 	stw	r3,56(r2)
    flash->dev.region_info[0].number_of_blocks = 16;
    97a0:	e0bfff17 	ldw	r2,-4(fp)
    97a4:	00c00404 	movi	r3,16
    97a8:	10c00f15 	stw	r3,60(r2)
    flash->dev.region_info[0].block_size = 65536;
    97ac:	e0bfff17 	ldw	r2,-4(fp)
    97b0:	00c00074 	movhi	r3,1
    97b4:	10c01015 	stw	r3,64(r2)
    97b8:	00005706 	br	9918 <alt_epcs_flash_query+0x240>
  }
  else if (flash->silicon_id == 0x12) /* EPCS4 */
    97bc:	e0bfff17 	ldw	r2,-4(fp)
    97c0:	10802f17 	ldw	r2,188(r2)
    97c4:	10800498 	cmpnei	r2,r2,18
    97c8:	10000a1e 	bne	r2,zero,97f4 <alt_epcs_flash_query+0x11c>
  {
    flash->dev.region_info[0].region_size = 4 * 1024 * 1024 / 8;
    97cc:	e0bfff17 	ldw	r2,-4(fp)
    97d0:	00c00234 	movhi	r3,8
    97d4:	10c00e15 	stw	r3,56(r2)
    flash->dev.region_info[0].number_of_blocks = 8;
    97d8:	e0bfff17 	ldw	r2,-4(fp)
    97dc:	00c00204 	movi	r3,8
    97e0:	10c00f15 	stw	r3,60(r2)
    flash->dev.region_info[0].block_size = 65536;
    97e4:	e0bfff17 	ldw	r2,-4(fp)
    97e8:	00c00074 	movhi	r3,1
    97ec:	10c01015 	stw	r3,64(r2)
    97f0:	00004906 	br	9918 <alt_epcs_flash_query+0x240>
  }
  else if (flash->silicon_id == 0x10) /* EPCS1 */
    97f4:	e0bfff17 	ldw	r2,-4(fp)
    97f8:	10802f17 	ldw	r2,188(r2)
    97fc:	10800418 	cmpnei	r2,r2,16
    9800:	10000a1e 	bne	r2,zero,982c <alt_epcs_flash_query+0x154>
  {
    flash->dev.region_info[0].region_size = 1 * 1024 * 1024 / 8;
    9804:	e0bfff17 	ldw	r2,-4(fp)
    9808:	00c000b4 	movhi	r3,2
    980c:	10c00e15 	stw	r3,56(r2)
    flash->dev.region_info[0].number_of_blocks = 4;
    9810:	e0bfff17 	ldw	r2,-4(fp)
    9814:	00c00104 	movi	r3,4
    9818:	10c00f15 	stw	r3,60(r2)
    flash->dev.region_info[0].block_size = 32768;
    981c:	e0bfff17 	ldw	r2,-4(fp)
    9820:	00e00014 	movui	r3,32768
    9824:	10c01015 	stw	r3,64(r2)
    9828:	00003b06 	br	9918 <alt_epcs_flash_query+0x240>
  {
    /* 
     * Read electronic signature doesn't work for the EPCS128; try 
     * the "Read Device ID" command" before giving up.
     */
    flash->silicon_id = epcs_read_device_id(flash->register_base);
    982c:	e0bfff17 	ldw	r2,-4(fp)
    9830:	10802d17 	ldw	r2,180(r2)
    9834:	1009883a 	mov	r4,r2
    9838:	000af340 	call	af34 <epcs_read_device_id>
    983c:	e0ffff17 	ldw	r3,-4(fp)
    9840:	18802f15 	stw	r2,188(r3)
    /*
     * Last byte is the density ID. Note the difference between
     * EPCS128 and EPCQ128 -- arranged differently, though the 
     * least significant byte of each is '0x18'.
     */
    if((flash->silicon_id & 0xFFFFFF) == 0x20BA18) /* EPCQ128 */
    9844:	e0bfff17 	ldw	r2,-4(fp)
    9848:	10c02f17 	ldw	r3,188(r2)
    984c:	00804034 	movhi	r2,256
    9850:	10bfffc4 	addi	r2,r2,-1
    9854:	1886703a 	and	r3,r3,r2
    9858:	00800874 	movhi	r2,33
    985c:	10ae8604 	addi	r2,r2,-17896
    9860:	18800a1e 	bne	r3,r2,988c <alt_epcs_flash_query+0x1b4>
    {
      flash->dev.region_info[0].region_size = 128 * 1024 * 1024 / 8;
    9864:	e0bfff17 	ldw	r2,-4(fp)
    9868:	00c04034 	movhi	r3,256
    986c:	10c00e15 	stw	r3,56(r2)
      flash->dev.region_info[0].number_of_blocks = 256; /* number of sectors */
    9870:	e0bfff17 	ldw	r2,-4(fp)
    9874:	00c04004 	movi	r3,256
    9878:	10c00f15 	stw	r3,60(r2)
      flash->dev.region_info[0].block_size = 65536;  /* sector size */
    987c:	e0bfff17 	ldw	r2,-4(fp)
    9880:	00c00074 	movhi	r3,1
    9884:	10c01015 	stw	r3,64(r2)
    9888:	00002306 	br	9918 <alt_epcs_flash_query+0x240>
    }
    else if((flash->silicon_id & 0xFF) == 0x18) /* EPCS128 */
    988c:	e0bfff17 	ldw	r2,-4(fp)
    9890:	10802f17 	ldw	r2,188(r2)
    9894:	10803fcc 	andi	r2,r2,255
    9898:	10800618 	cmpnei	r2,r2,24
    989c:	10000a1e 	bne	r2,zero,98c8 <alt_epcs_flash_query+0x1f0>
    {
      flash->dev.region_info[0].region_size = 128 * 1024 * 1024 / 8;
    98a0:	e0bfff17 	ldw	r2,-4(fp)
    98a4:	00c04034 	movhi	r3,256
    98a8:	10c00e15 	stw	r3,56(r2)
      flash->dev.region_info[0].number_of_blocks = 64;
    98ac:	e0bfff17 	ldw	r2,-4(fp)
    98b0:	00c01004 	movi	r3,64
    98b4:	10c00f15 	stw	r3,60(r2)
      flash->dev.region_info[0].block_size = 262144;
    98b8:	e0bfff17 	ldw	r2,-4(fp)
    98bc:	00c00134 	movhi	r3,4
    98c0:	10c01015 	stw	r3,64(r2)
    98c4:	00001406 	br	9918 <alt_epcs_flash_query+0x240>
    }
    else if((flash->silicon_id & 0xFF ) == 0x19) /* EPCQ256 */
    98c8:	e0bfff17 	ldw	r2,-4(fp)
    98cc:	10802f17 	ldw	r2,188(r2)
    98d0:	10803fcc 	andi	r2,r2,255
    98d4:	10800658 	cmpnei	r2,r2,25
    98d8:	10000d1e 	bne	r2,zero,9910 <alt_epcs_flash_query+0x238>
    {
      flash->dev.region_info[0].region_size = 256 * 1024 * 1024 / 8;
    98dc:	e0bfff17 	ldw	r2,-4(fp)
    98e0:	00c08034 	movhi	r3,512
    98e4:	10c00e15 	stw	r3,56(r2)
      flash->dev.region_info[0].number_of_blocks = 512; /* number of sectors */
    98e8:	e0bfff17 	ldw	r2,-4(fp)
    98ec:	00c08004 	movi	r3,512
    98f0:	10c00f15 	stw	r3,60(r2)
      flash->dev.region_info[0].block_size = 65536;  /* sector size */
    98f4:	e0bfff17 	ldw	r2,-4(fp)
    98f8:	00c00074 	movhi	r3,1
    98fc:	10c01015 	stw	r3,64(r2)
       * must first be programmed into the device, though. To complicate things, 
       * other Altera IP expects the chip to be in 3 byte address mode when they 
       * start using it. To be nice, we'll place the device into 4-byte address mode
       * when we need to, and take it back out when we're done.
       */
      flash->four_bytes_mode = 1;
    9900:	e0bfff17 	ldw	r2,-4(fp)
    9904:	00c00044 	movi	r3,1
    9908:	10c03115 	stw	r3,196(r2)
    990c:	00000206 	br	9918 <alt_epcs_flash_query+0x240>
    }
    else 
    {
      ret_code = -ENODEV; /* No known device found! */
    9910:	00bffb44 	movi	r2,-19
    9914:	e0bffe15 	stw	r2,-8(fp)
    }
  }
  
  flash->size_in_bytes = flash->dev.region_info[0].region_size;
    9918:	e0bfff17 	ldw	r2,-4(fp)
    991c:	10800e17 	ldw	r2,56(r2)
    9920:	1007883a 	mov	r3,r2
    9924:	e0bfff17 	ldw	r2,-4(fp)
    9928:	10c02e15 	stw	r3,184(r2)
  flash->dev.number_of_regions = 1;
    992c:	e0bfff17 	ldw	r2,-4(fp)
    9930:	00c00044 	movi	r3,1
    9934:	10c00c15 	stw	r3,48(r2)
  flash->dev.region_info[0].offset = 0;
    9938:	e0bfff17 	ldw	r2,-4(fp)
    993c:	10000d15 	stw	zero,52(r2)
  flash->page_size = 256;
    9940:	e0bfff17 	ldw	r2,-4(fp)
    9944:	00c04004 	movi	r3,256
    9948:	10c03015 	stw	r3,192(r2)

  /* Consider clearing all BP bits here. */
  return ret_code;
    994c:	e0bffe17 	ldw	r2,-8(fp)
}
    9950:	e037883a 	mov	sp,fp
    9954:	dfc00117 	ldw	ra,4(sp)
    9958:	df000017 	ldw	fp,0(sp)
    995c:	dec00204 	addi	sp,sp,8
    9960:	f800283a 	ret

00009964 <alt_epcs_flash_memcmp>:
  alt_flash_dev* flash_info,
  const void* src_buffer,
  int offset,
  size_t n
)
{
    9964:	deffee04 	addi	sp,sp,-72
    9968:	dfc01115 	stw	ra,68(sp)
    996c:	df001015 	stw	fp,64(sp)
    9970:	df001004 	addi	fp,sp,64
    9974:	e13ffc15 	stw	r4,-16(fp)
    9978:	e17ffd15 	stw	r5,-12(fp)
    997c:	e1bffe15 	stw	r6,-8(fp)
    9980:	e1ffff15 	stw	r7,-4(fp)
  /*
   * Compare chunks of memory at a time, for better serial-flash
   * read efficiency.
   */
  alt_u8 chunk_buffer[32];
  const int chunk_size = sizeof(chunk_buffer) / sizeof(*chunk_buffer);
    9984:	00800804 	movi	r2,32
    9988:	e0bff115 	stw	r2,-60(fp)
  int current_offset = 0;
    998c:	e03ff015 	stw	zero,-64(fp)

  while (n > 0)
    9990:	00002606 	br	9a2c <alt_epcs_flash_memcmp+0xc8>
  {
    int this_chunk_size = n > chunk_size ? chunk_size : n;
    9994:	e0bff117 	ldw	r2,-60(fp)
    9998:	e0ffff17 	ldw	r3,-4(fp)
    999c:	1880012e 	bgeu	r3,r2,99a4 <alt_epcs_flash_memcmp+0x40>
    99a0:	1805883a 	mov	r2,r3
    99a4:	e0bff215 	stw	r2,-56(fp)
    int this_chunk_cmp;

    if (
      alt_epcs_flash_read(
    99a8:	e0fffe17 	ldw	r3,-8(fp)
    99ac:	e0bff017 	ldw	r2,-64(fp)
    99b0:	1887883a 	add	r3,r3,r2
    99b4:	e0bff404 	addi	r2,fp,-48
    99b8:	e13ffc17 	ldw	r4,-16(fp)
    99bc:	180b883a 	mov	r5,r3
    99c0:	100d883a 	mov	r6,r2
    99c4:	e1fff217 	ldw	r7,-56(fp)
    99c8:	0009f440 	call	9f44 <alt_epcs_flash_read>
  while (n > 0)
  {
    int this_chunk_size = n > chunk_size ? chunk_size : n;
    int this_chunk_cmp;

    if (
    99cc:	1000020e 	bge	r2,zero,99d8 <alt_epcs_flash_memcmp+0x74>
    {
      /*
      * If the read fails, I'm not sure what the appropriate action is.
      * Compare success seems wrong, so make it compare fail.
      */
      return -1;
    99d0:	00bfffc4 	movi	r2,-1
    99d4:	00001806 	br	9a38 <alt_epcs_flash_memcmp+0xd4>
    }

    /* Compare this chunk against the source memory buffer. */
    this_chunk_cmp = memcmp(&((unsigned char*)(src_buffer))[current_offset], chunk_buffer, this_chunk_size);
    99d8:	e0bff017 	ldw	r2,-64(fp)
    99dc:	e0fffd17 	ldw	r3,-12(fp)
    99e0:	1889883a 	add	r4,r3,r2
    99e4:	e0bff217 	ldw	r2,-56(fp)
    99e8:	e0fff404 	addi	r3,fp,-48
    99ec:	180b883a 	mov	r5,r3
    99f0:	100d883a 	mov	r6,r2
    99f4:	000c1000 	call	c100 <memcmp>
    99f8:	e0bff315 	stw	r2,-52(fp)
    if (this_chunk_cmp)
    99fc:	e0bff317 	ldw	r2,-52(fp)
    9a00:	10000226 	beq	r2,zero,9a0c <alt_epcs_flash_memcmp+0xa8>
    {
      return this_chunk_cmp;
    9a04:	e0bff317 	ldw	r2,-52(fp)
    9a08:	00000b06 	br	9a38 <alt_epcs_flash_memcmp+0xd4>
    }

    n -= this_chunk_size;
    9a0c:	e0bff217 	ldw	r2,-56(fp)
    9a10:	e0ffff17 	ldw	r3,-4(fp)
    9a14:	1885c83a 	sub	r2,r3,r2
    9a18:	e0bfff15 	stw	r2,-4(fp)
    current_offset += this_chunk_size;
    9a1c:	e0fff017 	ldw	r3,-64(fp)
    9a20:	e0bff217 	ldw	r2,-56(fp)
    9a24:	1885883a 	add	r2,r3,r2
    9a28:	e0bff015 	stw	r2,-64(fp)
   */
  alt_u8 chunk_buffer[32];
  const int chunk_size = sizeof(chunk_buffer) / sizeof(*chunk_buffer);
  int current_offset = 0;

  while (n > 0)
    9a2c:	e0bfff17 	ldw	r2,-4(fp)
    9a30:	103fd81e 	bne	r2,zero,9994 <alt_epcs_flash_memcmp+0x30>
  }

  /*
   * If execution made it to this point, compare is successful.
   */
  return 0;
    9a34:	0005883a 	mov	r2,zero
}
    9a38:	e037883a 	mov	sp,fp
    9a3c:	dfc00117 	ldw	ra,4(sp)
    9a40:	df000017 	ldw	fp,0(sp)
    9a44:	dec00204 	addi	sp,sp,8
    9a48:	f800283a 	ret

00009a4c <alt_epcs_flash_write>:
 * large buffer to tie up in our programming library, when not all users will
 * want that functionality.
 */
int alt_epcs_flash_write(alt_flash_dev* flash_info, int offset,
                          const void* src_addr, int length)
{
    9a4c:	defff404 	addi	sp,sp,-48
    9a50:	dfc00b15 	stw	ra,44(sp)
    9a54:	df000a15 	stw	fp,40(sp)
    9a58:	df000a04 	addi	fp,sp,40
    9a5c:	e13ffc15 	stw	r4,-16(fp)
    9a60:	e17ffd15 	stw	r5,-12(fp)
    9a64:	e1bffe15 	stw	r6,-8(fp)
    9a68:	e1ffff15 	stw	r7,-4(fp)
  int         ret_code = 0;
    9a6c:	e03ff715 	stw	zero,-36(fp)
  int         current_offset;

  /*
   * First and foremost which sectors are affected?
   */
  for(i = 0; i < flash_info->number_of_regions; i++)
    9a70:	e03ff815 	stw	zero,-32(fp)
    9a74:	00008306 	br	9c84 <alt_epcs_flash_write+0x238>
  {
    /* Is it in this erase block region?*/
    if((offset >= flash_info->region_info[i].offset) &&
    9a78:	e0fffc17 	ldw	r3,-16(fp)
    9a7c:	e0bff817 	ldw	r2,-32(fp)
    9a80:	1004913a 	slli	r2,r2,4
    9a84:	1885883a 	add	r2,r3,r2
    9a88:	10800d04 	addi	r2,r2,52
    9a8c:	10800017 	ldw	r2,0(r2)
    9a90:	e0fffd17 	ldw	r3,-12(fp)
    9a94:	18807816 	blt	r3,r2,9c78 <alt_epcs_flash_write+0x22c>
      (offset < (flash_info->region_info[i].offset +
    9a98:	e0fffc17 	ldw	r3,-16(fp)
    9a9c:	e0bff817 	ldw	r2,-32(fp)
    9aa0:	1004913a 	slli	r2,r2,4
    9aa4:	1885883a 	add	r2,r3,r2
    9aa8:	10800d04 	addi	r2,r2,52
    9aac:	10c00017 	ldw	r3,0(r2)
      flash_info->region_info[i].region_size)))
    9ab0:	e13ffc17 	ldw	r4,-16(fp)
    9ab4:	e0bff817 	ldw	r2,-32(fp)
    9ab8:	1004913a 	slli	r2,r2,4
    9abc:	2085883a 	add	r2,r4,r2
    9ac0:	10800e04 	addi	r2,r2,56
    9ac4:	10800017 	ldw	r2,0(r2)
   */
  for(i = 0; i < flash_info->number_of_regions; i++)
  {
    /* Is it in this erase block region?*/
    if((offset >= flash_info->region_info[i].offset) &&
      (offset < (flash_info->region_info[i].offset +
    9ac8:	1885883a 	add	r2,r3,r2
   * First and foremost which sectors are affected?
   */
  for(i = 0; i < flash_info->number_of_regions; i++)
  {
    /* Is it in this erase block region?*/
    if((offset >= flash_info->region_info[i].offset) &&
    9acc:	e0fffd17 	ldw	r3,-12(fp)
    9ad0:	1880690e 	bge	r3,r2,9c78 <alt_epcs_flash_write+0x22c>
      (offset < (flash_info->region_info[i].offset +
      flash_info->region_info[i].region_size)))
    {
      current_offset = flash_info->region_info[i].offset;
    9ad4:	e0fffc17 	ldw	r3,-16(fp)
    9ad8:	e0bff817 	ldw	r2,-32(fp)
    9adc:	1004913a 	slli	r2,r2,4
    9ae0:	1885883a 	add	r2,r3,r2
    9ae4:	10800d04 	addi	r2,r2,52
    9ae8:	10800017 	ldw	r2,0(r2)
    9aec:	e0bffa15 	stw	r2,-24(fp)

      for(j=0;j<flash_info->region_info[i].number_of_blocks;j++)
    9af0:	e03ff915 	stw	zero,-28(fp)
    9af4:	00005806 	br	9c58 <alt_epcs_flash_write+0x20c>
      {
        if ((offset >= current_offset ) &&
    9af8:	e0fffd17 	ldw	r3,-12(fp)
    9afc:	e0bffa17 	ldw	r2,-24(fp)
    9b00:	18804916 	blt	r3,r2,9c28 <alt_epcs_flash_write+0x1dc>
            (offset < (current_offset +
            flash_info->region_info[i].block_size)))
    9b04:	e0fffc17 	ldw	r3,-16(fp)
    9b08:	e0bff817 	ldw	r2,-32(fp)
    9b0c:	10800104 	addi	r2,r2,4
    9b10:	1004913a 	slli	r2,r2,4
    9b14:	1885883a 	add	r2,r3,r2
    9b18:	10c00017 	ldw	r3,0(r2)
      current_offset = flash_info->region_info[i].offset;

      for(j=0;j<flash_info->region_info[i].number_of_blocks;j++)
      {
        if ((offset >= current_offset ) &&
            (offset < (current_offset +
    9b1c:	e0bffa17 	ldw	r2,-24(fp)
    9b20:	1885883a 	add	r2,r3,r2
    {
      current_offset = flash_info->region_info[i].offset;

      for(j=0;j<flash_info->region_info[i].number_of_blocks;j++)
      {
        if ((offset >= current_offset ) &&
    9b24:	e0fffd17 	ldw	r3,-12(fp)
    9b28:	18803f0e 	bge	r3,r2,9c28 <alt_epcs_flash_write+0x1dc>
        {
          /*
           * Check if the contents of the block are different
           * from the data we wish to put there
           */
          data_to_write = ( current_offset + flash_info->region_info[i].block_size
    9b2c:	e0fffc17 	ldw	r3,-16(fp)
    9b30:	e0bff817 	ldw	r2,-32(fp)
    9b34:	10800104 	addi	r2,r2,4
    9b38:	1004913a 	slli	r2,r2,4
    9b3c:	1885883a 	add	r2,r3,r2
    9b40:	10c00017 	ldw	r3,0(r2)
    9b44:	e0bffa17 	ldw	r2,-24(fp)
    9b48:	1887883a 	add	r3,r3,r2
    9b4c:	e0bffd17 	ldw	r2,-12(fp)
    9b50:	1885c83a 	sub	r2,r3,r2
    9b54:	e0bffb15 	stw	r2,-20(fp)
                            - offset);
          data_to_write = MIN(data_to_write, length);
    9b58:	e0fffb17 	ldw	r3,-20(fp)
    9b5c:	e0bfff17 	ldw	r2,-4(fp)
    9b60:	1880010e 	bge	r3,r2,9b68 <alt_epcs_flash_write+0x11c>
    9b64:	1805883a 	mov	r2,r3
    9b68:	e0bffb15 	stw	r2,-20(fp)

          if(alt_epcs_flash_memcmp(flash_info, src_addr, offset, data_to_write))
    9b6c:	e0bffb17 	ldw	r2,-20(fp)
    9b70:	e13ffc17 	ldw	r4,-16(fp)
    9b74:	e17ffe17 	ldw	r5,-8(fp)
    9b78:	e1bffd17 	ldw	r6,-12(fp)
    9b7c:	100f883a 	mov	r7,r2
    9b80:	00099640 	call	9964 <alt_epcs_flash_memcmp>
    9b84:	10001226 	beq	r2,zero,9bd0 <alt_epcs_flash_write+0x184>
          {
            ret_code = (*flash_info->erase_block)(flash_info, current_offset);
    9b88:	e0bffc17 	ldw	r2,-16(fp)
    9b8c:	10800817 	ldw	r2,32(r2)
    9b90:	e13ffc17 	ldw	r4,-16(fp)
    9b94:	e17ffa17 	ldw	r5,-24(fp)
    9b98:	103ee83a 	callr	r2
    9b9c:	e0bff715 	stw	r2,-36(fp)

            if (!ret_code)
    9ba0:	e0bff717 	ldw	r2,-36(fp)
    9ba4:	10000a1e 	bne	r2,zero,9bd0 <alt_epcs_flash_write+0x184>
            {
              ret_code = (*flash_info->write_block)(
    9ba8:	e0bffc17 	ldw	r2,-16(fp)
    9bac:	10800917 	ldw	r2,36(r2)
    9bb0:	e0fffb17 	ldw	r3,-20(fp)
    9bb4:	d8c00015 	stw	r3,0(sp)
    9bb8:	e13ffc17 	ldw	r4,-16(fp)
    9bbc:	e17ffa17 	ldw	r5,-24(fp)
    9bc0:	e1bffd17 	ldw	r6,-12(fp)
    9bc4:	e1fffe17 	ldw	r7,-8(fp)
    9bc8:	103ee83a 	callr	r2
    9bcc:	e0bff715 	stw	r2,-36(fp)
                                                  data_to_write);
            }
          }

          /* Was this the last block? */
          if ((length == data_to_write) || ret_code)
    9bd0:	e0ffff17 	ldw	r3,-4(fp)
    9bd4:	e0bffb17 	ldw	r2,-20(fp)
    9bd8:	18802e26 	beq	r3,r2,9c94 <alt_epcs_flash_write+0x248>
    9bdc:	e0bff717 	ldw	r2,-36(fp)
    9be0:	10002c1e 	bne	r2,zero,9c94 <alt_epcs_flash_write+0x248>
          {
            goto finished;
          }

          length -= data_to_write;
    9be4:	e0ffff17 	ldw	r3,-4(fp)
    9be8:	e0bffb17 	ldw	r2,-20(fp)
    9bec:	1885c83a 	sub	r2,r3,r2
    9bf0:	e0bfff15 	stw	r2,-4(fp)
          offset = current_offset + flash_info->region_info[i].block_size;
    9bf4:	e0fffc17 	ldw	r3,-16(fp)
    9bf8:	e0bff817 	ldw	r2,-32(fp)
    9bfc:	10800104 	addi	r2,r2,4
    9c00:	1004913a 	slli	r2,r2,4
    9c04:	1885883a 	add	r2,r3,r2
    9c08:	10c00017 	ldw	r3,0(r2)
    9c0c:	e0bffa17 	ldw	r2,-24(fp)
    9c10:	1885883a 	add	r2,r3,r2
    9c14:	e0bffd15 	stw	r2,-12(fp)
          src_addr = (alt_u8*)src_addr + data_to_write;
    9c18:	e0bffb17 	ldw	r2,-20(fp)
    9c1c:	e0fffe17 	ldw	r3,-8(fp)
    9c20:	1885883a 	add	r2,r3,r2
    9c24:	e0bffe15 	stw	r2,-8(fp)
        }
        current_offset += flash_info->region_info[i].block_size;
    9c28:	e0fffc17 	ldw	r3,-16(fp)
    9c2c:	e0bff817 	ldw	r2,-32(fp)
    9c30:	10800104 	addi	r2,r2,4
    9c34:	1004913a 	slli	r2,r2,4
    9c38:	1885883a 	add	r2,r3,r2
    9c3c:	10800017 	ldw	r2,0(r2)
    9c40:	e0fffa17 	ldw	r3,-24(fp)
    9c44:	1885883a 	add	r2,r3,r2
    9c48:	e0bffa15 	stw	r2,-24(fp)
      (offset < (flash_info->region_info[i].offset +
      flash_info->region_info[i].region_size)))
    {
      current_offset = flash_info->region_info[i].offset;

      for(j=0;j<flash_info->region_info[i].number_of_blocks;j++)
    9c4c:	e0bff917 	ldw	r2,-28(fp)
    9c50:	10800044 	addi	r2,r2,1
    9c54:	e0bff915 	stw	r2,-28(fp)
    9c58:	e0fffc17 	ldw	r3,-16(fp)
    9c5c:	e0bff817 	ldw	r2,-32(fp)
    9c60:	1004913a 	slli	r2,r2,4
    9c64:	1885883a 	add	r2,r3,r2
    9c68:	10800f04 	addi	r2,r2,60
    9c6c:	10800017 	ldw	r2,0(r2)
    9c70:	e0fff917 	ldw	r3,-28(fp)
    9c74:	18bfa016 	blt	r3,r2,9af8 <alt_epcs_flash_write+0xac>
  int         current_offset;

  /*
   * First and foremost which sectors are affected?
   */
  for(i = 0; i < flash_info->number_of_regions; i++)
    9c78:	e0bff817 	ldw	r2,-32(fp)
    9c7c:	10800044 	addi	r2,r2,1
    9c80:	e0bff815 	stw	r2,-32(fp)
    9c84:	e0bffc17 	ldw	r2,-16(fp)
    9c88:	10800c17 	ldw	r2,48(r2)
    9c8c:	e0fff817 	ldw	r3,-32(fp)
    9c90:	18bf7916 	blt	r3,r2,9a78 <alt_epcs_flash_write+0x2c>
      }
    }
  }

finished:
  return ret_code;
    9c94:	e0bff717 	ldw	r2,-36(fp)
}
    9c98:	e037883a 	mov	sp,fp
    9c9c:	dfc00117 	ldw	ra,4(sp)
    9ca0:	df000017 	ldw	fp,0(sp)
    9ca4:	dec00204 	addi	sp,sp,8
    9ca8:	f800283a 	ret

00009cac <alt_epcs_flash_get_info>:
 *
 *  Pass the table of erase blocks to the user
 */
int alt_epcs_flash_get_info(alt_flash_fd* fd, flash_region** info,
                            int* number_of_regions)
{
    9cac:	defffa04 	addi	sp,sp,-24
    9cb0:	df000515 	stw	fp,20(sp)
    9cb4:	df000504 	addi	fp,sp,20
    9cb8:	e13ffd15 	stw	r4,-12(fp)
    9cbc:	e17ffe15 	stw	r5,-8(fp)
    9cc0:	e1bfff15 	stw	r6,-4(fp)
  int ret_code = 0;
    9cc4:	e03ffb15 	stw	zero,-20(fp)

  alt_flash_dev* flash = (alt_flash_dev*)fd;
    9cc8:	e0bffd17 	ldw	r2,-12(fp)
    9ccc:	e0bffc15 	stw	r2,-16(fp)

  *number_of_regions = flash->number_of_regions;
    9cd0:	e0bffc17 	ldw	r2,-16(fp)
    9cd4:	10c00c17 	ldw	r3,48(r2)
    9cd8:	e0bfff17 	ldw	r2,-4(fp)
    9cdc:	10c00015 	stw	r3,0(r2)

  if (!flash->number_of_regions)
    9ce0:	e0bffc17 	ldw	r2,-16(fp)
    9ce4:	10800c17 	ldw	r2,48(r2)
    9ce8:	1000031e 	bne	r2,zero,9cf8 <alt_epcs_flash_get_info+0x4c>
  {
    ret_code = -EIO;
    9cec:	00bffec4 	movi	r2,-5
    9cf0:	e0bffb15 	stw	r2,-20(fp)
    9cf4:	00000b06 	br	9d24 <alt_epcs_flash_get_info+0x78>
  }
  else if (flash->number_of_regions > ALT_MAX_NUMBER_OF_FLASH_REGIONS)
    9cf8:	e0bffc17 	ldw	r2,-16(fp)
    9cfc:	10800c17 	ldw	r2,48(r2)
    9d00:	10800250 	cmplti	r2,r2,9
    9d04:	1000031e 	bne	r2,zero,9d14 <alt_epcs_flash_get_info+0x68>
  {
    ret_code = -ENOMEM;
    9d08:	00bffd04 	movi	r2,-12
    9d0c:	e0bffb15 	stw	r2,-20(fp)
    9d10:	00000406 	br	9d24 <alt_epcs_flash_get_info+0x78>
  }
  else
  {
    *info = &flash->region_info[0];
    9d14:	e0bffc17 	ldw	r2,-16(fp)
    9d18:	10c00d04 	addi	r3,r2,52
    9d1c:	e0bffe17 	ldw	r2,-8(fp)
    9d20:	10c00015 	stw	r3,0(r2)
  }

  return ret_code;
    9d24:	e0bffb17 	ldw	r2,-20(fp)
}
    9d28:	e037883a 	mov	sp,fp
    9d2c:	df000017 	ldw	fp,0(sp)
    9d30:	dec00104 	addi	sp,sp,4
    9d34:	f800283a 	ret

00009d38 <alt_epcs_test_address>:


/* This might be a candidate for optimization.  Precompute the last-address? */
static ALT_INLINE int alt_epcs_test_address(alt_flash_dev* flash_info, int offset)
{
    9d38:	defff904 	addi	sp,sp,-28
    9d3c:	df000615 	stw	fp,24(sp)
    9d40:	df000604 	addi	fp,sp,24
    9d44:	e13ffe15 	stw	r4,-8(fp)
    9d48:	e17fff15 	stw	r5,-4(fp)
  int ret_code = 0;
    9d4c:	e03ffa15 	stw	zero,-24(fp)
  /* Error checking:
   * if the block offset is outside of the memory, return -EIO.
   */
  alt_flash_epcs_dev *f = (alt_flash_epcs_dev*)flash_info;
    9d50:	e0bffe17 	ldw	r2,-8(fp)
    9d54:	e0bffb15 	stw	r2,-20(fp)

  const alt_u32 last_region_index = f->dev.number_of_regions - 1;
    9d58:	e0bffb17 	ldw	r2,-20(fp)
    9d5c:	10800c17 	ldw	r2,48(r2)
    9d60:	10bfffc4 	addi	r2,r2,-1
    9d64:	e0bffc15 	stw	r2,-16(fp)
  alt_u32 last_device_address =
    -1 +
    f->dev.region_info[last_region_index].offset +
    9d68:	e0fffb17 	ldw	r3,-20(fp)
    9d6c:	e0bffc17 	ldw	r2,-16(fp)
    9d70:	1004913a 	slli	r2,r2,4
    9d74:	1885883a 	add	r2,r3,r2
    9d78:	10800d04 	addi	r2,r2,52
    9d7c:	10800017 	ldw	r2,0(r2)
   */
  alt_flash_epcs_dev *f = (alt_flash_epcs_dev*)flash_info;

  const alt_u32 last_region_index = f->dev.number_of_regions - 1;
  alt_u32 last_device_address =
    -1 +
    9d80:	10ffffc4 	addi	r3,r2,-1
    f->dev.region_info[last_region_index].offset +
    f->dev.region_info[last_region_index].region_size;
    9d84:	e13ffb17 	ldw	r4,-20(fp)
    9d88:	e0bffc17 	ldw	r2,-16(fp)
    9d8c:	1004913a 	slli	r2,r2,4
    9d90:	2085883a 	add	r2,r4,r2
    9d94:	10800e04 	addi	r2,r2,56
    9d98:	10800017 	ldw	r2,0(r2)
  alt_flash_epcs_dev *f = (alt_flash_epcs_dev*)flash_info;

  const alt_u32 last_region_index = f->dev.number_of_regions - 1;
  alt_u32 last_device_address =
    -1 +
    f->dev.region_info[last_region_index].offset +
    9d9c:	1885883a 	add	r2,r3,r2
   * if the block offset is outside of the memory, return -EIO.
   */
  alt_flash_epcs_dev *f = (alt_flash_epcs_dev*)flash_info;

  const alt_u32 last_region_index = f->dev.number_of_regions - 1;
  alt_u32 last_device_address =
    9da0:	e0bffd15 	stw	r2,-12(fp)
    -1 +
    f->dev.region_info[last_region_index].offset +
    f->dev.region_info[last_region_index].region_size;

  if (offset > last_device_address)
    9da4:	e0bfff17 	ldw	r2,-4(fp)
    9da8:	e0fffd17 	ldw	r3,-12(fp)
    9dac:	1880022e 	bgeu	r3,r2,9db8 <alt_epcs_test_address+0x80>
  {
    /* Someone tried to erase a block outside of this device's range. */
    ret_code = -EIO;
    9db0:	00bffec4 	movi	r2,-5
    9db4:	e0bffa15 	stw	r2,-24(fp)
  }
  return ret_code;
    9db8:	e0bffa17 	ldw	r2,-24(fp)
}
    9dbc:	e037883a 	mov	sp,fp
    9dc0:	df000017 	ldw	fp,0(sp)
    9dc4:	dec00104 	addi	sp,sp,4
    9dc8:	f800283a 	ret

00009dcc <alt_epcs_flash_erase_block>:
 *
 * Erase the selected erase block ("sector erase", from the POV
 * of the EPCS data sheet).
 */
int alt_epcs_flash_erase_block(alt_flash_dev* flash_info, int block_offset)
{
    9dcc:	defffa04 	addi	sp,sp,-24
    9dd0:	dfc00515 	stw	ra,20(sp)
    9dd4:	df000415 	stw	fp,16(sp)
    9dd8:	df000404 	addi	fp,sp,16
    9ddc:	e13ffe15 	stw	r4,-8(fp)
    9de0:	e17fff15 	stw	r5,-4(fp)
  int ret_code = 0;
    9de4:	e03ffc15 	stw	zero,-16(fp)
  alt_flash_epcs_dev *f = (alt_flash_epcs_dev*)flash_info;
    9de8:	e0bffe17 	ldw	r2,-8(fp)
    9dec:	e0bffd15 	stw	r2,-12(fp)

  ret_code = alt_epcs_test_address(flash_info, block_offset);
    9df0:	e13ffe17 	ldw	r4,-8(fp)
    9df4:	e17fff17 	ldw	r5,-4(fp)
    9df8:	0009d380 	call	9d38 <alt_epcs_test_address>
    9dfc:	e0bffc15 	stw	r2,-16(fp)

  if (ret_code >= 0)
    9e00:	e0bffc17 	ldw	r2,-16(fp)
    9e04:	10000816 	blt	r2,zero,9e28 <alt_epcs_flash_erase_block+0x5c>
  {
    /* Send the Sector Erase command, whose 3 address bytes are anywhere
     * within the chosen sector.
     */
    epcs_sector_erase(f->register_base, block_offset, f->four_bytes_mode);
    9e08:	e0bffd17 	ldw	r2,-12(fp)
    9e0c:	11002d17 	ldw	r4,180(r2)
    9e10:	e0ffff17 	ldw	r3,-4(fp)
    9e14:	e0bffd17 	ldw	r2,-12(fp)
    9e18:	10803117 	ldw	r2,196(r2)
    9e1c:	180b883a 	mov	r5,r3
    9e20:	100d883a 	mov	r6,r2
    9e24:	000ab0c0 	call	ab0c <epcs_sector_erase>
  }
  return ret_code;
    9e28:	e0bffc17 	ldw	r2,-16(fp)
}
    9e2c:	e037883a 	mov	sp,fp
    9e30:	dfc00117 	ldw	ra,4(sp)
    9e34:	df000017 	ldw	fp,0(sp)
    9e38:	dec00204 	addi	sp,sp,8
    9e3c:	f800283a 	ret

00009e40 <alt_epcs_flash_write_block>:
 * function type compatibility.
 */
int alt_epcs_flash_write_block(alt_flash_dev* flash_info, int block_offset,
                                      int data_offset, const void* data,
                                      int length)
{
    9e40:	defff404 	addi	sp,sp,-48
    9e44:	dfc00b15 	stw	ra,44(sp)
    9e48:	df000a15 	stw	fp,40(sp)
    9e4c:	df000a04 	addi	fp,sp,40
    9e50:	e13ffc15 	stw	r4,-16(fp)
    9e54:	e17ffd15 	stw	r5,-12(fp)
    9e58:	e1bffe15 	stw	r6,-8(fp)
    9e5c:	e1ffff15 	stw	r7,-4(fp)
  int ret_code;
  alt_flash_epcs_dev *f = (alt_flash_epcs_dev*)flash_info;
    9e60:	e0bffc17 	ldw	r2,-16(fp)
    9e64:	e0bff815 	stw	r2,-32(fp)

  int buffer_offset = 0;
    9e68:	e03ff715 	stw	zero,-36(fp)
  int length_of_current_write;
  ret_code = alt_epcs_test_address(flash_info, data_offset);
    9e6c:	e13ffc17 	ldw	r4,-16(fp)
    9e70:	e17ffe17 	ldw	r5,-8(fp)
    9e74:	0009d380 	call	9d38 <alt_epcs_test_address>
    9e78:	e0bff915 	stw	r2,-28(fp)

  if (ret_code >= 0)
    9e7c:	e0bff917 	ldw	r2,-28(fp)
    9e80:	10002a16 	blt	r2,zero,9f2c <alt_epcs_flash_write_block+0xec>
  {

    /* "Block" writes must be broken up into the page writes that
     * the device understands.  Partial page writes are allowed.
     */
    while (length)
    9e84:	00002706 	br	9f24 <alt_epcs_flash_write_block+0xe4>
    {
      int next_page_start = (data_offset + f->page_size) & ~(f->page_size - 1);
    9e88:	e0bff817 	ldw	r2,-32(fp)
    9e8c:	10c03017 	ldw	r3,192(r2)
    9e90:	e0bffe17 	ldw	r2,-8(fp)
    9e94:	1887883a 	add	r3,r3,r2
    9e98:	e0bff817 	ldw	r2,-32(fp)
    9e9c:	10803017 	ldw	r2,192(r2)
    9ea0:	0085c83a 	sub	r2,zero,r2
    9ea4:	1884703a 	and	r2,r3,r2
    9ea8:	e0bffa15 	stw	r2,-24(fp)
      length_of_current_write = MIN(length, next_page_start - data_offset);
    9eac:	e0fffa17 	ldw	r3,-24(fp)
    9eb0:	e0bffe17 	ldw	r2,-8(fp)
    9eb4:	1885c83a 	sub	r2,r3,r2
    9eb8:	e0c00217 	ldw	r3,8(fp)
    9ebc:	1880010e 	bge	r3,r2,9ec4 <alt_epcs_flash_write_block+0x84>
    9ec0:	1805883a 	mov	r2,r3
    9ec4:	e0bffb15 	stw	r2,-20(fp)

      epcs_write_buffer(f->register_base, data_offset, &((const alt_u8*)data)[buffer_offset], length_of_current_write,
    9ec8:	e0bff817 	ldw	r2,-32(fp)
    9ecc:	10c02d17 	ldw	r3,180(r2)
    9ed0:	e0bff717 	ldw	r2,-36(fp)
    9ed4:	e13fff17 	ldw	r4,-4(fp)
    9ed8:	2085883a 	add	r2,r4,r2
          f->four_bytes_mode);
    9edc:	e13ff817 	ldw	r4,-32(fp)
    while (length)
    {
      int next_page_start = (data_offset + f->page_size) & ~(f->page_size - 1);
      length_of_current_write = MIN(length, next_page_start - data_offset);

      epcs_write_buffer(f->register_base, data_offset, &((const alt_u8*)data)[buffer_offset], length_of_current_write,
    9ee0:	21003117 	ldw	r4,196(r4)
    9ee4:	d9000015 	stw	r4,0(sp)
    9ee8:	1809883a 	mov	r4,r3
    9eec:	e17ffe17 	ldw	r5,-8(fp)
    9ef0:	100d883a 	mov	r6,r2
    9ef4:	e1fffb17 	ldw	r7,-20(fp)
    9ef8:	000adb00 	call	adb0 <epcs_write_buffer>
          f->four_bytes_mode);

      length -= length_of_current_write;
    9efc:	e0c00217 	ldw	r3,8(fp)
    9f00:	e0bffb17 	ldw	r2,-20(fp)
    9f04:	1885c83a 	sub	r2,r3,r2
    9f08:	e0800215 	stw	r2,8(fp)
      buffer_offset += length_of_current_write;
    9f0c:	e0fff717 	ldw	r3,-36(fp)
    9f10:	e0bffb17 	ldw	r2,-20(fp)
    9f14:	1885883a 	add	r2,r3,r2
    9f18:	e0bff715 	stw	r2,-36(fp)
      data_offset = next_page_start;
    9f1c:	e0bffa17 	ldw	r2,-24(fp)
    9f20:	e0bffe15 	stw	r2,-8(fp)
  {

    /* "Block" writes must be broken up into the page writes that
     * the device understands.  Partial page writes are allowed.
     */
    while (length)
    9f24:	e0800217 	ldw	r2,8(fp)
    9f28:	103fd71e 	bne	r2,zero,9e88 <alt_epcs_flash_write_block+0x48>
      length -= length_of_current_write;
      buffer_offset += length_of_current_write;
      data_offset = next_page_start;
    }
  }
  return ret_code;
    9f2c:	e0bff917 	ldw	r2,-28(fp)
}
    9f30:	e037883a 	mov	sp,fp
    9f34:	dfc00117 	ldw	ra,4(sp)
    9f38:	df000017 	ldw	fp,0(sp)
    9f3c:	dec00204 	addi	sp,sp,8
    9f40:	f800283a 	ret

00009f44 <alt_epcs_flash_read>:
 *  to the beginning.  Reads that start beyond the end of the memory are
 *  flagged as errors with EIO (is there a better error code?).
 */
int alt_epcs_flash_read(alt_flash_dev* flash_info, int offset,
                        void* dest_addr, int length)
{
    9f44:	defff704 	addi	sp,sp,-36
    9f48:	dfc00815 	stw	ra,32(sp)
    9f4c:	df000715 	stw	fp,28(sp)
    9f50:	df000704 	addi	fp,sp,28
    9f54:	e13ffc15 	stw	r4,-16(fp)
    9f58:	e17ffd15 	stw	r5,-12(fp)
    9f5c:	e1bffe15 	stw	r6,-8(fp)
    9f60:	e1ffff15 	stw	r7,-4(fp)
  int ret_code = 0;
    9f64:	e03ffa15 	stw	zero,-24(fp)

  alt_flash_epcs_dev *f = (alt_flash_epcs_dev*)flash_info;
    9f68:	e0bffc17 	ldw	r2,-16(fp)
    9f6c:	e0bffb15 	stw	r2,-20(fp)

  ret_code = alt_epcs_test_address(flash_info, offset);
    9f70:	e13ffc17 	ldw	r4,-16(fp)
    9f74:	e17ffd17 	ldw	r5,-12(fp)
    9f78:	0009d380 	call	9d38 <alt_epcs_test_address>
    9f7c:	e0bffa15 	stw	r2,-24(fp)

  if (ret_code >= 0)
    9f80:	e0bffa17 	ldw	r2,-24(fp)
    9f84:	10000f16 	blt	r2,zero,9fc4 <alt_epcs_flash_read+0x80>
  {
    ret_code = epcs_read_buffer(f->register_base, offset, dest_addr, length,
    9f88:	e0bffb17 	ldw	r2,-20(fp)
    9f8c:	10802d17 	ldw	r2,180(r2)
                                f->four_bytes_mode);
    9f90:	e0fffb17 	ldw	r3,-20(fp)

  ret_code = alt_epcs_test_address(flash_info, offset);

  if (ret_code >= 0)
  {
    ret_code = epcs_read_buffer(f->register_base, offset, dest_addr, length,
    9f94:	18c03117 	ldw	r3,196(r3)
    9f98:	d8c00015 	stw	r3,0(sp)
    9f9c:	1009883a 	mov	r4,r2
    9fa0:	e17ffd17 	ldw	r5,-12(fp)
    9fa4:	e1bffe17 	ldw	r6,-8(fp)
    9fa8:	e1ffff17 	ldw	r7,-4(fp)
    9fac:	000ac040 	call	ac04 <epcs_read_buffer>
    9fb0:	e0bffa15 	stw	r2,-24(fp)
                                f->four_bytes_mode);

    /* epcs_read_buffer returns the number of buffers read, but
     * alt_epcs_flash_read returns 0 on success, <0 on failure.
     */
    if (ret_code == length)
    9fb4:	e0fffa17 	ldw	r3,-24(fp)
    9fb8:	e0bfff17 	ldw	r2,-4(fp)
    9fbc:	1880011e 	bne	r3,r2,9fc4 <alt_epcs_flash_read+0x80>
    {
      ret_code = 0;
    9fc0:	e03ffa15 	stw	zero,-24(fp)
    }
  }
  return ret_code;
    9fc4:	e0bffa17 	ldw	r2,-24(fp)
}
    9fc8:	e037883a 	mov	sp,fp
    9fcc:	dfc00117 	ldw	ra,4(sp)
    9fd0:	df000017 	ldw	fp,0(sp)
    9fd4:	dec00204 	addi	sp,sp,8
    9fd8:	f800283a 	ret

00009fdc <altera_avalon_jtag_uart_read_fd>:
 *
 */

int 
altera_avalon_jtag_uart_read_fd(alt_fd* fd, char* buffer, int space)
{
    9fdc:	defffa04 	addi	sp,sp,-24
    9fe0:	dfc00515 	stw	ra,20(sp)
    9fe4:	df000415 	stw	fp,16(sp)
    9fe8:	df000404 	addi	fp,sp,16
    9fec:	e13ffd15 	stw	r4,-12(fp)
    9ff0:	e17ffe15 	stw	r5,-8(fp)
    9ff4:	e1bfff15 	stw	r6,-4(fp)
    altera_avalon_jtag_uart_dev* dev = (altera_avalon_jtag_uart_dev*) fd->dev; 
    9ff8:	e0bffd17 	ldw	r2,-12(fp)
    9ffc:	10800017 	ldw	r2,0(r2)
    a000:	e0bffc15 	stw	r2,-16(fp)

    return altera_avalon_jtag_uart_read(&dev->state, buffer, space,
    a004:	e0bffc17 	ldw	r2,-16(fp)
    a008:	10c00a04 	addi	r3,r2,40
      fd->fd_flags);
    a00c:	e0bffd17 	ldw	r2,-12(fp)
int 
altera_avalon_jtag_uart_read_fd(alt_fd* fd, char* buffer, int space)
{
    altera_avalon_jtag_uart_dev* dev = (altera_avalon_jtag_uart_dev*) fd->dev; 

    return altera_avalon_jtag_uart_read(&dev->state, buffer, space,
    a010:	10800217 	ldw	r2,8(r2)
    a014:	1809883a 	mov	r4,r3
    a018:	e17ffe17 	ldw	r5,-8(fp)
    a01c:	e1bfff17 	ldw	r6,-4(fp)
    a020:	100f883a 	mov	r7,r2
    a024:	000a6040 	call	a604 <altera_avalon_jtag_uart_read>
      fd->fd_flags);
}
    a028:	e037883a 	mov	sp,fp
    a02c:	dfc00117 	ldw	ra,4(sp)
    a030:	df000017 	ldw	fp,0(sp)
    a034:	dec00204 	addi	sp,sp,8
    a038:	f800283a 	ret

0000a03c <altera_avalon_jtag_uart_write_fd>:

int 
altera_avalon_jtag_uart_write_fd(alt_fd* fd, const char* buffer, int space)
{
    a03c:	defffa04 	addi	sp,sp,-24
    a040:	dfc00515 	stw	ra,20(sp)
    a044:	df000415 	stw	fp,16(sp)
    a048:	df000404 	addi	fp,sp,16
    a04c:	e13ffd15 	stw	r4,-12(fp)
    a050:	e17ffe15 	stw	r5,-8(fp)
    a054:	e1bfff15 	stw	r6,-4(fp)
    altera_avalon_jtag_uart_dev* dev = (altera_avalon_jtag_uart_dev*) fd->dev; 
    a058:	e0bffd17 	ldw	r2,-12(fp)
    a05c:	10800017 	ldw	r2,0(r2)
    a060:	e0bffc15 	stw	r2,-16(fp)

    return altera_avalon_jtag_uart_write(&dev->state, buffer, space,
    a064:	e0bffc17 	ldw	r2,-16(fp)
    a068:	10c00a04 	addi	r3,r2,40
      fd->fd_flags);
    a06c:	e0bffd17 	ldw	r2,-12(fp)
int 
altera_avalon_jtag_uart_write_fd(alt_fd* fd, const char* buffer, int space)
{
    altera_avalon_jtag_uart_dev* dev = (altera_avalon_jtag_uart_dev*) fd->dev; 

    return altera_avalon_jtag_uart_write(&dev->state, buffer, space,
    a070:	10800217 	ldw	r2,8(r2)
    a074:	1809883a 	mov	r4,r3
    a078:	e17ffe17 	ldw	r5,-8(fp)
    a07c:	e1bfff17 	ldw	r6,-4(fp)
    a080:	100f883a 	mov	r7,r2
    a084:	000a81c0 	call	a81c <altera_avalon_jtag_uart_write>
      fd->fd_flags);
}
    a088:	e037883a 	mov	sp,fp
    a08c:	dfc00117 	ldw	ra,4(sp)
    a090:	df000017 	ldw	fp,0(sp)
    a094:	dec00204 	addi	sp,sp,8
    a098:	f800283a 	ret

0000a09c <altera_avalon_jtag_uart_close_fd>:

#ifndef ALTERA_AVALON_JTAG_UART_SMALL

int 
altera_avalon_jtag_uart_close_fd(alt_fd* fd)
{
    a09c:	defffc04 	addi	sp,sp,-16
    a0a0:	dfc00315 	stw	ra,12(sp)
    a0a4:	df000215 	stw	fp,8(sp)
    a0a8:	df000204 	addi	fp,sp,8
    a0ac:	e13fff15 	stw	r4,-4(fp)
    altera_avalon_jtag_uart_dev* dev = (altera_avalon_jtag_uart_dev*) fd->dev; 
    a0b0:	e0bfff17 	ldw	r2,-4(fp)
    a0b4:	10800017 	ldw	r2,0(r2)
    a0b8:	e0bffe15 	stw	r2,-8(fp)

    return altera_avalon_jtag_uart_close(&dev->state, fd->fd_flags);
    a0bc:	e0bffe17 	ldw	r2,-8(fp)
    a0c0:	10c00a04 	addi	r3,r2,40
    a0c4:	e0bfff17 	ldw	r2,-4(fp)
    a0c8:	10800217 	ldw	r2,8(r2)
    a0cc:	1809883a 	mov	r4,r3
    a0d0:	100b883a 	mov	r5,r2
    a0d4:	000a4a80 	call	a4a8 <altera_avalon_jtag_uart_close>
}
    a0d8:	e037883a 	mov	sp,fp
    a0dc:	dfc00117 	ldw	ra,4(sp)
    a0e0:	df000017 	ldw	fp,0(sp)
    a0e4:	dec00204 	addi	sp,sp,8
    a0e8:	f800283a 	ret

0000a0ec <altera_avalon_jtag_uart_ioctl_fd>:

int 
altera_avalon_jtag_uart_ioctl_fd(alt_fd* fd, int req, void* arg)
{
    a0ec:	defffa04 	addi	sp,sp,-24
    a0f0:	dfc00515 	stw	ra,20(sp)
    a0f4:	df000415 	stw	fp,16(sp)
    a0f8:	df000404 	addi	fp,sp,16
    a0fc:	e13ffd15 	stw	r4,-12(fp)
    a100:	e17ffe15 	stw	r5,-8(fp)
    a104:	e1bfff15 	stw	r6,-4(fp)
    altera_avalon_jtag_uart_dev* dev = (altera_avalon_jtag_uart_dev*) fd->dev;
    a108:	e0bffd17 	ldw	r2,-12(fp)
    a10c:	10800017 	ldw	r2,0(r2)
    a110:	e0bffc15 	stw	r2,-16(fp)

    return altera_avalon_jtag_uart_ioctl(&dev->state, req, arg);
    a114:	e0bffc17 	ldw	r2,-16(fp)
    a118:	10800a04 	addi	r2,r2,40
    a11c:	1009883a 	mov	r4,r2
    a120:	e17ffe17 	ldw	r5,-8(fp)
    a124:	e1bfff17 	ldw	r6,-4(fp)
    a128:	000a5100 	call	a510 <altera_avalon_jtag_uart_ioctl>
}
    a12c:	e037883a 	mov	sp,fp
    a130:	dfc00117 	ldw	ra,4(sp)
    a134:	df000017 	ldw	fp,0(sp)
    a138:	dec00204 	addi	sp,sp,8
    a13c:	f800283a 	ret

0000a140 <altera_avalon_jtag_uart_init>:
 * Return 1 on sucessful IRQ register and 0 on failure.
 */

void altera_avalon_jtag_uart_init(altera_avalon_jtag_uart_state* sp, 
                                  int irq_controller_id, int irq)
{
    a140:	defffa04 	addi	sp,sp,-24
    a144:	dfc00515 	stw	ra,20(sp)
    a148:	df000415 	stw	fp,16(sp)
    a14c:	df000404 	addi	fp,sp,16
    a150:	e13ffd15 	stw	r4,-12(fp)
    a154:	e17ffe15 	stw	r5,-8(fp)
    a158:	e1bfff15 	stw	r6,-4(fp)
  ALT_FLAG_CREATE(&sp->events, 0);
  ALT_SEM_CREATE(&sp->read_lock, 1);
  ALT_SEM_CREATE(&sp->write_lock, 1);

  /* enable read interrupts at the device */
  sp->irq_enable = ALTERA_AVALON_JTAG_UART_CONTROL_RE_MSK;
    a15c:	e0bffd17 	ldw	r2,-12(fp)
    a160:	00c00044 	movi	r3,1
    a164:	10c00815 	stw	r3,32(r2)

  IOWR_ALTERA_AVALON_JTAG_UART_CONTROL(sp->base, sp->irq_enable); 
    a168:	e0bffd17 	ldw	r2,-12(fp)
    a16c:	10800017 	ldw	r2,0(r2)
    a170:	10800104 	addi	r2,r2,4
    a174:	e0fffd17 	ldw	r3,-12(fp)
    a178:	18c00817 	ldw	r3,32(r3)
    a17c:	10c00035 	stwio	r3,0(r2)
  
  /* register the interrupt handler */
#ifdef ALT_ENHANCED_INTERRUPT_API_PRESENT
  alt_ic_isr_register(irq_controller_id, irq, altera_avalon_jtag_uart_irq, 
    a180:	e0fffe17 	ldw	r3,-8(fp)
    a184:	e0bfff17 	ldw	r2,-4(fp)
    a188:	d8000015 	stw	zero,0(sp)
    a18c:	1809883a 	mov	r4,r3
    a190:	100b883a 	mov	r5,r2
    a194:	01800074 	movhi	r6,1
    a198:	31a88004 	addi	r6,r6,-24064
    a19c:	e1fffd17 	ldw	r7,-12(fp)
    a1a0:	000b4a40 	call	b4a4 <alt_ic_isr_register>
#else
  alt_irq_register(irq, sp, altera_avalon_jtag_uart_irq);
#endif  

  /* Register an alarm to go off every second to check for presence of host */
  sp->host_inactive = 0;
    a1a4:	e0bffd17 	ldw	r2,-12(fp)
    a1a8:	10000915 	stw	zero,36(r2)

  if (alt_alarm_start(&sp->alarm, alt_ticks_per_second(), 
    a1ac:	e0bffd17 	ldw	r2,-12(fp)
    a1b0:	10c00204 	addi	r3,r2,8
 * Obtain the system clock rate in ticks/s. 
 */

static ALT_INLINE alt_u32 ALT_ALWAYS_INLINE alt_ticks_per_second (void)
{
  return _alt_tick_rate;
    a1b4:	00800074 	movhi	r2,1
    a1b8:	10b5d304 	addi	r2,r2,-10420
    a1bc:	10800017 	ldw	r2,0(r2)
    a1c0:	1809883a 	mov	r4,r3
    a1c4:	100b883a 	mov	r5,r2
    a1c8:	01800074 	movhi	r6,1
    a1cc:	31a90104 	addi	r6,r6,-23548
    a1d0:	e1fffd17 	ldw	r7,-12(fp)
    a1d4:	000b0640 	call	b064 <alt_alarm_start>
    a1d8:	1000040e 	bge	r2,zero,a1ec <altera_avalon_jtag_uart_init+0xac>
    &altera_avalon_jtag_uart_timeout, sp) < 0)
  {
    /* If we can't set the alarm then record "don't know if host present" 
     * and behave as though the host is present.
     */
    sp->timeout = INT_MAX;
    a1dc:	e0bffd17 	ldw	r2,-12(fp)
    a1e0:	00e00034 	movhi	r3,32768
    a1e4:	18ffffc4 	addi	r3,r3,-1
    a1e8:	10c00115 	stw	r3,4(r2)
  }

  /* ALT_LOG - see altera_hal/HAL/inc/sys/alt_log_printf.h */ 
  ALT_LOG_JTAG_UART_ALARM_REGISTER(sp, sp->base);
}
    a1ec:	e037883a 	mov	sp,fp
    a1f0:	dfc00117 	ldw	ra,4(sp)
    a1f4:	df000017 	ldw	fp,0(sp)
    a1f8:	dec00204 	addi	sp,sp,8
    a1fc:	f800283a 	ret

0000a200 <altera_avalon_jtag_uart_irq>:
#ifdef ALT_ENHANCED_INTERRUPT_API_PRESENT
static void altera_avalon_jtag_uart_irq(void* context)
#else
static void altera_avalon_jtag_uart_irq(void* context, alt_u32 id)
#endif
{
    a200:	defff804 	addi	sp,sp,-32
    a204:	df000715 	stw	fp,28(sp)
    a208:	df000704 	addi	fp,sp,28
    a20c:	e13fff15 	stw	r4,-4(fp)
  altera_avalon_jtag_uart_state* sp = (altera_avalon_jtag_uart_state*) context;
    a210:	e0bfff17 	ldw	r2,-4(fp)
    a214:	e0bffb15 	stw	r2,-20(fp)
  unsigned int base = sp->base;
    a218:	e0bffb17 	ldw	r2,-20(fp)
    a21c:	10800017 	ldw	r2,0(r2)
    a220:	e0bffc15 	stw	r2,-16(fp)
    a224:	00000106 	br	a22c <altera_avalon_jtag_uart_irq+0x2c>
        
        /* Dummy read to ensure IRQ is cleared prior to ISR completion */
        IORD_ALTERA_AVALON_JTAG_UART_CONTROL(base);
      }
    }
  }
    a228:	0001883a 	nop
  /* ALT_LOG - see altera_hal/HAL/inc/sys/alt_log_printf.h */ 
  ALT_LOG_JTAG_UART_ISR_FUNCTION(base, sp);

  for ( ; ; )
  {
    unsigned int control = IORD_ALTERA_AVALON_JTAG_UART_CONTROL(base);
    a22c:	e0bffc17 	ldw	r2,-16(fp)
    a230:	10800104 	addi	r2,r2,4
    a234:	10800037 	ldwio	r2,0(r2)
    a238:	e0bffd15 	stw	r2,-12(fp)

    /* Return once nothing more to do */
    if ((control & (ALTERA_AVALON_JTAG_UART_CONTROL_RI_MSK | ALTERA_AVALON_JTAG_UART_CONTROL_WI_MSK)) == 0)
    a23c:	e0bffd17 	ldw	r2,-12(fp)
    a240:	1080c00c 	andi	r2,r2,768
    a244:	10006a26 	beq	r2,zero,a3f0 <altera_avalon_jtag_uart_irq+0x1f0>
      break;

    if (control & ALTERA_AVALON_JTAG_UART_CONTROL_RI_MSK)
    a248:	e0bffd17 	ldw	r2,-12(fp)
    a24c:	1080400c 	andi	r2,r2,256
    a250:	10003326 	beq	r2,zero,a320 <altera_avalon_jtag_uart_irq+0x120>
    {
      /* process a read irq.  Start by assuming that there is data in the
       * receive FIFO (otherwise why would we have been interrupted?)
       */
      unsigned int data = 1 << ALTERA_AVALON_JTAG_UART_DATA_RAVAIL_OFST;
    a254:	00800074 	movhi	r2,1
    a258:	e0bff915 	stw	r2,-28(fp)
      for ( ; ; )
      {
        /* Check whether there is space in the buffer.  If not then we must not
         * read any characters from the buffer as they will be lost.
         */
        unsigned int next = (sp->rx_in + 1) % ALTERA_AVALON_JTAG_UART_BUF_LEN;
    a25c:	e0bffb17 	ldw	r2,-20(fp)
    a260:	10800a17 	ldw	r2,40(r2)
    a264:	10800044 	addi	r2,r2,1
    a268:	1081ffcc 	andi	r2,r2,2047
    a26c:	e0bffe15 	stw	r2,-8(fp)
        if (next == sp->rx_out)
    a270:	e0bffb17 	ldw	r2,-20(fp)
    a274:	10c00b17 	ldw	r3,44(r2)
    a278:	e0bffe17 	ldw	r2,-8(fp)
    a27c:	18801426 	beq	r3,r2,a2d0 <altera_avalon_jtag_uart_irq+0xd0>
          break;

        /* Try to remove a character from the FIFO and find out whether there
         * are any more characters remaining.
         */
        data = IORD_ALTERA_AVALON_JTAG_UART_DATA(base);
    a280:	e0bffc17 	ldw	r2,-16(fp)
    a284:	10800037 	ldwio	r2,0(r2)
    a288:	e0bff915 	stw	r2,-28(fp)
        
        if ((data & ALTERA_AVALON_JTAG_UART_DATA_RVALID_MSK) == 0)
    a28c:	e0bff917 	ldw	r2,-28(fp)
    a290:	10a0000c 	andi	r2,r2,32768
    a294:	10001026 	beq	r2,zero,a2d8 <altera_avalon_jtag_uart_irq+0xd8>
          break;

        sp->rx_buf[sp->rx_in] = (data & ALTERA_AVALON_JTAG_UART_DATA_DATA_MSK) >> ALTERA_AVALON_JTAG_UART_DATA_DATA_OFST;
    a298:	e0bffb17 	ldw	r2,-20(fp)
    a29c:	10800a17 	ldw	r2,40(r2)
    a2a0:	e0fff917 	ldw	r3,-28(fp)
    a2a4:	e13ffb17 	ldw	r4,-20(fp)
    a2a8:	2085883a 	add	r2,r4,r2
    a2ac:	10800e04 	addi	r2,r2,56
    a2b0:	10c00005 	stb	r3,0(r2)
        sp->rx_in = (sp->rx_in + 1) % ALTERA_AVALON_JTAG_UART_BUF_LEN;
    a2b4:	e0bffb17 	ldw	r2,-20(fp)
    a2b8:	10800a17 	ldw	r2,40(r2)
    a2bc:	10800044 	addi	r2,r2,1
    a2c0:	10c1ffcc 	andi	r3,r2,2047
    a2c4:	e0bffb17 	ldw	r2,-20(fp)
    a2c8:	10c00a15 	stw	r3,40(r2)

        /* Post an event to notify jtag_uart_read that a character has been read */
        ALT_FLAG_POST (sp->events, ALT_JTAG_UART_READ_RDY, OS_FLAG_SET);
      }
    a2cc:	003fe306 	br	a25c <altera_avalon_jtag_uart_irq+0x5c>
        /* Check whether there is space in the buffer.  If not then we must not
         * read any characters from the buffer as they will be lost.
         */
        unsigned int next = (sp->rx_in + 1) % ALTERA_AVALON_JTAG_UART_BUF_LEN;
        if (next == sp->rx_out)
          break;
    a2d0:	0001883a 	nop
    a2d4:	00000106 	br	a2dc <altera_avalon_jtag_uart_irq+0xdc>
         * are any more characters remaining.
         */
        data = IORD_ALTERA_AVALON_JTAG_UART_DATA(base);
        
        if ((data & ALTERA_AVALON_JTAG_UART_DATA_RVALID_MSK) == 0)
          break;
    a2d8:	0001883a 	nop

        /* Post an event to notify jtag_uart_read that a character has been read */
        ALT_FLAG_POST (sp->events, ALT_JTAG_UART_READ_RDY, OS_FLAG_SET);
      }

      if (data & ALTERA_AVALON_JTAG_UART_DATA_RAVAIL_MSK)
    a2dc:	e0bff917 	ldw	r2,-28(fp)
    a2e0:	10bfffec 	andhi	r2,r2,65535
    a2e4:	10000e26 	beq	r2,zero,a320 <altera_avalon_jtag_uart_irq+0x120>
      {
        /* If there is still data available here then the buffer is full 
         * so turn off receive interrupts until some space becomes available.
         */
        sp->irq_enable &= ~ALTERA_AVALON_JTAG_UART_CONTROL_RE_MSK;
    a2e8:	e0bffb17 	ldw	r2,-20(fp)
    a2ec:	10c00817 	ldw	r3,32(r2)
    a2f0:	00bfff84 	movi	r2,-2
    a2f4:	1886703a 	and	r3,r3,r2
    a2f8:	e0bffb17 	ldw	r2,-20(fp)
    a2fc:	10c00815 	stw	r3,32(r2)
        IOWR_ALTERA_AVALON_JTAG_UART_CONTROL(base, sp->irq_enable);
    a300:	e0bffc17 	ldw	r2,-16(fp)
    a304:	10800104 	addi	r2,r2,4
    a308:	e0fffb17 	ldw	r3,-20(fp)
    a30c:	18c00817 	ldw	r3,32(r3)
    a310:	10c00035 	stwio	r3,0(r2)
        
        /* Dummy read to ensure IRQ is cleared prior to ISR completion */
        IORD_ALTERA_AVALON_JTAG_UART_CONTROL(base);
    a314:	e0bffc17 	ldw	r2,-16(fp)
    a318:	10800104 	addi	r2,r2,4
    a31c:	10800037 	ldwio	r2,0(r2)
      }
    }

    if (control & ALTERA_AVALON_JTAG_UART_CONTROL_WI_MSK)
    a320:	e0bffd17 	ldw	r2,-12(fp)
    a324:	1080800c 	andi	r2,r2,512
    a328:	103fbf26 	beq	r2,zero,a228 <altera_avalon_jtag_uart_irq+0x28>
    {
      /* process a write irq */
      unsigned int space = (control & ALTERA_AVALON_JTAG_UART_CONTROL_WSPACE_MSK) >> ALTERA_AVALON_JTAG_UART_CONTROL_WSPACE_OFST;
    a32c:	e0bffd17 	ldw	r2,-12(fp)
    a330:	1004d43a 	srli	r2,r2,16
    a334:	e0bffa15 	stw	r2,-24(fp)

      while (space > 0 && sp->tx_out != sp->tx_in)
    a338:	00001406 	br	a38c <altera_avalon_jtag_uart_irq+0x18c>
      {
        IOWR_ALTERA_AVALON_JTAG_UART_DATA(base, sp->tx_buf[sp->tx_out]);
    a33c:	e0bffc17 	ldw	r2,-16(fp)
    a340:	e0fffb17 	ldw	r3,-20(fp)
    a344:	18c00d17 	ldw	r3,52(r3)
    a348:	e13ffb17 	ldw	r4,-20(fp)
    a34c:	20c7883a 	add	r3,r4,r3
    a350:	18c20e04 	addi	r3,r3,2104
    a354:	18c00003 	ldbu	r3,0(r3)
    a358:	18c03fcc 	andi	r3,r3,255
    a35c:	18c0201c 	xori	r3,r3,128
    a360:	18ffe004 	addi	r3,r3,-128
    a364:	10c00035 	stwio	r3,0(r2)

        sp->tx_out = (sp->tx_out + 1) % ALTERA_AVALON_JTAG_UART_BUF_LEN;
    a368:	e0bffb17 	ldw	r2,-20(fp)
    a36c:	10800d17 	ldw	r2,52(r2)
    a370:	10800044 	addi	r2,r2,1
    a374:	10c1ffcc 	andi	r3,r2,2047
    a378:	e0bffb17 	ldw	r2,-20(fp)
    a37c:	10c00d15 	stw	r3,52(r2)

        /* Post an event to notify jtag_uart_write that a character has been written */
        ALT_FLAG_POST (sp->events, ALT_JTAG_UART_WRITE_RDY, OS_FLAG_SET);

        space--;
    a380:	e0bffa17 	ldw	r2,-24(fp)
    a384:	10bfffc4 	addi	r2,r2,-1
    a388:	e0bffa15 	stw	r2,-24(fp)
    if (control & ALTERA_AVALON_JTAG_UART_CONTROL_WI_MSK)
    {
      /* process a write irq */
      unsigned int space = (control & ALTERA_AVALON_JTAG_UART_CONTROL_WSPACE_MSK) >> ALTERA_AVALON_JTAG_UART_CONTROL_WSPACE_OFST;

      while (space > 0 && sp->tx_out != sp->tx_in)
    a38c:	e0bffa17 	ldw	r2,-24(fp)
    a390:	10000526 	beq	r2,zero,a3a8 <altera_avalon_jtag_uart_irq+0x1a8>
    a394:	e0bffb17 	ldw	r2,-20(fp)
    a398:	10c00d17 	ldw	r3,52(r2)
    a39c:	e0bffb17 	ldw	r2,-20(fp)
    a3a0:	10800c17 	ldw	r2,48(r2)
    a3a4:	18bfe51e 	bne	r3,r2,a33c <altera_avalon_jtag_uart_irq+0x13c>
        ALT_FLAG_POST (sp->events, ALT_JTAG_UART_WRITE_RDY, OS_FLAG_SET);

        space--;
      }

      if (space > 0)
    a3a8:	e0bffa17 	ldw	r2,-24(fp)
    a3ac:	103f9e26 	beq	r2,zero,a228 <altera_avalon_jtag_uart_irq+0x28>
      {
        /* If we don't have any more data available then turn off the TX interrupt */
        sp->irq_enable &= ~ALTERA_AVALON_JTAG_UART_CONTROL_WE_MSK;
    a3b0:	e0bffb17 	ldw	r2,-20(fp)
    a3b4:	10c00817 	ldw	r3,32(r2)
    a3b8:	00bfff44 	movi	r2,-3
    a3bc:	1886703a 	and	r3,r3,r2
    a3c0:	e0bffb17 	ldw	r2,-20(fp)
    a3c4:	10c00815 	stw	r3,32(r2)
        IOWR_ALTERA_AVALON_JTAG_UART_CONTROL(sp->base, sp->irq_enable);
    a3c8:	e0bffb17 	ldw	r2,-20(fp)
    a3cc:	10800017 	ldw	r2,0(r2)
    a3d0:	10800104 	addi	r2,r2,4
    a3d4:	e0fffb17 	ldw	r3,-20(fp)
    a3d8:	18c00817 	ldw	r3,32(r3)
    a3dc:	10c00035 	stwio	r3,0(r2)
        
        /* Dummy read to ensure IRQ is cleared prior to ISR completion */
        IORD_ALTERA_AVALON_JTAG_UART_CONTROL(base);
    a3e0:	e0bffc17 	ldw	r2,-16(fp)
    a3e4:	10800104 	addi	r2,r2,4
    a3e8:	10800037 	ldwio	r2,0(r2)
      }
    }
  }
    a3ec:	003f8e06 	br	a228 <altera_avalon_jtag_uart_irq+0x28>
  {
    unsigned int control = IORD_ALTERA_AVALON_JTAG_UART_CONTROL(base);

    /* Return once nothing more to do */
    if ((control & (ALTERA_AVALON_JTAG_UART_CONTROL_RI_MSK | ALTERA_AVALON_JTAG_UART_CONTROL_WI_MSK)) == 0)
      break;
    a3f0:	0001883a 	nop
        /* Dummy read to ensure IRQ is cleared prior to ISR completion */
        IORD_ALTERA_AVALON_JTAG_UART_CONTROL(base);
      }
    }
  }
}
    a3f4:	e037883a 	mov	sp,fp
    a3f8:	df000017 	ldw	fp,0(sp)
    a3fc:	dec00104 	addi	sp,sp,4
    a400:	f800283a 	ret

0000a404 <altera_avalon_jtag_uart_timeout>:
 * Timeout routine is called every second
 */

static alt_u32 
altera_avalon_jtag_uart_timeout(void* context) 
{
    a404:	defffc04 	addi	sp,sp,-16
    a408:	df000315 	stw	fp,12(sp)
    a40c:	df000304 	addi	fp,sp,12
    a410:	e13fff15 	stw	r4,-4(fp)
  altera_avalon_jtag_uart_state* sp = (altera_avalon_jtag_uart_state *) context;
    a414:	e0bfff17 	ldw	r2,-4(fp)
    a418:	e0bffd15 	stw	r2,-12(fp)

  unsigned int control = IORD_ALTERA_AVALON_JTAG_UART_CONTROL(sp->base);
    a41c:	e0bffd17 	ldw	r2,-12(fp)
    a420:	10800017 	ldw	r2,0(r2)
    a424:	10800104 	addi	r2,r2,4
    a428:	10800037 	ldwio	r2,0(r2)
    a42c:	e0bffe15 	stw	r2,-8(fp)

  if (control & ALTERA_AVALON_JTAG_UART_CONTROL_AC_MSK)
    a430:	e0bffe17 	ldw	r2,-8(fp)
    a434:	1081000c 	andi	r2,r2,1024
    a438:	10000a26 	beq	r2,zero,a464 <altera_avalon_jtag_uart_timeout+0x60>
  {
    IOWR_ALTERA_AVALON_JTAG_UART_CONTROL(sp->base, sp->irq_enable | ALTERA_AVALON_JTAG_UART_CONTROL_AC_MSK);
    a43c:	e0bffd17 	ldw	r2,-12(fp)
    a440:	10800017 	ldw	r2,0(r2)
    a444:	10800104 	addi	r2,r2,4
    a448:	e0fffd17 	ldw	r3,-12(fp)
    a44c:	18c00817 	ldw	r3,32(r3)
    a450:	18c10014 	ori	r3,r3,1024
    a454:	10c00035 	stwio	r3,0(r2)
    sp->host_inactive = 0;
    a458:	e0bffd17 	ldw	r2,-12(fp)
    a45c:	10000915 	stw	zero,36(r2)
    a460:	00000a06 	br	a48c <altera_avalon_jtag_uart_timeout+0x88>
  }
  else if (sp->host_inactive < INT_MAX - 2) {
    a464:	e0bffd17 	ldw	r2,-12(fp)
    a468:	10800917 	ldw	r2,36(r2)
    a46c:	00e00034 	movhi	r3,32768
    a470:	18ffff04 	addi	r3,r3,-4
    a474:	18800536 	bltu	r3,r2,a48c <altera_avalon_jtag_uart_timeout+0x88>
    sp->host_inactive++;
    a478:	e0bffd17 	ldw	r2,-12(fp)
    a47c:	10800917 	ldw	r2,36(r2)
    a480:	10c00044 	addi	r3,r2,1
    a484:	e0bffd17 	ldw	r2,-12(fp)
    a488:	10c00915 	stw	r3,36(r2)
    a48c:	00800074 	movhi	r2,1
    a490:	10b5d304 	addi	r2,r2,-10420
    a494:	10800017 	ldw	r2,0(r2)
      ALT_FLAG_POST (sp->events, ALT_JTAG_UART_TIMEOUT, OS_FLAG_SET);
    }
  }

  return alt_ticks_per_second();
}
    a498:	e037883a 	mov	sp,fp
    a49c:	df000017 	ldw	fp,0(sp)
    a4a0:	dec00104 	addi	sp,sp,4
    a4a4:	f800283a 	ret

0000a4a8 <altera_avalon_jtag_uart_close>:
 * The close routine is not implemented for the small driver; instead it will
 * map to null. This is because the small driver simply waits while characters
 * are transmitted; there is no interrupt-serviced buffer to empty 
 */
int altera_avalon_jtag_uart_close(altera_avalon_jtag_uart_state* sp, int flags)
{
    a4a8:	defffd04 	addi	sp,sp,-12
    a4ac:	df000215 	stw	fp,8(sp)
    a4b0:	df000204 	addi	fp,sp,8
    a4b4:	e13ffe15 	stw	r4,-8(fp)
    a4b8:	e17fff15 	stw	r5,-4(fp)
  /* 
   * Wait for all transmit data to be emptied by the JTAG UART ISR, or
   * for a host-inactivity timeout, in which case transmit data will be lost
   */
  while ( (sp->tx_out != sp->tx_in) && (sp->host_inactive < sp->timeout) ) {
    a4bc:	00000506 	br	a4d4 <altera_avalon_jtag_uart_close+0x2c>
    if (flags & O_NONBLOCK) {
    a4c0:	e0bfff17 	ldw	r2,-4(fp)
    a4c4:	1090000c 	andi	r2,r2,16384
    a4c8:	10000226 	beq	r2,zero,a4d4 <altera_avalon_jtag_uart_close+0x2c>
      return -EWOULDBLOCK; 
    a4cc:	00bffd44 	movi	r2,-11
    a4d0:	00000b06 	br	a500 <altera_avalon_jtag_uart_close+0x58>
{
  /* 
   * Wait for all transmit data to be emptied by the JTAG UART ISR, or
   * for a host-inactivity timeout, in which case transmit data will be lost
   */
  while ( (sp->tx_out != sp->tx_in) && (sp->host_inactive < sp->timeout) ) {
    a4d4:	e0bffe17 	ldw	r2,-8(fp)
    a4d8:	10c00d17 	ldw	r3,52(r2)
    a4dc:	e0bffe17 	ldw	r2,-8(fp)
    a4e0:	10800c17 	ldw	r2,48(r2)
    a4e4:	18800526 	beq	r3,r2,a4fc <altera_avalon_jtag_uart_close+0x54>
    a4e8:	e0bffe17 	ldw	r2,-8(fp)
    a4ec:	10c00917 	ldw	r3,36(r2)
    a4f0:	e0bffe17 	ldw	r2,-8(fp)
    a4f4:	10800117 	ldw	r2,4(r2)
    a4f8:	18bff136 	bltu	r3,r2,a4c0 <altera_avalon_jtag_uart_close+0x18>
    if (flags & O_NONBLOCK) {
      return -EWOULDBLOCK; 
    }
  }

  return 0;
    a4fc:	0005883a 	mov	r2,zero
}
    a500:	e037883a 	mov	sp,fp
    a504:	df000017 	ldw	fp,0(sp)
    a508:	dec00104 	addi	sp,sp,4
    a50c:	f800283a 	ret

0000a510 <altera_avalon_jtag_uart_ioctl>:
/* ----------------------------------------------------------- */

int 
altera_avalon_jtag_uart_ioctl(altera_avalon_jtag_uart_state* sp, int req,
  void* arg)
{
    a510:	defffa04 	addi	sp,sp,-24
    a514:	df000515 	stw	fp,20(sp)
    a518:	df000504 	addi	fp,sp,20
    a51c:	e13ffd15 	stw	r4,-12(fp)
    a520:	e17ffe15 	stw	r5,-8(fp)
    a524:	e1bfff15 	stw	r6,-4(fp)
  int rc = -ENOTTY;
    a528:	00bff9c4 	movi	r2,-25
    a52c:	e0bffb15 	stw	r2,-20(fp)

  switch (req)
    a530:	e0bffe17 	ldw	r2,-8(fp)
    a534:	10da8060 	cmpeqi	r3,r2,27137
    a538:	1800031e 	bne	r3,zero,a548 <altera_avalon_jtag_uart_ioctl+0x38>
    a53c:	109a80a0 	cmpeqi	r2,r2,27138
    a540:	1000181e 	bne	r2,zero,a5a4 <altera_avalon_jtag_uart_ioctl+0x94>
    a544:	00002606 	br	a5e0 <altera_avalon_jtag_uart_ioctl+0xd0>
  {
  case TIOCSTIMEOUT:
    /* Set the time to wait until assuming host is not connected */
    if (sp->timeout != INT_MAX)
    a548:	e0bffd17 	ldw	r2,-12(fp)
    a54c:	10c00117 	ldw	r3,4(r2)
    a550:	00a00034 	movhi	r2,32768
    a554:	10bfffc4 	addi	r2,r2,-1
    a558:	18802226 	beq	r3,r2,a5e4 <altera_avalon_jtag_uart_ioctl+0xd4>
    {
      int timeout = *((int *)arg);
    a55c:	e0bfff17 	ldw	r2,-4(fp)
    a560:	10800017 	ldw	r2,0(r2)
    a564:	e0bffc15 	stw	r2,-16(fp)
      sp->timeout = (timeout >= 2 && timeout < INT_MAX) ? timeout : INT_MAX - 1;
    a568:	e0bffc17 	ldw	r2,-16(fp)
    a56c:	10800090 	cmplti	r2,r2,2
    a570:	1000061e 	bne	r2,zero,a58c <altera_avalon_jtag_uart_ioctl+0x7c>
    a574:	e0fffc17 	ldw	r3,-16(fp)
    a578:	00a00034 	movhi	r2,32768
    a57c:	10bfffc4 	addi	r2,r2,-1
    a580:	18800226 	beq	r3,r2,a58c <altera_avalon_jtag_uart_ioctl+0x7c>
    a584:	e0bffc17 	ldw	r2,-16(fp)
    a588:	00000206 	br	a594 <altera_avalon_jtag_uart_ioctl+0x84>
    a58c:	00a00034 	movhi	r2,32768
    a590:	10bfff84 	addi	r2,r2,-2
    a594:	e0fffd17 	ldw	r3,-12(fp)
    a598:	18800115 	stw	r2,4(r3)
      rc = 0;
    a59c:	e03ffb15 	stw	zero,-20(fp)
    }
    break;
    a5a0:	00001006 	br	a5e4 <altera_avalon_jtag_uart_ioctl+0xd4>

  case TIOCGCONNECTED:
    /* Find out whether host is connected */
    if (sp->timeout != INT_MAX)
    a5a4:	e0bffd17 	ldw	r2,-12(fp)
    a5a8:	10c00117 	ldw	r3,4(r2)
    a5ac:	00a00034 	movhi	r2,32768
    a5b0:	10bfffc4 	addi	r2,r2,-1
    a5b4:	18800d26 	beq	r3,r2,a5ec <altera_avalon_jtag_uart_ioctl+0xdc>
    {
      *((int *)arg) = (sp->host_inactive < sp->timeout) ? 1 : 0;
    a5b8:	e0bffd17 	ldw	r2,-12(fp)
    a5bc:	10c00917 	ldw	r3,36(r2)
    a5c0:	e0bffd17 	ldw	r2,-12(fp)
    a5c4:	10800117 	ldw	r2,4(r2)
    a5c8:	1885803a 	cmpltu	r2,r3,r2
    a5cc:	10c03fcc 	andi	r3,r2,255
    a5d0:	e0bfff17 	ldw	r2,-4(fp)
    a5d4:	10c00015 	stw	r3,0(r2)
      rc = 0;
    a5d8:	e03ffb15 	stw	zero,-20(fp)
    }
    break;
    a5dc:	00000306 	br	a5ec <altera_avalon_jtag_uart_ioctl+0xdc>

  default:
    break;
    a5e0:	00000306 	br	a5f0 <altera_avalon_jtag_uart_ioctl+0xe0>
    {
      int timeout = *((int *)arg);
      sp->timeout = (timeout >= 2 && timeout < INT_MAX) ? timeout : INT_MAX - 1;
      rc = 0;
    }
    break;
    a5e4:	0001883a 	nop
    a5e8:	00000106 	br	a5f0 <altera_avalon_jtag_uart_ioctl+0xe0>
    if (sp->timeout != INT_MAX)
    {
      *((int *)arg) = (sp->host_inactive < sp->timeout) ? 1 : 0;
      rc = 0;
    }
    break;
    a5ec:	0001883a 	nop

  default:
    break;
  }

  return rc;
    a5f0:	e0bffb17 	ldw	r2,-20(fp)
}
    a5f4:	e037883a 	mov	sp,fp
    a5f8:	df000017 	ldw	fp,0(sp)
    a5fc:	dec00104 	addi	sp,sp,4
    a600:	f800283a 	ret

0000a604 <altera_avalon_jtag_uart_read>:
/* ----------------------------------------------------------- */

int 
altera_avalon_jtag_uart_read(altera_avalon_jtag_uart_state* sp, 
  char * buffer, int space, int flags)
{
    a604:	defff304 	addi	sp,sp,-52
    a608:	dfc00c15 	stw	ra,48(sp)
    a60c:	df000b15 	stw	fp,44(sp)
    a610:	df000b04 	addi	fp,sp,44
    a614:	e13ffc15 	stw	r4,-16(fp)
    a618:	e17ffd15 	stw	r5,-12(fp)
    a61c:	e1bffe15 	stw	r6,-8(fp)
    a620:	e1ffff15 	stw	r7,-4(fp)
  char * ptr = buffer;
    a624:	e0bffd17 	ldw	r2,-12(fp)
    a628:	e0bff515 	stw	r2,-44(fp)
   * When running in a multi threaded environment, obtain the "read_lock"
   * semaphore. This ensures that reading from the device is thread-safe.
   */
  ALT_SEM_PEND (sp->read_lock, 0);

  while (space > 0)
    a62c:	00004706 	br	a74c <altera_avalon_jtag_uart_read+0x148>
    unsigned int in, out;

    /* Read as much data as possible */
    do
    {
      in  = sp->rx_in;
    a630:	e0bffc17 	ldw	r2,-16(fp)
    a634:	10800a17 	ldw	r2,40(r2)
    a638:	e0bff715 	stw	r2,-36(fp)
      out = sp->rx_out;
    a63c:	e0bffc17 	ldw	r2,-16(fp)
    a640:	10800b17 	ldw	r2,44(r2)
    a644:	e0bff815 	stw	r2,-32(fp)

      if (in >= out)
    a648:	e0fff717 	ldw	r3,-36(fp)
    a64c:	e0bff817 	ldw	r2,-32(fp)
    a650:	18800536 	bltu	r3,r2,a668 <altera_avalon_jtag_uart_read+0x64>
        n = in - out;
    a654:	e0fff717 	ldw	r3,-36(fp)
    a658:	e0bff817 	ldw	r2,-32(fp)
    a65c:	1885c83a 	sub	r2,r3,r2
    a660:	e0bff615 	stw	r2,-40(fp)
    a664:	00000406 	br	a678 <altera_avalon_jtag_uart_read+0x74>
      else
        n = ALTERA_AVALON_JTAG_UART_BUF_LEN - out;
    a668:	00c20004 	movi	r3,2048
    a66c:	e0bff817 	ldw	r2,-32(fp)
    a670:	1885c83a 	sub	r2,r3,r2
    a674:	e0bff615 	stw	r2,-40(fp)

      if (n == 0)
    a678:	e0bff617 	ldw	r2,-40(fp)
    a67c:	10001e26 	beq	r2,zero,a6f8 <altera_avalon_jtag_uart_read+0xf4>
        break; /* No more data available */

      if (n > space)
    a680:	e0fffe17 	ldw	r3,-8(fp)
    a684:	e0bff617 	ldw	r2,-40(fp)
    a688:	1880022e 	bgeu	r3,r2,a694 <altera_avalon_jtag_uart_read+0x90>
        n = space;
    a68c:	e0bffe17 	ldw	r2,-8(fp)
    a690:	e0bff615 	stw	r2,-40(fp)

      memcpy(ptr, sp->rx_buf + out, n);
    a694:	e0bff817 	ldw	r2,-32(fp)
    a698:	10800e04 	addi	r2,r2,56
    a69c:	e0fffc17 	ldw	r3,-16(fp)
    a6a0:	1885883a 	add	r2,r3,r2
    a6a4:	e13ff517 	ldw	r4,-44(fp)
    a6a8:	100b883a 	mov	r5,r2
    a6ac:	e1bff617 	ldw	r6,-40(fp)
    a6b0:	000c1480 	call	c148 <memcpy>
      ptr   += n;
    a6b4:	e0fff517 	ldw	r3,-44(fp)
    a6b8:	e0bff617 	ldw	r2,-40(fp)
    a6bc:	1885883a 	add	r2,r3,r2
    a6c0:	e0bff515 	stw	r2,-44(fp)
      space -= n;
    a6c4:	e0fffe17 	ldw	r3,-8(fp)
    a6c8:	e0bff617 	ldw	r2,-40(fp)
    a6cc:	1885c83a 	sub	r2,r3,r2
    a6d0:	e0bffe15 	stw	r2,-8(fp)

      sp->rx_out = (out + n) % ALTERA_AVALON_JTAG_UART_BUF_LEN;
    a6d4:	e0fff817 	ldw	r3,-32(fp)
    a6d8:	e0bff617 	ldw	r2,-40(fp)
    a6dc:	1885883a 	add	r2,r3,r2
    a6e0:	10c1ffcc 	andi	r3,r2,2047
    a6e4:	e0bffc17 	ldw	r2,-16(fp)
    a6e8:	10c00b15 	stw	r3,44(r2)
    }
    while (space > 0);
    a6ec:	e0bffe17 	ldw	r2,-8(fp)
    a6f0:	00bfcf16 	blt	zero,r2,a630 <altera_avalon_jtag_uart_read+0x2c>
    a6f4:	00000106 	br	a6fc <altera_avalon_jtag_uart_read+0xf8>
        n = in - out;
      else
        n = ALTERA_AVALON_JTAG_UART_BUF_LEN - out;

      if (n == 0)
        break; /* No more data available */
    a6f8:	0001883a 	nop
      sp->rx_out = (out + n) % ALTERA_AVALON_JTAG_UART_BUF_LEN;
    }
    while (space > 0);

    /* If we read any data then return it */
    if (ptr != buffer)
    a6fc:	e0fff517 	ldw	r3,-44(fp)
    a700:	e0bffd17 	ldw	r2,-12(fp)
    a704:	1880141e 	bne	r3,r2,a758 <altera_avalon_jtag_uart_read+0x154>
      break;

    /* If in non-blocking mode then return error */
    if (flags & O_NONBLOCK)
    a708:	e0bfff17 	ldw	r2,-4(fp)
    a70c:	1090000c 	andi	r2,r2,16384
    a710:	1000131e 	bne	r2,zero,a760 <altera_avalon_jtag_uart_read+0x15c>
      while (in == sp->rx_in && sp->host_inactive < sp->timeout)
        ;
    }
#else
    /* No OS: Always spin */
    while (in == sp->rx_in && sp->host_inactive < sp->timeout)
    a714:	0001883a 	nop
    a718:	e0bffc17 	ldw	r2,-16(fp)
    a71c:	10c00a17 	ldw	r3,40(r2)
    a720:	e0bff717 	ldw	r2,-36(fp)
    a724:	1880051e 	bne	r3,r2,a73c <altera_avalon_jtag_uart_read+0x138>
    a728:	e0bffc17 	ldw	r2,-16(fp)
    a72c:	10c00917 	ldw	r3,36(r2)
    a730:	e0bffc17 	ldw	r2,-16(fp)
    a734:	10800117 	ldw	r2,4(r2)
    a738:	18bff736 	bltu	r3,r2,a718 <altera_avalon_jtag_uart_read+0x114>
      ;
#endif /* __ucosii__ */

    if (in == sp->rx_in)
    a73c:	e0bffc17 	ldw	r2,-16(fp)
    a740:	10c00a17 	ldw	r3,40(r2)
    a744:	e0bff717 	ldw	r2,-36(fp)
    a748:	18800726 	beq	r3,r2,a768 <altera_avalon_jtag_uart_read+0x164>
   * When running in a multi threaded environment, obtain the "read_lock"
   * semaphore. This ensures that reading from the device is thread-safe.
   */
  ALT_SEM_PEND (sp->read_lock, 0);

  while (space > 0)
    a74c:	e0bffe17 	ldw	r2,-8(fp)
    a750:	00bfb716 	blt	zero,r2,a630 <altera_avalon_jtag_uart_read+0x2c>
    a754:	00000506 	br	a76c <altera_avalon_jtag_uart_read+0x168>
    }
    while (space > 0);

    /* If we read any data then return it */
    if (ptr != buffer)
      break;
    a758:	0001883a 	nop
    a75c:	00000306 	br	a76c <altera_avalon_jtag_uart_read+0x168>

    /* If in non-blocking mode then return error */
    if (flags & O_NONBLOCK)
      break;
    a760:	0001883a 	nop
    a764:	00000106 	br	a76c <altera_avalon_jtag_uart_read+0x168>
    while (in == sp->rx_in && sp->host_inactive < sp->timeout)
      ;
#endif /* __ucosii__ */

    if (in == sp->rx_in)
      break;
    a768:	0001883a 	nop
   * semaphore so that other threads can access the buffer.
   */

  ALT_SEM_POST (sp->read_lock);

  if (ptr != buffer)
    a76c:	e0fff517 	ldw	r3,-44(fp)
    a770:	e0bffd17 	ldw	r2,-12(fp)
    a774:	18801726 	beq	r3,r2,a7d4 <altera_avalon_jtag_uart_read+0x1d0>
static ALT_INLINE alt_irq_context ALT_ALWAYS_INLINE 
       alt_irq_disable_all (void)
{
  alt_irq_context context;

  NIOS2_READ_STATUS (context);
    a778:	0005303a 	rdctl	r2,status
    a77c:	e0bffa15 	stw	r2,-24(fp)

  NIOS2_WRITE_STATUS (context & ~NIOS2_STATUS_PIE_MSK);
    a780:	e0fffa17 	ldw	r3,-24(fp)
    a784:	00bfff84 	movi	r2,-2
    a788:	1884703a 	and	r2,r3,r2
    a78c:	1001703a 	wrctl	status,r2
  
  return context;
    a790:	e0bffa17 	ldw	r2,-24(fp)
  {
    /* If we read any data then there is space in the buffer so enable interrupts */
    context = alt_irq_disable_all();
    a794:	e0bff915 	stw	r2,-28(fp)
    sp->irq_enable |= ALTERA_AVALON_JTAG_UART_CONTROL_RE_MSK;
    a798:	e0bffc17 	ldw	r2,-16(fp)
    a79c:	10800817 	ldw	r2,32(r2)
    a7a0:	10c00054 	ori	r3,r2,1
    a7a4:	e0bffc17 	ldw	r2,-16(fp)
    a7a8:	10c00815 	stw	r3,32(r2)
    IOWR_ALTERA_AVALON_JTAG_UART_CONTROL(sp->base, sp->irq_enable);
    a7ac:	e0bffc17 	ldw	r2,-16(fp)
    a7b0:	10800017 	ldw	r2,0(r2)
    a7b4:	10800104 	addi	r2,r2,4
    a7b8:	e0fffc17 	ldw	r3,-16(fp)
    a7bc:	18c00817 	ldw	r3,32(r3)
    a7c0:	10c00035 	stwio	r3,0(r2)
    a7c4:	e0bff917 	ldw	r2,-28(fp)
    a7c8:	e0bffb15 	stw	r2,-20(fp)
  status &= ~NIOS2_STATUS_PIE_MSK;
  status |= (context & NIOS2_STATUS_PIE_MSK);
  
  NIOS2_WRITE_STATUS (status);
#else
  NIOS2_WRITE_STATUS (context);
    a7cc:	e0bffb17 	ldw	r2,-20(fp)
    a7d0:	1001703a 	wrctl	status,r2
    alt_irq_enable_all(context);
  }

  if (ptr != buffer)
    a7d4:	e0fff517 	ldw	r3,-44(fp)
    a7d8:	e0bffd17 	ldw	r2,-12(fp)
    a7dc:	18800426 	beq	r3,r2,a7f0 <altera_avalon_jtag_uart_read+0x1ec>
    return ptr - buffer;
    a7e0:	e0fff517 	ldw	r3,-44(fp)
    a7e4:	e0bffd17 	ldw	r2,-12(fp)
    a7e8:	1885c83a 	sub	r2,r3,r2
    a7ec:	00000606 	br	a808 <altera_avalon_jtag_uart_read+0x204>
  else if (flags & O_NONBLOCK)
    a7f0:	e0bfff17 	ldw	r2,-4(fp)
    a7f4:	1090000c 	andi	r2,r2,16384
    a7f8:	10000226 	beq	r2,zero,a804 <altera_avalon_jtag_uart_read+0x200>
    return -EWOULDBLOCK;
    a7fc:	00bffd44 	movi	r2,-11
    a800:	00000106 	br	a808 <altera_avalon_jtag_uart_read+0x204>
  else
    return -EIO;
    a804:	00bffec4 	movi	r2,-5
}
    a808:	e037883a 	mov	sp,fp
    a80c:	dfc00117 	ldw	ra,4(sp)
    a810:	df000017 	ldw	fp,0(sp)
    a814:	dec00204 	addi	sp,sp,8
    a818:	f800283a 	ret

0000a81c <altera_avalon_jtag_uart_write>:
/* ----------------------------------------------------------- */

int 
altera_avalon_jtag_uart_write(altera_avalon_jtag_uart_state* sp, 
  const char * ptr, int count, int flags)
{
    a81c:	defff304 	addi	sp,sp,-52
    a820:	dfc00c15 	stw	ra,48(sp)
    a824:	df000b15 	stw	fp,44(sp)
    a828:	df000b04 	addi	fp,sp,44
    a82c:	e13ffc15 	stw	r4,-16(fp)
    a830:	e17ffd15 	stw	r5,-12(fp)
    a834:	e1bffe15 	stw	r6,-8(fp)
    a838:	e1ffff15 	stw	r7,-4(fp)
  /* Remove warning at optimisation level 03 by seting out to 0 */
  unsigned int in, out=0;
    a83c:	e03ff515 	stw	zero,-44(fp)
  unsigned int n;
  alt_irq_context context;

  const char * start = ptr;
    a840:	e0bffd17 	ldw	r2,-12(fp)
    a844:	e0bff715 	stw	r2,-36(fp)
  ALT_SEM_PEND (sp->write_lock, 0);

  do
  {
    /* Copy as much as we can into the transmit buffer */
    while (count > 0)
    a848:	00003706 	br	a928 <altera_avalon_jtag_uart_write+0x10c>
    {
      /* We need a stable value of the out pointer to calculate the space available */
      in  = sp->tx_in;
    a84c:	e0bffc17 	ldw	r2,-16(fp)
    a850:	10800c17 	ldw	r2,48(r2)
    a854:	e0bff815 	stw	r2,-32(fp)
      out = sp->tx_out;
    a858:	e0bffc17 	ldw	r2,-16(fp)
    a85c:	10800d17 	ldw	r2,52(r2)
    a860:	e0bff515 	stw	r2,-44(fp)

      if (in < out)
    a864:	e0fff817 	ldw	r3,-32(fp)
    a868:	e0bff517 	ldw	r2,-44(fp)
    a86c:	1880062e 	bgeu	r3,r2,a888 <altera_avalon_jtag_uart_write+0x6c>
        n = out - 1 - in;
    a870:	e0fff517 	ldw	r3,-44(fp)
    a874:	e0bff817 	ldw	r2,-32(fp)
    a878:	1885c83a 	sub	r2,r3,r2
    a87c:	10bfffc4 	addi	r2,r2,-1
    a880:	e0bff615 	stw	r2,-40(fp)
    a884:	00000b06 	br	a8b4 <altera_avalon_jtag_uart_write+0x98>
      else if (out > 0)
    a888:	e0bff517 	ldw	r2,-44(fp)
    a88c:	10000526 	beq	r2,zero,a8a4 <altera_avalon_jtag_uart_write+0x88>
        n = ALTERA_AVALON_JTAG_UART_BUF_LEN - in;
    a890:	00c20004 	movi	r3,2048
    a894:	e0bff817 	ldw	r2,-32(fp)
    a898:	1885c83a 	sub	r2,r3,r2
    a89c:	e0bff615 	stw	r2,-40(fp)
    a8a0:	00000406 	br	a8b4 <altera_avalon_jtag_uart_write+0x98>
      else
        n = ALTERA_AVALON_JTAG_UART_BUF_LEN - 1 - in;
    a8a4:	00c1ffc4 	movi	r3,2047
    a8a8:	e0bff817 	ldw	r2,-32(fp)
    a8ac:	1885c83a 	sub	r2,r3,r2
    a8b0:	e0bff615 	stw	r2,-40(fp)

      if (n == 0)
    a8b4:	e0bff617 	ldw	r2,-40(fp)
    a8b8:	10001e26 	beq	r2,zero,a934 <altera_avalon_jtag_uart_write+0x118>
        break;

      if (n > count)
    a8bc:	e0fffe17 	ldw	r3,-8(fp)
    a8c0:	e0bff617 	ldw	r2,-40(fp)
    a8c4:	1880022e 	bgeu	r3,r2,a8d0 <altera_avalon_jtag_uart_write+0xb4>
        n = count;
    a8c8:	e0bffe17 	ldw	r2,-8(fp)
    a8cc:	e0bff615 	stw	r2,-40(fp)

      memcpy(sp->tx_buf + in, ptr, n);
    a8d0:	e0bff817 	ldw	r2,-32(fp)
    a8d4:	10820e04 	addi	r2,r2,2104
    a8d8:	e0fffc17 	ldw	r3,-16(fp)
    a8dc:	1885883a 	add	r2,r3,r2
    a8e0:	1009883a 	mov	r4,r2
    a8e4:	e17ffd17 	ldw	r5,-12(fp)
    a8e8:	e1bff617 	ldw	r6,-40(fp)
    a8ec:	000c1480 	call	c148 <memcpy>
      ptr   += n;
    a8f0:	e0fffd17 	ldw	r3,-12(fp)
    a8f4:	e0bff617 	ldw	r2,-40(fp)
    a8f8:	1885883a 	add	r2,r3,r2
    a8fc:	e0bffd15 	stw	r2,-12(fp)
      count -= n;
    a900:	e0fffe17 	ldw	r3,-8(fp)
    a904:	e0bff617 	ldw	r2,-40(fp)
    a908:	1885c83a 	sub	r2,r3,r2
    a90c:	e0bffe15 	stw	r2,-8(fp)

      sp->tx_in = (in + n) % ALTERA_AVALON_JTAG_UART_BUF_LEN;
    a910:	e0fff817 	ldw	r3,-32(fp)
    a914:	e0bff617 	ldw	r2,-40(fp)
    a918:	1885883a 	add	r2,r3,r2
    a91c:	10c1ffcc 	andi	r3,r2,2047
    a920:	e0bffc17 	ldw	r2,-16(fp)
    a924:	10c00c15 	stw	r3,48(r2)
  ALT_SEM_PEND (sp->write_lock, 0);

  do
  {
    /* Copy as much as we can into the transmit buffer */
    while (count > 0)
    a928:	e0bffe17 	ldw	r2,-8(fp)
    a92c:	00bfc716 	blt	zero,r2,a84c <altera_avalon_jtag_uart_write+0x30>
    a930:	00000106 	br	a938 <altera_avalon_jtag_uart_write+0x11c>
        n = ALTERA_AVALON_JTAG_UART_BUF_LEN - in;
      else
        n = ALTERA_AVALON_JTAG_UART_BUF_LEN - 1 - in;

      if (n == 0)
        break;
    a934:	0001883a 	nop
static ALT_INLINE alt_irq_context ALT_ALWAYS_INLINE 
       alt_irq_disable_all (void)
{
  alt_irq_context context;

  NIOS2_READ_STATUS (context);
    a938:	0005303a 	rdctl	r2,status
    a93c:	e0bffa15 	stw	r2,-24(fp)

  NIOS2_WRITE_STATUS (context & ~NIOS2_STATUS_PIE_MSK);
    a940:	e0fffa17 	ldw	r3,-24(fp)
    a944:	00bfff84 	movi	r2,-2
    a948:	1884703a 	and	r2,r3,r2
    a94c:	1001703a 	wrctl	status,r2
  
  return context;
    a950:	e0bffa17 	ldw	r2,-24(fp)
     * to enable interrupts if there is no space left in the FIFO
     *
     * For now kick the interrupt routine every time to make it transmit 
     * the data 
     */
    context = alt_irq_disable_all();
    a954:	e0bff915 	stw	r2,-28(fp)
    sp->irq_enable |= ALTERA_AVALON_JTAG_UART_CONTROL_WE_MSK;
    a958:	e0bffc17 	ldw	r2,-16(fp)
    a95c:	10800817 	ldw	r2,32(r2)
    a960:	10c00094 	ori	r3,r2,2
    a964:	e0bffc17 	ldw	r2,-16(fp)
    a968:	10c00815 	stw	r3,32(r2)
    IOWR_ALTERA_AVALON_JTAG_UART_CONTROL(sp->base, sp->irq_enable);
    a96c:	e0bffc17 	ldw	r2,-16(fp)
    a970:	10800017 	ldw	r2,0(r2)
    a974:	10800104 	addi	r2,r2,4
    a978:	e0fffc17 	ldw	r3,-16(fp)
    a97c:	18c00817 	ldw	r3,32(r3)
    a980:	10c00035 	stwio	r3,0(r2)
    a984:	e0bff917 	ldw	r2,-28(fp)
    a988:	e0bffb15 	stw	r2,-20(fp)
  status &= ~NIOS2_STATUS_PIE_MSK;
  status |= (context & NIOS2_STATUS_PIE_MSK);
  
  NIOS2_WRITE_STATUS (status);
#else
  NIOS2_WRITE_STATUS (context);
    a98c:	e0bffb17 	ldw	r2,-20(fp)
    a990:	1001703a 	wrctl	status,r2
    /* 
     * If there is any data left then either return now or block until 
     * some has been sent 
     */
    /* consider: test whether there is anything there while doing this and delay for at most 2s. */
    if (count > 0)
    a994:	e0bffe17 	ldw	r2,-8(fp)
    a998:	0080110e 	bge	zero,r2,a9e0 <altera_avalon_jtag_uart_write+0x1c4>
    {
      if (flags & O_NONBLOCK)
    a99c:	e0bfff17 	ldw	r2,-4(fp)
    a9a0:	1090000c 	andi	r2,r2,16384
    a9a4:	1000111e 	bne	r2,zero,a9ec <altera_avalon_jtag_uart_write+0x1d0>
      /*
       * No OS present: Always wait for data to be removed from buffer.  Once
       * the interrupt routine has removed some data then we will be able to
       * insert some more.
       */
      while (out == sp->tx_out && sp->host_inactive < sp->timeout)
    a9a8:	0001883a 	nop
    a9ac:	e0bffc17 	ldw	r2,-16(fp)
    a9b0:	10c00d17 	ldw	r3,52(r2)
    a9b4:	e0bff517 	ldw	r2,-44(fp)
    a9b8:	1880051e 	bne	r3,r2,a9d0 <altera_avalon_jtag_uart_write+0x1b4>
    a9bc:	e0bffc17 	ldw	r2,-16(fp)
    a9c0:	10c00917 	ldw	r3,36(r2)
    a9c4:	e0bffc17 	ldw	r2,-16(fp)
    a9c8:	10800117 	ldw	r2,4(r2)
    a9cc:	18bff736 	bltu	r3,r2,a9ac <altera_avalon_jtag_uart_write+0x190>
        ;
#endif /* __ucosii__ */

      if (out == sp->tx_out)
    a9d0:	e0bffc17 	ldw	r2,-16(fp)
    a9d4:	10c00d17 	ldw	r3,52(r2)
    a9d8:	e0bff517 	ldw	r2,-44(fp)
    a9dc:	18800526 	beq	r3,r2,a9f4 <altera_avalon_jtag_uart_write+0x1d8>
         break;
    }
  }
  while (count > 0);
    a9e0:	e0bffe17 	ldw	r2,-8(fp)
    a9e4:	00bfd016 	blt	zero,r2,a928 <altera_avalon_jtag_uart_write+0x10c>
    a9e8:	00000306 	br	a9f8 <altera_avalon_jtag_uart_write+0x1dc>
     */
    /* consider: test whether there is anything there while doing this and delay for at most 2s. */
    if (count > 0)
    {
      if (flags & O_NONBLOCK)
        break;
    a9ec:	0001883a 	nop
    a9f0:	00000106 	br	a9f8 <altera_avalon_jtag_uart_write+0x1dc>
      while (out == sp->tx_out && sp->host_inactive < sp->timeout)
        ;
#endif /* __ucosii__ */

      if (out == sp->tx_out)
         break;
    a9f4:	0001883a 	nop
   * Now that access to the circular buffer is complete, release the write
   * semaphore so that other threads can access the buffer.
   */
  ALT_SEM_POST (sp->write_lock);

  if (ptr != start)
    a9f8:	e0fffd17 	ldw	r3,-12(fp)
    a9fc:	e0bff717 	ldw	r2,-36(fp)
    aa00:	18800426 	beq	r3,r2,aa14 <altera_avalon_jtag_uart_write+0x1f8>
    return ptr - start;
    aa04:	e0fffd17 	ldw	r3,-12(fp)
    aa08:	e0bff717 	ldw	r2,-36(fp)
    aa0c:	1885c83a 	sub	r2,r3,r2
    aa10:	00000606 	br	aa2c <altera_avalon_jtag_uart_write+0x210>
  else if (flags & O_NONBLOCK)
    aa14:	e0bfff17 	ldw	r2,-4(fp)
    aa18:	1090000c 	andi	r2,r2,16384
    aa1c:	10000226 	beq	r2,zero,aa28 <altera_avalon_jtag_uart_write+0x20c>
    return -EWOULDBLOCK;
    aa20:	00bffd44 	movi	r2,-11
    aa24:	00000106 	br	aa2c <altera_avalon_jtag_uart_write+0x210>
    sp->tx_out = sp->tx_in = 0;
    return ptr - start + count;
  }
#endif
  else
    return -EIO; /* Host not connected */
    aa28:	00bffec4 	movi	r2,-5
}
    aa2c:	e037883a 	mov	sp,fp
    aa30:	dfc00117 	ldw	ra,4(sp)
    aa34:	df000017 	ldw	fp,0(sp)
    aa38:	dec00204 	addi	sp,sp,8
    aa3c:	f800283a 	ret

0000aa40 <epcs_read_status_register>:
#include "alt_types.h"
#include "epcs_commands.h"
#include "altera_avalon_spi.h"

alt_u8 epcs_read_status_register(alt_u32 base)
{
    aa40:	defff904 	addi	sp,sp,-28
    aa44:	dfc00615 	stw	ra,24(sp)
    aa48:	df000515 	stw	fp,20(sp)
    aa4c:	df000504 	addi	fp,sp,20
    aa50:	e13fff15 	stw	r4,-4(fp)
  const alt_u8 rdsr = epcs_rdsr;
    aa54:	00800144 	movi	r2,5
    aa58:	e0bffe05 	stb	r2,-8(fp)
  alt_u8 status;
  alt_avalon_spi_command(
    aa5c:	00800044 	movi	r2,1
    aa60:	d8800015 	stw	r2,0(sp)
    aa64:	e0bffe44 	addi	r2,fp,-7
    aa68:	d8800115 	stw	r2,4(sp)
    aa6c:	d8000215 	stw	zero,8(sp)
    aa70:	e13fff17 	ldw	r4,-4(fp)
    aa74:	000b883a 	mov	r5,zero
    aa78:	01800044 	movi	r6,1
    aa7c:	e1fffe04 	addi	r7,fp,-8
    aa80:	000bd300 	call	bd30 <alt_avalon_spi_command>
    1,
    &status,
    0
  );

  return status;
    aa84:	e0bffe43 	ldbu	r2,-7(fp)
}
    aa88:	e037883a 	mov	sp,fp
    aa8c:	dfc00117 	ldw	ra,4(sp)
    aa90:	df000017 	ldw	fp,0(sp)
    aa94:	dec00204 	addi	sp,sp,8
    aa98:	f800283a 	ret

0000aa9c <epcs_test_wip>:

static ALT_INLINE int epcs_test_wip(alt_u32 base)
{
    aa9c:	defffd04 	addi	sp,sp,-12
    aaa0:	dfc00215 	stw	ra,8(sp)
    aaa4:	df000115 	stw	fp,4(sp)
    aaa8:	df000104 	addi	fp,sp,4
    aaac:	e13fff15 	stw	r4,-4(fp)
  return epcs_read_status_register(base) & 1;
    aab0:	e13fff17 	ldw	r4,-4(fp)
    aab4:	000aa400 	call	aa40 <epcs_read_status_register>
    aab8:	10803fcc 	andi	r2,r2,255
    aabc:	1080004c 	andi	r2,r2,1
}
    aac0:	e037883a 	mov	sp,fp
    aac4:	dfc00117 	ldw	ra,4(sp)
    aac8:	df000017 	ldw	fp,0(sp)
    aacc:	dec00204 	addi	sp,sp,8
    aad0:	f800283a 	ret

0000aad4 <epcs_await_wip_released>:

static ALT_INLINE void epcs_await_wip_released(alt_u32 base)
{
    aad4:	defffd04 	addi	sp,sp,-12
    aad8:	dfc00215 	stw	ra,8(sp)
    aadc:	df000115 	stw	fp,4(sp)
    aae0:	df000104 	addi	fp,sp,4
    aae4:	e13fff15 	stw	r4,-4(fp)
  /* Wait until the WIP bit goes low. */
  while (epcs_test_wip(base))
    aae8:	0001883a 	nop
    aaec:	e13fff17 	ldw	r4,-4(fp)
    aaf0:	000aa9c0 	call	aa9c <epcs_test_wip>
    aaf4:	103ffd1e 	bne	r2,zero,aaec <epcs_await_wip_released+0x18>
  {
  }
}
    aaf8:	e037883a 	mov	sp,fp
    aafc:	dfc00117 	ldw	ra,4(sp)
    ab00:	df000017 	ldw	fp,0(sp)
    ab04:	dec00204 	addi	sp,sp,8
    ab08:	f800283a 	ret

0000ab0c <epcs_sector_erase>:

void epcs_sector_erase(alt_u32 base, alt_u32 offset, alt_u32 four_bytes_mode)
{
    ab0c:	defff604 	addi	sp,sp,-40
    ab10:	dfc00915 	stw	ra,36(sp)
    ab14:	df000815 	stw	fp,32(sp)
    ab18:	df000804 	addi	fp,sp,32
    ab1c:	e13ffd15 	stw	r4,-12(fp)
    ab20:	e17ffe15 	stw	r5,-8(fp)
    ab24:	e1bfff15 	stw	r6,-4(fp)
  alt_u8 se[5];
  alt_u8 len;
  
  if(four_bytes_mode)
    ab28:	e0bfff17 	ldw	r2,-4(fp)
    ab2c:	10001226 	beq	r2,zero,ab78 <epcs_sector_erase+0x6c>
  {
      se[0] = epcs_se;  /* Note: Use epcs_se for Micron EPCS256 */
    ab30:	00bff604 	movi	r2,-40
    ab34:	e0bffb45 	stb	r2,-19(fp)
      se[1] = (offset >> 24) & 0xFF;
    ab38:	e0bffe17 	ldw	r2,-8(fp)
    ab3c:	1004d63a 	srli	r2,r2,24
    ab40:	e0bffb85 	stb	r2,-18(fp)
      se[2] = (offset >> 16) & 0xFF;
    ab44:	e0bffe17 	ldw	r2,-8(fp)
    ab48:	1004d43a 	srli	r2,r2,16
    ab4c:	e0bffbc5 	stb	r2,-17(fp)
      se[3] = (offset >> 8) & 0xFF;
    ab50:	e0bffe17 	ldw	r2,-8(fp)
    ab54:	1004d23a 	srli	r2,r2,8
    ab58:	e0bffc05 	stb	r2,-16(fp)
      se[4] = offset & 0xFF;
    ab5c:	e0bffe17 	ldw	r2,-8(fp)
    ab60:	e0bffc45 	stb	r2,-15(fp)
      len   = 5;
    ab64:	00800144 	movi	r2,5
    ab68:	e0bffb05 	stb	r2,-20(fp)
      epcs_enter_4_bytes_mode(base);
    ab6c:	e13ffd17 	ldw	r4,-12(fp)
    ab70:	000afb40 	call	afb4 <epcs_enter_4_bytes_mode>
    ab74:	00000c06 	br	aba8 <epcs_sector_erase+0x9c>
  }
  else
  {
      se[0] = epcs_se;
    ab78:	00bff604 	movi	r2,-40
    ab7c:	e0bffb45 	stb	r2,-19(fp)
      se[1] = (offset >> 16) & 0xFF;
    ab80:	e0bffe17 	ldw	r2,-8(fp)
    ab84:	1004d43a 	srli	r2,r2,16
    ab88:	e0bffb85 	stb	r2,-18(fp)
      se[2] = (offset >> 8) & 0xFF;
    ab8c:	e0bffe17 	ldw	r2,-8(fp)
    ab90:	1004d23a 	srli	r2,r2,8
    ab94:	e0bffbc5 	stb	r2,-17(fp)
      se[3] = offset & 0xFF;
    ab98:	e0bffe17 	ldw	r2,-8(fp)
    ab9c:	e0bffc05 	stb	r2,-16(fp)
      len   = 4;
    aba0:	00800104 	movi	r2,4
    aba4:	e0bffb05 	stb	r2,-20(fp)
  }

  /* Execute a WREN instruction */
  epcs_write_enable(base);
    aba8:	e13ffd17 	ldw	r4,-12(fp)
    abac:	000acf80 	call	acf8 <epcs_write_enable>

  alt_avalon_spi_command(
    abb0:	e0fffb03 	ldbu	r3,-20(fp)
    base,
    0,
    len,
    se,
    abb4:	e0bffb44 	addi	r2,fp,-19
  }

  /* Execute a WREN instruction */
  epcs_write_enable(base);

  alt_avalon_spi_command(
    abb8:	d8000015 	stw	zero,0(sp)
    abbc:	d8000115 	stw	zero,4(sp)
    abc0:	d8000215 	stw	zero,8(sp)
    abc4:	e13ffd17 	ldw	r4,-12(fp)
    abc8:	000b883a 	mov	r5,zero
    abcc:	180d883a 	mov	r6,r3
    abd0:	100f883a 	mov	r7,r2
    abd4:	000bd300 	call	bd30 <alt_avalon_spi_command>
    0,
    (alt_u8*)0,
    0
  );

  epcs_await_wip_released(base);
    abd8:	e13ffd17 	ldw	r4,-12(fp)
    abdc:	000aad40 	call	aad4 <epcs_await_wip_released>

  if(four_bytes_mode)
    abe0:	e0bfff17 	ldw	r2,-4(fp)
    abe4:	10000226 	beq	r2,zero,abf0 <epcs_sector_erase+0xe4>
  {
    epcs_exit_4_bytes_mode(base);
    abe8:	e13ffd17 	ldw	r4,-12(fp)
    abec:	000b00c0 	call	b00c <epcs_exit_4_bytes_mode>
  }
}
    abf0:	e037883a 	mov	sp,fp
    abf4:	dfc00117 	ldw	ra,4(sp)
    abf8:	df000017 	ldw	fp,0(sp)
    abfc:	dec00204 	addi	sp,sp,8
    ac00:	f800283a 	ret

0000ac04 <epcs_read_buffer>:

alt_32 epcs_read_buffer(alt_u32 base, int offset, alt_u8 *dest_addr, int length,
                        alt_u32 four_bytes_mode)
{
    ac04:	defff404 	addi	sp,sp,-48
    ac08:	dfc00b15 	stw	ra,44(sp)
    ac0c:	df000a15 	stw	fp,40(sp)
    ac10:	df000a04 	addi	fp,sp,40
    ac14:	e13ffc15 	stw	r4,-16(fp)
    ac18:	e17ffd15 	stw	r5,-12(fp)
    ac1c:	e1bffe15 	stw	r6,-8(fp)
    ac20:	e1ffff15 	stw	r7,-4(fp)
  alt_u8 read_command[5];
  alt_u32 cmd_len;

  read_command[0] = epcs_read;
    ac24:	008000c4 	movi	r2,3
    ac28:	e0bffa05 	stb	r2,-24(fp)
  
  if(four_bytes_mode)
    ac2c:	e0800217 	ldw	r2,8(fp)
    ac30:	10001026 	beq	r2,zero,ac74 <epcs_read_buffer+0x70>
  {
        read_command[1] = (offset >> 24) & 0xFF;
    ac34:	e0bffd17 	ldw	r2,-12(fp)
    ac38:	1004d63a 	srli	r2,r2,24
    ac3c:	e0bffa45 	stb	r2,-23(fp)
        read_command[2] = (offset >> 16) & 0xFF;
    ac40:	e0bffd17 	ldw	r2,-12(fp)
    ac44:	1005d43a 	srai	r2,r2,16
    ac48:	e0bffa85 	stb	r2,-22(fp)
        read_command[3] = (offset >> 8) & 0xFF;
    ac4c:	e0bffd17 	ldw	r2,-12(fp)
    ac50:	1005d23a 	srai	r2,r2,8
    ac54:	e0bffac5 	stb	r2,-21(fp)
        read_command[4] = offset & 0xFF;
    ac58:	e0bffd17 	ldw	r2,-12(fp)
    ac5c:	e0bffb05 	stb	r2,-20(fp)
        cmd_len = 5;
    ac60:	00800144 	movi	r2,5
    ac64:	e0bff915 	stw	r2,-28(fp)
        epcs_enter_4_bytes_mode(base);
    ac68:	e13ffc17 	ldw	r4,-16(fp)
    ac6c:	000afb40 	call	afb4 <epcs_enter_4_bytes_mode>
    ac70:	00000a06 	br	ac9c <epcs_read_buffer+0x98>
  }
  else
  {
        read_command[1] = (offset >> 16) & 0xFF;
    ac74:	e0bffd17 	ldw	r2,-12(fp)
    ac78:	1005d43a 	srai	r2,r2,16
    ac7c:	e0bffa45 	stb	r2,-23(fp)
        read_command[2] = (offset >> 8) & 0xFF;
    ac80:	e0bffd17 	ldw	r2,-12(fp)
    ac84:	1005d23a 	srai	r2,r2,8
    ac88:	e0bffa85 	stb	r2,-22(fp)
        read_command[3] = offset & 0xFF;
    ac8c:	e0bffd17 	ldw	r2,-12(fp)
    ac90:	e0bffac5 	stb	r2,-21(fp)
        cmd_len = 4;
    ac94:	00800104 	movi	r2,4
    ac98:	e0bff915 	stw	r2,-28(fp)
  }

  epcs_await_wip_released(base);
    ac9c:	e13ffc17 	ldw	r4,-16(fp)
    aca0:	000aad40 	call	aad4 <epcs_await_wip_released>

  alt_avalon_spi_command(
    aca4:	e0ffff17 	ldw	r3,-4(fp)
    base,
    0,
    cmd_len,
    read_command,
    aca8:	e0bffa04 	addi	r2,fp,-24
        cmd_len = 4;
  }

  epcs_await_wip_released(base);

  alt_avalon_spi_command(
    acac:	d8c00015 	stw	r3,0(sp)
    acb0:	e0fffe17 	ldw	r3,-8(fp)
    acb4:	d8c00115 	stw	r3,4(sp)
    acb8:	d8000215 	stw	zero,8(sp)
    acbc:	e13ffc17 	ldw	r4,-16(fp)
    acc0:	000b883a 	mov	r5,zero
    acc4:	e1bff917 	ldw	r6,-28(fp)
    acc8:	100f883a 	mov	r7,r2
    accc:	000bd300 	call	bd30 <alt_avalon_spi_command>
    length,
    (alt_u8*)dest_addr,
    0
  );

  if(four_bytes_mode)
    acd0:	e0800217 	ldw	r2,8(fp)
    acd4:	10000226 	beq	r2,zero,ace0 <epcs_read_buffer+0xdc>
  {
    epcs_exit_4_bytes_mode(base);
    acd8:	e13ffc17 	ldw	r4,-16(fp)
    acdc:	000b00c0 	call	b00c <epcs_exit_4_bytes_mode>
  }

  return length;
    ace0:	e0bfff17 	ldw	r2,-4(fp)
}
    ace4:	e037883a 	mov	sp,fp
    ace8:	dfc00117 	ldw	ra,4(sp)
    acec:	df000017 	ldw	fp,0(sp)
    acf0:	dec00204 	addi	sp,sp,8
    acf4:	f800283a 	ret

0000acf8 <epcs_write_enable>:

void epcs_write_enable(alt_u32 base)
{
    acf8:	defff904 	addi	sp,sp,-28
    acfc:	dfc00615 	stw	ra,24(sp)
    ad00:	df000515 	stw	fp,20(sp)
    ad04:	df000504 	addi	fp,sp,20
    ad08:	e13fff15 	stw	r4,-4(fp)
  const alt_u8 wren = epcs_wren;
    ad0c:	00800184 	movi	r2,6
    ad10:	e0bffe05 	stb	r2,-8(fp)
  alt_avalon_spi_command(
    ad14:	d8000015 	stw	zero,0(sp)
    ad18:	d8000115 	stw	zero,4(sp)
    ad1c:	d8000215 	stw	zero,8(sp)
    ad20:	e13fff17 	ldw	r4,-4(fp)
    ad24:	000b883a 	mov	r5,zero
    ad28:	01800044 	movi	r6,1
    ad2c:	e1fffe04 	addi	r7,fp,-8
    ad30:	000bd300 	call	bd30 <alt_avalon_spi_command>
    &wren,
    0,
    (alt_u8*)0,
    0
  );
}
    ad34:	e037883a 	mov	sp,fp
    ad38:	dfc00117 	ldw	ra,4(sp)
    ad3c:	df000017 	ldw	fp,0(sp)
    ad40:	dec00204 	addi	sp,sp,8
    ad44:	f800283a 	ret

0000ad48 <epcs_write_status_register>:

void epcs_write_status_register(alt_u32 base, alt_u8 value)
{
    ad48:	defff804 	addi	sp,sp,-32
    ad4c:	dfc00715 	stw	ra,28(sp)
    ad50:	df000615 	stw	fp,24(sp)
    ad54:	df000604 	addi	fp,sp,24
    ad58:	e13ffe15 	stw	r4,-8(fp)
    ad5c:	2805883a 	mov	r2,r5
    ad60:	e0bfff05 	stb	r2,-4(fp)
  alt_u8 wrsr[2];
  
  wrsr[0] = epcs_wrsr;
    ad64:	00800044 	movi	r2,1
    ad68:	e0bffd05 	stb	r2,-12(fp)
  wrsr[1] = value;
    ad6c:	e0bfff03 	ldbu	r2,-4(fp)
    ad70:	e0bffd45 	stb	r2,-11(fp)

  alt_avalon_spi_command(
    ad74:	d8000015 	stw	zero,0(sp)
    ad78:	d8000115 	stw	zero,4(sp)
    ad7c:	d8000215 	stw	zero,8(sp)
    ad80:	e13ffe17 	ldw	r4,-8(fp)
    ad84:	000b883a 	mov	r5,zero
    ad88:	01800084 	movi	r6,2
    ad8c:	e1fffd04 	addi	r7,fp,-12
    ad90:	000bd300 	call	bd30 <alt_avalon_spi_command>
    0,
    (alt_u8*)0,
    0
  );

  epcs_await_wip_released(base);
    ad94:	e13ffe17 	ldw	r4,-8(fp)
    ad98:	000aad40 	call	aad4 <epcs_await_wip_released>
}
    ad9c:	e037883a 	mov	sp,fp
    ada0:	dfc00117 	ldw	ra,4(sp)
    ada4:	df000017 	ldw	fp,0(sp)
    ada8:	dec00204 	addi	sp,sp,8
    adac:	f800283a 	ret

0000adb0 <epcs_write_buffer>:

/* Write a partial or full page, assuming that page has been erased */
alt_32 epcs_write_buffer(alt_u32 base, int offset, const alt_u8* src_addr, 
                         int length, alt_u32 four_bytes_mode)
{
    adb0:	defff404 	addi	sp,sp,-48
    adb4:	dfc00b15 	stw	ra,44(sp)
    adb8:	df000a15 	stw	fp,40(sp)
    adbc:	df000a04 	addi	fp,sp,40
    adc0:	e13ffc15 	stw	r4,-16(fp)
    adc4:	e17ffd15 	stw	r5,-12(fp)
    adc8:	e1bffe15 	stw	r6,-8(fp)
    adcc:	e1ffff15 	stw	r7,-4(fp)
  alt_u8 pp[5];
  alt_u32 cmd_len;
  
  pp[0] = epcs_pp;
    add0:	00800084 	movi	r2,2
    add4:	e0bffa05 	stb	r2,-24(fp)
  
  if(four_bytes_mode)
    add8:	e0800217 	ldw	r2,8(fp)
    addc:	10001026 	beq	r2,zero,ae20 <epcs_write_buffer+0x70>
  {
      pp[1] = (offset >> 24) & 0xFF;
    ade0:	e0bffd17 	ldw	r2,-12(fp)
    ade4:	1004d63a 	srli	r2,r2,24
    ade8:	e0bffa45 	stb	r2,-23(fp)
      pp[2] = (offset >> 16) & 0xFF;
    adec:	e0bffd17 	ldw	r2,-12(fp)
    adf0:	1005d43a 	srai	r2,r2,16
    adf4:	e0bffa85 	stb	r2,-22(fp)
      pp[3] = (offset >> 8) & 0xFF;
    adf8:	e0bffd17 	ldw	r2,-12(fp)
    adfc:	1005d23a 	srai	r2,r2,8
    ae00:	e0bffac5 	stb	r2,-21(fp)
      pp[4] = offset & 0xFF;
    ae04:	e0bffd17 	ldw	r2,-12(fp)
    ae08:	e0bffb05 	stb	r2,-20(fp)
      cmd_len = 5;
    ae0c:	00800144 	movi	r2,5
    ae10:	e0bff915 	stw	r2,-28(fp)
      epcs_enter_4_bytes_mode(base);
    ae14:	e13ffc17 	ldw	r4,-16(fp)
    ae18:	000afb40 	call	afb4 <epcs_enter_4_bytes_mode>
    ae1c:	00000a06 	br	ae48 <epcs_write_buffer+0x98>
  }
  else
  {
      pp[1] = (offset >> 16) & 0xFF;
    ae20:	e0bffd17 	ldw	r2,-12(fp)
    ae24:	1005d43a 	srai	r2,r2,16
    ae28:	e0bffa45 	stb	r2,-23(fp)
      pp[2] = (offset >> 8) & 0xFF;
    ae2c:	e0bffd17 	ldw	r2,-12(fp)
    ae30:	1005d23a 	srai	r2,r2,8
    ae34:	e0bffa85 	stb	r2,-22(fp)
      pp[3] = offset & 0xFF;
    ae38:	e0bffd17 	ldw	r2,-12(fp)
    ae3c:	e0bffac5 	stb	r2,-21(fp)
      cmd_len = 4;
    ae40:	00800104 	movi	r2,4
    ae44:	e0bff915 	stw	r2,-28(fp)
  }

  /* First, WREN */
  epcs_write_enable(base);
    ae48:	e13ffc17 	ldw	r4,-16(fp)
    ae4c:	000acf80 	call	acf8 <epcs_write_enable>
  /* Send the PP command */
  alt_avalon_spi_command(
    base,
    0,
    cmd_len,
    pp,
    ae50:	e0bffa04 	addi	r2,fp,-24

  /* First, WREN */
  epcs_write_enable(base);

  /* Send the PP command */
  alt_avalon_spi_command(
    ae54:	d8000015 	stw	zero,0(sp)
    ae58:	d8000115 	stw	zero,4(sp)
    ae5c:	00c00044 	movi	r3,1
    ae60:	d8c00215 	stw	r3,8(sp)
    ae64:	e13ffc17 	ldw	r4,-16(fp)
    ae68:	000b883a 	mov	r5,zero
    ae6c:	e1bff917 	ldw	r6,-28(fp)
    ae70:	100f883a 	mov	r7,r2
    ae74:	000bd300 	call	bd30 <alt_avalon_spi_command>
    (alt_u8*)0,
    ALT_AVALON_SPI_COMMAND_MERGE
  );

  /* Send the user's buffer */
  alt_avalon_spi_command(
    ae78:	e0bfff17 	ldw	r2,-4(fp)
    ae7c:	d8000015 	stw	zero,0(sp)
    ae80:	d8000115 	stw	zero,4(sp)
    ae84:	d8000215 	stw	zero,8(sp)
    ae88:	e13ffc17 	ldw	r4,-16(fp)
    ae8c:	000b883a 	mov	r5,zero
    ae90:	100d883a 	mov	r6,r2
    ae94:	e1fffe17 	ldw	r7,-8(fp)
    ae98:	000bd300 	call	bd30 <alt_avalon_spi_command>
   * if the user's going to go off and ignore the flash for
   * a while, its writes could occur in parallel with user code
   * execution.  Unfortunately, I have to guard all reads/writes
   * with wip-tests, to make that happen.
   */
  epcs_await_wip_released(base);
    ae9c:	e13ffc17 	ldw	r4,-16(fp)
    aea0:	000aad40 	call	aad4 <epcs_await_wip_released>

  if(four_bytes_mode)
    aea4:	e0800217 	ldw	r2,8(fp)
    aea8:	10000226 	beq	r2,zero,aeb4 <epcs_write_buffer+0x104>
  {
    epcs_exit_4_bytes_mode(base);
    aeac:	e13ffc17 	ldw	r4,-16(fp)
    aeb0:	000b00c0 	call	b00c <epcs_exit_4_bytes_mode>
  }

  return length;
    aeb4:	e0bfff17 	ldw	r2,-4(fp)
}
    aeb8:	e037883a 	mov	sp,fp
    aebc:	dfc00117 	ldw	ra,4(sp)
    aec0:	df000017 	ldw	fp,0(sp)
    aec4:	dec00204 	addi	sp,sp,8
    aec8:	f800283a 	ret

0000aecc <epcs_read_electronic_signature>:


alt_u8 epcs_read_electronic_signature(alt_u32 base)
{
    aecc:	defff804 	addi	sp,sp,-32
    aed0:	dfc00715 	stw	ra,28(sp)
    aed4:	df000615 	stw	fp,24(sp)
    aed8:	df000604 	addi	fp,sp,24
    aedc:	e13fff15 	stw	r4,-4(fp)
  const alt_u8 res_cmd[] = {epcs_res, 0, 0, 0};
    aee0:	00bfeac4 	movi	r2,-85
    aee4:	e0bffd05 	stb	r2,-12(fp)
    aee8:	e03ffd45 	stb	zero,-11(fp)
    aeec:	e03ffd85 	stb	zero,-10(fp)
    aef0:	e03ffdc5 	stb	zero,-9(fp)
  alt_u8 res;

  alt_avalon_spi_command(
    aef4:	00800044 	movi	r2,1
    aef8:	d8800015 	stw	r2,0(sp)
    aefc:	e0bffe04 	addi	r2,fp,-8
    af00:	d8800115 	stw	r2,4(sp)
    af04:	d8000215 	stw	zero,8(sp)
    af08:	e13fff17 	ldw	r4,-4(fp)
    af0c:	000b883a 	mov	r5,zero
    af10:	01800104 	movi	r6,4
    af14:	e1fffd04 	addi	r7,fp,-12
    af18:	000bd300 	call	bd30 <alt_avalon_spi_command>
    1,
    &res,
    0
  );

  return res;
    af1c:	e0bffe03 	ldbu	r2,-8(fp)
}
    af20:	e037883a 	mov	sp,fp
    af24:	dfc00117 	ldw	ra,4(sp)
    af28:	df000017 	ldw	fp,0(sp)
    af2c:	dec00204 	addi	sp,sp,8
    af30:	f800283a 	ret

0000af34 <epcs_read_device_id>:

alt_u32 epcs_read_device_id(alt_u32 base)
{
    af34:	defff904 	addi	sp,sp,-28
    af38:	dfc00615 	stw	ra,24(sp)
    af3c:	df000515 	stw	fp,20(sp)
    af40:	df000504 	addi	fp,sp,20
    af44:	e13fff15 	stw	r4,-4(fp)
  const alt_u8 rd_id_cmd[] = {epcs_rdid};
    af48:	00bfe7c4 	movi	r2,-97
    af4c:	e0bffe05 	stb	r2,-8(fp)
  alt_u8 id[3];

  alt_avalon_spi_command(
    af50:	008000c4 	movi	r2,3
    af54:	d8800015 	stw	r2,0(sp)
    base,
    0,
    sizeof(rd_id_cmd) / sizeof(*rd_id_cmd),
    rd_id_cmd,
    3,
    id,
    af58:	e0bffe44 	addi	r2,fp,-7
alt_u32 epcs_read_device_id(alt_u32 base)
{
  const alt_u8 rd_id_cmd[] = {epcs_rdid};
  alt_u8 id[3];

  alt_avalon_spi_command(
    af5c:	d8800115 	stw	r2,4(sp)
    af60:	d8000215 	stw	zero,8(sp)
    af64:	e13fff17 	ldw	r4,-4(fp)
    af68:	000b883a 	mov	r5,zero
    af6c:	01800044 	movi	r6,1
    af70:	e1fffe04 	addi	r7,fp,-8
    af74:	000bd300 	call	bd30 <alt_avalon_spi_command>
    3,
    id,
    0
  );

  return (alt_u32) ((id[0] << 16) | (id[1] << 8) | id[2]);
    af78:	e0bffe43 	ldbu	r2,-7(fp)
    af7c:	10803fcc 	andi	r2,r2,255
    af80:	1006943a 	slli	r3,r2,16
    af84:	e0bffe83 	ldbu	r2,-6(fp)
    af88:	10803fcc 	andi	r2,r2,255
    af8c:	1004923a 	slli	r2,r2,8
    af90:	1886b03a 	or	r3,r3,r2
    af94:	e0bffec3 	ldbu	r2,-5(fp)
    af98:	10803fcc 	andi	r2,r2,255
    af9c:	1884b03a 	or	r2,r3,r2
}
    afa0:	e037883a 	mov	sp,fp
    afa4:	dfc00117 	ldw	ra,4(sp)
    afa8:	df000017 	ldw	fp,0(sp)
    afac:	dec00204 	addi	sp,sp,8
    afb0:	f800283a 	ret

0000afb4 <epcs_enter_4_bytes_mode>:

void epcs_enter_4_bytes_mode(alt_u32 base)
{
    afb4:	defff904 	addi	sp,sp,-28
    afb8:	dfc00615 	stw	ra,24(sp)
    afbc:	df000515 	stw	fp,20(sp)
    afc0:	df000504 	addi	fp,sp,20
    afc4:	e13fff15 	stw	r4,-4(fp)
  const alt_u8 en4b_cmd = epcs_en4b;
    afc8:	00bfedc4 	movi	r2,-73
    afcc:	e0bffe05 	stb	r2,-8(fp)

  /* First, WREN */
  epcs_write_enable(base);
    afd0:	e13fff17 	ldw	r4,-4(fp)
    afd4:	000acf80 	call	acf8 <epcs_write_enable>

  alt_avalon_spi_command(
    afd8:	d8000015 	stw	zero,0(sp)
    afdc:	d8000115 	stw	zero,4(sp)
    afe0:	d8000215 	stw	zero,8(sp)
    afe4:	e13fff17 	ldw	r4,-4(fp)
    afe8:	000b883a 	mov	r5,zero
    afec:	01800044 	movi	r6,1
    aff0:	e1fffe04 	addi	r7,fp,-8
    aff4:	000bd300 	call	bd30 <alt_avalon_spi_command>
    (alt_u8*)0,
    0
  );

  return;
}
    aff8:	e037883a 	mov	sp,fp
    affc:	dfc00117 	ldw	ra,4(sp)
    b000:	df000017 	ldw	fp,0(sp)
    b004:	dec00204 	addi	sp,sp,8
    b008:	f800283a 	ret

0000b00c <epcs_exit_4_bytes_mode>:

void epcs_exit_4_bytes_mode(alt_u32 base)
{
    b00c:	defff904 	addi	sp,sp,-28
    b010:	dfc00615 	stw	ra,24(sp)
    b014:	df000515 	stw	fp,20(sp)
    b018:	df000504 	addi	fp,sp,20
    b01c:	e13fff15 	stw	r4,-4(fp)
  const alt_u8 exit4b_cmd = epcs_dis4b;
    b020:	00bffa44 	movi	r2,-23
    b024:	e0bffe05 	stb	r2,-8(fp)

  /* First, WREN */
  epcs_write_enable(base);
    b028:	e13fff17 	ldw	r4,-4(fp)
    b02c:	000acf80 	call	acf8 <epcs_write_enable>

  alt_avalon_spi_command(
    b030:	d8000015 	stw	zero,0(sp)
    b034:	d8000115 	stw	zero,4(sp)
    b038:	d8000215 	stw	zero,8(sp)
    b03c:	e13fff17 	ldw	r4,-4(fp)
    b040:	000b883a 	mov	r5,zero
    b044:	01800044 	movi	r6,1
    b048:	e1fffe04 	addi	r7,fp,-8
    b04c:	000bd300 	call	bd30 <alt_avalon_spi_command>
    (alt_u8*)0,
    0
  );

  return;
}
    b050:	e037883a 	mov	sp,fp
    b054:	dfc00117 	ldw	ra,4(sp)
    b058:	df000017 	ldw	fp,0(sp)
    b05c:	dec00204 	addi	sp,sp,8
    b060:	f800283a 	ret

0000b064 <alt_alarm_start>:
 */ 

int alt_alarm_start (alt_alarm* alarm, alt_u32 nticks,
                     alt_u32 (*callback) (void* context),
                     void* context)
{
    b064:	defff504 	addi	sp,sp,-44
    b068:	df000a15 	stw	fp,40(sp)
    b06c:	df000a04 	addi	fp,sp,40
    b070:	e13ffc15 	stw	r4,-16(fp)
    b074:	e17ffd15 	stw	r5,-12(fp)
    b078:	e1bffe15 	stw	r6,-8(fp)
    b07c:	e1ffff15 	stw	r7,-4(fp)
  alt_irq_context irq_context;
  alt_u32 current_nticks = 0;
    b080:	e03ff615 	stw	zero,-40(fp)
    b084:	00800074 	movhi	r2,1
    b088:	10b5d304 	addi	r2,r2,-10420
    b08c:	10800017 	ldw	r2,0(r2)
  
  if (alt_ticks_per_second ())
    b090:	10003f26 	beq	r2,zero,b190 <alt_alarm_start+0x12c>
  {
    if (alarm)
    b094:	e0bffc17 	ldw	r2,-16(fp)
    b098:	10003b26 	beq	r2,zero,b188 <alt_alarm_start+0x124>
    {
      alarm->callback = callback;
    b09c:	e0bffc17 	ldw	r2,-16(fp)
    b0a0:	e0fffe17 	ldw	r3,-8(fp)
    b0a4:	10c00315 	stw	r3,12(r2)
      alarm->context  = context;
    b0a8:	e0bffc17 	ldw	r2,-16(fp)
    b0ac:	e0ffff17 	ldw	r3,-4(fp)
    b0b0:	10c00515 	stw	r3,20(r2)
static ALT_INLINE alt_irq_context ALT_ALWAYS_INLINE 
       alt_irq_disable_all (void)
{
  alt_irq_context context;

  NIOS2_READ_STATUS (context);
    b0b4:	0005303a 	rdctl	r2,status
    b0b8:	e0bff815 	stw	r2,-32(fp)

  NIOS2_WRITE_STATUS (context & ~NIOS2_STATUS_PIE_MSK);
    b0bc:	e0fff817 	ldw	r3,-32(fp)
    b0c0:	00bfff84 	movi	r2,-2
    b0c4:	1884703a 	and	r2,r3,r2
    b0c8:	1001703a 	wrctl	status,r2
  
  return context;
    b0cc:	e0bff817 	ldw	r2,-32(fp)
 
      irq_context = alt_irq_disable_all ();
    b0d0:	e0bff715 	stw	r2,-36(fp)
 * alt_nticks() returns the elapsed number of system clock ticks since reset.
 */

static ALT_INLINE alt_u32 ALT_ALWAYS_INLINE alt_nticks (void)
{
  return _alt_nticks;
    b0d4:	00800074 	movhi	r2,1
    b0d8:	10b5d404 	addi	r2,r2,-10416
    b0dc:	10800017 	ldw	r2,0(r2)
      
      current_nticks = alt_nticks();
    b0e0:	e0bff615 	stw	r2,-40(fp)
      
      alarm->time = nticks + current_nticks + 1; 
    b0e4:	e0fffd17 	ldw	r3,-12(fp)
    b0e8:	e0bff617 	ldw	r2,-40(fp)
    b0ec:	1885883a 	add	r2,r3,r2
    b0f0:	10c00044 	addi	r3,r2,1
    b0f4:	e0bffc17 	ldw	r2,-16(fp)
    b0f8:	10c00215 	stw	r3,8(r2)
      /* 
       * If the desired alarm time causes a roll-over, set the rollover
       * flag. This will prevent the subsequent tick event from causing
       * an alarm too early.
       */
      if(alarm->time < current_nticks)
    b0fc:	e0bffc17 	ldw	r2,-16(fp)
    b100:	10c00217 	ldw	r3,8(r2)
    b104:	e0bff617 	ldw	r2,-40(fp)
    b108:	1880042e 	bgeu	r3,r2,b11c <alt_alarm_start+0xb8>
      {
        alarm->rollover = 1;
    b10c:	e0bffc17 	ldw	r2,-16(fp)
    b110:	00c00044 	movi	r3,1
    b114:	10c00405 	stb	r3,16(r2)
    b118:	00000206 	br	b124 <alt_alarm_start+0xc0>
      }
      else
      {
        alarm->rollover = 0;
    b11c:	e0bffc17 	ldw	r2,-16(fp)
    b120:	10000405 	stb	zero,16(r2)
      }
    
      alt_llist_insert (&alt_alarm_list, &alarm->llist);
    b124:	e0bffc17 	ldw	r2,-16(fp)
    b128:	00c00074 	movhi	r3,1
    b12c:	18f5cc04 	addi	r3,r3,-10448
    b130:	e0fff915 	stw	r3,-28(fp)
    b134:	e0bffa15 	stw	r2,-24(fp)
 */

static ALT_INLINE void ALT_ALWAYS_INLINE alt_llist_insert(alt_llist* list, 
                alt_llist* entry)
{
  entry->previous = list;
    b138:	e0bffa17 	ldw	r2,-24(fp)
    b13c:	e0fff917 	ldw	r3,-28(fp)
    b140:	10c00115 	stw	r3,4(r2)
  entry->next     = list->next;
    b144:	e0bff917 	ldw	r2,-28(fp)
    b148:	10c00017 	ldw	r3,0(r2)
    b14c:	e0bffa17 	ldw	r2,-24(fp)
    b150:	10c00015 	stw	r3,0(r2)

  list->next->previous = entry;
    b154:	e0bff917 	ldw	r2,-28(fp)
    b158:	10800017 	ldw	r2,0(r2)
    b15c:	e0fffa17 	ldw	r3,-24(fp)
    b160:	10c00115 	stw	r3,4(r2)
  list->next           = entry;
    b164:	e0bff917 	ldw	r2,-28(fp)
    b168:	e0fffa17 	ldw	r3,-24(fp)
    b16c:	10c00015 	stw	r3,0(r2)
    b170:	e0bff717 	ldw	r2,-36(fp)
    b174:	e0bffb15 	stw	r2,-20(fp)
  status &= ~NIOS2_STATUS_PIE_MSK;
  status |= (context & NIOS2_STATUS_PIE_MSK);
  
  NIOS2_WRITE_STATUS (status);
#else
  NIOS2_WRITE_STATUS (context);
    b178:	e0bffb17 	ldw	r2,-20(fp)
    b17c:	1001703a 	wrctl	status,r2
      alt_irq_enable_all (irq_context);

      return 0;
    b180:	0005883a 	mov	r2,zero
    b184:	00000306 	br	b194 <alt_alarm_start+0x130>
    }
    else
    {
      return -EINVAL;
    b188:	00bffa84 	movi	r2,-22
    b18c:	00000106 	br	b194 <alt_alarm_start+0x130>
    }
  }
  else
  {
    return -ENOTSUP;
    b190:	00bfde84 	movi	r2,-134
  }
}
    b194:	e037883a 	mov	sp,fp
    b198:	df000017 	ldw	fp,0(sp)
    b19c:	dec00104 	addi	sp,sp,4
    b1a0:	f800283a 	ret

0000b1a4 <alt_get_errno>:
#undef errno

extern int errno;

static ALT_INLINE int* alt_get_errno(void)
{
    b1a4:	defffe04 	addi	sp,sp,-8
    b1a8:	dfc00115 	stw	ra,4(sp)
    b1ac:	df000015 	stw	fp,0(sp)
    b1b0:	d839883a 	mov	fp,sp
  return ((alt_errno) ? alt_errno() : &errno);
    b1b4:	00800074 	movhi	r2,1
    b1b8:	10b5ca04 	addi	r2,r2,-10456
    b1bc:	10800017 	ldw	r2,0(r2)
    b1c0:	10000526 	beq	r2,zero,b1d8 <alt_get_errno+0x34>
    b1c4:	00800074 	movhi	r2,1
    b1c8:	10b5ca04 	addi	r2,r2,-10456
    b1cc:	10800017 	ldw	r2,0(r2)
    b1d0:	103ee83a 	callr	r2
    b1d4:	00000206 	br	b1e0 <alt_get_errno+0x3c>
    b1d8:	00800074 	movhi	r2,1
    b1dc:	10b5ce04 	addi	r2,r2,-10440
}
    b1e0:	e037883a 	mov	sp,fp
    b1e4:	dfc00117 	ldw	ra,4(sp)
    b1e8:	df000017 	ldw	fp,0(sp)
    b1ec:	dec00204 	addi	sp,sp,8
    b1f0:	f800283a 	ret

0000b1f4 <close>:
 *
 * ALT_CLOSE is mapped onto the close() system call in alt_syscall.h
 */
 
int ALT_CLOSE (int fildes)
{
    b1f4:	defffb04 	addi	sp,sp,-20
    b1f8:	dfc00415 	stw	ra,16(sp)
    b1fc:	df000315 	stw	fp,12(sp)
    b200:	df000304 	addi	fp,sp,12
    b204:	e13fff15 	stw	r4,-4(fp)
   * A common error case is that when the file descriptor was created, the call
   * to open() failed resulting in a negative file descriptor. This is trapped
   * below so that we don't try and process an invalid file descriptor.
   */

  fd = (fildes < 0) ? NULL : &alt_fd_list[fildes];
    b208:	e0bfff17 	ldw	r2,-4(fp)
    b20c:	10000616 	blt	r2,zero,b228 <close+0x34>
    b210:	e0bfff17 	ldw	r2,-4(fp)
    b214:	10c00324 	muli	r3,r2,12
    b218:	00800074 	movhi	r2,1
    b21c:	10b56104 	addi	r2,r2,-10876
    b220:	1885883a 	add	r2,r3,r2
    b224:	00000106 	br	b22c <close+0x38>
    b228:	0005883a 	mov	r2,zero
    b22c:	e0bffd15 	stw	r2,-12(fp)

  if (fd)
    b230:	e0bffd17 	ldw	r2,-12(fp)
    b234:	10001826 	beq	r2,zero,b298 <close+0xa4>
    /*
     * If the associated file system/device has a close function, call it so 
     * that any necessary cleanup code can run.
     */

    rval = (fd->dev->close) ? fd->dev->close(fd) : 0;
    b238:	e0bffd17 	ldw	r2,-12(fp)
    b23c:	10800017 	ldw	r2,0(r2)
    b240:	10800417 	ldw	r2,16(r2)
    b244:	10000626 	beq	r2,zero,b260 <close+0x6c>
    b248:	e0bffd17 	ldw	r2,-12(fp)
    b24c:	10800017 	ldw	r2,0(r2)
    b250:	10800417 	ldw	r2,16(r2)
    b254:	e13ffd17 	ldw	r4,-12(fp)
    b258:	103ee83a 	callr	r2
    b25c:	00000106 	br	b264 <close+0x70>
    b260:	0005883a 	mov	r2,zero
    b264:	e0bffe15 	stw	r2,-8(fp)

    /* Free the file descriptor structure and return. */

    alt_release_fd (fildes);
    b268:	e13fff17 	ldw	r4,-4(fp)
    b26c:	000bb140 	call	bb14 <alt_release_fd>
    if (rval < 0)
    b270:	e0bffe17 	ldw	r2,-8(fp)
    b274:	1000060e 	bge	r2,zero,b290 <close+0x9c>
    {
      ALT_ERRNO = -rval;
    b278:	000b1a40 	call	b1a4 <alt_get_errno>
    b27c:	e0fffe17 	ldw	r3,-8(fp)
    b280:	00c7c83a 	sub	r3,zero,r3
    b284:	10c00015 	stw	r3,0(r2)
      return -1;
    b288:	00bfffc4 	movi	r2,-1
    b28c:	00000606 	br	b2a8 <close+0xb4>
    }
    return 0;
    b290:	0005883a 	mov	r2,zero
    b294:	00000406 	br	b2a8 <close+0xb4>
  }
  else
  {
    ALT_ERRNO = EBADFD;
    b298:	000b1a40 	call	b1a4 <alt_get_errno>
    b29c:	00c01444 	movi	r3,81
    b2a0:	10c00015 	stw	r3,0(r2)
    return -1;
    b2a4:	00bfffc4 	movi	r2,-1
  }
}
    b2a8:	e037883a 	mov	sp,fp
    b2ac:	dfc00117 	ldw	ra,4(sp)
    b2b0:	df000017 	ldw	fp,0(sp)
    b2b4:	dec00204 	addi	sp,sp,8
    b2b8:	f800283a 	ret

0000b2bc <alt_dev_null_write>:
 * by the alt_dev_null device. It simple discards all data passed to it, and
 * indicates that the data has been successfully transmitted.
 */

static int alt_dev_null_write (alt_fd* fd, const char* ptr, int len)
{
    b2bc:	defffc04 	addi	sp,sp,-16
    b2c0:	df000315 	stw	fp,12(sp)
    b2c4:	df000304 	addi	fp,sp,12
    b2c8:	e13ffd15 	stw	r4,-12(fp)
    b2cc:	e17ffe15 	stw	r5,-8(fp)
    b2d0:	e1bfff15 	stw	r6,-4(fp)
  return len;
    b2d4:	e0bfff17 	ldw	r2,-4(fp)
}
    b2d8:	e037883a 	mov	sp,fp
    b2dc:	df000017 	ldw	fp,0(sp)
    b2e0:	dec00104 	addi	sp,sp,4
    b2e4:	f800283a 	ret

0000b2e8 <alt_get_errno>:
#undef errno

extern int errno;

static ALT_INLINE int* alt_get_errno(void)
{
    b2e8:	defffe04 	addi	sp,sp,-8
    b2ec:	dfc00115 	stw	ra,4(sp)
    b2f0:	df000015 	stw	fp,0(sp)
    b2f4:	d839883a 	mov	fp,sp
  return ((alt_errno) ? alt_errno() : &errno);
    b2f8:	00800074 	movhi	r2,1
    b2fc:	10b5ca04 	addi	r2,r2,-10456
    b300:	10800017 	ldw	r2,0(r2)
    b304:	10000526 	beq	r2,zero,b31c <alt_get_errno+0x34>
    b308:	00800074 	movhi	r2,1
    b30c:	10b5ca04 	addi	r2,r2,-10456
    b310:	10800017 	ldw	r2,0(r2)
    b314:	103ee83a 	callr	r2
    b318:	00000206 	br	b324 <alt_get_errno+0x3c>
    b31c:	00800074 	movhi	r2,1
    b320:	10b5ce04 	addi	r2,r2,-10440
}
    b324:	e037883a 	mov	sp,fp
    b328:	dfc00117 	ldw	ra,4(sp)
    b32c:	df000017 	ldw	fp,0(sp)
    b330:	dec00204 	addi	sp,sp,8
    b334:	f800283a 	ret

0000b338 <alt_dev_llist_insert>:
/*
 *
 */

int alt_dev_llist_insert (alt_dev_llist* dev, alt_llist* list)
{
    b338:	defffa04 	addi	sp,sp,-24
    b33c:	dfc00515 	stw	ra,20(sp)
    b340:	df000415 	stw	fp,16(sp)
    b344:	df000404 	addi	fp,sp,16
    b348:	e13ffe15 	stw	r4,-8(fp)
    b34c:	e17fff15 	stw	r5,-4(fp)
  /*
   * check that the device exists, and that it has a valid name.
   */

  if (!dev || !dev->name)
    b350:	e0bffe17 	ldw	r2,-8(fp)
    b354:	10000326 	beq	r2,zero,b364 <alt_dev_llist_insert+0x2c>
    b358:	e0bffe17 	ldw	r2,-8(fp)
    b35c:	10800217 	ldw	r2,8(r2)
    b360:	1000051e 	bne	r2,zero,b378 <alt_dev_llist_insert+0x40>
  {
    ALT_ERRNO = EINVAL;
    b364:	000b2e80 	call	b2e8 <alt_get_errno>
    b368:	00c00584 	movi	r3,22
    b36c:	10c00015 	stw	r3,0(r2)
    return -EINVAL;
    b370:	00bffa84 	movi	r2,-22
    b374:	00001306 	br	b3c4 <alt_dev_llist_insert+0x8c>
  
  /*
   * register the device.
   */
  
  alt_llist_insert(list, &dev->llist);
    b378:	e0bffe17 	ldw	r2,-8(fp)
    b37c:	e0ffff17 	ldw	r3,-4(fp)
    b380:	e0fffc15 	stw	r3,-16(fp)
    b384:	e0bffd15 	stw	r2,-12(fp)
 */

static ALT_INLINE void ALT_ALWAYS_INLINE alt_llist_insert(alt_llist* list, 
                alt_llist* entry)
{
  entry->previous = list;
    b388:	e0bffd17 	ldw	r2,-12(fp)
    b38c:	e0fffc17 	ldw	r3,-16(fp)
    b390:	10c00115 	stw	r3,4(r2)
  entry->next     = list->next;
    b394:	e0bffc17 	ldw	r2,-16(fp)
    b398:	10c00017 	ldw	r3,0(r2)
    b39c:	e0bffd17 	ldw	r2,-12(fp)
    b3a0:	10c00015 	stw	r3,0(r2)

  list->next->previous = entry;
    b3a4:	e0bffc17 	ldw	r2,-16(fp)
    b3a8:	10800017 	ldw	r2,0(r2)
    b3ac:	e0fffd17 	ldw	r3,-12(fp)
    b3b0:	10c00115 	stw	r3,4(r2)
  list->next           = entry;
    b3b4:	e0bffc17 	ldw	r2,-16(fp)
    b3b8:	e0fffd17 	ldw	r3,-12(fp)
    b3bc:	10c00015 	stw	r3,0(r2)

  return 0;  
    b3c0:	0005883a 	mov	r2,zero
}
    b3c4:	e037883a 	mov	sp,fp
    b3c8:	dfc00117 	ldw	ra,4(sp)
    b3cc:	df000017 	ldw	fp,0(sp)
    b3d0:	dec00204 	addi	sp,sp,8
    b3d4:	f800283a 	ret

0000b3d8 <_exit>:
 *
 * ALT_EXIT is mapped onto the _exit() system call in alt_syscall.h
 */

void ALT_EXIT (int exit_code)
{
    b3d8:	defffc04 	addi	sp,sp,-16
    b3dc:	df000315 	stw	fp,12(sp)
    b3e0:	df000304 	addi	fp,sp,12
    b3e4:	e13fff15 	stw	r4,-4(fp)
  ALT_LOG_PRINT_BOOT("[alt_exit.c] Entering _exit() function.\r\n");
  ALT_LOG_PRINT_BOOT("[alt_exit.c] Exit code from main was %d.\r\n",exit_code);
  /* Stop all other threads */

  ALT_LOG_PRINT_BOOT("[alt_exit.c] Calling ALT_OS_STOP().\r\n");
  ALT_OS_STOP();
    b3e8:	0001883a 	nop
    b3ec:	e0bfff17 	ldw	r2,-4(fp)
    b3f0:	e0bffd15 	stw	r2,-12(fp)
/*
 * Routine called on exit.
 */
static ALT_INLINE ALT_ALWAYS_INLINE void alt_sim_halt(int exit_code)
{
  int r2 = exit_code;
    b3f4:	e0bffd17 	ldw	r2,-12(fp)
    b3f8:	e0bffe15 	stw	r2,-8(fp)
  __asm__ volatile ("\n0:\n\taddi %0,%0, -1\n\tbgt %0,zero,0b" : : "r" (ALT_CPU_FREQ/100) ); /* Delay for >30ms */

  __asm__ volatile ("break 2" : : "D02"(r2), "D03"(r3) ALT_GMON_DATA );

#else /* !DEBUG_STUB */
  if (r2) {
    b3fc:	e0bffe17 	ldw	r2,-8(fp)
    b400:	10000226 	beq	r2,zero,b40c <_exit+0x34>
    ALT_SIM_FAIL();
    b404:	002af070 	cmpltui	zero,zero,43969
    b408:	00000106 	br	b410 <_exit+0x38>
  } else {
    ALT_SIM_PASS();
    b40c:	002af0b0 	cmpltui	zero,zero,43970
  ALT_SIM_HALT(exit_code);

  /* spin forever, since there's no where to go back to */

  ALT_LOG_PRINT_BOOT("[alt_exit.c] Spinning forever.\r\n");
  while (1);
    b410:	003fff06 	br	b410 <_exit+0x38>

0000b414 <alt_find_dev>:
 * "name" must be an exact match for the devices registered name for a match to
 * be found.
 */
 
alt_dev* alt_find_dev(const char* name, alt_llist* llist)
{
    b414:	defffa04 	addi	sp,sp,-24
    b418:	dfc00515 	stw	ra,20(sp)
    b41c:	df000415 	stw	fp,16(sp)
    b420:	df000404 	addi	fp,sp,16
    b424:	e13ffe15 	stw	r4,-8(fp)
    b428:	e17fff15 	stw	r5,-4(fp)
  alt_dev* next = (alt_dev*) llist->next;
    b42c:	e0bfff17 	ldw	r2,-4(fp)
    b430:	10800017 	ldw	r2,0(r2)
    b434:	e0bffc15 	stw	r2,-16(fp)
  alt_32 len;

  len  = strlen(name) + 1;
    b438:	e13ffe17 	ldw	r4,-8(fp)
    b43c:	00088740 	call	8874 <strlen>
    b440:	10800044 	addi	r2,r2,1
    b444:	e0bffd15 	stw	r2,-12(fp)
  /*
   * Check each list entry in turn, until a match is found, or we reach the
   * end of the list (i.e. next winds up pointing back to the list head).
   */ 

  while (next != (alt_dev*) llist)
    b448:	00000d06 	br	b480 <alt_find_dev+0x6c>
    /* 
     * memcmp() is used here rather than strcmp() in order to reduce the size
     * of the executable.
     */

    if (!memcmp (next->name, name, len))
    b44c:	e0bffc17 	ldw	r2,-16(fp)
    b450:	10c00217 	ldw	r3,8(r2)
    b454:	e0bffd17 	ldw	r2,-12(fp)
    b458:	1809883a 	mov	r4,r3
    b45c:	e17ffe17 	ldw	r5,-8(fp)
    b460:	100d883a 	mov	r6,r2
    b464:	000c1000 	call	c100 <memcmp>
    b468:	1000021e 	bne	r2,zero,b474 <alt_find_dev+0x60>
    {
      /* match found */

      return next;
    b46c:	e0bffc17 	ldw	r2,-16(fp)
    b470:	00000706 	br	b490 <alt_find_dev+0x7c>
    }
    next = (alt_dev*) next->llist.next;
    b474:	e0bffc17 	ldw	r2,-16(fp)
    b478:	10800017 	ldw	r2,0(r2)
    b47c:	e0bffc15 	stw	r2,-16(fp)
  /*
   * Check each list entry in turn, until a match is found, or we reach the
   * end of the list (i.e. next winds up pointing back to the list head).
   */ 

  while (next != (alt_dev*) llist)
    b480:	e0fffc17 	ldw	r3,-16(fp)
    b484:	e0bfff17 	ldw	r2,-4(fp)
    b488:	18bff01e 	bne	r3,r2,b44c <alt_find_dev+0x38>
    next = (alt_dev*) next->llist.next;
  }
  
  /* No match found */
  
  return NULL;
    b48c:	0005883a 	mov	r2,zero
}
    b490:	e037883a 	mov	sp,fp
    b494:	dfc00117 	ldw	ra,4(sp)
    b498:	df000017 	ldw	fp,0(sp)
    b49c:	dec00204 	addi	sp,sp,8
    b4a0:	f800283a 	ret

0000b4a4 <alt_ic_isr_register>:
  * @param irq              IRQ number
  * @return                 0 if successful, else error (-1)
  */
int alt_ic_isr_register(alt_u32 ic_id, alt_u32 irq, alt_isr_func isr, 
  void *isr_context, void *flags)
{
    b4a4:	defff904 	addi	sp,sp,-28
    b4a8:	dfc00615 	stw	ra,24(sp)
    b4ac:	df000515 	stw	fp,20(sp)
    b4b0:	df000504 	addi	fp,sp,20
    b4b4:	e13ffc15 	stw	r4,-16(fp)
    b4b8:	e17ffd15 	stw	r5,-12(fp)
    b4bc:	e1bffe15 	stw	r6,-8(fp)
    b4c0:	e1ffff15 	stw	r7,-4(fp)
    return alt_iic_isr_register(ic_id, irq, isr, isr_context, flags);
    b4c4:	e0800217 	ldw	r2,8(fp)
    b4c8:	d8800015 	stw	r2,0(sp)
    b4cc:	e13ffc17 	ldw	r4,-16(fp)
    b4d0:	e17ffd17 	ldw	r5,-12(fp)
    b4d4:	e1bffe17 	ldw	r6,-8(fp)
    b4d8:	e1ffff17 	ldw	r7,-4(fp)
    b4dc:	000b67c0 	call	b67c <alt_iic_isr_register>
}  
    b4e0:	e037883a 	mov	sp,fp
    b4e4:	dfc00117 	ldw	ra,4(sp)
    b4e8:	df000017 	ldw	fp,0(sp)
    b4ec:	dec00204 	addi	sp,sp,8
    b4f0:	f800283a 	ret

0000b4f4 <alt_ic_irq_enable>:
  * @param ic_id            Ignored.
  * @param irq              IRQ number
  * @return                 0 if successful, else error (-1)
  */
int alt_ic_irq_enable (alt_u32 ic_id, alt_u32 irq)
{
    b4f4:	defff904 	addi	sp,sp,-28
    b4f8:	df000615 	stw	fp,24(sp)
    b4fc:	df000604 	addi	fp,sp,24
    b500:	e13ffe15 	stw	r4,-8(fp)
    b504:	e17fff15 	stw	r5,-4(fp)
    b508:	e0bfff17 	ldw	r2,-4(fp)
    b50c:	e0bffa15 	stw	r2,-24(fp)
static ALT_INLINE alt_irq_context ALT_ALWAYS_INLINE 
       alt_irq_disable_all (void)
{
  alt_irq_context context;

  NIOS2_READ_STATUS (context);
    b510:	0005303a 	rdctl	r2,status
    b514:	e0bffb15 	stw	r2,-20(fp)

  NIOS2_WRITE_STATUS (context & ~NIOS2_STATUS_PIE_MSK);
    b518:	e0fffb17 	ldw	r3,-20(fp)
    b51c:	00bfff84 	movi	r2,-2
    b520:	1884703a 	and	r2,r3,r2
    b524:	1001703a 	wrctl	status,r2
  
  return context;
    b528:	e0bffb17 	ldw	r2,-20(fp)
static ALT_INLINE int ALT_ALWAYS_INLINE alt_irq_enable (alt_u32 id)
{
  alt_irq_context  status;
  extern volatile alt_u32 alt_irq_active;

  status = alt_irq_disable_all ();
    b52c:	e0bffc15 	stw	r2,-16(fp)

  alt_irq_active |= (1 << id);
    b530:	e0bffa17 	ldw	r2,-24(fp)
    b534:	00c00044 	movi	r3,1
    b538:	1884983a 	sll	r2,r3,r2
    b53c:	1007883a 	mov	r3,r2
    b540:	00800074 	movhi	r2,1
    b544:	10b5d204 	addi	r2,r2,-10424
    b548:	10800017 	ldw	r2,0(r2)
    b54c:	1886b03a 	or	r3,r3,r2
    b550:	00800074 	movhi	r2,1
    b554:	10b5d204 	addi	r2,r2,-10424
    b558:	10c00015 	stw	r3,0(r2)
  NIOS2_WRITE_IENABLE (alt_irq_active);
    b55c:	00800074 	movhi	r2,1
    b560:	10b5d204 	addi	r2,r2,-10424
    b564:	10800017 	ldw	r2,0(r2)
    b568:	100170fa 	wrctl	ienable,r2
    b56c:	e0bffc17 	ldw	r2,-16(fp)
    b570:	e0bffd15 	stw	r2,-12(fp)
  status &= ~NIOS2_STATUS_PIE_MSK;
  status |= (context & NIOS2_STATUS_PIE_MSK);
  
  NIOS2_WRITE_STATUS (status);
#else
  NIOS2_WRITE_STATUS (context);
    b574:	e0bffd17 	ldw	r2,-12(fp)
    b578:	1001703a 	wrctl	status,r2

  alt_irq_enable_all(status);

  return 0;
    b57c:	0005883a 	mov	r2,zero
    return alt_irq_enable(irq);
}
    b580:	e037883a 	mov	sp,fp
    b584:	df000017 	ldw	fp,0(sp)
    b588:	dec00104 	addi	sp,sp,4
    b58c:	f800283a 	ret

0000b590 <alt_ic_irq_disable>:
  * @param ic_id            Ignored.
  * @param irq              IRQ number
  * @return                 0 if successful, else error (-1)
  */
int alt_ic_irq_disable(alt_u32 ic_id, alt_u32 irq)
{
    b590:	defff904 	addi	sp,sp,-28
    b594:	df000615 	stw	fp,24(sp)
    b598:	df000604 	addi	fp,sp,24
    b59c:	e13ffe15 	stw	r4,-8(fp)
    b5a0:	e17fff15 	stw	r5,-4(fp)
    b5a4:	e0bfff17 	ldw	r2,-4(fp)
    b5a8:	e0bffa15 	stw	r2,-24(fp)
static ALT_INLINE alt_irq_context ALT_ALWAYS_INLINE 
       alt_irq_disable_all (void)
{
  alt_irq_context context;

  NIOS2_READ_STATUS (context);
    b5ac:	0005303a 	rdctl	r2,status
    b5b0:	e0bffb15 	stw	r2,-20(fp)

  NIOS2_WRITE_STATUS (context & ~NIOS2_STATUS_PIE_MSK);
    b5b4:	e0fffb17 	ldw	r3,-20(fp)
    b5b8:	00bfff84 	movi	r2,-2
    b5bc:	1884703a 	and	r2,r3,r2
    b5c0:	1001703a 	wrctl	status,r2
  
  return context;
    b5c4:	e0bffb17 	ldw	r2,-20(fp)
static ALT_INLINE int ALT_ALWAYS_INLINE alt_irq_disable (alt_u32 id)
{
  alt_irq_context  status;
  extern volatile alt_u32 alt_irq_active;

  status = alt_irq_disable_all ();
    b5c8:	e0bffc15 	stw	r2,-16(fp)

  alt_irq_active &= ~(1 << id);
    b5cc:	e0bffa17 	ldw	r2,-24(fp)
    b5d0:	00c00044 	movi	r3,1
    b5d4:	1884983a 	sll	r2,r3,r2
    b5d8:	0084303a 	nor	r2,zero,r2
    b5dc:	1007883a 	mov	r3,r2
    b5e0:	00800074 	movhi	r2,1
    b5e4:	10b5d204 	addi	r2,r2,-10424
    b5e8:	10800017 	ldw	r2,0(r2)
    b5ec:	1886703a 	and	r3,r3,r2
    b5f0:	00800074 	movhi	r2,1
    b5f4:	10b5d204 	addi	r2,r2,-10424
    b5f8:	10c00015 	stw	r3,0(r2)
  NIOS2_WRITE_IENABLE (alt_irq_active);
    b5fc:	00800074 	movhi	r2,1
    b600:	10b5d204 	addi	r2,r2,-10424
    b604:	10800017 	ldw	r2,0(r2)
    b608:	100170fa 	wrctl	ienable,r2
    b60c:	e0bffc17 	ldw	r2,-16(fp)
    b610:	e0bffd15 	stw	r2,-12(fp)
  status &= ~NIOS2_STATUS_PIE_MSK;
  status |= (context & NIOS2_STATUS_PIE_MSK);
  
  NIOS2_WRITE_STATUS (status);
#else
  NIOS2_WRITE_STATUS (context);
    b614:	e0bffd17 	ldw	r2,-12(fp)
    b618:	1001703a 	wrctl	status,r2

  alt_irq_enable_all(status);

  return 0;
    b61c:	0005883a 	mov	r2,zero
    return alt_irq_disable(irq);
}
    b620:	e037883a 	mov	sp,fp
    b624:	df000017 	ldw	fp,0(sp)
    b628:	dec00104 	addi	sp,sp,4
    b62c:	f800283a 	ret

0000b630 <alt_ic_irq_enabled>:
  * @param irq              IRQ number
  * @return                 Zero if corresponding interrupt is disabled and
  *                         non-zero otherwise.
  */
alt_u32 alt_ic_irq_enabled(alt_u32 ic_id, alt_u32 irq)
{
    b630:	defffc04 	addi	sp,sp,-16
    b634:	df000315 	stw	fp,12(sp)
    b638:	df000304 	addi	fp,sp,12
    b63c:	e13ffe15 	stw	r4,-8(fp)
    b640:	e17fff15 	stw	r5,-4(fp)
    alt_u32 irq_enabled;

    NIOS2_READ_IENABLE(irq_enabled);
    b644:	000530fa 	rdctl	r2,ienable
    b648:	e0bffd15 	stw	r2,-12(fp)

    return (irq_enabled & (1 << irq)) ? 1: 0;
    b64c:	e0bfff17 	ldw	r2,-4(fp)
    b650:	00c00044 	movi	r3,1
    b654:	1884983a 	sll	r2,r3,r2
    b658:	1007883a 	mov	r3,r2
    b65c:	e0bffd17 	ldw	r2,-12(fp)
    b660:	1884703a 	and	r2,r3,r2
    b664:	1004c03a 	cmpne	r2,r2,zero
    b668:	10803fcc 	andi	r2,r2,255
}
    b66c:	e037883a 	mov	sp,fp
    b670:	df000017 	ldw	fp,0(sp)
    b674:	dec00104 	addi	sp,sp,4
    b678:	f800283a 	ret

0000b67c <alt_iic_isr_register>:
  * @param flags            
  * @return                 0 if successful, else error (-1)
  */
int alt_iic_isr_register(alt_u32 ic_id, alt_u32 irq, alt_isr_func isr, 
  void *isr_context, void *flags)
{
    b67c:	defff504 	addi	sp,sp,-44
    b680:	dfc00a15 	stw	ra,40(sp)
    b684:	df000915 	stw	fp,36(sp)
    b688:	df000904 	addi	fp,sp,36
    b68c:	e13ffc15 	stw	r4,-16(fp)
    b690:	e17ffd15 	stw	r5,-12(fp)
    b694:	e1bffe15 	stw	r6,-8(fp)
    b698:	e1ffff15 	stw	r7,-4(fp)
  int rc = -EINVAL;  
    b69c:	00bffa84 	movi	r2,-22
    b6a0:	e0bff715 	stw	r2,-36(fp)
  int id = irq;             /* IRQ interpreted as the interrupt ID. */
    b6a4:	e0bffd17 	ldw	r2,-12(fp)
    b6a8:	e0bff815 	stw	r2,-32(fp)
  alt_irq_context status;

  if (id < ALT_NIRQ)
    b6ac:	e0bff817 	ldw	r2,-32(fp)
    b6b0:	10800808 	cmpgei	r2,r2,32
    b6b4:	1000271e 	bne	r2,zero,b754 <alt_iic_isr_register+0xd8>
static ALT_INLINE alt_irq_context ALT_ALWAYS_INLINE 
       alt_irq_disable_all (void)
{
  alt_irq_context context;

  NIOS2_READ_STATUS (context);
    b6b8:	0005303a 	rdctl	r2,status
    b6bc:	e0bffa15 	stw	r2,-24(fp)

  NIOS2_WRITE_STATUS (context & ~NIOS2_STATUS_PIE_MSK);
    b6c0:	e0fffa17 	ldw	r3,-24(fp)
    b6c4:	00bfff84 	movi	r2,-2
    b6c8:	1884703a 	and	r2,r3,r2
    b6cc:	1001703a 	wrctl	status,r2
  
  return context;
    b6d0:	e0bffa17 	ldw	r2,-24(fp)
     * interrupts are disabled while the handler tables are updated to ensure
     * that an interrupt doesn't occur while the tables are in an inconsistant
     * state.
     */

    status = alt_irq_disable_all();
    b6d4:	e0bff915 	stw	r2,-28(fp)

    alt_irq[id].handler = isr;
    b6d8:	00c00074 	movhi	r3,1
    b6dc:	18f5d504 	addi	r3,r3,-10412
    b6e0:	e0bff817 	ldw	r2,-32(fp)
    b6e4:	100490fa 	slli	r2,r2,3
    b6e8:	1885883a 	add	r2,r3,r2
    b6ec:	e0fffe17 	ldw	r3,-8(fp)
    b6f0:	10c00015 	stw	r3,0(r2)
    alt_irq[id].context = isr_context;
    b6f4:	00c00074 	movhi	r3,1
    b6f8:	18f5d504 	addi	r3,r3,-10412
    b6fc:	e0bff817 	ldw	r2,-32(fp)
    b700:	100490fa 	slli	r2,r2,3
    b704:	1885883a 	add	r2,r3,r2
    b708:	10800104 	addi	r2,r2,4
    b70c:	e0ffff17 	ldw	r3,-4(fp)
    b710:	10c00015 	stw	r3,0(r2)

    rc = (isr) ? alt_ic_irq_enable(ic_id, id) : alt_ic_irq_disable(ic_id, id);
    b714:	e0bffe17 	ldw	r2,-8(fp)
    b718:	10000526 	beq	r2,zero,b730 <alt_iic_isr_register+0xb4>
    b71c:	e0bff817 	ldw	r2,-32(fp)
    b720:	e13ffc17 	ldw	r4,-16(fp)
    b724:	100b883a 	mov	r5,r2
    b728:	000b4f40 	call	b4f4 <alt_ic_irq_enable>
    b72c:	00000406 	br	b740 <alt_iic_isr_register+0xc4>
    b730:	e0bff817 	ldw	r2,-32(fp)
    b734:	e13ffc17 	ldw	r4,-16(fp)
    b738:	100b883a 	mov	r5,r2
    b73c:	000b5900 	call	b590 <alt_ic_irq_disable>
    b740:	e0bff715 	stw	r2,-36(fp)
    b744:	e0bff917 	ldw	r2,-28(fp)
    b748:	e0bffb15 	stw	r2,-20(fp)
  status &= ~NIOS2_STATUS_PIE_MSK;
  status |= (context & NIOS2_STATUS_PIE_MSK);
  
  NIOS2_WRITE_STATUS (status);
#else
  NIOS2_WRITE_STATUS (context);
    b74c:	e0bffb17 	ldw	r2,-20(fp)
    b750:	1001703a 	wrctl	status,r2

    alt_irq_enable_all(status);
  }

  return rc; 
    b754:	e0bff717 	ldw	r2,-36(fp)
}
    b758:	e037883a 	mov	sp,fp
    b75c:	dfc00117 	ldw	ra,4(sp)
    b760:	df000017 	ldw	fp,0(sp)
    b764:	dec00204 	addi	sp,sp,8
    b768:	f800283a 	ret

0000b76c <alt_open_fd>:
 * If the device can not be succesfully opened, then the input file descriptor
 * remains unchanged.
 */

static void alt_open_fd(alt_fd* fd, const char* name, int flags, int mode)
{
    b76c:	defff904 	addi	sp,sp,-28
    b770:	dfc00615 	stw	ra,24(sp)
    b774:	df000515 	stw	fp,20(sp)
    b778:	df000504 	addi	fp,sp,20
    b77c:	e13ffc15 	stw	r4,-16(fp)
    b780:	e17ffd15 	stw	r5,-12(fp)
    b784:	e1bffe15 	stw	r6,-8(fp)
    b788:	e1ffff15 	stw	r7,-4(fp)
  int old;

  old = open (name, flags, mode);
    b78c:	e13ffd17 	ldw	r4,-12(fp)
    b790:	e17ffe17 	ldw	r5,-8(fp)
    b794:	e1bfff17 	ldw	r6,-4(fp)
    b798:	000b9c00 	call	b9c0 <open>
    b79c:	e0bffb15 	stw	r2,-20(fp)

  if (old >= 0)
    b7a0:	e0bffb17 	ldw	r2,-20(fp)
    b7a4:	10001c16 	blt	r2,zero,b818 <alt_open_fd+0xac>
  {
    fd->dev      = alt_fd_list[old].dev;
    b7a8:	00c00074 	movhi	r3,1
    b7ac:	18f56104 	addi	r3,r3,-10876
    b7b0:	e0bffb17 	ldw	r2,-20(fp)
    b7b4:	10800324 	muli	r2,r2,12
    b7b8:	1885883a 	add	r2,r3,r2
    b7bc:	10c00017 	ldw	r3,0(r2)
    b7c0:	e0bffc17 	ldw	r2,-16(fp)
    b7c4:	10c00015 	stw	r3,0(r2)
    fd->priv     = alt_fd_list[old].priv;
    b7c8:	00c00074 	movhi	r3,1
    b7cc:	18f56104 	addi	r3,r3,-10876
    b7d0:	e0bffb17 	ldw	r2,-20(fp)
    b7d4:	10800324 	muli	r2,r2,12
    b7d8:	1885883a 	add	r2,r3,r2
    b7dc:	10800104 	addi	r2,r2,4
    b7e0:	10c00017 	ldw	r3,0(r2)
    b7e4:	e0bffc17 	ldw	r2,-16(fp)
    b7e8:	10c00115 	stw	r3,4(r2)
    fd->fd_flags = alt_fd_list[old].fd_flags;
    b7ec:	00c00074 	movhi	r3,1
    b7f0:	18f56104 	addi	r3,r3,-10876
    b7f4:	e0bffb17 	ldw	r2,-20(fp)
    b7f8:	10800324 	muli	r2,r2,12
    b7fc:	1885883a 	add	r2,r3,r2
    b800:	10800204 	addi	r2,r2,8
    b804:	10c00017 	ldw	r3,0(r2)
    b808:	e0bffc17 	ldw	r2,-16(fp)
    b80c:	10c00215 	stw	r3,8(r2)

    alt_release_fd (old);
    b810:	e13ffb17 	ldw	r4,-20(fp)
    b814:	000bb140 	call	bb14 <alt_release_fd>
  }
} 
    b818:	e037883a 	mov	sp,fp
    b81c:	dfc00117 	ldw	ra,4(sp)
    b820:	df000017 	ldw	fp,0(sp)
    b824:	dec00204 	addi	sp,sp,8
    b828:	f800283a 	ret

0000b82c <alt_io_redirect>:
 */
 
void alt_io_redirect(const char* stdout_dev, 
                     const char* stdin_dev, 
                     const char* stderr_dev)
{
    b82c:	defffb04 	addi	sp,sp,-20
    b830:	dfc00415 	stw	ra,16(sp)
    b834:	df000315 	stw	fp,12(sp)
    b838:	df000304 	addi	fp,sp,12
    b83c:	e13ffd15 	stw	r4,-12(fp)
    b840:	e17ffe15 	stw	r5,-8(fp)
    b844:	e1bfff15 	stw	r6,-4(fp)
  /* Redirect the channels */

  alt_open_fd (&alt_fd_list[STDOUT_FILENO], stdout_dev, O_WRONLY, 0777);
    b848:	01000074 	movhi	r4,1
    b84c:	21356404 	addi	r4,r4,-10864
    b850:	e17ffd17 	ldw	r5,-12(fp)
    b854:	01800044 	movi	r6,1
    b858:	01c07fc4 	movi	r7,511
    b85c:	000b76c0 	call	b76c <alt_open_fd>
  alt_open_fd (&alt_fd_list[STDIN_FILENO], stdin_dev, O_RDONLY, 0777);
    b860:	01000074 	movhi	r4,1
    b864:	21356104 	addi	r4,r4,-10876
    b868:	e17ffe17 	ldw	r5,-8(fp)
    b86c:	000d883a 	mov	r6,zero
    b870:	01c07fc4 	movi	r7,511
    b874:	000b76c0 	call	b76c <alt_open_fd>
  alt_open_fd (&alt_fd_list[STDERR_FILENO], stderr_dev, O_WRONLY, 0777);
    b878:	01000074 	movhi	r4,1
    b87c:	21356704 	addi	r4,r4,-10852
    b880:	e17fff17 	ldw	r5,-4(fp)
    b884:	01800044 	movi	r6,1
    b888:	01c07fc4 	movi	r7,511
    b88c:	000b76c0 	call	b76c <alt_open_fd>
}  
    b890:	e037883a 	mov	sp,fp
    b894:	dfc00117 	ldw	ra,4(sp)
    b898:	df000017 	ldw	fp,0(sp)
    b89c:	dec00204 	addi	sp,sp,8
    b8a0:	f800283a 	ret

0000b8a4 <alt_get_errno>:
#undef errno

extern int errno;

static ALT_INLINE int* alt_get_errno(void)
{
    b8a4:	defffe04 	addi	sp,sp,-8
    b8a8:	dfc00115 	stw	ra,4(sp)
    b8ac:	df000015 	stw	fp,0(sp)
    b8b0:	d839883a 	mov	fp,sp
  return ((alt_errno) ? alt_errno() : &errno);
    b8b4:	00800074 	movhi	r2,1
    b8b8:	10b5ca04 	addi	r2,r2,-10456
    b8bc:	10800017 	ldw	r2,0(r2)
    b8c0:	10000526 	beq	r2,zero,b8d8 <alt_get_errno+0x34>
    b8c4:	00800074 	movhi	r2,1
    b8c8:	10b5ca04 	addi	r2,r2,-10456
    b8cc:	10800017 	ldw	r2,0(r2)
    b8d0:	103ee83a 	callr	r2
    b8d4:	00000206 	br	b8e0 <alt_get_errno+0x3c>
    b8d8:	00800074 	movhi	r2,1
    b8dc:	10b5ce04 	addi	r2,r2,-10440
}
    b8e0:	e037883a 	mov	sp,fp
    b8e4:	dfc00117 	ldw	ra,4(sp)
    b8e8:	df000017 	ldw	fp,0(sp)
    b8ec:	dec00204 	addi	sp,sp,8
    b8f0:	f800283a 	ret

0000b8f4 <alt_file_locked>:
 * performed for devices. Filesystems are required to handle the ioctl() call
 * themselves, and report the error from the filesystems open() function. 
 */ 

static int alt_file_locked (alt_fd* fd)
{
    b8f4:	defffd04 	addi	sp,sp,-12
    b8f8:	df000215 	stw	fp,8(sp)
    b8fc:	df000204 	addi	fp,sp,8
    b900:	e13fff15 	stw	r4,-4(fp)

  /*
   * Mark the file descriptor as belonging to a device.
   */

  fd->fd_flags |= ALT_FD_DEV;
    b904:	e0bfff17 	ldw	r2,-4(fp)
    b908:	10800217 	ldw	r2,8(r2)
    b90c:	10d00034 	orhi	r3,r2,16384
    b910:	e0bfff17 	ldw	r2,-4(fp)
    b914:	10c00215 	stw	r3,8(r2)
  /*
   * Loop through all current file descriptors searching for one that's locked
   * for exclusive access. If a match is found, generate an error.
   */

  for (i = 0; i <= alt_max_fd; i++)
    b918:	e03ffe15 	stw	zero,-8(fp)
    b91c:	00001d06 	br	b994 <alt_file_locked+0xa0>
  {
    if ((alt_fd_list[i].dev == fd->dev) &&
    b920:	00c00074 	movhi	r3,1
    b924:	18f56104 	addi	r3,r3,-10876
    b928:	e0bffe17 	ldw	r2,-8(fp)
    b92c:	10800324 	muli	r2,r2,12
    b930:	1885883a 	add	r2,r3,r2
    b934:	10c00017 	ldw	r3,0(r2)
    b938:	e0bfff17 	ldw	r2,-4(fp)
    b93c:	10800017 	ldw	r2,0(r2)
    b940:	1880111e 	bne	r3,r2,b988 <alt_file_locked+0x94>
        (alt_fd_list[i].fd_flags & ALT_FD_EXCL) &&
    b944:	00c00074 	movhi	r3,1
    b948:	18f56104 	addi	r3,r3,-10876
    b94c:	e0bffe17 	ldw	r2,-8(fp)
    b950:	10800324 	muli	r2,r2,12
    b954:	1885883a 	add	r2,r3,r2
    b958:	10800204 	addi	r2,r2,8
    b95c:	10800017 	ldw	r2,0(r2)
   * for exclusive access. If a match is found, generate an error.
   */

  for (i = 0; i <= alt_max_fd; i++)
  {
    if ((alt_fd_list[i].dev == fd->dev) &&
    b960:	1000090e 	bge	r2,zero,b988 <alt_file_locked+0x94>
        (alt_fd_list[i].fd_flags & ALT_FD_EXCL) &&
        (&alt_fd_list[i] != fd))
    b964:	e0bffe17 	ldw	r2,-8(fp)
    b968:	10c00324 	muli	r3,r2,12
    b96c:	00800074 	movhi	r2,1
    b970:	10b56104 	addi	r2,r2,-10876
    b974:	1887883a 	add	r3,r3,r2
   */

  for (i = 0; i <= alt_max_fd; i++)
  {
    if ((alt_fd_list[i].dev == fd->dev) &&
        (alt_fd_list[i].fd_flags & ALT_FD_EXCL) &&
    b978:	e0bfff17 	ldw	r2,-4(fp)
    b97c:	18800226 	beq	r3,r2,b988 <alt_file_locked+0x94>
        (&alt_fd_list[i] != fd))
    {
      return -EACCES;
    b980:	00bffcc4 	movi	r2,-13
    b984:	00000a06 	br	b9b0 <alt_file_locked+0xbc>
  /*
   * Loop through all current file descriptors searching for one that's locked
   * for exclusive access. If a match is found, generate an error.
   */

  for (i = 0; i <= alt_max_fd; i++)
    b988:	e0bffe17 	ldw	r2,-8(fp)
    b98c:	10800044 	addi	r2,r2,1
    b990:	e0bffe15 	stw	r2,-8(fp)
    b994:	00800074 	movhi	r2,1
    b998:	10b5c904 	addi	r2,r2,-10460
    b99c:	10800017 	ldw	r2,0(r2)
    b9a0:	1007883a 	mov	r3,r2
    b9a4:	e0bffe17 	ldw	r2,-8(fp)
    b9a8:	18bfdd2e 	bgeu	r3,r2,b920 <alt_file_locked+0x2c>
    }
  }
  
  /* The device is not locked */
 
  return 0;
    b9ac:	0005883a 	mov	r2,zero
}
    b9b0:	e037883a 	mov	sp,fp
    b9b4:	df000017 	ldw	fp,0(sp)
    b9b8:	dec00104 	addi	sp,sp,4
    b9bc:	f800283a 	ret

0000b9c0 <open>:
 *
 * ALT_OPEN is mapped onto the open() system call in alt_syscall.h
 */
 
int ALT_OPEN (const char* file, int flags, int mode)
{ 
    b9c0:	defff604 	addi	sp,sp,-40
    b9c4:	dfc00915 	stw	ra,36(sp)
    b9c8:	df000815 	stw	fp,32(sp)
    b9cc:	df000804 	addi	fp,sp,32
    b9d0:	e13ffd15 	stw	r4,-12(fp)
    b9d4:	e17ffe15 	stw	r5,-8(fp)
    b9d8:	e1bfff15 	stw	r6,-4(fp)
  alt_dev* dev;
  alt_fd*  fd;
  int index  = -1;
    b9dc:	00bfffc4 	movi	r2,-1
    b9e0:	e0bff915 	stw	r2,-28(fp)
  int status = -ENODEV;
    b9e4:	00bffb44 	movi	r2,-19
    b9e8:	e0bffa15 	stw	r2,-24(fp)
  int isafs = 0;
    b9ec:	e03ffb15 	stw	zero,-20(fp)
  /* 
   * Check the device list, to see if a device with a matching name is 
   * registered.
   */
  
  if (!(dev = alt_find_dev (file, &alt_dev_list)))
    b9f0:	e13ffd17 	ldw	r4,-12(fp)
    b9f4:	01400074 	movhi	r5,1
    b9f8:	2975c704 	addi	r5,r5,-10468
    b9fc:	000b4140 	call	b414 <alt_find_dev>
    ba00:	e0bff815 	stw	r2,-32(fp)
    ba04:	e0bff817 	ldw	r2,-32(fp)
    ba08:	1000051e 	bne	r2,zero,ba20 <open+0x60>
  {
    /* No matching device, so try the filesystem list */

    dev   = alt_find_file (file);
    ba0c:	e13ffd17 	ldw	r4,-12(fp)
    ba10:	000bf380 	call	bf38 <alt_find_file>
    ba14:	e0bff815 	stw	r2,-32(fp)
    isafs = 1;
    ba18:	00800044 	movi	r2,1
    ba1c:	e0bffb15 	stw	r2,-20(fp)

  /* 
   * If a matching device or filesystem is found, allocate a file descriptor. 
   */

  if (dev)
    ba20:	e0bff817 	ldw	r2,-32(fp)
    ba24:	10002926 	beq	r2,zero,bacc <open+0x10c>
  {
    if ((index = alt_get_fd (dev)) < 0)
    ba28:	e13ff817 	ldw	r4,-32(fp)
    ba2c:	000c04c0 	call	c04c <alt_get_fd>
    ba30:	e0bff915 	stw	r2,-28(fp)
    ba34:	e0bff917 	ldw	r2,-28(fp)
    ba38:	1000030e 	bge	r2,zero,ba48 <open+0x88>
    {
      status = index;
    ba3c:	e0bff917 	ldw	r2,-28(fp)
    ba40:	e0bffa15 	stw	r2,-24(fp)
    ba44:	00002306 	br	bad4 <open+0x114>
    }
    else
    {
      fd = &alt_fd_list[index];
    ba48:	e0bff917 	ldw	r2,-28(fp)
    ba4c:	10c00324 	muli	r3,r2,12
    ba50:	00800074 	movhi	r2,1
    ba54:	10b56104 	addi	r2,r2,-10876
    ba58:	1885883a 	add	r2,r3,r2
    ba5c:	e0bffc15 	stw	r2,-16(fp)
      fd->fd_flags = (flags & ~ALT_FD_FLAGS_MASK);
    ba60:	e0fffe17 	ldw	r3,-8(fp)
    ba64:	00900034 	movhi	r2,16384
    ba68:	10bfffc4 	addi	r2,r2,-1
    ba6c:	1886703a 	and	r3,r3,r2
    ba70:	e0bffc17 	ldw	r2,-16(fp)
    ba74:	10c00215 	stw	r3,8(r2)
      
      /* If this is a device, ensure it isn't already locked */

      if (isafs || ((status = alt_file_locked (fd)) >= 0))
    ba78:	e0bffb17 	ldw	r2,-20(fp)
    ba7c:	1000051e 	bne	r2,zero,ba94 <open+0xd4>
    ba80:	e13ffc17 	ldw	r4,-16(fp)
    ba84:	000b8f40 	call	b8f4 <alt_file_locked>
    ba88:	e0bffa15 	stw	r2,-24(fp)
    ba8c:	e0bffa17 	ldw	r2,-24(fp)
    ba90:	10001016 	blt	r2,zero,bad4 <open+0x114>
        /* 
         * If the device or filesystem provides an open() callback function,
         * call it now to perform any device/filesystem specific operations.
         */
    
        status = (dev->open) ? dev->open(fd, file, flags, mode): 0;
    ba94:	e0bff817 	ldw	r2,-32(fp)
    ba98:	10800317 	ldw	r2,12(r2)
    ba9c:	10000826 	beq	r2,zero,bac0 <open+0x100>
    baa0:	e0bff817 	ldw	r2,-32(fp)
    baa4:	10800317 	ldw	r2,12(r2)
    baa8:	e13ffc17 	ldw	r4,-16(fp)
    baac:	e17ffd17 	ldw	r5,-12(fp)
    bab0:	e1bffe17 	ldw	r6,-8(fp)
    bab4:	e1ffff17 	ldw	r7,-4(fp)
    bab8:	103ee83a 	callr	r2
    babc:	00000106 	br	bac4 <open+0x104>
    bac0:	0005883a 	mov	r2,zero
    bac4:	e0bffa15 	stw	r2,-24(fp)
    bac8:	00000206 	br	bad4 <open+0x114>
      }
    }
  }
  else
  {
    status = -ENODEV;
    bacc:	00bffb44 	movi	r2,-19
    bad0:	e0bffa15 	stw	r2,-24(fp)
  }

  /* Allocation failed, so clean up and return an error */ 

  if (status < 0)
    bad4:	e0bffa17 	ldw	r2,-24(fp)
    bad8:	1000080e 	bge	r2,zero,bafc <open+0x13c>
  {
    alt_release_fd (index);  
    badc:	e13ff917 	ldw	r4,-28(fp)
    bae0:	000bb140 	call	bb14 <alt_release_fd>
    ALT_ERRNO = -status;
    bae4:	000b8a40 	call	b8a4 <alt_get_errno>
    bae8:	e0fffa17 	ldw	r3,-24(fp)
    baec:	00c7c83a 	sub	r3,zero,r3
    baf0:	10c00015 	stw	r3,0(r2)
    return -1;
    baf4:	00bfffc4 	movi	r2,-1
    baf8:	00000106 	br	bb00 <open+0x140>
  }
  
  /* return the reference upon success */

  return index;
    bafc:	e0bff917 	ldw	r2,-28(fp)
}
    bb00:	e037883a 	mov	sp,fp
    bb04:	dfc00117 	ldw	ra,4(sp)
    bb08:	df000017 	ldw	fp,0(sp)
    bb0c:	dec00204 	addi	sp,sp,8
    bb10:	f800283a 	ret

0000bb14 <alt_release_fd>:
 * File descriptors correcponding to standard in, standard out and standard 
 * error cannont be released backed to the pool. They are always reserved.
 */

void alt_release_fd (int fd)
{
    bb14:	defffe04 	addi	sp,sp,-8
    bb18:	df000115 	stw	fp,4(sp)
    bb1c:	df000104 	addi	fp,sp,4
    bb20:	e13fff15 	stw	r4,-4(fp)
  if (fd > 2)
    bb24:	e0bfff17 	ldw	r2,-4(fp)
    bb28:	108000d0 	cmplti	r2,r2,3
    bb2c:	10000d1e 	bne	r2,zero,bb64 <alt_release_fd+0x50>
  {
    alt_fd_list[fd].fd_flags = 0;
    bb30:	00c00074 	movhi	r3,1
    bb34:	18f56104 	addi	r3,r3,-10876
    bb38:	e0bfff17 	ldw	r2,-4(fp)
    bb3c:	10800324 	muli	r2,r2,12
    bb40:	1885883a 	add	r2,r3,r2
    bb44:	10800204 	addi	r2,r2,8
    bb48:	10000015 	stw	zero,0(r2)
    alt_fd_list[fd].dev      = 0;
    bb4c:	00c00074 	movhi	r3,1
    bb50:	18f56104 	addi	r3,r3,-10876
    bb54:	e0bfff17 	ldw	r2,-4(fp)
    bb58:	10800324 	muli	r2,r2,12
    bb5c:	1885883a 	add	r2,r3,r2
    bb60:	10000015 	stw	zero,0(r2)
  }
}
    bb64:	e037883a 	mov	sp,fp
    bb68:	df000017 	ldw	fp,0(sp)
    bb6c:	dec00104 	addi	sp,sp,4
    bb70:	f800283a 	ret

0000bb74 <alt_alarm_stop>:
 * alarms. Alternatively an alarm can unregister itself by returning zero when 
 * the alarm executes.
 */

void alt_alarm_stop (alt_alarm* alarm)
{
    bb74:	defffa04 	addi	sp,sp,-24
    bb78:	df000515 	stw	fp,20(sp)
    bb7c:	df000504 	addi	fp,sp,20
    bb80:	e13fff15 	stw	r4,-4(fp)
static ALT_INLINE alt_irq_context ALT_ALWAYS_INLINE 
       alt_irq_disable_all (void)
{
  alt_irq_context context;

  NIOS2_READ_STATUS (context);
    bb84:	0005303a 	rdctl	r2,status
    bb88:	e0bffc15 	stw	r2,-16(fp)

  NIOS2_WRITE_STATUS (context & ~NIOS2_STATUS_PIE_MSK);
    bb8c:	e0fffc17 	ldw	r3,-16(fp)
    bb90:	00bfff84 	movi	r2,-2
    bb94:	1884703a 	and	r2,r3,r2
    bb98:	1001703a 	wrctl	status,r2
  
  return context;
    bb9c:	e0bffc17 	ldw	r2,-16(fp)
  alt_irq_context irq_context;

  irq_context = alt_irq_disable_all();
    bba0:	e0bffb15 	stw	r2,-20(fp)
  alt_llist_remove (&alarm->llist);
    bba4:	e0bfff17 	ldw	r2,-4(fp)
    bba8:	e0bffd15 	stw	r2,-12(fp)
 * input argument is the element to remove.
 */
     
static ALT_INLINE void ALT_ALWAYS_INLINE alt_llist_remove(alt_llist* entry)
{
  entry->next->previous = entry->previous;
    bbac:	e0bffd17 	ldw	r2,-12(fp)
    bbb0:	10800017 	ldw	r2,0(r2)
    bbb4:	e0fffd17 	ldw	r3,-12(fp)
    bbb8:	18c00117 	ldw	r3,4(r3)
    bbbc:	10c00115 	stw	r3,4(r2)
  entry->previous->next = entry->next;
    bbc0:	e0bffd17 	ldw	r2,-12(fp)
    bbc4:	10800117 	ldw	r2,4(r2)
    bbc8:	e0fffd17 	ldw	r3,-12(fp)
    bbcc:	18c00017 	ldw	r3,0(r3)
    bbd0:	10c00015 	stw	r3,0(r2)
  /* 
   * Set the entry to point to itself, so that any further calls to
   * alt_llist_remove() are harmless.
   */

  entry->previous = entry;
    bbd4:	e0bffd17 	ldw	r2,-12(fp)
    bbd8:	e0fffd17 	ldw	r3,-12(fp)
    bbdc:	10c00115 	stw	r3,4(r2)
  entry->next     = entry;
    bbe0:	e0bffd17 	ldw	r2,-12(fp)
    bbe4:	e0fffd17 	ldw	r3,-12(fp)
    bbe8:	10c00015 	stw	r3,0(r2)
    bbec:	e0bffb17 	ldw	r2,-20(fp)
    bbf0:	e0bffe15 	stw	r2,-8(fp)
  status &= ~NIOS2_STATUS_PIE_MSK;
  status |= (context & NIOS2_STATUS_PIE_MSK);
  
  NIOS2_WRITE_STATUS (status);
#else
  NIOS2_WRITE_STATUS (context);
    bbf4:	e0bffe17 	ldw	r2,-8(fp)
    bbf8:	1001703a 	wrctl	status,r2
  alt_irq_enable_all (irq_context);
}
    bbfc:	e037883a 	mov	sp,fp
    bc00:	df000017 	ldw	fp,0(sp)
    bc04:	dec00104 	addi	sp,sp,4
    bc08:	f800283a 	ret

0000bc0c <alt_tick>:
 * 
 * alt_tick() is expected to run at interrupt level.
 */

void alt_tick (void)
{
    bc0c:	defffb04 	addi	sp,sp,-20
    bc10:	dfc00415 	stw	ra,16(sp)
    bc14:	df000315 	stw	fp,12(sp)
    bc18:	df000304 	addi	fp,sp,12
  alt_alarm* next;
  alt_alarm* alarm = (alt_alarm*) alt_alarm_list.next;
    bc1c:	d0a00b17 	ldw	r2,-32724(gp)
    bc20:	e0bffd15 	stw	r2,-12(fp)

  alt_u32    next_callback;

  /* update the tick counter */

  _alt_nticks++;
    bc24:	d0a01317 	ldw	r2,-32692(gp)
    bc28:	10800044 	addi	r2,r2,1
    bc2c:	d0a01315 	stw	r2,-32692(gp)

  /* process the registered callbacks */

  while (alarm != (alt_alarm*) &alt_alarm_list)
    bc30:	00002e06 	br	bcec <alt_tick+0xe0>
  {
    next = (alt_alarm*) alarm->llist.next;
    bc34:	e0bffd17 	ldw	r2,-12(fp)
    bc38:	10800017 	ldw	r2,0(r2)
    bc3c:	e0bffe15 	stw	r2,-8(fp)
    /* 
     * Upon the tick-counter rolling over it is safe to clear the 
     * roll-over flag; once the flag is cleared this (or subsequnt)
     * tick events are enabled to generate an alarm event. 
     */
    if ((alarm->rollover) && (_alt_nticks == 0))
    bc40:	e0bffd17 	ldw	r2,-12(fp)
    bc44:	10800403 	ldbu	r2,16(r2)
    bc48:	10803fcc 	andi	r2,r2,255
    bc4c:	10000426 	beq	r2,zero,bc60 <alt_tick+0x54>
    bc50:	d0a01317 	ldw	r2,-32692(gp)
    bc54:	1000021e 	bne	r2,zero,bc60 <alt_tick+0x54>
    {
      alarm->rollover = 0;
    bc58:	e0bffd17 	ldw	r2,-12(fp)
    bc5c:	10000405 	stb	zero,16(r2)
    }
    
    /* if the alarm period has expired, make the callback */    
    if ((alarm->time <= _alt_nticks) && (alarm->rollover == 0))
    bc60:	e0bffd17 	ldw	r2,-12(fp)
    bc64:	10800217 	ldw	r2,8(r2)
    bc68:	d0e01317 	ldw	r3,-32692(gp)
    bc6c:	18801d36 	bltu	r3,r2,bce4 <alt_tick+0xd8>
    bc70:	e0bffd17 	ldw	r2,-12(fp)
    bc74:	10800403 	ldbu	r2,16(r2)
    bc78:	10803fcc 	andi	r2,r2,255
    bc7c:	1000191e 	bne	r2,zero,bce4 <alt_tick+0xd8>
    {
      next_callback = alarm->callback (alarm->context);
    bc80:	e0bffd17 	ldw	r2,-12(fp)
    bc84:	10c00317 	ldw	r3,12(r2)
    bc88:	e0bffd17 	ldw	r2,-12(fp)
    bc8c:	10800517 	ldw	r2,20(r2)
    bc90:	1009883a 	mov	r4,r2
    bc94:	183ee83a 	callr	r3
    bc98:	e0bfff15 	stw	r2,-4(fp)

      /* deactivate the alarm if the return value is zero */

      if (next_callback == 0)
    bc9c:	e0bfff17 	ldw	r2,-4(fp)
    bca0:	1000031e 	bne	r2,zero,bcb0 <alt_tick+0xa4>
      {
        alt_alarm_stop (alarm);
    bca4:	e13ffd17 	ldw	r4,-12(fp)
    bca8:	000bb740 	call	bb74 <alt_alarm_stop>
    bcac:	00000d06 	br	bce4 <alt_tick+0xd8>
      }
      else
      {
        alarm->time += next_callback;
    bcb0:	e0bffd17 	ldw	r2,-12(fp)
    bcb4:	10c00217 	ldw	r3,8(r2)
    bcb8:	e0bfff17 	ldw	r2,-4(fp)
    bcbc:	1887883a 	add	r3,r3,r2
    bcc0:	e0bffd17 	ldw	r2,-12(fp)
    bcc4:	10c00215 	stw	r3,8(r2)
        /* 
         * If the desired alarm time causes a roll-over, set the rollover
         * flag. This will prevent the subsequent tick event from causing
         * an alarm too early.
         */
        if(alarm->time < _alt_nticks)
    bcc8:	e0bffd17 	ldw	r2,-12(fp)
    bccc:	10c00217 	ldw	r3,8(r2)
    bcd0:	d0a01317 	ldw	r2,-32692(gp)
    bcd4:	1880032e 	bgeu	r3,r2,bce4 <alt_tick+0xd8>
        {
          alarm->rollover = 1;
    bcd8:	e0bffd17 	ldw	r2,-12(fp)
    bcdc:	00c00044 	movi	r3,1
    bce0:	10c00405 	stb	r3,16(r2)
        }
      }
    }
    alarm = next;
    bce4:	e0bffe17 	ldw	r2,-8(fp)
    bce8:	e0bffd15 	stw	r2,-12(fp)

  _alt_nticks++;

  /* process the registered callbacks */

  while (alarm != (alt_alarm*) &alt_alarm_list)
    bcec:	e0fffd17 	ldw	r3,-12(fp)
    bcf0:	d0a00b04 	addi	r2,gp,-32724
    bcf4:	18bfcf1e 	bne	r3,r2,bc34 <alt_tick+0x28>

  /* 
   * Update the operating system specific timer facilities.
   */

  ALT_OS_TIME_TICK();
    bcf8:	0001883a 	nop
}
    bcfc:	e037883a 	mov	sp,fp
    bd00:	dfc00117 	ldw	ra,4(sp)
    bd04:	df000017 	ldw	fp,0(sp)
    bd08:	dec00204 	addi	sp,sp,8
    bd0c:	f800283a 	ret

0000bd10 <altera_nios2_qsys_irq_init>:
/*
 * To initialize the internal interrupt controller, just clear the IENABLE
 * register so that all possible IRQs are disabled.
 */
void altera_nios2_qsys_irq_init(void) 
{
    bd10:	deffff04 	addi	sp,sp,-4
    bd14:	df000015 	stw	fp,0(sp)
    bd18:	d839883a 	mov	fp,sp
    NIOS2_WRITE_IENABLE(0);
    bd1c:	000170fa 	wrctl	ienable,zero
}
    bd20:	e037883a 	mov	sp,fp
    bd24:	df000017 	ldw	fp,0(sp)
    bd28:	dec00104 	addi	sp,sp,4
    bd2c:	f800283a 	ret

0000bd30 <alt_avalon_spi_command>:

int alt_avalon_spi_command(alt_u32 base, alt_u32 slave,
                           alt_u32 write_length, const alt_u8 * write_data,
                           alt_u32 read_length, alt_u8 * read_data,
                           alt_u32 flags)
{
    bd30:	defff404 	addi	sp,sp,-48
    bd34:	df000b15 	stw	fp,44(sp)
    bd38:	df000b04 	addi	fp,sp,44
    bd3c:	e13ffc15 	stw	r4,-16(fp)
    bd40:	e17ffd15 	stw	r5,-12(fp)
    bd44:	e1bffe15 	stw	r6,-8(fp)
    bd48:	e1ffff15 	stw	r7,-4(fp)
  const alt_u8 * write_end = write_data + write_length;
    bd4c:	e0ffff17 	ldw	r3,-4(fp)
    bd50:	e0bffe17 	ldw	r2,-8(fp)
    bd54:	1885883a 	add	r2,r3,r2
    bd58:	e0bff815 	stw	r2,-32(fp)
  alt_u8 * read_end = read_data + read_length;
    bd5c:	e0c00217 	ldw	r3,8(fp)
    bd60:	e0800117 	ldw	r2,4(fp)
    bd64:	1885883a 	add	r2,r3,r2
    bd68:	e0bff915 	stw	r2,-28(fp)

  alt_u32 write_zeros = read_length;
    bd6c:	e0800117 	ldw	r2,4(fp)
    bd70:	e0bff515 	stw	r2,-44(fp)
  alt_u32 read_ignore = write_length;
    bd74:	e0bffe17 	ldw	r2,-8(fp)
    bd78:	e0bff615 	stw	r2,-40(fp)

  /* We must not send more than two bytes to the target before it has
   * returned any as otherwise it will overflow. */
  /* Unfortunately the hardware does not seem to work with credits > 1,
   * leave it at 1 for now. */
  alt_32 credits = 1;
    bd7c:	00800044 	movi	r2,1
    bd80:	e0bff715 	stw	r2,-36(fp)
  /* Warning: this function is not currently safe if called in a multi-threaded
   * environment, something above must perform locking to make it safe if more
   * than one thread intends to use it.
   */

  IOWR_ALTERA_AVALON_SPI_SLAVE_SEL(base, 1 << slave);
    bd84:	e0bffc17 	ldw	r2,-16(fp)
    bd88:	10800504 	addi	r2,r2,20
    bd8c:	e0fffd17 	ldw	r3,-12(fp)
    bd90:	01000044 	movi	r4,1
    bd94:	20c6983a 	sll	r3,r4,r3
    bd98:	10c00035 	stwio	r3,0(r2)
  
  /* Set the SSO bit (force chipselect) only if the toggle flag is not set */
  if ((flags & ALT_AVALON_SPI_COMMAND_TOGGLE_SS_N) == 0) {
    bd9c:	e0800317 	ldw	r2,12(fp)
    bda0:	1080008c 	andi	r2,r2,2
    bda4:	1000041e 	bne	r2,zero,bdb8 <alt_avalon_spi_command+0x88>
    IOWR_ALTERA_AVALON_SPI_CONTROL(base, ALTERA_AVALON_SPI_CONTROL_SSO_MSK);
    bda8:	e0bffc17 	ldw	r2,-16(fp)
    bdac:	10800304 	addi	r2,r2,12
    bdb0:	00c10004 	movi	r3,1024
    bdb4:	10c00035 	stwio	r3,0(r2)
  /*
   * Discard any stale data present in the RXDATA register, in case
   * previous communication was interrupted and stale data was left
   * behind.
   */
  IORD_ALTERA_AVALON_SPI_RXDATA(base);
    bdb8:	e0bffc17 	ldw	r2,-16(fp)
    bdbc:	10800037 	ldwio	r2,0(r2)
    bdc0:	00000106 	br	bdc8 <alt_avalon_spi_command+0x98>

      if (read_ignore == 0 && read_data == read_end)
        break;
    }
    
  }
    bdc4:	0001883a 	nop
  for ( ; ; )
  {
    
    do
    {
      status = IORD_ALTERA_AVALON_SPI_STATUS(base);
    bdc8:	e0bffc17 	ldw	r2,-16(fp)
    bdcc:	10800204 	addi	r2,r2,8
    bdd0:	10800037 	ldwio	r2,0(r2)
    bdd4:	e0bffa15 	stw	r2,-24(fp)
    }
    while (((status & ALTERA_AVALON_SPI_STATUS_TRDY_MSK) == 0 || credits == 0) &&
    bdd8:	e0bffa17 	ldw	r2,-24(fp)
    bddc:	1080100c 	andi	r2,r2,64
            (status & ALTERA_AVALON_SPI_STATUS_RRDY_MSK) == 0);
    bde0:	10000226 	beq	r2,zero,bdec <alt_avalon_spi_command+0xbc>
    
    do
    {
      status = IORD_ALTERA_AVALON_SPI_STATUS(base);
    }
    while (((status & ALTERA_AVALON_SPI_STATUS_TRDY_MSK) == 0 || credits == 0) &&
    bde4:	e0bff717 	ldw	r2,-36(fp)
    bde8:	1000031e 	bne	r2,zero,bdf8 <alt_avalon_spi_command+0xc8>
            (status & ALTERA_AVALON_SPI_STATUS_RRDY_MSK) == 0);
    bdec:	e0bffa17 	ldw	r2,-24(fp)
    bdf0:	1080200c 	andi	r2,r2,128
    
    do
    {
      status = IORD_ALTERA_AVALON_SPI_STATUS(base);
    }
    while (((status & ALTERA_AVALON_SPI_STATUS_TRDY_MSK) == 0 || credits == 0) &&
    bdf4:	103ff426 	beq	r2,zero,bdc8 <alt_avalon_spi_command+0x98>
            (status & ALTERA_AVALON_SPI_STATUS_RRDY_MSK) == 0);

    if ((status & ALTERA_AVALON_SPI_STATUS_TRDY_MSK) != 0 && credits > 0)
    bdf8:	e0bffa17 	ldw	r2,-24(fp)
    bdfc:	1080100c 	andi	r2,r2,64
    be00:	10001e26 	beq	r2,zero,be7c <alt_avalon_spi_command+0x14c>
    be04:	e0bff717 	ldw	r2,-36(fp)
    be08:	00801c0e 	bge	zero,r2,be7c <alt_avalon_spi_command+0x14c>
    {
      credits--;
    be0c:	e0bff717 	ldw	r2,-36(fp)
    be10:	10bfffc4 	addi	r2,r2,-1
    be14:	e0bff715 	stw	r2,-36(fp)

      if (write_data < write_end)
    be18:	e0ffff17 	ldw	r3,-4(fp)
    be1c:	e0bff817 	ldw	r2,-32(fp)
    be20:	18800a2e 	bgeu	r3,r2,be4c <alt_avalon_spi_command+0x11c>
        IOWR_ALTERA_AVALON_SPI_TXDATA(base, *write_data++);
    be24:	e0bffc17 	ldw	r2,-16(fp)
    be28:	10800104 	addi	r2,r2,4
    be2c:	e0ffff17 	ldw	r3,-4(fp)
    be30:	18c00003 	ldbu	r3,0(r3)
    be34:	18c03fcc 	andi	r3,r3,255
    be38:	e13fff17 	ldw	r4,-4(fp)
    be3c:	21000044 	addi	r4,r4,1
    be40:	e13fff15 	stw	r4,-4(fp)
    be44:	10c00035 	stwio	r3,0(r2)
    be48:	00000c06 	br	be7c <alt_avalon_spi_command+0x14c>
      else if (write_zeros > 0)
    be4c:	e0bff517 	ldw	r2,-44(fp)
    be50:	10000826 	beq	r2,zero,be74 <alt_avalon_spi_command+0x144>
      {
        write_zeros--;
    be54:	e0bff517 	ldw	r2,-44(fp)
    be58:	10bfffc4 	addi	r2,r2,-1
    be5c:	e0bff515 	stw	r2,-44(fp)
        IOWR_ALTERA_AVALON_SPI_TXDATA(base, 0);
    be60:	e0bffc17 	ldw	r2,-16(fp)
    be64:	10800104 	addi	r2,r2,4
    be68:	0007883a 	mov	r3,zero
    be6c:	10c00035 	stwio	r3,0(r2)
    be70:	00000206 	br	be7c <alt_avalon_spi_command+0x14c>
      }
      else
        credits = -1024;
    be74:	00bf0004 	movi	r2,-1024
    be78:	e0bff715 	stw	r2,-36(fp)
    };

    if ((status & ALTERA_AVALON_SPI_STATUS_RRDY_MSK) != 0)
    be7c:	e0bffa17 	ldw	r2,-24(fp)
    be80:	1080200c 	andi	r2,r2,128
    be84:	103fcf26 	beq	r2,zero,bdc4 <alt_avalon_spi_command+0x94>
    {
      alt_u32 rxdata = IORD_ALTERA_AVALON_SPI_RXDATA(base);
    be88:	e0bffc17 	ldw	r2,-16(fp)
    be8c:	10800037 	ldwio	r2,0(r2)
    be90:	e0bffb15 	stw	r2,-20(fp)

      if (read_ignore > 0)
    be94:	e0bff617 	ldw	r2,-40(fp)
    be98:	10000426 	beq	r2,zero,beac <alt_avalon_spi_command+0x17c>
        read_ignore--;
    be9c:	e0bff617 	ldw	r2,-40(fp)
    bea0:	10bfffc4 	addi	r2,r2,-1
    bea4:	e0bff615 	stw	r2,-40(fp)
    bea8:	00000706 	br	bec8 <alt_avalon_spi_command+0x198>
      else
        *read_data++ = (alt_u8)rxdata;
    beac:	e0bffb17 	ldw	r2,-20(fp)
    beb0:	1007883a 	mov	r3,r2
    beb4:	e0800217 	ldw	r2,8(fp)
    beb8:	10c00005 	stb	r3,0(r2)
    bebc:	e0800217 	ldw	r2,8(fp)
    bec0:	10800044 	addi	r2,r2,1
    bec4:	e0800215 	stw	r2,8(fp)
      credits++;
    bec8:	e0bff717 	ldw	r2,-36(fp)
    becc:	10800044 	addi	r2,r2,1
    bed0:	e0bff715 	stw	r2,-36(fp)

      if (read_ignore == 0 && read_data == read_end)
    bed4:	e0bff617 	ldw	r2,-40(fp)
    bed8:	103fba1e 	bne	r2,zero,bdc4 <alt_avalon_spi_command+0x94>
    bedc:	e0c00217 	ldw	r3,8(fp)
    bee0:	e0bff917 	ldw	r2,-28(fp)
    bee4:	18bfb71e 	bne	r3,r2,bdc4 <alt_avalon_spi_command+0x94>
        break;
    bee8:	0001883a 	nop
  }

  /* Wait until the interface has finished transmitting */
  do
  {
    status = IORD_ALTERA_AVALON_SPI_STATUS(base);
    beec:	e0bffc17 	ldw	r2,-16(fp)
    bef0:	10800204 	addi	r2,r2,8
    bef4:	10800037 	ldwio	r2,0(r2)
    bef8:	e0bffa15 	stw	r2,-24(fp)
  }
  while ((status & ALTERA_AVALON_SPI_STATUS_TMT_MSK) == 0);
    befc:	e0bffa17 	ldw	r2,-24(fp)
    bf00:	1080080c 	andi	r2,r2,32
    bf04:	103ff926 	beq	r2,zero,beec <alt_avalon_spi_command+0x1bc>

  /* Clear SSO (release chipselect) unless the caller is going to
   * keep using this chip
   */
  if ((flags & ALT_AVALON_SPI_COMMAND_MERGE) == 0)
    bf08:	e0800317 	ldw	r2,12(fp)
    bf0c:	1080004c 	andi	r2,r2,1
    bf10:	1000041e 	bne	r2,zero,bf24 <alt_avalon_spi_command+0x1f4>
    IOWR_ALTERA_AVALON_SPI_CONTROL(base, 0);
    bf14:	e0bffc17 	ldw	r2,-16(fp)
    bf18:	10800304 	addi	r2,r2,12
    bf1c:	0007883a 	mov	r3,zero
    bf20:	10c00035 	stwio	r3,0(r2)

  return read_length;
    bf24:	e0800117 	ldw	r2,4(fp)
}
    bf28:	e037883a 	mov	sp,fp
    bf2c:	df000017 	ldw	fp,0(sp)
    bf30:	dec00104 	addi	sp,sp,4
    bf34:	f800283a 	ret

0000bf38 <alt_find_file>:
 * either '/' or '\0' is the prefix of the filename. For example the filename:
 * "/myfilesystem/junk.txt" would match: "/myfilesystem", but not: "/myfile". 
 */
 
alt_dev* alt_find_file (const char* name)
{
    bf38:	defffb04 	addi	sp,sp,-20
    bf3c:	dfc00415 	stw	ra,16(sp)
    bf40:	df000315 	stw	fp,12(sp)
    bf44:	df000304 	addi	fp,sp,12
    bf48:	e13fff15 	stw	r4,-4(fp)
  alt_dev* next = (alt_dev*) alt_fs_list.next;   
    bf4c:	00800074 	movhi	r2,1
    bf50:	10b5c504 	addi	r2,r2,-10476
    bf54:	10800017 	ldw	r2,0(r2)
    bf58:	e0bffd15 	stw	r2,-12(fp)
  /*
   * Check each list entry in turn, until a match is found, or we reach the
   * end of the list (i.e. next winds up pointing back to the list head).
   */ 
 
  while (next != (alt_dev*) &alt_fs_list)
    bf5c:	00003106 	br	c024 <alt_find_file+0xec>
  {
    len = strlen(next->name);
    bf60:	e0bffd17 	ldw	r2,-12(fp)
    bf64:	10800217 	ldw	r2,8(r2)
    bf68:	1009883a 	mov	r4,r2
    bf6c:	00088740 	call	8874 <strlen>
    bf70:	e0bffe15 	stw	r2,-8(fp)
    
    if (next->name[len-1] == '/')
    bf74:	e0bffd17 	ldw	r2,-12(fp)
    bf78:	10c00217 	ldw	r3,8(r2)
    bf7c:	e0bffe17 	ldw	r2,-8(fp)
    bf80:	10bfffc4 	addi	r2,r2,-1
    bf84:	1885883a 	add	r2,r3,r2
    bf88:	10800003 	ldbu	r2,0(r2)
    bf8c:	10803fcc 	andi	r2,r2,255
    bf90:	1080201c 	xori	r2,r2,128
    bf94:	10bfe004 	addi	r2,r2,-128
    bf98:	10800bd8 	cmpnei	r2,r2,47
    bf9c:	1000031e 	bne	r2,zero,bfac <alt_find_file+0x74>
    {
      len -= 1;
    bfa0:	e0bffe17 	ldw	r2,-8(fp)
    bfa4:	10bfffc4 	addi	r2,r2,-1
    bfa8:	e0bffe15 	stw	r2,-8(fp)
    }

    if (((name[len] == '/') || (name[len] == '\0')) && 
    bfac:	e0bffe17 	ldw	r2,-8(fp)
    bfb0:	e0ffff17 	ldw	r3,-4(fp)
    bfb4:	1885883a 	add	r2,r3,r2
    bfb8:	10800003 	ldbu	r2,0(r2)
    bfbc:	10803fcc 	andi	r2,r2,255
    bfc0:	1080201c 	xori	r2,r2,128
    bfc4:	10bfe004 	addi	r2,r2,-128
    bfc8:	10800be0 	cmpeqi	r2,r2,47
    bfcc:	1000081e 	bne	r2,zero,bff0 <alt_find_file+0xb8>
    bfd0:	e0bffe17 	ldw	r2,-8(fp)
    bfd4:	e0ffff17 	ldw	r3,-4(fp)
    bfd8:	1885883a 	add	r2,r3,r2
    bfdc:	10800003 	ldbu	r2,0(r2)
    bfe0:	10803fcc 	andi	r2,r2,255
    bfe4:	1080201c 	xori	r2,r2,128
    bfe8:	10bfe004 	addi	r2,r2,-128
    bfec:	10000a1e 	bne	r2,zero,c018 <alt_find_file+0xe0>
        !memcmp (next->name, name, len))
    bff0:	e0bffd17 	ldw	r2,-12(fp)
    bff4:	10c00217 	ldw	r3,8(r2)
    bff8:	e0bffe17 	ldw	r2,-8(fp)
    bffc:	1809883a 	mov	r4,r3
    c000:	e17fff17 	ldw	r5,-4(fp)
    c004:	100d883a 	mov	r6,r2
    c008:	000c1000 	call	c100 <memcmp>
    if (next->name[len-1] == '/')
    {
      len -= 1;
    }

    if (((name[len] == '/') || (name[len] == '\0')) && 
    c00c:	1000021e 	bne	r2,zero,c018 <alt_find_file+0xe0>
        !memcmp (next->name, name, len))
    {
      /* match found */

      return next;
    c010:	e0bffd17 	ldw	r2,-12(fp)
    c014:	00000806 	br	c038 <alt_find_file+0x100>
    }
    next = (alt_dev*) next->llist.next;
    c018:	e0bffd17 	ldw	r2,-12(fp)
    c01c:	10800017 	ldw	r2,0(r2)
    c020:	e0bffd15 	stw	r2,-12(fp)
  /*
   * Check each list entry in turn, until a match is found, or we reach the
   * end of the list (i.e. next winds up pointing back to the list head).
   */ 
 
  while (next != (alt_dev*) &alt_fs_list)
    c024:	e0fffd17 	ldw	r3,-12(fp)
    c028:	00800074 	movhi	r2,1
    c02c:	10b5c504 	addi	r2,r2,-10476
    c030:	18bfcb1e 	bne	r3,r2,bf60 <alt_find_file+0x28>
    next = (alt_dev*) next->llist.next;
  }
  
  /* No match found */
  
  return NULL;     
    c034:	0005883a 	mov	r2,zero
}
    c038:	e037883a 	mov	sp,fp
    c03c:	dfc00117 	ldw	ra,4(sp)
    c040:	df000017 	ldw	fp,0(sp)
    c044:	dec00204 	addi	sp,sp,8
    c048:	f800283a 	ret

0000c04c <alt_get_fd>:
 * the offset of the file descriptor within the file descriptor array). A
 * negative value indicates failure.
 */

int alt_get_fd (alt_dev* dev)
{
    c04c:	defffc04 	addi	sp,sp,-16
    c050:	df000315 	stw	fp,12(sp)
    c054:	df000304 	addi	fp,sp,12
    c058:	e13fff15 	stw	r4,-4(fp)
  alt_32 i;
  int rc = -EMFILE;
    c05c:	00bffa04 	movi	r2,-24
    c060:	e0bffe15 	stw	r2,-8(fp)
   * indicates the highest file descriptor ever allocated. This is used to
   * improve efficency when searching the file descriptor list, and 
   * therefore reduce contention on the alt_fd_list_lock semaphore. 
   */

  for (i = 0; i < ALT_MAX_FD; i++)
    c064:	e03ffd15 	stw	zero,-12(fp)
    c068:	00001d06 	br	c0e0 <alt_get_fd+0x94>
  {
    if (!alt_fd_list[i].dev)
    c06c:	00c00074 	movhi	r3,1
    c070:	18f56104 	addi	r3,r3,-10876
    c074:	e0bffd17 	ldw	r2,-12(fp)
    c078:	10800324 	muli	r2,r2,12
    c07c:	1885883a 	add	r2,r3,r2
    c080:	10800017 	ldw	r2,0(r2)
    c084:	1000131e 	bne	r2,zero,c0d4 <alt_get_fd+0x88>
    {
      alt_fd_list[i].dev = dev;
    c088:	00c00074 	movhi	r3,1
    c08c:	18f56104 	addi	r3,r3,-10876
    c090:	e0bffd17 	ldw	r2,-12(fp)
    c094:	10800324 	muli	r2,r2,12
    c098:	1885883a 	add	r2,r3,r2
    c09c:	e0ffff17 	ldw	r3,-4(fp)
    c0a0:	10c00015 	stw	r3,0(r2)
      if (i > alt_max_fd)
    c0a4:	00800074 	movhi	r2,1
    c0a8:	10b5c904 	addi	r2,r2,-10460
    c0ac:	10c00017 	ldw	r3,0(r2)
    c0b0:	e0bffd17 	ldw	r2,-12(fp)
    c0b4:	1880040e 	bge	r3,r2,c0c8 <alt_get_fd+0x7c>
      {
        alt_max_fd = i;
    c0b8:	00800074 	movhi	r2,1
    c0bc:	10b5c904 	addi	r2,r2,-10460
    c0c0:	e0fffd17 	ldw	r3,-12(fp)
    c0c4:	10c00015 	stw	r3,0(r2)
      }
      rc = i;
    c0c8:	e0bffd17 	ldw	r2,-12(fp)
    c0cc:	e0bffe15 	stw	r2,-8(fp)
      goto alt_get_fd_exit;
    c0d0:	00000606 	br	c0ec <alt_get_fd+0xa0>
   * indicates the highest file descriptor ever allocated. This is used to
   * improve efficency when searching the file descriptor list, and 
   * therefore reduce contention on the alt_fd_list_lock semaphore. 
   */

  for (i = 0; i < ALT_MAX_FD; i++)
    c0d4:	e0bffd17 	ldw	r2,-12(fp)
    c0d8:	10800044 	addi	r2,r2,1
    c0dc:	e0bffd15 	stw	r2,-12(fp)
    c0e0:	e0bffd17 	ldw	r2,-12(fp)
    c0e4:	10800810 	cmplti	r2,r2,32
    c0e8:	103fe01e 	bne	r2,zero,c06c <alt_get_fd+0x20>
   * file descriptor pool.
   */

  ALT_SEM_POST(alt_fd_list_lock);

  return rc;
    c0ec:	e0bffe17 	ldw	r2,-8(fp)
}
    c0f0:	e037883a 	mov	sp,fp
    c0f4:	df000017 	ldw	fp,0(sp)
    c0f8:	dec00104 	addi	sp,sp,4
    c0fc:	f800283a 	ret

0000c100 <memcmp>:
    c100:	30000d26 	beq	r6,zero,c138 <memcmp+0x38>
    c104:	20c00003 	ldbu	r3,0(r4)
    c108:	28800003 	ldbu	r2,0(r5)
    c10c:	18800c1e 	bne	r3,r2,c140 <memcmp+0x40>
    c110:	31bfff84 	addi	r6,r6,-2
    c114:	01ffffc4 	movi	r7,-1
    c118:	00000406 	br	c12c <memcmp+0x2c>
    c11c:	20c00003 	ldbu	r3,0(r4)
    c120:	28800003 	ldbu	r2,0(r5)
    c124:	31bfffc4 	addi	r6,r6,-1
    c128:	1880051e 	bne	r3,r2,c140 <memcmp+0x40>
    c12c:	21000044 	addi	r4,r4,1
    c130:	29400044 	addi	r5,r5,1
    c134:	31fff91e 	bne	r6,r7,c11c <memcmp+0x1c>
    c138:	0005883a 	mov	r2,zero
    c13c:	f800283a 	ret
    c140:	1885c83a 	sub	r2,r3,r2
    c144:	f800283a 	ret

0000c148 <memcpy>:
    c148:	2005883a 	mov	r2,r4
    c14c:	30000726 	beq	r6,zero,c16c <memcpy+0x24>
    c150:	218d883a 	add	r6,r4,r6
    c154:	2007883a 	mov	r3,r4
    c158:	29c00003 	ldbu	r7,0(r5)
    c15c:	18c00044 	addi	r3,r3,1
    c160:	29400044 	addi	r5,r5,1
    c164:	19ffffc5 	stb	r7,-1(r3)
    c168:	19bffb1e 	bne	r3,r6,c158 <memcpy+0x10>
    c16c:	f800283a 	ret
