Archive member included because of file (symbol)

d:/eda/quartus13/nios2eds/bin/gnu/h-i686-mingw32/bin/../lib/gcc/nios2-elf/4.7.3/../../../../../H-i686-mingw32/nios2-elf/lib\libc.a(lib_a-atoi.o)
                              obj/default/http.o (atoi)
d:/eda/quartus13/nios2eds/bin/gnu/h-i686-mingw32/bin/../lib/gcc/nios2-elf/4.7.3/../../../../../H-i686-mingw32/nios2-elf/lib\libc.a(lib_a-ctype_.o)
                              obj/default/http.o (__ctype_ptr)
d:/eda/quartus13/nios2eds/bin/gnu/h-i686-mingw32/bin/../lib/gcc/nios2-elf/4.7.3/../../../../../H-i686-mingw32/nios2-elf/lib\libc.a(lib_a-fclose.o)
                              obj/default/http.o (fclose)
d:/eda/quartus13/nios2eds/bin/gnu/h-i686-mingw32/bin/../lib/gcc/nios2-elf/4.7.3/../../../../../H-i686-mingw32/nios2-elf/lib\libc.a(lib_a-fflush.o)
                              d:/eda/quartus13/nios2eds/bin/gnu/h-i686-mingw32/bin/../lib/gcc/nios2-elf/4.7.3/../../../../../H-i686-mingw32/nios2-elf/lib\libc.a(lib_a-fclose.o) (_fflush_r)
d:/eda/quartus13/nios2eds/bin/gnu/h-i686-mingw32/bin/../lib/gcc/nios2-elf/4.7.3/../../../../../H-i686-mingw32/nios2-elf/lib\libc.a(lib_a-fgetpos.o)
                              obj/default/http.o (fgetpos)
d:/eda/quartus13/nios2eds/bin/gnu/h-i686-mingw32/bin/../lib/gcc/nios2-elf/4.7.3/../../../../../H-i686-mingw32/nios2-elf/lib\libc.a(lib_a-findfp.o)
                              d:/eda/quartus13/nios2eds/bin/gnu/h-i686-mingw32/bin/../lib/gcc/nios2-elf/4.7.3/../../../../../H-i686-mingw32/nios2-elf/lib\libc.a(lib_a-fclose.o) (__sinit)
d:/eda/quartus13/nios2eds/bin/gnu/h-i686-mingw32/bin/../lib/gcc/nios2-elf/4.7.3/../../../../../H-i686-mingw32/nios2-elf/lib\libc.a(lib_a-fopen.o)
                              obj/default/http.o (fopen)
d:/eda/quartus13/nios2eds/bin/gnu/h-i686-mingw32/bin/../lib/gcc/nios2-elf/4.7.3/../../../../../H-i686-mingw32/nios2-elf/lib\libc.a(lib_a-fprintf.o)
                              obj/default/alt_error_handler.o (fprintf)
d:/eda/quartus13/nios2eds/bin/gnu/h-i686-mingw32/bin/../lib/gcc/nios2-elf/4.7.3/../../../../../H-i686-mingw32/nios2-elf/lib\libc.a(lib_a-fread.o)
                              obj/default/http.o (fread)
d:/eda/quartus13/nios2eds/bin/gnu/h-i686-mingw32/bin/../lib/gcc/nios2-elf/4.7.3/../../../../../H-i686-mingw32/nios2-elf/lib\libc.a(lib_a-freer.o)
                              d:/eda/quartus13/nios2eds/bin/gnu/h-i686-mingw32/bin/../lib/gcc/nios2-elf/4.7.3/../../../../../H-i686-mingw32/nios2-elf/lib\libc.a(lib_a-fclose.o) (_free_r)
d:/eda/quartus13/nios2eds/bin/gnu/h-i686-mingw32/bin/../lib/gcc/nios2-elf/4.7.3/../../../../../H-i686-mingw32/nios2-elf/lib\libc.a(lib_a-fseek.o)
                              d:/eda/quartus13/nios2eds/bin/gnu/h-i686-mingw32/bin/../lib/gcc/nios2-elf/4.7.3/../../../../../H-i686-mingw32/nios2-elf/lib\libc.a(lib_a-fopen.o) (_fseek_r)
d:/eda/quartus13/nios2eds/bin/gnu/h-i686-mingw32/bin/../lib/gcc/nios2-elf/4.7.3/../../../../../H-i686-mingw32/nios2-elf/lib\libc.a(lib_a-fstatr.o)
                              d:/eda/quartus13/nios2eds/bin/gnu/h-i686-mingw32/bin/../lib/gcc/nios2-elf/4.7.3/../../../../../H-i686-mingw32/nios2-elf/lib\libc.a(lib_a-fseek.o) (_fstat_r)
d:/eda/quartus13/nios2eds/bin/gnu/h-i686-mingw32/bin/../lib/gcc/nios2-elf/4.7.3/../../../../../H-i686-mingw32/nios2-elf/lib\libc.a(lib_a-ftell.o)
                              d:/eda/quartus13/nios2eds/bin/gnu/h-i686-mingw32/bin/../lib/gcc/nios2-elf/4.7.3/../../../../../H-i686-mingw32/nios2-elf/lib\libc.a(lib_a-fgetpos.o) (_ftell_r)
d:/eda/quartus13/nios2eds/bin/gnu/h-i686-mingw32/bin/../lib/gcc/nios2-elf/4.7.3/../../../../../H-i686-mingw32/nios2-elf/lib\libc.a(lib_a-fwalk.o)
                              d:/eda/quartus13/nios2eds/bin/gnu/h-i686-mingw32/bin/../lib/gcc/nios2-elf/4.7.3/../../../../../H-i686-mingw32/nios2-elf/lib\libc.a(lib_a-findfp.o) (_fwalk)
d:/eda/quartus13/nios2eds/bin/gnu/h-i686-mingw32/bin/../lib/gcc/nios2-elf/4.7.3/../../../../../H-i686-mingw32/nios2-elf/lib\libc.a(lib_a-fwrite.o)
                              obj/default/alt_error_handler.o (fwrite)
d:/eda/quartus13/nios2eds/bin/gnu/h-i686-mingw32/bin/../lib/gcc/nios2-elf/4.7.3/../../../../../H-i686-mingw32/nios2-elf/lib\libc.a(lib_a-getc.o)
                              obj/default/network_utilities.o (getc)
d:/eda/quartus13/nios2eds/bin/gnu/h-i686-mingw32/bin/../lib/gcc/nios2-elf/4.7.3/../../../../../H-i686-mingw32/nios2-elf/lib\libc.a(lib_a-impure.o)
                              d:/eda/quartus13/nios2eds/bin/gnu/h-i686-mingw32/bin/../lib/gcc/nios2-elf/4.7.3/../../../../../H-i686-mingw32/nios2-elf/lib\libc.a(lib_a-fflush.o) (_global_impure_ptr)
d:/eda/quartus13/nios2eds/bin/gnu/h-i686-mingw32/bin/../lib/gcc/nios2-elf/4.7.3/../../../../../H-i686-mingw32/nios2-elf/lib\libc.a(lib_a-int_errno.o)
                              d:/eda/quartus13/nios2eds/bin/gnu/h-i686-mingw32/bin/../lib/gcc/nios2-elf/4.7.3/../../../../../H-i686-mingw32/nios2-elf/lib\libc.a(lib_a-fstatr.o) (errno)
d:/eda/quartus13/nios2eds/bin/gnu/h-i686-mingw32/bin/../lib/gcc/nios2-elf/4.7.3/../../../../../H-i686-mingw32/nios2-elf/lib\libc.a(lib_a-makebuf.o)
                              d:/eda/quartus13/nios2eds/bin/gnu/h-i686-mingw32/bin/../lib/gcc/nios2-elf/4.7.3/../../../../../H-i686-mingw32/nios2-elf/lib\libc.a(lib_a-fseek.o) (__smakebuf_r)
d:/eda/quartus13/nios2eds/bin/gnu/h-i686-mingw32/bin/../lib/gcc/nios2-elf/4.7.3/../../../../../H-i686-mingw32/nios2-elf/lib\libc.a(lib_a-mallocr.o)
                              d:/eda/quartus13/nios2eds/bin/gnu/h-i686-mingw32/bin/../lib/gcc/nios2-elf/4.7.3/../../../../../H-i686-mingw32/nios2-elf/lib\libc.a(lib_a-findfp.o) (_malloc_r)
d:/eda/quartus13/nios2eds/bin/gnu/h-i686-mingw32/bin/../lib/gcc/nios2-elf/4.7.3/../../../../../H-i686-mingw32/nios2-elf/lib\libc.a(lib_a-memcpy.o)
                              obj/default/http.o (memcpy)
d:/eda/quartus13/nios2eds/bin/gnu/h-i686-mingw32/bin/../lib/gcc/nios2-elf/4.7.3/../../../../../H-i686-mingw32/nios2-elf/lib\libc.a(lib_a-memmove.o)
                              obj/default/http.o (memmove)
d:/eda/quartus13/nios2eds/bin/gnu/h-i686-mingw32/bin/../lib/gcc/nios2-elf/4.7.3/../../../../../H-i686-mingw32/nios2-elf/lib\libc.a(lib_a-memset.o)
                              obj/default/http.o (memset)
d:/eda/quartus13/nios2eds/bin/gnu/h-i686-mingw32/bin/../lib/gcc/nios2-elf/4.7.3/../../../../../H-i686-mingw32/nios2-elf/lib\libc.a(lib_a-openr.o)
                              d:/eda/quartus13/nios2eds/bin/gnu/h-i686-mingw32/bin/../lib/gcc/nios2-elf/4.7.3/../../../../../H-i686-mingw32/nios2-elf/lib\libc.a(lib_a-fopen.o) (_open_r)
d:/eda/quartus13/nios2eds/bin/gnu/h-i686-mingw32/bin/../lib/gcc/nios2-elf/4.7.3/../../../../../H-i686-mingw32/nios2-elf/lib\libc.a(lib_a-perror.o)
                              obj/default/alt_error_handler.o (perror)
d:/eda/quartus13/nios2eds/bin/gnu/h-i686-mingw32/bin/../lib/gcc/nios2-elf/4.7.3/../../../../../H-i686-mingw32/nios2-elf/lib\libc.a(lib_a-printf.o)
                              obj/default/alt_error_handler.o (printf)
d:/eda/quartus13/nios2eds/bin/gnu/h-i686-mingw32/bin/../lib/gcc/nios2-elf/4.7.3/../../../../../H-i686-mingw32/nios2-elf/lib\libc.a(lib_a-putc.o)
                              obj/default/network_utilities.o (putc)
d:/eda/quartus13/nios2eds/bin/gnu/h-i686-mingw32/bin/../lib/gcc/nios2-elf/4.7.3/../../../../../H-i686-mingw32/nios2-elf/lib\libc.a(lib_a-putchar.o)
                              obj/default/network_utilities.o (putchar)
d:/eda/quartus13/nios2eds/bin/gnu/h-i686-mingw32/bin/../lib/gcc/nios2-elf/4.7.3/../../../../../H-i686-mingw32/nios2-elf/lib\libc.a(lib_a-puts.o)
                              obj/default/alt_error_handler.o (puts)
d:/eda/quartus13/nios2eds/bin/gnu/h-i686-mingw32/bin/../lib/gcc/nios2-elf/4.7.3/../../../../../H-i686-mingw32/nios2-elf/lib\libc.a(lib_a-refill.o)
                              d:/eda/quartus13/nios2eds/bin/gnu/h-i686-mingw32/bin/../lib/gcc/nios2-elf/4.7.3/../../../../../H-i686-mingw32/nios2-elf/lib\libc.a(lib_a-fread.o) (__srefill_r)
d:/eda/quartus13/nios2eds/bin/gnu/h-i686-mingw32/bin/../lib/gcc/nios2-elf/4.7.3/../../../../../H-i686-mingw32/nios2-elf/lib\libc.a(lib_a-rget.o)
                              d:/eda/quartus13/nios2eds/bin/gnu/h-i686-mingw32/bin/../lib/gcc/nios2-elf/4.7.3/../../../../../H-i686-mingw32/nios2-elf/lib\libc.a(lib_a-getc.o) (__srget_r)
d:/eda/quartus13/nios2eds/bin/gnu/h-i686-mingw32/bin/../lib/gcc/nios2-elf/4.7.3/../../../../../H-i686-mingw32/nios2-elf/lib\libc.a(lib_a-sbrkr.o)
                              d:/eda/quartus13/nios2eds/bin/gnu/h-i686-mingw32/bin/../lib/gcc/nios2-elf/4.7.3/../../../../../H-i686-mingw32/nios2-elf/lib\libc.a(lib_a-freer.o) (_sbrk_r)
d:/eda/quartus13/nios2eds/bin/gnu/h-i686-mingw32/bin/../lib/gcc/nios2-elf/4.7.3/../../../../../H-i686-mingw32/nios2-elf/lib\libc.a(lib_a-sprintf.o)
                              obj/default/http.o (sprintf)
d:/eda/quartus13/nios2eds/bin/gnu/h-i686-mingw32/bin/../lib/gcc/nios2-elf/4.7.3/../../../../../H-i686-mingw32/nios2-elf/lib\libc.a(lib_a-sscanf.o)
                              obj/default/srec_flash.o (sscanf)
d:/eda/quartus13/nios2eds/bin/gnu/h-i686-mingw32/bin/../lib/gcc/nios2-elf/4.7.3/../../../../../H-i686-mingw32/nios2-elf/lib\libc.a(lib_a-stdio.o)
                              d:/eda/quartus13/nios2eds/bin/gnu/h-i686-mingw32/bin/../lib/gcc/nios2-elf/4.7.3/../../../../../H-i686-mingw32/nios2-elf/lib\libc.a(lib_a-findfp.o) (__sread)
d:/eda/quartus13/nios2eds/bin/gnu/h-i686-mingw32/bin/../lib/gcc/nios2-elf/4.7.3/../../../../../H-i686-mingw32/nios2-elf/lib\libc.a(lib_a-strcasecmp.o)
                              obj/default/http.o (strcasecmp)
d:/eda/quartus13/nios2eds/bin/gnu/h-i686-mingw32/bin/../lib/gcc/nios2-elf/4.7.3/../../../../../H-i686-mingw32/nios2-elf/lib\libc.a(lib_a-strcat.o)
                              obj/default/srec_flash.o (strcat)
d:/eda/quartus13/nios2eds/bin/gnu/h-i686-mingw32/bin/../lib/gcc/nios2-elf/4.7.3/../../../../../H-i686-mingw32/nios2-elf/lib\libc.a(lib_a-strchr.o)
                              obj/default/http.o (strchr)
d:/eda/quartus13/nios2eds/bin/gnu/h-i686-mingw32/bin/../lib/gcc/nios2-elf/4.7.3/../../../../../H-i686-mingw32/nios2-elf/lib\libc.a(lib_a-strcmp.o)
                              obj/default/http.o (strcmp)
d:/eda/quartus13/nios2eds/bin/gnu/h-i686-mingw32/bin/../lib/gcc/nios2-elf/4.7.3/../../../../../H-i686-mingw32/nios2-elf/lib\libc.a(lib_a-strcpy.o)
                              obj/default/http.o (strcpy)
d:/eda/quartus13/nios2eds/bin/gnu/h-i686-mingw32/bin/../lib/gcc/nios2-elf/4.7.3/../../../../../H-i686-mingw32/nios2-elf/lib\libc.a(lib_a-strerror.o)
                              d:/eda/quartus13/nios2eds/bin/gnu/h-i686-mingw32/bin/../lib/gcc/nios2-elf/4.7.3/../../../../../H-i686-mingw32/nios2-elf/lib\libc.a(lib_a-perror.o) (strerror)
d:/eda/quartus13/nios2eds/bin/gnu/h-i686-mingw32/bin/../lib/gcc/nios2-elf/4.7.3/../../../../../H-i686-mingw32/nios2-elf/lib\libc.a(lib_a-strlen.o)
                              obj/default/http.o (strlen)
d:/eda/quartus13/nios2eds/bin/gnu/h-i686-mingw32/bin/../lib/gcc/nios2-elf/4.7.3/../../../../../H-i686-mingw32/nios2-elf/lib\libc.a(lib_a-strncmp.o)
                              obj/default/http.o (strncmp)
d:/eda/quartus13/nios2eds/bin/gnu/h-i686-mingw32/bin/../lib/gcc/nios2-elf/4.7.3/../../../../../H-i686-mingw32/nios2-elf/lib\libc.a(lib_a-strncpy.o)
                              obj/default/http.o (strncpy)
d:/eda/quartus13/nios2eds/bin/gnu/h-i686-mingw32/bin/../lib/gcc/nios2-elf/4.7.3/../../../../../H-i686-mingw32/nios2-elf/lib\libc.a(lib_a-strstr.o)
                              obj/default/http.o (strstr)
d:/eda/quartus13/nios2eds/bin/gnu/h-i686-mingw32/bin/../lib/gcc/nios2-elf/4.7.3/../../../../../H-i686-mingw32/nios2-elf/lib\libc.a(lib_a-strtok.o)
                              obj/default/http.o (strtok)
d:/eda/quartus13/nios2eds/bin/gnu/h-i686-mingw32/bin/../lib/gcc/nios2-elf/4.7.3/../../../../../H-i686-mingw32/nios2-elf/lib\libc.a(lib_a-strtok_r.o)
                              d:/eda/quartus13/nios2eds/bin/gnu/h-i686-mingw32/bin/../lib/gcc/nios2-elf/4.7.3/../../../../../H-i686-mingw32/nios2-elf/lib\libc.a(lib_a-strtok.o) (__strtok_r)
d:/eda/quartus13/nios2eds/bin/gnu/h-i686-mingw32/bin/../lib/gcc/nios2-elf/4.7.3/../../../../../H-i686-mingw32/nios2-elf/lib\libc.a(lib_a-strtol.o)
                              d:/eda/quartus13/nios2eds/bin/gnu/h-i686-mingw32/bin/../lib/gcc/nios2-elf/4.7.3/../../../../../H-i686-mingw32/nios2-elf/lib\libc.a(lib_a-atoi.o) (_strtol_r)
d:/eda/quartus13/nios2eds/bin/gnu/h-i686-mingw32/bin/../lib/gcc/nios2-elf/4.7.3/../../../../../H-i686-mingw32/nios2-elf/lib\libc.a(lib_a-u_strerr.o)
                              d:/eda/quartus13/nios2eds/bin/gnu/h-i686-mingw32/bin/../lib/gcc/nios2-elf/4.7.3/../../../../../H-i686-mingw32/nios2-elf/lib\libc.a(lib_a-strerror.o) (_user_strerror)
d:/eda/quartus13/nios2eds/bin/gnu/h-i686-mingw32/bin/../lib/gcc/nios2-elf/4.7.3/../../../../../H-i686-mingw32/nios2-elf/lib\libc.a(lib_a-vfprintf.o)
                              d:/eda/quartus13/nios2eds/bin/gnu/h-i686-mingw32/bin/../lib/gcc/nios2-elf/4.7.3/../../../../../H-i686-mingw32/nios2-elf/lib\libc.a(lib_a-printf.o) (___vfprintf_internal_r)
d:/eda/quartus13/nios2eds/bin/gnu/h-i686-mingw32/bin/../lib/gcc/nios2-elf/4.7.3/../../../../../H-i686-mingw32/nios2-elf/lib\libc.a(lib_a-vfscanf.o)
                              d:/eda/quartus13/nios2eds/bin/gnu/h-i686-mingw32/bin/../lib/gcc/nios2-elf/4.7.3/../../../../../H-i686-mingw32/nios2-elf/lib\libc.a(lib_a-sscanf.o) (__svfscanf_r)
d:/eda/quartus13/nios2eds/bin/gnu/h-i686-mingw32/bin/../lib/gcc/nios2-elf/4.7.3/../../../../../H-i686-mingw32/nios2-elf/lib\libc.a(lib_a-wbuf.o)
                              d:/eda/quartus13/nios2eds/bin/gnu/h-i686-mingw32/bin/../lib/gcc/nios2-elf/4.7.3/../../../../../H-i686-mingw32/nios2-elf/lib\libc.a(lib_a-putc.o) (__swbuf_r)
d:/eda/quartus13/nios2eds/bin/gnu/h-i686-mingw32/bin/../lib/gcc/nios2-elf/4.7.3/../../../../../H-i686-mingw32/nios2-elf/lib\libc.a(lib_a-writer.o)
                              d:/eda/quartus13/nios2eds/bin/gnu/h-i686-mingw32/bin/../lib/gcc/nios2-elf/4.7.3/../../../../../H-i686-mingw32/nios2-elf/lib\libc.a(lib_a-stdio.o) (_write_r)
d:/eda/quartus13/nios2eds/bin/gnu/h-i686-mingw32/bin/../lib/gcc/nios2-elf/4.7.3/../../../../../H-i686-mingw32/nios2-elf/lib\libc.a(lib_a-wsetup.o)
                              d:/eda/quartus13/nios2eds/bin/gnu/h-i686-mingw32/bin/../lib/gcc/nios2-elf/4.7.3/../../../../../H-i686-mingw32/nios2-elf/lib\libc.a(lib_a-vfprintf.o) (__swsetup_r)
d:/eda/quartus13/nios2eds/bin/gnu/h-i686-mingw32/bin/../lib/gcc/nios2-elf/4.7.3/../../../../../H-i686-mingw32/nios2-elf/lib\libc.a(lib_a-closer.o)
                              d:/eda/quartus13/nios2eds/bin/gnu/h-i686-mingw32/bin/../lib/gcc/nios2-elf/4.7.3/../../../../../H-i686-mingw32/nios2-elf/lib\libc.a(lib_a-stdio.o) (_close_r)
d:/eda/quartus13/nios2eds/bin/gnu/h-i686-mingw32/bin/../lib/gcc/nios2-elf/4.7.3/../../../../../H-i686-mingw32/nios2-elf/lib\libc.a(lib_a-dtoa.o)
                              d:/eda/quartus13/nios2eds/bin/gnu/h-i686-mingw32/bin/../lib/gcc/nios2-elf/4.7.3/../../../../../H-i686-mingw32/nios2-elf/lib\libc.a(lib_a-vfprintf.o) (_dtoa_r)
d:/eda/quartus13/nios2eds/bin/gnu/h-i686-mingw32/bin/../lib/gcc/nios2-elf/4.7.3/../../../../../H-i686-mingw32/nios2-elf/lib\libc.a(lib_a-flags.o)
                              d:/eda/quartus13/nios2eds/bin/gnu/h-i686-mingw32/bin/../lib/gcc/nios2-elf/4.7.3/../../../../../H-i686-mingw32/nios2-elf/lib\libc.a(lib_a-fopen.o) (__sflags)
d:/eda/quartus13/nios2eds/bin/gnu/h-i686-mingw32/bin/../lib/gcc/nios2-elf/4.7.3/../../../../../H-i686-mingw32/nios2-elf/lib\libc.a(lib_a-fputc.o)
                              d:/eda/quartus13/nios2eds/bin/gnu/h-i686-mingw32/bin/../lib/gcc/nios2-elf/4.7.3/../../../../../H-i686-mingw32/nios2-elf/lib\libc.a(lib_a-perror.o) (fputc)
d:/eda/quartus13/nios2eds/bin/gnu/h-i686-mingw32/bin/../lib/gcc/nios2-elf/4.7.3/../../../../../H-i686-mingw32/nios2-elf/lib\libc.a(lib_a-fputs.o)
                              d:/eda/quartus13/nios2eds/bin/gnu/h-i686-mingw32/bin/../lib/gcc/nios2-elf/4.7.3/../../../../../H-i686-mingw32/nios2-elf/lib\libc.a(lib_a-perror.o) (fputs)
d:/eda/quartus13/nios2eds/bin/gnu/h-i686-mingw32/bin/../lib/gcc/nios2-elf/4.7.3/../../../../../H-i686-mingw32/nios2-elf/lib\libc.a(lib_a-fvwrite.o)
                              d:/eda/quartus13/nios2eds/bin/gnu/h-i686-mingw32/bin/../lib/gcc/nios2-elf/4.7.3/../../../../../H-i686-mingw32/nios2-elf/lib\libc.a(lib_a-fwrite.o) (__sfvwrite_r)
d:/eda/quartus13/nios2eds/bin/gnu/h-i686-mingw32/bin/../lib/gcc/nios2-elf/4.7.3/../../../../../H-i686-mingw32/nios2-elf/lib\libc.a(lib_a-isattyr.o)
                              d:/eda/quartus13/nios2eds/bin/gnu/h-i686-mingw32/bin/../lib/gcc/nios2-elf/4.7.3/../../../../../H-i686-mingw32/nios2-elf/lib\libc.a(lib_a-makebuf.o) (_isatty_r)
d:/eda/quartus13/nios2eds/bin/gnu/h-i686-mingw32/bin/../lib/gcc/nios2-elf/4.7.3/../../../../../H-i686-mingw32/nios2-elf/lib\libc.a(lib_a-iswspace.o)
                              d:/eda/quartus13/nios2eds/bin/gnu/h-i686-mingw32/bin/../lib/gcc/nios2-elf/4.7.3/../../../../../H-i686-mingw32/nios2-elf/lib\libc.a(lib_a-vfscanf.o) (iswspace)
d:/eda/quartus13/nios2eds/bin/gnu/h-i686-mingw32/bin/../lib/gcc/nios2-elf/4.7.3/../../../../../H-i686-mingw32/nios2-elf/lib\libc.a(lib_a-locale.o)
                              d:/eda/quartus13/nios2eds/bin/gnu/h-i686-mingw32/bin/../lib/gcc/nios2-elf/4.7.3/../../../../../H-i686-mingw32/nios2-elf/lib\libc.a(lib_a-vfprintf.o) (_localeconv_r)
d:/eda/quartus13/nios2eds/bin/gnu/h-i686-mingw32/bin/../lib/gcc/nios2-elf/4.7.3/../../../../../H-i686-mingw32/nios2-elf/lib\libc.a(lib_a-lseekr.o)
                              d:/eda/quartus13/nios2eds/bin/gnu/h-i686-mingw32/bin/../lib/gcc/nios2-elf/4.7.3/../../../../../H-i686-mingw32/nios2-elf/lib\libc.a(lib_a-stdio.o) (_lseek_r)
d:/eda/quartus13/nios2eds/bin/gnu/h-i686-mingw32/bin/../lib/gcc/nios2-elf/4.7.3/../../../../../H-i686-mingw32/nios2-elf/lib\libc.a(lib_a-mbrtowc.o)
                              d:/eda/quartus13/nios2eds/bin/gnu/h-i686-mingw32/bin/../lib/gcc/nios2-elf/4.7.3/../../../../../H-i686-mingw32/nios2-elf/lib\libc.a(lib_a-vfscanf.o) (_mbrtowc_r)
d:/eda/quartus13/nios2eds/bin/gnu/h-i686-mingw32/bin/../lib/gcc/nios2-elf/4.7.3/../../../../../H-i686-mingw32/nios2-elf/lib\libc.a(lib_a-mbtowc_r.o)
                              d:/eda/quartus13/nios2eds/bin/gnu/h-i686-mingw32/bin/../lib/gcc/nios2-elf/4.7.3/../../../../../H-i686-mingw32/nios2-elf/lib\libc.a(lib_a-mbrtowc.o) (_mbtowc_r)
d:/eda/quartus13/nios2eds/bin/gnu/h-i686-mingw32/bin/../lib/gcc/nios2-elf/4.7.3/../../../../../H-i686-mingw32/nios2-elf/lib\libc.a(lib_a-memchr.o)
                              d:/eda/quartus13/nios2eds/bin/gnu/h-i686-mingw32/bin/../lib/gcc/nios2-elf/4.7.3/../../../../../H-i686-mingw32/nios2-elf/lib\libc.a(lib_a-strstr.o) (memchr)
d:/eda/quartus13/nios2eds/bin/gnu/h-i686-mingw32/bin/../lib/gcc/nios2-elf/4.7.3/../../../../../H-i686-mingw32/nios2-elf/lib\libc.a(lib_a-memcmp.o)
                              d:/eda/quartus13/nios2eds/bin/gnu/h-i686-mingw32/bin/../lib/gcc/nios2-elf/4.7.3/../../../../../H-i686-mingw32/nios2-elf/lib\libc.a(lib_a-strstr.o) (memcmp)
d:/eda/quartus13/nios2eds/bin/gnu/h-i686-mingw32/bin/../lib/gcc/nios2-elf/4.7.3/../../../../../H-i686-mingw32/nios2-elf/lib\libc.a(lib_a-mprec.o)
                              d:/eda/quartus13/nios2eds/bin/gnu/h-i686-mingw32/bin/../lib/gcc/nios2-elf/4.7.3/../../../../../H-i686-mingw32/nios2-elf/lib\libc.a(lib_a-dtoa.o) (_Balloc)
d:/eda/quartus13/nios2eds/bin/gnu/h-i686-mingw32/bin/../lib/gcc/nios2-elf/4.7.3/../../../../../H-i686-mingw32/nios2-elf/lib\libc.a(lib_a-readr.o)
                              d:/eda/quartus13/nios2eds/bin/gnu/h-i686-mingw32/bin/../lib/gcc/nios2-elf/4.7.3/../../../../../H-i686-mingw32/nios2-elf/lib\libc.a(lib_a-stdio.o) (_read_r)
d:/eda/quartus13/nios2eds/bin/gnu/h-i686-mingw32/bin/../lib/gcc/nios2-elf/4.7.3/../../../../../H-i686-mingw32/nios2-elf/lib\libc.a(lib_a-reallocr.o)
                              d:/eda/quartus13/nios2eds/bin/gnu/h-i686-mingw32/bin/../lib/gcc/nios2-elf/4.7.3/../../../../../H-i686-mingw32/nios2-elf/lib\libc.a(lib_a-fvwrite.o) (_realloc_r)
d:/eda/quartus13/nios2eds/bin/gnu/h-i686-mingw32/bin/../lib/gcc/nios2-elf/4.7.3/../../../../../H-i686-mingw32/nios2-elf/lib\libc.a(lib_a-s_isinfd.o)
                              d:/eda/quartus13/nios2eds/bin/gnu/h-i686-mingw32/bin/../lib/gcc/nios2-elf/4.7.3/../../../../../H-i686-mingw32/nios2-elf/lib\libc.a(lib_a-vfprintf.o) (__isinfd)
d:/eda/quartus13/nios2eds/bin/gnu/h-i686-mingw32/bin/../lib/gcc/nios2-elf/4.7.3/../../../../../H-i686-mingw32/nios2-elf/lib\libc.a(lib_a-s_isnand.o)
                              d:/eda/quartus13/nios2eds/bin/gnu/h-i686-mingw32/bin/../lib/gcc/nios2-elf/4.7.3/../../../../../H-i686-mingw32/nios2-elf/lib\libc.a(lib_a-vfprintf.o) (__isnand)
d:/eda/quartus13/nios2eds/bin/gnu/h-i686-mingw32/bin/../lib/gcc/nios2-elf/4.7.3/../../../../../H-i686-mingw32/nios2-elf/lib\libc.a(lib_a-sccl.o)
                              d:/eda/quartus13/nios2eds/bin/gnu/h-i686-mingw32/bin/../lib/gcc/nios2-elf/4.7.3/../../../../../H-i686-mingw32/nios2-elf/lib\libc.a(lib_a-vfscanf.o) (__sccl)
d:/eda/quartus13/nios2eds/bin/gnu/h-i686-mingw32/bin/../lib/gcc/nios2-elf/4.7.3/../../../../../H-i686-mingw32/nios2-elf/lib\libc.a(lib_a-sf_nan.o)
                              d:/eda/quartus13/nios2eds/bin/gnu/h-i686-mingw32/bin/../lib/gcc/nios2-elf/4.7.3/../../../../../H-i686-mingw32/nios2-elf/lib\libc.a(lib_a-vfscanf.o) (nanf)
d:/eda/quartus13/nios2eds/bin/gnu/h-i686-mingw32/bin/../lib/gcc/nios2-elf/4.7.3/../../../../../H-i686-mingw32/nios2-elf/lib\libc.a(lib_a-strtod.o)
                              d:/eda/quartus13/nios2eds/bin/gnu/h-i686-mingw32/bin/../lib/gcc/nios2-elf/4.7.3/../../../../../H-i686-mingw32/nios2-elf/lib\libc.a(lib_a-vfscanf.o) (_strtod_r)
d:/eda/quartus13/nios2eds/bin/gnu/h-i686-mingw32/bin/../lib/gcc/nios2-elf/4.7.3/../../../../../H-i686-mingw32/nios2-elf/lib\libc.a(lib_a-strtoll_r.o)
                              d:/eda/quartus13/nios2eds/bin/gnu/h-i686-mingw32/bin/../lib/gcc/nios2-elf/4.7.3/../../../../../H-i686-mingw32/nios2-elf/lib\libc.a(lib_a-vfscanf.o) (_strtoll_r)
d:/eda/quartus13/nios2eds/bin/gnu/h-i686-mingw32/bin/../lib/gcc/nios2-elf/4.7.3/../../../../../H-i686-mingw32/nios2-elf/lib\libc.a(lib_a-strtoul.o)
                              d:/eda/quartus13/nios2eds/bin/gnu/h-i686-mingw32/bin/../lib/gcc/nios2-elf/4.7.3/../../../../../H-i686-mingw32/nios2-elf/lib\libc.a(lib_a-vfscanf.o) (_strtoul_r)
d:/eda/quartus13/nios2eds/bin/gnu/h-i686-mingw32/bin/../lib/gcc/nios2-elf/4.7.3/../../../../../H-i686-mingw32/nios2-elf/lib\libc.a(lib_a-strtoull_r.o)
                              d:/eda/quartus13/nios2eds/bin/gnu/h-i686-mingw32/bin/../lib/gcc/nios2-elf/4.7.3/../../../../../H-i686-mingw32/nios2-elf/lib\libc.a(lib_a-vfscanf.o) (_strtoull_r)
d:/eda/quartus13/nios2eds/bin/gnu/h-i686-mingw32/bin/../lib/gcc/nios2-elf/4.7.3/../../../../../H-i686-mingw32/nios2-elf/lib\libc.a(lib_a-ungetc.o)
                              d:/eda/quartus13/nios2eds/bin/gnu/h-i686-mingw32/bin/../lib/gcc/nios2-elf/4.7.3/../../../../../H-i686-mingw32/nios2-elf/lib\libc.a(lib_a-vfscanf.o) (_ungetc_r)
d:/eda/quartus13/nios2eds/bin/gnu/h-i686-mingw32/bin/../lib/gcc/nios2-elf/4.7.3/../../../../../H-i686-mingw32/nios2-elf/lib\libc.a(lib_a-callocr.o)
                              d:/eda/quartus13/nios2eds/bin/gnu/h-i686-mingw32/bin/../lib/gcc/nios2-elf/4.7.3/../../../../../H-i686-mingw32/nios2-elf/lib\libc.a(lib_a-mprec.o) (_calloc_r)
d:/eda/quartus13/nios2eds/bin/gnu/h-i686-mingw32/bin/../lib/gcc/nios2-elf/4.7.3/../../../../../H-i686-mingw32/nios2-elf/lib\libc.a(lib_a-gdtoa-gethex.o)
                              d:/eda/quartus13/nios2eds/bin/gnu/h-i686-mingw32/bin/../lib/gcc/nios2-elf/4.7.3/../../../../../H-i686-mingw32/nios2-elf/lib\libc.a(lib_a-strtod.o) (__gethex)
d:/eda/quartus13/nios2eds/bin/gnu/h-i686-mingw32/bin/../lib/gcc/nios2-elf/4.7.3/../../../../../H-i686-mingw32/nios2-elf/lib\libc.a(lib_a-gdtoa-hexnan.o)
                              d:/eda/quartus13/nios2eds/bin/gnu/h-i686-mingw32/bin/../lib/gcc/nios2-elf/4.7.3/../../../../../H-i686-mingw32/nios2-elf/lib\libc.a(lib_a-strtod.o) (__hexnan)
d:/eda/quartus13/nios2eds/bin/gnu/h-i686-mingw32/bin/../lib/gcc/nios2-elf/4.7.3\libgcc.a(_muldi3.o)
                              d:/eda/quartus13/nios2eds/bin/gnu/h-i686-mingw32/bin/../lib/gcc/nios2-elf/4.7.3/../../../../../H-i686-mingw32/nios2-elf/lib\libc.a(lib_a-strtoll_r.o) (__muldi3)
d:/eda/quartus13/nios2eds/bin/gnu/h-i686-mingw32/bin/../lib/gcc/nios2-elf/4.7.3\libgcc.a(_fixunsdfsi.o)
                              d:/eda/quartus13/nios2eds/bin/gnu/h-i686-mingw32/bin/../lib/gcc/nios2-elf/4.7.3/../../../../../H-i686-mingw32/nios2-elf/lib\libc.a(lib_a-strtod.o) (__fixunsdfsi)
d:/eda/quartus13/nios2eds/bin/gnu/h-i686-mingw32/bin/../lib/gcc/nios2-elf/4.7.3\libgcc.a(_udivdi3.o)
                              d:/eda/quartus13/nios2eds/bin/gnu/h-i686-mingw32/bin/../lib/gcc/nios2-elf/4.7.3/../../../../../H-i686-mingw32/nios2-elf/lib\libc.a(lib_a-vfprintf.o) (__udivdi3)
d:/eda/quartus13/nios2eds/bin/gnu/h-i686-mingw32/bin/../lib/gcc/nios2-elf/4.7.3\libgcc.a(_umoddi3.o)
                              d:/eda/quartus13/nios2eds/bin/gnu/h-i686-mingw32/bin/../lib/gcc/nios2-elf/4.7.3/../../../../../H-i686-mingw32/nios2-elf/lib\libc.a(lib_a-vfprintf.o) (__umoddi3)
d:/eda/quartus13/nios2eds/bin/gnu/h-i686-mingw32/bin/../lib/gcc/nios2-elf/4.7.3\libgcc.a(_eq_sf.o)
                              d:/eda/quartus13/nios2eds/bin/gnu/h-i686-mingw32/bin/../lib/gcc/nios2-elf/4.7.3/../../../../../H-i686-mingw32/nios2-elf/lib\libc.a(lib_a-strtod.o) (__eqsf2)
d:/eda/quartus13/nios2eds/bin/gnu/h-i686-mingw32/bin/../lib/gcc/nios2-elf/4.7.3\libgcc.a(_gt_sf.o)
                              d:/eda/quartus13/nios2eds/bin/gnu/h-i686-mingw32/bin/../lib/gcc/nios2-elf/4.7.3/../../../../../H-i686-mingw32/nios2-elf/lib\libc.a(lib_a-strtod.o) (__gtsf2)
d:/eda/quartus13/nios2eds/bin/gnu/h-i686-mingw32/bin/../lib/gcc/nios2-elf/4.7.3\libgcc.a(_lt_sf.o)
                              d:/eda/quartus13/nios2eds/bin/gnu/h-i686-mingw32/bin/../lib/gcc/nios2-elf/4.7.3/../../../../../H-i686-mingw32/nios2-elf/lib\libc.a(lib_a-strtod.o) (__ltsf2)
d:/eda/quartus13/nios2eds/bin/gnu/h-i686-mingw32/bin/../lib/gcc/nios2-elf/4.7.3\libgcc.a(_addsub_df.o)
                              d:/eda/quartus13/nios2eds/bin/gnu/h-i686-mingw32/bin/../lib/gcc/nios2-elf/4.7.3/../../../../../H-i686-mingw32/nios2-elf/lib\libc.a(lib_a-dtoa.o) (__adddf3)
d:/eda/quartus13/nios2eds/bin/gnu/h-i686-mingw32/bin/../lib/gcc/nios2-elf/4.7.3\libgcc.a(_mul_df.o)
                              d:/eda/quartus13/nios2eds/bin/gnu/h-i686-mingw32/bin/../lib/gcc/nios2-elf/4.7.3/../../../../../H-i686-mingw32/nios2-elf/lib\libc.a(lib_a-dtoa.o) (__muldf3)
d:/eda/quartus13/nios2eds/bin/gnu/h-i686-mingw32/bin/../lib/gcc/nios2-elf/4.7.3\libgcc.a(_div_df.o)
                              d:/eda/quartus13/nios2eds/bin/gnu/h-i686-mingw32/bin/../lib/gcc/nios2-elf/4.7.3/../../../../../H-i686-mingw32/nios2-elf/lib\libc.a(lib_a-dtoa.o) (__divdf3)
d:/eda/quartus13/nios2eds/bin/gnu/h-i686-mingw32/bin/../lib/gcc/nios2-elf/4.7.3\libgcc.a(_eq_df.o)
                              d:/eda/quartus13/nios2eds/bin/gnu/h-i686-mingw32/bin/../lib/gcc/nios2-elf/4.7.3/../../../../../H-i686-mingw32/nios2-elf/lib\libc.a(lib_a-vfprintf.o) (__eqdf2)
d:/eda/quartus13/nios2eds/bin/gnu/h-i686-mingw32/bin/../lib/gcc/nios2-elf/4.7.3\libgcc.a(_ne_df.o)
                              d:/eda/quartus13/nios2eds/bin/gnu/h-i686-mingw32/bin/../lib/gcc/nios2-elf/4.7.3/../../../../../H-i686-mingw32/nios2-elf/lib\libc.a(lib_a-vfprintf.o) (__nedf2)
d:/eda/quartus13/nios2eds/bin/gnu/h-i686-mingw32/bin/../lib/gcc/nios2-elf/4.7.3\libgcc.a(_gt_df.o)
                              d:/eda/quartus13/nios2eds/bin/gnu/h-i686-mingw32/bin/../lib/gcc/nios2-elf/4.7.3/../../../../../H-i686-mingw32/nios2-elf/lib\libc.a(lib_a-dtoa.o) (__gtdf2)
d:/eda/quartus13/nios2eds/bin/gnu/h-i686-mingw32/bin/../lib/gcc/nios2-elf/4.7.3\libgcc.a(_ge_df.o)
                              d:/eda/quartus13/nios2eds/bin/gnu/h-i686-mingw32/bin/../lib/gcc/nios2-elf/4.7.3/../../../../../H-i686-mingw32/nios2-elf/lib\libc.a(lib_a-dtoa.o) (__gedf2)
d:/eda/quartus13/nios2eds/bin/gnu/h-i686-mingw32/bin/../lib/gcc/nios2-elf/4.7.3\libgcc.a(_lt_df.o)
                              d:/eda/quartus13/nios2eds/bin/gnu/h-i686-mingw32/bin/../lib/gcc/nios2-elf/4.7.3/../../../../../H-i686-mingw32/nios2-elf/lib\libc.a(lib_a-vfprintf.o) (__ltdf2)
d:/eda/quartus13/nios2eds/bin/gnu/h-i686-mingw32/bin/../lib/gcc/nios2-elf/4.7.3\libgcc.a(_le_df.o)
                              d:/eda/quartus13/nios2eds/bin/gnu/h-i686-mingw32/bin/../lib/gcc/nios2-elf/4.7.3/../../../../../H-i686-mingw32/nios2-elf/lib\libc.a(lib_a-strtod.o) (__ledf2)
d:/eda/quartus13/nios2eds/bin/gnu/h-i686-mingw32/bin/../lib/gcc/nios2-elf/4.7.3\libgcc.a(_si_to_df.o)
                              d:/eda/quartus13/nios2eds/bin/gnu/h-i686-mingw32/bin/../lib/gcc/nios2-elf/4.7.3/../../../../../H-i686-mingw32/nios2-elf/lib\libc.a(lib_a-dtoa.o) (__floatsidf)
d:/eda/quartus13/nios2eds/bin/gnu/h-i686-mingw32/bin/../lib/gcc/nios2-elf/4.7.3\libgcc.a(_df_to_si.o)
                              d:/eda/quartus13/nios2eds/bin/gnu/h-i686-mingw32/bin/../lib/gcc/nios2-elf/4.7.3/../../../../../H-i686-mingw32/nios2-elf/lib\libc.a(lib_a-dtoa.o) (__fixdfsi)
d:/eda/quartus13/nios2eds/bin/gnu/h-i686-mingw32/bin/../lib/gcc/nios2-elf/4.7.3\libgcc.a(_df_to_sf.o)
                              d:/eda/quartus13/nios2eds/bin/gnu/h-i686-mingw32/bin/../lib/gcc/nios2-elf/4.7.3/../../../../../H-i686-mingw32/nios2-elf/lib\libc.a(lib_a-vfscanf.o) (__truncdfsf2)
d:/eda/quartus13/nios2eds/bin/gnu/h-i686-mingw32/bin/../lib/gcc/nios2-elf/4.7.3\libgcc.a(_thenan_df.o)
                              d:/eda/quartus13/nios2eds/bin/gnu/h-i686-mingw32/bin/../lib/gcc/nios2-elf/4.7.3\libgcc.a(_addsub_df.o) (__thenan_df)
d:/eda/quartus13/nios2eds/bin/gnu/h-i686-mingw32/bin/../lib/gcc/nios2-elf/4.7.3\libgcc.a(_usi_to_df.o)
                              d:/eda/quartus13/nios2eds/bin/gnu/h-i686-mingw32/bin/../lib/gcc/nios2-elf/4.7.3/../../../../../H-i686-mingw32/nios2-elf/lib\libc.a(lib_a-dtoa.o) (__floatunsidf)
d:/eda/quartus13/nios2eds/bin/gnu/h-i686-mingw32/bin/../lib/gcc/nios2-elf/4.7.3\libgcc.a(lib2-divmod.o)
                              d:/eda/quartus13/nios2eds/bin/gnu/h-i686-mingw32/bin/../lib/gcc/nios2-elf/4.7.3/../../../../../H-i686-mingw32/nios2-elf/lib\libc.a(lib_a-vfprintf.o) (__divsi3)
d:/eda/quartus13/nios2eds/bin/gnu/h-i686-mingw32/bin/../lib/gcc/nios2-elf/4.7.3\libgcc.a(_clz.o)
                              d:/eda/quartus13/nios2eds/bin/gnu/h-i686-mingw32/bin/../lib/gcc/nios2-elf/4.7.3\libgcc.a(_udivdi3.o) (__clz_tab)
d:/eda/quartus13/nios2eds/bin/gnu/h-i686-mingw32/bin/../lib/gcc/nios2-elf/4.7.3\libgcc.a(_clzsi2.o)
                              d:/eda/quartus13/nios2eds/bin/gnu/h-i686-mingw32/bin/../lib/gcc/nios2-elf/4.7.3\libgcc.a(_si_to_df.o) (__clzsi2)
d:/eda/quartus13/nios2eds/bin/gnu/h-i686-mingw32/bin/../lib/gcc/nios2-elf/4.7.3\libgcc.a(_unpack_sf.o)
                              d:/eda/quartus13/nios2eds/bin/gnu/h-i686-mingw32/bin/../lib/gcc/nios2-elf/4.7.3\libgcc.a(_eq_sf.o) (__unpack_f)
d:/eda/quartus13/nios2eds/bin/gnu/h-i686-mingw32/bin/../lib/gcc/nios2-elf/4.7.3\libgcc.a(_fpcmp_parts_sf.o)
                              d:/eda/quartus13/nios2eds/bin/gnu/h-i686-mingw32/bin/../lib/gcc/nios2-elf/4.7.3\libgcc.a(_eq_sf.o) (__fpcmp_parts_f)
d:/eda/quartus13/nios2eds/bin/gnu/h-i686-mingw32/bin/../lib/gcc/nios2-elf/4.7.3\libgcc.a(_make_sf.o)
                              d:/eda/quartus13/nios2eds/bin/gnu/h-i686-mingw32/bin/../lib/gcc/nios2-elf/4.7.3\libgcc.a(_df_to_sf.o) (__make_fp)
d:/eda/quartus13/nios2eds/bin/gnu/h-i686-mingw32/bin/../lib/gcc/nios2-elf/4.7.3\libgcc.a(_pack_df.o)
                              d:/eda/quartus13/nios2eds/bin/gnu/h-i686-mingw32/bin/../lib/gcc/nios2-elf/4.7.3\libgcc.a(_addsub_df.o) (__pack_d)
d:/eda/quartus13/nios2eds/bin/gnu/h-i686-mingw32/bin/../lib/gcc/nios2-elf/4.7.3\libgcc.a(_unpack_df.o)
                              d:/eda/quartus13/nios2eds/bin/gnu/h-i686-mingw32/bin/../lib/gcc/nios2-elf/4.7.3\libgcc.a(_addsub_df.o) (__unpack_d)
d:/eda/quartus13/nios2eds/bin/gnu/h-i686-mingw32/bin/../lib/gcc/nios2-elf/4.7.3\libgcc.a(_fpcmp_parts_df.o)
                              d:/eda/quartus13/nios2eds/bin/gnu/h-i686-mingw32/bin/../lib/gcc/nios2-elf/4.7.3\libgcc.a(_eq_df.o) (__fpcmp_parts_d)
d:/eda/quartus13/nios2eds/bin/gnu/h-i686-mingw32/bin/../lib/gcc/nios2-elf/4.7.3\libgcc.a(_lshrdi3.o)
                              d:/eda/quartus13/nios2eds/bin/gnu/h-i686-mingw32/bin/../lib/gcc/nios2-elf/4.7.3\libgcc.a(_pack_df.o) (__lshrdi3)
d:/eda/quartus13/nios2eds/bin/gnu/h-i686-mingw32/bin/../lib/gcc/nios2-elf/4.7.3\libgcc.a(_ashldi3.o)
                              d:/eda/quartus13/nios2eds/bin/gnu/h-i686-mingw32/bin/../lib/gcc/nios2-elf/4.7.3\libgcc.a(_pack_df.o) (__ashldi3)
d:/eda/quartus13/nios2eds/bin/gnu/h-i686-mingw32/bin/../lib/gcc/nios2-elf/4.7.3\libgcc.a(_pack_sf.o)
                              d:/eda/quartus13/nios2eds/bin/gnu/h-i686-mingw32/bin/../lib/gcc/nios2-elf/4.7.3\libgcc.a(_make_sf.o) (__pack_f)
F:/Qsys/qsys_webserver/qsys/software/qsys_webserver_bsp/\libucosii_bsp.a(alt_dcache_flush.o)
                              obj/default/srec_flash.o (alt_dcache_flush)
F:/Qsys/qsys_webserver/qsys/software/qsys_webserver_bsp/\libucosii_bsp.a(alt_flash_dev.o)
                              obj/default/network_utilities.o (alt_flash_open_dev)
F:/Qsys/qsys_webserver/qsys/software/qsys_webserver_bsp/\libucosii_bsp.a(alt_fstat.o)
                              d:/eda/quartus13/nios2eds/bin/gnu/h-i686-mingw32/bin/../lib/gcc/nios2-elf/4.7.3/../../../../../H-i686-mingw32/nios2-elf/lib\libc.a(lib_a-fstatr.o) (fstat)
F:/Qsys/qsys_webserver/qsys/software/qsys_webserver_bsp/\libucosii_bsp.a(alt_isatty.o)
                              d:/eda/quartus13/nios2eds/bin/gnu/h-i686-mingw32/bin/../lib/gcc/nios2-elf/4.7.3/../../../../../H-i686-mingw32/nios2-elf/lib\libc.a(lib_a-isattyr.o) (isatty)
F:/Qsys/qsys_webserver/qsys/software/qsys_webserver_bsp/\libucosii_bsp.a(alt_lseek.o)
                              d:/eda/quartus13/nios2eds/bin/gnu/h-i686-mingw32/bin/../lib/gcc/nios2-elf/4.7.3/../../../../../H-i686-mingw32/nios2-elf/lib\libc.a(lib_a-lseekr.o) (lseek)
F:/Qsys/qsys_webserver/qsys/software/qsys_webserver_bsp/\libucosii_bsp.a(alt_main.o)
                              F:/Qsys/qsys_webserver/qsys/software/qsys_webserver_bsp//obj/HAL/src/crt0.o (alt_main)
F:/Qsys/qsys_webserver/qsys/software/qsys_webserver_bsp/\libucosii_bsp.a(alt_open.o)
                              d:/eda/quartus13/nios2eds/bin/gnu/h-i686-mingw32/bin/../lib/gcc/nios2-elf/4.7.3/../../../../../H-i686-mingw32/nios2-elf/lib\libc.a(lib_a-openr.o) (open)
F:/Qsys/qsys_webserver/qsys/software/qsys_webserver_bsp/\libucosii_bsp.a(alt_release_fd.o)
                              F:/Qsys/qsys_webserver/qsys/software/qsys_webserver_bsp/\libucosii_bsp.a(alt_open.o) (alt_release_fd)
F:/Qsys/qsys_webserver/qsys/software/qsys_webserver_bsp/\libucosii_bsp.a(alt_sbrk.o)
                              d:/eda/quartus13/nios2eds/bin/gnu/h-i686-mingw32/bin/../lib/gcc/nios2-elf/4.7.3/../../../../../H-i686-mingw32/nios2-elf/lib\libc.a(lib_a-sbrkr.o) (sbrk)
F:/Qsys/qsys_webserver/qsys/software/qsys_webserver_bsp/\libucosii_bsp.a(alt_tick.o)
                              obj/default/http.o (_alt_nticks)
F:/Qsys/qsys_webserver/qsys/software/qsys_webserver_bsp/\libucosii_bsp.a(alt_env_lock.o)
                              F:/Qsys/qsys_webserver/qsys/software/qsys_webserver_bsp/\libucosii_bsp.a(alt_main.o) (alt_envsem)
F:/Qsys/qsys_webserver/qsys/software/qsys_webserver_bsp/\libucosii_bsp.a(alt_malloc_lock.o)
                              F:/Qsys/qsys_webserver/qsys/software/qsys_webserver_bsp/\libucosii_bsp.a(alt_main.o) (alt_heapsem)
F:/Qsys/qsys_webserver/qsys/software/qsys_webserver_bsp/\libucosii_bsp.a(os_core.o)
                              F:/Qsys/qsys_webserver/qsys/software/qsys_webserver_bsp/\libucosii_bsp.a(alt_malloc_lock.o) (OSRunning)
F:/Qsys/qsys_webserver/qsys/software/qsys_webserver_bsp/\libucosii_bsp.a(os_dbg.o)
                              F:/Qsys/qsys_webserver/qsys/software/qsys_webserver_bsp/\libucosii_bsp.a(os_core.o) (OSDebugInit)
F:/Qsys/qsys_webserver/qsys/software/qsys_webserver_bsp/\libucosii_bsp.a(os_flag.o)
                              F:/Qsys/qsys_webserver/qsys/software/qsys_webserver_bsp/\libucosii_bsp.a(os_core.o) (OS_FlagInit)
F:/Qsys/qsys_webserver/qsys/software/qsys_webserver_bsp/\libucosii_bsp.a(os_mbox.o)
                              obj/default/web_server.o (OSMboxCreate)
F:/Qsys/qsys_webserver/qsys/software/qsys_webserver_bsp/\libucosii_bsp.a(os_mem.o)
                              F:/Qsys/qsys_webserver/qsys/software/qsys_webserver_bsp/\libucosii_bsp.a(os_core.o) (OS_MemInit)
F:/Qsys/qsys_webserver/qsys/software/qsys_webserver_bsp/\libucosii_bsp.a(os_q.o)
                              F:/Qsys/qsys_webserver/qsys/software/qsys_webserver_bsp/\libucosii_bsp.a(os_core.o) (OS_QInit)
F:/Qsys/qsys_webserver/qsys/software/qsys_webserver_bsp/\libucosii_bsp.a(os_sem.o)
                              F:/Qsys/qsys_webserver/qsys/software/qsys_webserver_bsp/\libucosii_bsp.a(alt_main.o) (OSSemCreate)
F:/Qsys/qsys_webserver/qsys/software/qsys_webserver_bsp/\libucosii_bsp.a(os_task.o)
                              obj/default/web_server.o (OSTaskCreateExt)
F:/Qsys/qsys_webserver/qsys/software/qsys_webserver_bsp/\libucosii_bsp.a(os_time.o)
                              obj/default/web_server.o (OSTimeDly)
F:/Qsys/qsys_webserver/qsys/software/qsys_webserver_bsp/\libucosii_bsp.a(alt_sys_init.o)
                              F:/Qsys/qsys_webserver/qsys/software/qsys_webserver_bsp/\libucosii_bsp.a(alt_main.o) (alt_irq_init)
F:/Qsys/qsys_webserver/qsys/software/qsys_webserver_bsp/\libucosii_bsp.a(altera_avalon_epcs_flash_controller.o)
                              F:/Qsys/qsys_webserver/qsys/software/qsys_webserver_bsp/\libucosii_bsp.a(alt_sys_init.o) (alt_epcs_flash_init)
F:/Qsys/qsys_webserver/qsys/software/qsys_webserver_bsp/\libucosii_bsp.a(altera_avalon_jtag_uart_fd.o)
                              F:/Qsys/qsys_webserver/qsys/software/qsys_webserver_bsp/\libucosii_bsp.a(alt_sys_init.o) (altera_avalon_jtag_uart_read_fd)
F:/Qsys/qsys_webserver/qsys/software/qsys_webserver_bsp/\libucosii_bsp.a(altera_avalon_jtag_uart_init.o)
                              F:/Qsys/qsys_webserver/qsys/software/qsys_webserver_bsp/\libucosii_bsp.a(alt_sys_init.o) (altera_avalon_jtag_uart_init)
F:/Qsys/qsys_webserver/qsys/software/qsys_webserver_bsp/\libucosii_bsp.a(altera_avalon_jtag_uart_ioctl.o)
                              F:/Qsys/qsys_webserver/qsys/software/qsys_webserver_bsp/\libucosii_bsp.a(altera_avalon_jtag_uart_fd.o) (altera_avalon_jtag_uart_ioctl)
F:/Qsys/qsys_webserver/qsys/software/qsys_webserver_bsp/\libucosii_bsp.a(altera_avalon_jtag_uart_read.o)
                              F:/Qsys/qsys_webserver/qsys/software/qsys_webserver_bsp/\libucosii_bsp.a(altera_avalon_jtag_uart_fd.o) (altera_avalon_jtag_uart_read)
F:/Qsys/qsys_webserver/qsys/software/qsys_webserver_bsp/\libucosii_bsp.a(altera_avalon_jtag_uart_write.o)
                              F:/Qsys/qsys_webserver/qsys/software/qsys_webserver_bsp/\libucosii_bsp.a(altera_avalon_jtag_uart_fd.o) (altera_avalon_jtag_uart_write)
F:/Qsys/qsys_webserver/qsys/software/qsys_webserver_bsp/\libucosii_bsp.a(altera_avalon_sgdma.o)
                              F:/Qsys/qsys_webserver/qsys/software/qsys_webserver_bsp/\libucosii_bsp.a(alt_sys_init.o) (alt_avalon_sgdma_init)
F:/Qsys/qsys_webserver/qsys/software/qsys_webserver_bsp/\libucosii_bsp.a(altera_avalon_timer_sc.o)
                              F:/Qsys/qsys_webserver/qsys/software/qsys_webserver_bsp/\libucosii_bsp.a(alt_sys_init.o) (alt_avalon_timer_sc_init)
F:/Qsys/qsys_webserver/qsys/software/qsys_webserver_bsp/\libucosii_bsp.a(altera_ro_zipfs.o)
                              F:/Qsys/qsys_webserver/qsys/software/qsys_webserver_bsp/\libucosii_bsp.a(alt_sys_init.o) (alt_ro_zipfs_open)
F:/Qsys/qsys_webserver/qsys/software/qsys_webserver_bsp/\libucosii_bsp.a(epcs_commands.o)
                              F:/Qsys/qsys_webserver/qsys/software/qsys_webserver_bsp/\libucosii_bsp.a(altera_avalon_epcs_flash_controller.o) (epcs_sector_erase)
F:/Qsys/qsys_webserver/qsys/software/qsys_webserver_bsp/\libucosii_bsp.a(ins_tse_mac.o)
                              F:/Qsys/qsys_webserver/qsys/software/qsys_webserver_bsp/\libucosii_bsp.a(alt_sys_init.o) (number_of_tse_mac)
F:/Qsys/qsys_webserver/qsys/software/qsys_webserver_bsp/\libucosii_bsp.a(alt_iniche_close.o)
                              obj/default/http.o (close)
F:/Qsys/qsys_webserver/qsys/software/qsys_webserver_bsp/\libucosii_bsp.a(alt_iniche_dev.o)
                              F:/Qsys/qsys_webserver/qsys/software/qsys_webserver_bsp/\libucosii_bsp.a(alt_sys_init.o) (alt_iniche_dev_list)
F:/Qsys/qsys_webserver/qsys/software/qsys_webserver_bsp/\libucosii_bsp.a(alt_iniche_read.o)
                              d:/eda/quartus13/nios2eds/bin/gnu/h-i686-mingw32/bin/../lib/gcc/nios2-elf/4.7.3/../../../../../H-i686-mingw32/nios2-elf/lib\libc.a(lib_a-readr.o) (read)
F:/Qsys/qsys_webserver/qsys/software/qsys_webserver_bsp/\libucosii_bsp.a(alt_iniche_write.o)
                              d:/eda/quartus13/nios2eds/bin/gnu/h-i686-mingw32/bin/../lib/gcc/nios2-elf/4.7.3/../../../../../H-i686-mingw32/nios2-elf/lib\libc.a(lib_a-writer.o) (write)
F:/Qsys/qsys_webserver/qsys/software/qsys_webserver_bsp/\libucosii_bsp.a(ipnet.o)
                              F:/Qsys/qsys_webserver/qsys/software/qsys_webserver_bsp/\libucosii_bsp.a(ins_tse_mac.o) (rcvdq)
F:/Qsys/qsys_webserver/qsys/software/qsys_webserver_bsp/\libucosii_bsp.a(ipstart.o)
                              F:/Qsys/qsys_webserver/qsys/software/qsys_webserver_bsp/\libucosii_bsp.a(ins_tse_mac.o) (nets)
F:/Qsys/qsys_webserver/qsys/software/qsys_webserver_bsp/\libucosii_bsp.a(igmp_cmn.o)
                              F:/Qsys/qsys_webserver/qsys/software/qsys_webserver_bsp/\libucosii_bsp.a(ipstart.o) (igmp_all_hosts_group)
F:/Qsys/qsys_webserver/qsys/software/qsys_webserver_bsp/\libucosii_bsp.a(bsdsock.o)
                              obj/default/http.o (bsd_accept)
F:/Qsys/qsys_webserver/qsys/software/qsys_webserver_bsp/\libucosii_bsp.a(cksum.o)
                              F:/Qsys/qsys_webserver/qsys/software/qsys_webserver_bsp/\libucosii_bsp.a(igmp_cmn.o) (cksum)
F:/Qsys/qsys_webserver/qsys/software/qsys_webserver_bsp/\libucosii_bsp.a(in_utils.o)
                              F:/Qsys/qsys_webserver/qsys/software/qsys_webserver_bsp/\libucosii_bsp.a(ins_tse_mac.o) (ns_printf)
F:/Qsys/qsys_webserver/qsys/software/qsys_webserver_bsp/\libucosii_bsp.a(netmain.o)
                              obj/default/web_server.o (iniche_net_ready)
F:/Qsys/qsys_webserver/qsys/software/qsys_webserver_bsp/\libucosii_bsp.a(tk_crnos.o)
                              F:/Qsys/qsys_webserver/qsys/software/qsys_webserver_bsp/\libucosii_bsp.a(ipnet.o) (tk_yield)
F:/Qsys/qsys_webserver/qsys/software/qsys_webserver_bsp/\libucosii_bsp.a(pktalloc.o)
                              F:/Qsys/qsys_webserver/qsys/software/qsys_webserver_bsp/\libucosii_bsp.a(ipnet.o) (bigfreeq)
F:/Qsys/qsys_webserver/qsys/software/qsys_webserver_bsp/\libucosii_bsp.a(q.o)
                              F:/Qsys/qsys_webserver/qsys/software/qsys_webserver_bsp/\libucosii_bsp.a(ipnet.o) (getq)
F:/Qsys/qsys_webserver/qsys/software/qsys_webserver_bsp/\libucosii_bsp.a(asm_cksum.o)
                              F:/Qsys/qsys_webserver/qsys/software/qsys_webserver_bsp/\libucosii_bsp.a(cksum.o) (asm_cksum)
F:/Qsys/qsys_webserver/qsys/software/qsys_webserver_bsp/\libucosii_bsp.a(brdutils.o)
                              F:/Qsys/qsys_webserver/qsys/software/qsys_webserver_bsp/\libucosii_bsp.a(ipnet.o) (dtrap)
F:/Qsys/qsys_webserver/qsys/software/qsys_webserver_bsp/\libucosii_bsp.a(osportco.o)
                              F:/Qsys/qsys_webserver/qsys/software/qsys_webserver_bsp/\libucosii_bsp.a(ins_tse_mac.o) (cticks)
F:/Qsys/qsys_webserver/qsys/software/qsys_webserver_bsp/\libucosii_bsp.a(targnios.o)
                              F:/Qsys/qsys_webserver/qsys/software/qsys_webserver_bsp/\libucosii_bsp.a(ins_tse_mac.o) (rcvdq_sem_ptr)
F:/Qsys/qsys_webserver/qsys/software/qsys_webserver_bsp/\libucosii_bsp.a(nptcp.o)
                              F:/Qsys/qsys_webserver/qsys/software/qsys_webserver_bsp/\libucosii_bsp.a(bsdsock.o) (soq)
F:/Qsys/qsys_webserver/qsys/software/qsys_webserver_bsp/\libucosii_bsp.a(rawsock.o)
                              F:/Qsys/qsys_webserver/qsys/software/qsys_webserver_bsp/\libucosii_bsp.a(nptcp.o) (rawip_usrreq)
F:/Qsys/qsys_webserver/qsys/software/qsys_webserver_bsp/\libucosii_bsp.a(sockcall.o)
                              obj/default/http.o (t_socket)
F:/Qsys/qsys_webserver/qsys/software/qsys_webserver_bsp/\libucosii_bsp.a(socket.o)
                              F:/Qsys/qsys_webserver/qsys/software/qsys_webserver_bsp/\libucosii_bsp.a(sockcall.o) (socreate)
F:/Qsys/qsys_webserver/qsys/software/qsys_webserver_bsp/\libucosii_bsp.a(socket2.o)
                              F:/Qsys/qsys_webserver/qsys/software/qsys_webserver_bsp/\libucosii_bsp.a(sockcall.o) (soqremque)
F:/Qsys/qsys_webserver/qsys/software/qsys_webserver_bsp/\libucosii_bsp.a(soselect.o)
                              F:/Qsys/qsys_webserver/qsys/software/qsys_webserver_bsp/\libucosii_bsp.a(bsdsock.o) (t_select)
F:/Qsys/qsys_webserver/qsys/software/qsys_webserver_bsp/\libucosii_bsp.a(tcp_in.o)
                              F:/Qsys/qsys_webserver/qsys/software/qsys_webserver_bsp/\libucosii_bsp.a(nptcp.o) (tcp_input)
F:/Qsys/qsys_webserver/qsys/software/qsys_webserver_bsp/\libucosii_bsp.a(tcp_out.o)
                              F:/Qsys/qsys_webserver/qsys/software/qsys_webserver_bsp/\libucosii_bsp.a(tcp_in.o) (tcp_output)
F:/Qsys/qsys_webserver/qsys/software/qsys_webserver_bsp/\libucosii_bsp.a(tcp_subr.o)
                              F:/Qsys/qsys_webserver/qsys/software/qsys_webserver_bsp/\libucosii_bsp.a(nptcp.o) (tcpstat)
F:/Qsys/qsys_webserver/qsys/software/qsys_webserver_bsp/\libucosii_bsp.a(tcp_timr.o)
                              F:/Qsys/qsys_webserver/qsys/software/qsys_webserver_bsp/\libucosii_bsp.a(tcp_in.o) (tcp_keepidle)
F:/Qsys/qsys_webserver/qsys/software/qsys_webserver_bsp/\libucosii_bsp.a(tcp_usr.o)
                              F:/Qsys/qsys_webserver/qsys/software/qsys_webserver_bsp/\libucosii_bsp.a(nptcp.o) (tcp_usrreq)
F:/Qsys/qsys_webserver/qsys/software/qsys_webserver_bsp/\libucosii_bsp.a(tcpport.o)
                              F:/Qsys/qsys_webserver/qsys/software/qsys_webserver_bsp/\libucosii_bsp.a(ipstart.o) (tcpinit)
F:/Qsys/qsys_webserver/qsys/software/qsys_webserver_bsp/\libucosii_bsp.a(udpsock.o)
                              F:/Qsys/qsys_webserver/qsys/software/qsys_webserver_bsp/\libucosii_bsp.a(nptcp.o) (udp_usrreq)
F:/Qsys/qsys_webserver/qsys/software/qsys_webserver_bsp/\libucosii_bsp.a(alt_alarm_start.o)
                              F:/Qsys/qsys_webserver/qsys/software/qsys_webserver_bsp/\libucosii_bsp.a(altera_avalon_jtag_uart_init.o) (alt_alarm_start)
F:/Qsys/qsys_webserver/qsys/software/qsys_webserver_bsp/\libucosii_bsp.a(alt_close.o)
                              F:/Qsys/qsys_webserver/qsys/software/qsys_webserver_bsp/\libucosii_bsp.a(alt_iniche_close.o) (alt_close)
F:/Qsys/qsys_webserver/qsys/software/qsys_webserver_bsp/\libucosii_bsp.a(alt_dev.o)
                              F:/Qsys/qsys_webserver/qsys/software/qsys_webserver_bsp/\libucosii_bsp.a(alt_open.o) (alt_dev_list)
F:/Qsys/qsys_webserver/qsys/software/qsys_webserver_bsp/\libucosii_bsp.a(alt_dev_llist_insert.o)
                              F:/Qsys/qsys_webserver/qsys/software/qsys_webserver_bsp/\libucosii_bsp.a(alt_sys_init.o) (alt_dev_llist_insert)
F:/Qsys/qsys_webserver/qsys/software/qsys_webserver_bsp/\libucosii_bsp.a(alt_do_ctors.o)
                              F:/Qsys/qsys_webserver/qsys/software/qsys_webserver_bsp/\libucosii_bsp.a(alt_main.o) (_do_ctors)
F:/Qsys/qsys_webserver/qsys/software/qsys_webserver_bsp/\libucosii_bsp.a(alt_do_dtors.o)
                              F:/Qsys/qsys_webserver/qsys/software/qsys_webserver_bsp/\libucosii_bsp.a(alt_main.o) (_do_dtors)
F:/Qsys/qsys_webserver/qsys/software/qsys_webserver_bsp/\libucosii_bsp.a(alt_errno.o)
                              F:/Qsys/qsys_webserver/qsys/software/qsys_webserver_bsp/\libucosii_bsp.a(alt_fstat.o) (alt_errno)
F:/Qsys/qsys_webserver/qsys/software/qsys_webserver_bsp/\libucosii_bsp.a(alt_find_dev.o)
                              F:/Qsys/qsys_webserver/qsys/software/qsys_webserver_bsp/\libucosii_bsp.a(alt_flash_dev.o) (alt_find_dev)
F:/Qsys/qsys_webserver/qsys/software/qsys_webserver_bsp/\libucosii_bsp.a(alt_find_file.o)
                              F:/Qsys/qsys_webserver/qsys/software/qsys_webserver_bsp/\libucosii_bsp.a(alt_open.o) (alt_find_file)
F:/Qsys/qsys_webserver/qsys/software/qsys_webserver_bsp/\libucosii_bsp.a(alt_fs_reg.o)
                              F:/Qsys/qsys_webserver/qsys/software/qsys_webserver_bsp/\libucosii_bsp.a(alt_sys_init.o) (alt_fs_reg)
F:/Qsys/qsys_webserver/qsys/software/qsys_webserver_bsp/\libucosii_bsp.a(alt_get_fd.o)
                              F:/Qsys/qsys_webserver/qsys/software/qsys_webserver_bsp/\libucosii_bsp.a(alt_open.o) (alt_get_fd)
F:/Qsys/qsys_webserver/qsys/software/qsys_webserver_bsp/\libucosii_bsp.a(alt_iic.o)
                              F:/Qsys/qsys_webserver/qsys/software/qsys_webserver_bsp/\libucosii_bsp.a(altera_avalon_jtag_uart_init.o) (alt_ic_isr_register)
F:/Qsys/qsys_webserver/qsys/software/qsys_webserver_bsp/\libucosii_bsp.a(alt_iic_isr_register.o)
                              F:/Qsys/qsys_webserver/qsys/software/qsys_webserver_bsp/\libucosii_bsp.a(alt_iic.o) (alt_iic_isr_register)
F:/Qsys/qsys_webserver/qsys/software/qsys_webserver_bsp/\libucosii_bsp.a(alt_io_redirect.o)
                              F:/Qsys/qsys_webserver/qsys/software/qsys_webserver_bsp/\libucosii_bsp.a(alt_main.o) (alt_io_redirect)
F:/Qsys/qsys_webserver/qsys/software/qsys_webserver_bsp/\libucosii_bsp.a(alt_irq_entry.o)
                              F:/Qsys/qsys_webserver/qsys/software/qsys_webserver_bsp/\libucosii_bsp.a(alt_iic_isr_register.o) (alt_irq_entry)
F:/Qsys/qsys_webserver/qsys/software/qsys_webserver_bsp/\libucosii_bsp.a(alt_irq_handler.o)
                              F:/Qsys/qsys_webserver/qsys/software/qsys_webserver_bsp/\libucosii_bsp.a(alt_iic_isr_register.o) (alt_irq)
F:/Qsys/qsys_webserver/qsys/software/qsys_webserver_bsp/\libucosii_bsp.a(alt_irq_vars.o)
                              F:/Qsys/qsys_webserver/qsys/software/qsys_webserver_bsp/\libucosii_bsp.a(alt_iic.o) (alt_irq_active)
F:/Qsys/qsys_webserver/qsys/software/qsys_webserver_bsp/\libucosii_bsp.a(alt_read.o)
                              F:/Qsys/qsys_webserver/qsys/software/qsys_webserver_bsp/\libucosii_bsp.a(alt_iniche_read.o) (alt_read)
F:/Qsys/qsys_webserver/qsys/software/qsys_webserver_bsp/\libucosii_bsp.a(alt_remap_cached.o)
                              F:/Qsys/qsys_webserver/qsys/software/qsys_webserver_bsp/\libucosii_bsp.a(ins_tse_mac.o) (alt_remap_cached)
F:/Qsys/qsys_webserver/qsys/software/qsys_webserver_bsp/\libucosii_bsp.a(alt_remap_uncached.o)
                              F:/Qsys/qsys_webserver/qsys/software/qsys_webserver_bsp/\libucosii_bsp.a(altera_avalon_sgdma.o) (alt_remap_uncached)
F:/Qsys/qsys_webserver/qsys/software/qsys_webserver_bsp/\libucosii_bsp.a(alt_uncached_malloc.o)
                              F:/Qsys/qsys_webserver/qsys/software/qsys_webserver_bsp/\libucosii_bsp.a(ins_tse_mac.o) (alt_uncached_malloc)
F:/Qsys/qsys_webserver/qsys/software/qsys_webserver_bsp/\libucosii_bsp.a(alt_write.o)
                              F:/Qsys/qsys_webserver/qsys/software/qsys_webserver_bsp/\libucosii_bsp.a(alt_iniche_write.o) (alt_write)
F:/Qsys/qsys_webserver/qsys/software/qsys_webserver_bsp/\libucosii_bsp.a(altera_nios2_qsys_irq.o)
                              F:/Qsys/qsys_webserver/qsys/software/qsys_webserver_bsp/\libucosii_bsp.a(alt_sys_init.o) (altera_nios2_qsys_irq_init)
F:/Qsys/qsys_webserver/qsys/software/qsys_webserver_bsp/\libucosii_bsp.a(os_cpu_a.o)
                              F:/Qsys/qsys_webserver/qsys/software/qsys_webserver_bsp/\libucosii_bsp.a(os_core.o) (OSIntCtxSw)
F:/Qsys/qsys_webserver/qsys/software/qsys_webserver_bsp/\libucosii_bsp.a(os_cpu_c.o)
                              F:/Qsys/qsys_webserver/qsys/software/qsys_webserver_bsp/\libucosii_bsp.a(os_task.o) (OSTaskStkInit)
F:/Qsys/qsys_webserver/qsys/software/qsys_webserver_bsp/\libucosii_bsp.a(altera_avalon_spi.o)
                              F:/Qsys/qsys_webserver/qsys/software/qsys_webserver_bsp/\libucosii_bsp.a(epcs_commands.o) (alt_avalon_spi_command)
F:/Qsys/qsys_webserver/qsys/software/qsys_webserver_bsp/\libucosii_bsp.a(altera_avalon_tse.o)
                              F:/Qsys/qsys_webserver/qsys/software/qsys_webserver_bsp/\libucosii_bsp.a(ins_tse_mac.o) (tse_mac_initTransInfo2)
F:/Qsys/qsys_webserver/qsys/software/qsys_webserver_bsp/\libucosii_bsp.a(altera_avalon_tse_system_info.o)
                              F:/Qsys/qsys_webserver/qsys/software/qsys_webserver_bsp/\libucosii_bsp.a(ins_tse_mac.o) (tse_mac_device)
F:/Qsys/qsys_webserver/qsys/software/qsys_webserver_bsp/\libucosii_bsp.a(allports.o)
                              F:/Qsys/qsys_webserver/qsys/software/qsys_webserver_bsp/\libucosii_bsp.a(netmain.o) (netmain_init)
F:/Qsys/qsys_webserver/qsys/software/qsys_webserver_bsp/\libucosii_bsp.a(timeouts.o)
                              F:/Qsys/qsys_webserver/qsys/software/qsys_webserver_bsp/\libucosii_bsp.a(netmain.o) (inet_timer)
F:/Qsys/qsys_webserver/qsys/software/qsys_webserver_bsp/\libucosii_bsp.a(tk_misc.o)
                              F:/Qsys/qsys_webserver/qsys/software/qsys_webserver_bsp/\libucosii_bsp.a(netmain.o) (create_apptasks)
F:/Qsys/qsys_webserver/qsys/software/qsys_webserver_bsp/\libucosii_bsp.a(alt_iniche_fcntl.o)
                              F:/Qsys/qsys_webserver/qsys/software/qsys_webserver_bsp/\libucosii_bsp.a(brdutils.o) (fcntl)
F:/Qsys/qsys_webserver/qsys/software/qsys_webserver_bsp/\libucosii_bsp.a(et_arp.o)
                              F:/Qsys/qsys_webserver/qsys/software/qsys_webserver_bsp/\libucosii_bsp.a(ipstart.o) (etainit)
F:/Qsys/qsys_webserver/qsys/software/qsys_webserver_bsp/\libucosii_bsp.a(iface.o)
                              F:/Qsys/qsys_webserver/qsys/software/qsys_webserver_bsp/\libucosii_bsp.a(ipnet.o) (netlist)
F:/Qsys/qsys_webserver/qsys/software/qsys_webserver_bsp/\libucosii_bsp.a(ip.o)
                              F:/Qsys/qsys_webserver/qsys/software/qsys_webserver_bsp/\libucosii_bsp.a(igmp_cmn.o) (ip_mib)
F:/Qsys/qsys_webserver/qsys/software/qsys_webserver_bsp/\libucosii_bsp.a(ip_reasm.o)
                              F:/Qsys/qsys_webserver/qsys/software/qsys_webserver_bsp/\libucosii_bsp.a(timeouts.o) (ire_cticks)
F:/Qsys/qsys_webserver/qsys/software/qsys_webserver_bsp/\libucosii_bsp.a(ipdemux.o)
                              F:/Qsys/qsys_webserver/qsys/software/qsys_webserver_bsp/\libucosii_bsp.a(ipnet.o) (ip_rcv)
F:/Qsys/qsys_webserver/qsys/software/qsys_webserver_bsp/\libucosii_bsp.a(ipmc.o)
                              F:/Qsys/qsys_webserver/qsys/software/qsys_webserver_bsp/\libucosii_bsp.a(ipstart.o) (in_addmulti)
F:/Qsys/qsys_webserver/qsys/software/qsys_webserver_bsp/\libucosii_bsp.a(ipport.o)
                              F:/Qsys/qsys_webserver/qsys/software/qsys_webserver_bsp/\libucosii_bsp.a(targnios.o) (port_prep)
F:/Qsys/qsys_webserver/qsys/software/qsys_webserver_bsp/\libucosii_bsp.a(ipraw.o)
                              F:/Qsys/qsys_webserver/qsys/software/qsys_webserver_bsp/\libucosii_bsp.a(rawsock.o) (ipraw_eps)
F:/Qsys/qsys_webserver/qsys/software/qsys_webserver_bsp/\libucosii_bsp.a(iproute.o)
                              F:/Qsys/qsys_webserver/qsys/software/qsys_webserver_bsp/\libucosii_bsp.a(ip.o) (cachedRoute)
F:/Qsys/qsys_webserver/qsys/software/qsys_webserver_bsp/\libucosii_bsp.a(udp.o)
                              F:/Qsys/qsys_webserver/qsys/software/qsys_webserver_bsp/\libucosii_bsp.a(ipdemux.o) (udpdemux)
F:/Qsys/qsys_webserver/qsys/software/qsys_webserver_bsp/\libucosii_bsp.a(igmp.o)
                              F:/Qsys/qsys_webserver/qsys/software/qsys_webserver_bsp/\libucosii_bsp.a(igmp_cmn.o) (igmpv1_input)
F:/Qsys/qsys_webserver/qsys/software/qsys_webserver_bsp/\libucosii_bsp.a(igmp2.o)
                              F:/Qsys/qsys_webserver/qsys/software/qsys_webserver_bsp/\libucosii_bsp.a(igmp_cmn.o) (igmpv2_input)
F:/Qsys/qsys_webserver/qsys/software/qsys_webserver_bsp/\libucosii_bsp.a(ipopt.o)
                              F:/Qsys/qsys_webserver/qsys/software/qsys_webserver_bsp/\libucosii_bsp.a(socket.o) (ip_setmoptions)
F:/Qsys/qsys_webserver/qsys/software/qsys_webserver_bsp/\libucosii_bsp.a(u_mctest.o)
                              F:/Qsys/qsys_webserver/qsys/software/qsys_webserver_bsp/\libucosii_bsp.a(allports.o) (u_mctest_init)
F:/Qsys/qsys_webserver/qsys/software/qsys_webserver_bsp/\libucosii_bsp.a(memdev.o)
                              F:/Qsys/qsys_webserver/qsys/software/qsys_webserver_bsp/\libucosii_bsp.a(allports.o) (init_memdev)
F:/Qsys/qsys_webserver/qsys/software/qsys_webserver_bsp/\libucosii_bsp.a(parseip.o)
                              F:/Qsys/qsys_webserver/qsys/software/qsys_webserver_bsp/\libucosii_bsp.a(u_mctest.o) (inet_addr)
F:/Qsys/qsys_webserver/qsys/software/qsys_webserver_bsp/\libucosii_bsp.a(tcpcksum.o)
                              F:/Qsys/qsys_webserver/qsys/software/qsys_webserver_bsp/\libucosii_bsp.a(nptcp.o) (tcp_cksum)
F:/Qsys/qsys_webserver/qsys/software/qsys_webserver_bsp/\libucosii_bsp.a(udp_open.o)
                              F:/Qsys/qsys_webserver/qsys/software/qsys_webserver_bsp/\libucosii_bsp.a(nptcp.o) (firstudp)
F:/Qsys/qsys_webserver/qsys/software/qsys_webserver_bsp/\libucosii_bsp.a(in_pcb.o)
                              F:/Qsys/qsys_webserver/qsys/software/qsys_webserver_bsp/\libucosii_bsp.a(tcp_usr.o) (in_pcballoc)
F:/Qsys/qsys_webserver/qsys/software/qsys_webserver_bsp/\libucosii_bsp.a(vfsfiles.o)
                              F:/Qsys/qsys_webserver/qsys/software/qsys_webserver_bsp/\libucosii_bsp.a(memdev.o) (vfsystems)
F:/Qsys/qsys_webserver/qsys/software/qsys_webserver_bsp/\libucosii_bsp.a(vfsport.o)
                              F:/Qsys/qsys_webserver/qsys/software/qsys_webserver_bsp/\libucosii_bsp.a(allports.o) (prep_vfs)
F:/Qsys/qsys_webserver/qsys/software/qsys_webserver_bsp/\libucosii_bsp.a(alt_exception_entry.o)
                              F:/Qsys/qsys_webserver/qsys/software/qsys_webserver_bsp/\libucosii_bsp.a(alt_irq_entry.o) (alt_exception)
F:/Qsys/qsys_webserver/qsys/software/qsys_webserver_bsp/\libucosii_bsp.a(alt_fcntl.o)
                              F:/Qsys/qsys_webserver/qsys/software/qsys_webserver_bsp/\libucosii_bsp.a(alt_iniche_fcntl.o) (alt_fcntl)
F:/Qsys/qsys_webserver/qsys/software/qsys_webserver_bsp/\libucosii_bsp.a(alt_usleep.o)
                              F:/Qsys/qsys_webserver/qsys/software/qsys_webserver_bsp/\libucosii_bsp.a(altera_avalon_tse.o) (usleep)
F:/Qsys/qsys_webserver/qsys/software/qsys_webserver_bsp/\libucosii_bsp.a(icmp.o)
                              F:/Qsys/qsys_webserver/qsys/software/qsys_webserver_bsp/\libucosii_bsp.a(ipdemux.o) (icmprcv)
F:/Qsys/qsys_webserver/qsys/software/qsys_webserver_bsp/\libucosii_bsp.a(alt_busy_sleep.o)
                              F:/Qsys/qsys_webserver/qsys/software/qsys_webserver_bsp/\libucosii_bsp.a(alt_usleep.o) (alt_busy_sleep)
d:/eda/quartus13/nios2eds/bin/gnu/h-i686-mingw32/bin/../lib/gcc/nios2-elf/4.7.3/../../../../../H-i686-mingw32/nios2-elf/lib\libc.a(lib_a-atexit.o)
                              F:/Qsys/qsys_webserver/qsys/software/qsys_webserver_bsp/\libucosii_bsp.a(alt_main.o) (atexit)
d:/eda/quartus13/nios2eds/bin/gnu/h-i686-mingw32/bin/../lib/gcc/nios2-elf/4.7.3/../../../../../H-i686-mingw32/nios2-elf/lib\libc.a(lib_a-calloc.o)
                              F:/Qsys/qsys_webserver/qsys/software/qsys_webserver_bsp/\libucosii_bsp.a(targnios.o) (calloc)
d:/eda/quartus13/nios2eds/bin/gnu/h-i686-mingw32/bin/../lib/gcc/nios2-elf/4.7.3/../../../../../H-i686-mingw32/nios2-elf/lib\libc.a(lib_a-exit.o)
                              F:/Qsys/qsys_webserver/qsys/software/qsys_webserver_bsp/\libucosii_bsp.a(alt_main.o) (exit)
d:/eda/quartus13/nios2eds/bin/gnu/h-i686-mingw32/bin/../lib/gcc/nios2-elf/4.7.3/../../../../../H-i686-mingw32/nios2-elf/lib\libc.a(lib_a-malloc.o)
                              F:/Qsys/qsys_webserver/qsys/software/qsys_webserver_bsp/\libucosii_bsp.a(alt_uncached_malloc.o) (malloc)
d:/eda/quartus13/nios2eds/bin/gnu/h-i686-mingw32/bin/../lib/gcc/nios2-elf/4.7.3/../../../../../H-i686-mingw32/nios2-elf/lib\libc.a(lib_a-vprintf.o)
                              F:/Qsys/qsys_webserver/qsys/software/qsys_webserver_bsp/\libucosii_bsp.a(in_utils.o) (vprintf)
d:/eda/quartus13/nios2eds/bin/gnu/h-i686-mingw32/bin/../lib/gcc/nios2-elf/4.7.3/../../../../../H-i686-mingw32/nios2-elf/lib\libc.a(lib_a-vsprintf.o)
                              F:/Qsys/qsys_webserver/qsys/software/qsys_webserver_bsp/\libucosii_bsp.a(in_utils.o) (vsprintf)
d:/eda/quartus13/nios2eds/bin/gnu/h-i686-mingw32/bin/../lib/gcc/nios2-elf/4.7.3/../../../../../H-i686-mingw32/nios2-elf/lib\libc.a(lib_a-__atexit.o)
                              d:/eda/quartus13/nios2eds/bin/gnu/h-i686-mingw32/bin/../lib/gcc/nios2-elf/4.7.3/../../../../../H-i686-mingw32/nios2-elf/lib\libc.a(lib_a-atexit.o) (__register_exitproc)
d:/eda/quartus13/nios2eds/bin/gnu/h-i686-mingw32/bin/../lib/gcc/nios2-elf/4.7.3/../../../../../H-i686-mingw32/nios2-elf/lib\libc.a(lib_a-__call_atexit.o)
                              d:/eda/quartus13/nios2eds/bin/gnu/h-i686-mingw32/bin/../lib/gcc/nios2-elf/4.7.3/../../../../../H-i686-mingw32/nios2-elf/lib\libc.a(lib_a-exit.o) (__call_exitprocs)
F:/Qsys/qsys_webserver/qsys/software/qsys_webserver_bsp/\libucosii_bsp.a(alt_exit.o)
                              d:/eda/quartus13/nios2eds/bin/gnu/h-i686-mingw32/bin/../lib/gcc/nios2-elf/4.7.3/../../../../../H-i686-mingw32/nios2-elf/lib\libc.a(lib_a-exit.o) (_exit)

Allocating common symbols
Common symbol       size              file

soq                 0x14              F:/Qsys/qsys_webserver/qsys/software/qsys_webserver_bsp/\libucosii_bsp.a(nptcp.o)
upload_buf          0x5b8d88          obj/default/http.o
alt_irq             0x100             F:/Qsys/qsys_webserver/qsys/software/qsys_webserver_bsp/\libucosii_bsp.a(alt_irq_handler.o)
tcp_optionbuf       0x4               F:/Qsys/qsys_webserver/qsys/software/qsys_webserver_bsp/\libucosii_bsp.a(tcp_out.o)
last_flash_sector_offset
                    0x4               obj/default/network_utilities.o
rt_mib              0x4               F:/Qsys/qsys_webserver/qsys/software/qsys_webserver_bsp/\libucosii_bsp.a(ip.o)
so_evtmap_create    0x4               F:/Qsys/qsys_webserver/qsys/software/qsys_webserver_bsp/\libucosii_bsp.a(ipport.o)
board_funcs         0x2a              obj/default/http.o
OSLockNesting       0x1               F:/Qsys/qsys_webserver/qsys/software/qsys_webserver_bsp/\libucosii_bsp.a(os_core.o)
tcb                 0x2c              F:/Qsys/qsys_webserver/qsys/software/qsys_webserver_bsp/\libucosii_bsp.a(tcp_subr.o)
OSRunning           0x1               F:/Qsys/qsys_webserver/qsys/software/qsys_webserver_bsp/\libucosii_bsp.a(os_core.o)
tcpstat             0xe0              F:/Qsys/qsys_webserver/qsys/software/qsys_webserver_bsp/\libucosii_bsp.a(tcp_subr.o)
OSIdleCtr           0x4               F:/Qsys/qsys_webserver/qsys/software/qsys_webserver_bsp/\libucosii_bsp.a(os_core.o)
udp_mib             0x10              F:/Qsys/qsys_webserver/qsys/software/qsys_webserver_bsp/\libucosii_bsp.a(udp.o)
to_netmain          0x1               F:/Qsys/qsys_webserver/qsys/software/qsys_webserver_bsp/\libucosii_bsp.a(netmain.o)
OSPrioHighRdy       0x1               F:/Qsys/qsys_webserver/qsys/software/qsys_webserver_bsp/\libucosii_bsp.a(os_core.o)
errno               0x4               d:/eda/quartus13/nios2eds/bin/gnu/h-i686-mingw32/bin/../lib/gcc/nios2-elf/4.7.3/../../../../../H-i686-mingw32/nios2-elf/lib\libc.a(lib_a-int_errno.o)
lilfreeq            0x14              F:/Qsys/qsys_webserver/qsys/software/qsys_webserver_bsp/\libucosii_bsp.a(pktalloc.o)
icmp_mib            0x68              F:/Qsys/qsys_webserver/qsys/software/qsys_webserver_bsp/\libucosii_bsp.a(icmp.o)
pmac_groups         0x10              F:/Qsys/qsys_webserver/qsys/software/qsys_webserver_bsp/\libucosii_bsp.a(altera_avalon_tse.o)
resid_semaphore     0x40              F:/Qsys/qsys_webserver/qsys/software/qsys_webserver_bsp/\libucosii_bsp.a(targnios.o)
alt_heapsem         0x4               F:/Qsys/qsys_webserver/qsys/software/qsys_webserver_bsp/\libucosii_bsp.a(alt_malloc_lock.o)
OSFlagTbl           0x370             F:/Qsys/qsys_webserver/qsys/software/qsys_webserver_bsp/\libucosii_bsp.a(os_core.o)
mbstat              0x8               F:/Qsys/qsys_webserver/qsys/software/qsys_webserver_bsp/\libucosii_bsp.a(nptcp.o)
netq_intmask        0x4               F:/Qsys/qsys_webserver/qsys/software/qsys_webserver_bsp/\libucosii_bsp.a(osportco.o)
select_wait         0x2               F:/Qsys/qsys_webserver/qsys/software/qsys_webserver_bsp/\libucosii_bsp.a(nptcp.o)
tse_iniche_dev_driver_data
                    0x30              F:/Qsys/qsys_webserver/qsys/software/qsys_webserver_bsp/\libucosii_bsp.a(ins_tse_mac.o)
tcpmib              0x3c              F:/Qsys/qsys_webserver/qsys/software/qsys_webserver_bsp/\libucosii_bsp.a(nptcp.o)
OSPrioCur           0x1               F:/Qsys/qsys_webserver/qsys/software/qsys_webserver_bsp/\libucosii_bsp.a(os_core.o)
tse                 0x130             F:/Qsys/qsys_webserver/qsys/software/qsys_webserver_bsp/\libucosii_bsp.a(ins_tse_mac.o)
mheap_sem_ptr       0x4               F:/Qsys/qsys_webserver/qsys/software/qsys_webserver_bsp/\libucosii_bsp.a(targnios.o)
netlist             0x14              F:/Qsys/qsys_webserver/qsys/software/qsys_webserver_bsp/\libucosii_bsp.a(iface.o)
mbufq               0x14              F:/Qsys/qsys_webserver/qsys/software/qsys_webserver_bsp/\libucosii_bsp.a(nptcp.o)
OSTCBList           0x4               F:/Qsys/qsys_webserver/qsys/software/qsys_webserver_bsp/\libucosii_bsp.a(os_core.o)
alt_fd_list_lock    0x4               F:/Qsys/qsys_webserver/qsys/software/qsys_webserver_bsp/\libucosii_bsp.a(alt_dev.o)
OSMemTbl            0xc30             F:/Qsys/qsys_webserver/qsys/software/qsys_webserver_bsp/\libucosii_bsp.a(os_core.o)
OSTickStepState     0x1               F:/Qsys/qsys_webserver/qsys/software/qsys_webserver_bsp/\libucosii_bsp.a(os_core.o)
SSDTaskStk          0x2000            obj/default/web_server.o
line_count          0x4               obj/default/srec_flash.o
OSTaskStatStk       0x800             F:/Qsys/qsys_webserver/qsys/software/qsys_webserver_bsp/\libucosii_bsp.a(os_core.o)
OSCtxSwCtr          0x4               F:/Qsys/qsys_webserver/qsys/software/qsys_webserver_bsp/\libucosii_bsp.a(os_core.o)
igmpstats           0x64              F:/Qsys/qsys_webserver/qsys/software/qsys_webserver_bsp/\libucosii_bsp.a(igmp_cmn.o)
ire_stats           0x18              F:/Qsys/qsys_webserver/qsys/software/qsys_webserver_bsp/\libucosii_bsp.a(ip_reasm.o)
__hexdig            0x100             d:/eda/quartus13/nios2eds/bin/gnu/h-i686-mingw32/bin/../lib/gcc/nios2-elf/4.7.3/../../../../../H-i686-mingw32/nios2-elf/lib\libc.a(lib_a-gdtoa-gethex.o)
old_mode            0x4               F:/Qsys/qsys_webserver/qsys/software/qsys_webserver_bsp/\libucosii_bsp.a(osportco.o)
vfs_dir_stale       0x4               F:/Qsys/qsys_webserver/qsys/software/qsys_webserver_bsp/\libucosii_bsp.a(vfsfiles.o)
pphy_profiles       0x10              F:/Qsys/qsys_webserver/qsys/software/qsys_webserver_bsp/\libucosii_bsp.a(altera_avalon_tse.o)
cticks_factor       0x4               F:/Qsys/qsys_webserver/qsys/software/qsys_webserver_bsp/\libucosii_bsp.a(brdutils.o)
OSIdleCtrMax        0x4               F:/Qsys/qsys_webserver/qsys/software/qsys_webserver_bsp/\libucosii_bsp.a(os_core.o)
memestats           0x10              F:/Qsys/qsys_webserver/qsys/software/qsys_webserver_bsp/\libucosii_bsp.a(pktalloc.o)
intimers            0x64              F:/Qsys/qsys_webserver/qsys/software/qsys_webserver_bsp/\libucosii_bsp.a(timeouts.o)
OSTCBFreeList       0x4               F:/Qsys/qsys_webserver/qsys/software/qsys_webserver_bsp/\libucosii_bsp.a(os_core.o)
global_TCPwakeup_setIndx
                    0x4               F:/Qsys/qsys_webserver/qsys/software/qsys_webserver_bsp/\libucosii_bsp.a(osportco.o)
rcvdq               0x14              F:/Qsys/qsys_webserver/qsys/software/qsys_webserver_bsp/\libucosii_bsp.a(ipnet.o)
http_rx_buffer      0xc000            obj/default/http.o
global_tcb_ext      0xfc              F:/Qsys/qsys_webserver/qsys/software/qsys_webserver_bsp/\libucosii_bsp.a(osportco.o)
netstatic           0x300             F:/Qsys/qsys_webserver/qsys/software/qsys_webserver_bsp/\libucosii_bsp.a(ipstart.o)
tcp_maxidle         0x4               F:/Qsys/qsys_webserver/qsys/software/qsys_webserver_bsp/\libucosii_bsp.a(tcp_timr.o)
flash_inf           0x30              obj/default/http.o
OSCPUUsage          0x1               F:/Qsys/qsys_webserver/qsys/software/qsys_webserver_bsp/\libucosii_bsp.a(os_core.o)
nets                0x10              F:/Qsys/qsys_webserver/qsys/software/qsys_webserver_bsp/\libucosii_bsp.a(ipstart.o)
pktlog              0xf0              F:/Qsys/qsys_webserver/qsys/software/qsys_webserver_bsp/\libucosii_bsp.a(pktalloc.o)
frag                0x104             obj/default/srec_flash.o
OSTaskCtr           0x1               F:/Qsys/qsys_webserver/qsys/software/qsys_webserver_bsp/\libucosii_bsp.a(os_core.o)
OSMemFreeList       0x4               F:/Qsys/qsys_webserver/qsys/software/qsys_webserver_bsp/\libucosii_bsp.a(os_core.o)
vfs_open_files      0x4               F:/Qsys/qsys_webserver/qsys/software/qsys_webserver_bsp/\libucosii_bsp.a(vfsfiles.o)
cticks              0x4               F:/Qsys/qsys_webserver/qsys/software/qsys_webserver_bsp/\libucosii_bsp.a(osportco.o)
to_nettick          0x1               F:/Qsys/qsys_webserver/qsys/software/qsys_webserver_bsp/\libucosii_bsp.a(netmain.o)
WSInitialTaskStk    0x2000            obj/default/web_server.o
last_flash_sector   0x4               obj/default/network_utilities.o
OSQTbl              0x1e0             F:/Qsys/qsys_webserver/qsys/software/qsys_webserver_bsp/\libucosii_bsp.a(os_core.o)
OSTCBHighRdy        0x4               F:/Qsys/qsys_webserver/qsys/software/qsys_webserver_bsp/\libucosii_bsp.a(os_core.o)
OSQFreeList         0x4               F:/Qsys/qsys_webserver/qsys/software/qsys_webserver_bsp/\libucosii_bsp.a(os_core.o)
OSRdyGrp            0x1               F:/Qsys/qsys_webserver/qsys/software/qsys_webserver_bsp/\libucosii_bsp.a(os_core.o)
ip_mib              0x50              F:/Qsys/qsys_webserver/qsys/software/qsys_webserver_bsp/\libucosii_bsp.a(ip.o)
OS_TPS              0x4               F:/Qsys/qsys_webserver/qsys/software/qsys_webserver_bsp/\libucosii_bsp.a(brdutils.o)
_atexit0            0x190             d:/eda/quartus13/nios2eds/bin/gnu/h-i686-mingw32/bin/../lib/gcc/nios2-elf/4.7.3/../../../../../H-i686-mingw32/nios2-elf/lib\libc.a(lib_a-atexit.o)
current_flash_block
                    0x4               obj/default/srec_flash.o
OSRdyTbl            0x3               F:/Qsys/qsys_webserver/qsys/software/qsys_webserver_bsp/\libucosii_bsp.a(os_core.o)
igmp_all_hosts_group
                    0x4               F:/Qsys/qsys_webserver/qsys/software/qsys_webserver_bsp/\libucosii_bsp.a(igmp_cmn.o)
LEDTaskStk          0x2000            obj/default/web_server.o
eth_prt_buf         0x12              F:/Qsys/qsys_webserver/qsys/software/qsys_webserver_bsp/\libucosii_bsp.a(in_utils.o)
app_semaphore       0x18              F:/Qsys/qsys_webserver/qsys/software/qsys_webserver_bsp/\libucosii_bsp.a(targnios.o)
tse_mac_if          0xe0              F:/Qsys/qsys_webserver/qsys/software/qsys_webserver_bsp/\libucosii_bsp.a(alt_sys_init.o)
rcvdq_sem_ptr       0x4               F:/Qsys/qsys_webserver/qsys/software/qsys_webserver_bsp/\libucosii_bsp.a(targnios.o)
OSEventFreeList     0x4               F:/Qsys/qsys_webserver/qsys/software/qsys_webserver_bsp/\libucosii_bsp.a(os_core.o)
http_tx_buffer      0xc000            obj/default/http.o
mfreeq              0x14              F:/Qsys/qsys_webserver/qsys/software/qsys_webserver_bsp/\libucosii_bsp.a(nptcp.o)
global_TCPwakeup_set
                    0xf0              F:/Qsys/qsys_webserver/qsys/software/qsys_webserver_bsp/\libucosii_bsp.a(osportco.o)
bigfreeq            0x14              F:/Qsys/qsys_webserver/qsys/software/qsys_webserver_bsp/\libucosii_bsp.a(pktalloc.o)
so_evtmap_delete    0x4               F:/Qsys/qsys_webserver/qsys/software/qsys_webserver_bsp/\libucosii_bsp.a(ipport.o)
tcp_saveti          0x28              F:/Qsys/qsys_webserver/qsys/software/qsys_webserver_bsp/\libucosii_bsp.a(tcp_in.o)
OSIntNesting        0x1               F:/Qsys/qsys_webserver/qsys/software/qsys_webserver_bsp/\libucosii_bsp.a(os_core.o)
so_evtmap           0x1               F:/Qsys/qsys_webserver/qsys/software/qsys_webserver_bsp/\libucosii_bsp.a(ipport.o)
board_control_mbox  0x4               obj/default/web_server.o
to_wstask           0x1               obj/default/web_server.o
OSTCBCur            0x4               F:/Qsys/qsys_webserver/qsys/software/qsys_webserver_bsp/\libucosii_bsp.a(os_core.o)
arp_table           0x100             F:/Qsys/qsys_webserver/qsys/software/qsys_webserver_bsp/\libucosii_bsp.a(et_arp.o)
tcp_iss             0x4               F:/Qsys/qsys_webserver/qsys/software/qsys_webserver_bsp/\libucosii_bsp.a(tcp_timr.o)
vfs_total_rw_space  0x4               F:/Qsys/qsys_webserver/qsys/software/qsys_webserver_bsp/\libucosii_bsp.a(vfsfiles.o)
OSTime              0x4               F:/Qsys/qsys_webserver/qsys/software/qsys_webserver_bsp/\libucosii_bsp.a(os_core.o)
OSTaskIdleStk       0x800             F:/Qsys/qsys_webserver/qsys/software/qsys_webserver_bsp/\libucosii_bsp.a(os_core.o)
OSEventTbl          0xb40             F:/Qsys/qsys_webserver/qsys/software/qsys_webserver_bsp/\libucosii_bsp.a(os_core.o)
vfs_total_dyna_files
                    0x4               F:/Qsys/qsys_webserver/qsys/software/qsys_webserver_bsp/\libucosii_bsp.a(vfsfiles.o)
OSTCBTbl            0x510             F:/Qsys/qsys_webserver/qsys/software/qsys_webserver_bsp/\libucosii_bsp.a(os_core.o)
ipreturn            0x12              F:/Qsys/qsys_webserver/qsys/software/qsys_webserver_bsp/\libucosii_bsp.a(in_utils.o)
OSFlagFreeList      0x4               F:/Qsys/qsys_webserver/qsys/software/qsys_webserver_bsp/\libucosii_bsp.a(os_core.o)
dropline            0x4               F:/Qsys/qsys_webserver/qsys/software/qsys_webserver_bsp/\libucosii_bsp.a(tcp_in.o)
OSStatRdy           0x1               F:/Qsys/qsys_webserver/qsys/software/qsys_webserver_bsp/\libucosii_bsp.a(os_core.o)
OSTCBPrioTbl        0x54              F:/Qsys/qsys_webserver/qsys/software/qsys_webserver_bsp/\libucosii_bsp.a(os_core.o)
igmp_all_rtrs_group
                    0x4               F:/Qsys/qsys_webserver/qsys/software/qsys_webserver_bsp/\libucosii_bsp.a(igmp_cmn.o)
BCTaskStk           0x2000            obj/default/web_server.o
alt_envsem          0x4               F:/Qsys/qsys_webserver/qsys/software/qsys_webserver_bsp/\libucosii_bsp.a(alt_env_lock.o)
OSIdleCtrRun        0x4               F:/Qsys/qsys_webserver/qsys/software/qsys_webserver_bsp/\libucosii_bsp.a(os_core.o)

Memory Configuration

Name             Origin             Length             Attributes
reset            0x00000000         0x00000020
epcs_flash_controller 0x00000020         0x000007e0
descriptor_memory 0x00001c00         0x00000200
sdram_BEFORE_EXCEPTION 0x02000000         0x00000020
sdram            0x02000020         0x01ffffe0
*default*        0x00000000         0xffffffff

Linker script and memory map

LOAD F:/Qsys/qsys_webserver/qsys/software/qsys_webserver_bsp//obj/HAL/src/crt0.o
LOAD obj/default/alt_error_handler.o
LOAD obj/default/http.o
LOAD obj/default/network_utilities.o
LOAD obj/default/srec_flash.o
LOAD obj/default/web_server.o
LOAD d:/eda/quartus13/nios2eds/bin/gnu/h-i686-mingw32/bin/../lib/gcc/nios2-elf/4.7.3/../../../../../H-i686-mingw32/nios2-elf/lib\libstdc++.a
LOAD d:/eda/quartus13/nios2eds/bin/gnu/h-i686-mingw32/bin/../lib/gcc/nios2-elf/4.7.3/../../../../../H-i686-mingw32/nios2-elf/lib\libm.a
LOAD d:/eda/quartus13/nios2eds/bin/gnu/h-i686-mingw32/bin/../lib/gcc/nios2-elf/4.7.3\libgcc.a
START GROUP
LOAD d:/eda/quartus13/nios2eds/bin/gnu/h-i686-mingw32/bin/../lib/gcc/nios2-elf/4.7.3/../../../../../H-i686-mingw32/nios2-elf/lib\libc.a
LOAD d:/eda/quartus13/nios2eds/bin/gnu/h-i686-mingw32/bin/../lib/gcc/nios2-elf/4.7.3\libgcc.a
LOAD F:/Qsys/qsys_webserver/qsys/software/qsys_webserver_bsp/\libucosii_bsp.a
END GROUP
LOAD d:/eda/quartus13/nios2eds/bin/gnu/h-i686-mingw32/bin/../lib/gcc/nios2-elf/4.7.3\libgcc.a
                0x00000000                __alt_mem_epcs_flash_controller = 0x0
                0x00001c00                __alt_mem_descriptor_memory = 0x1c00
                0x02000000                __alt_mem_sdram = 0x2000000

.entry          0x00000000        0x0
 *(.entry)
 .entry         0x00000000        0x0 F:/Qsys/qsys_webserver/qsys/software/qsys_webserver_bsp//obj/HAL/src/crt0.o
                0x00000000                __reset

.exceptions     0x02000020      0x19c
                0x02000020                PROVIDE (__ram_exceptions_start, ABSOLUTE (.))
                0x02000020                . = ALIGN (0x20)
 *(.irq)
 *(.exceptions.entry.label)
 .exceptions.entry.label
                0x02000020        0x0 F:/Qsys/qsys_webserver/qsys/software/qsys_webserver_bsp/\libucosii_bsp.a(alt_irq_entry.o)
                0x02000020                alt_irq_entry
 .exceptions.entry.label
                0x02000020        0x0 F:/Qsys/qsys_webserver/qsys/software/qsys_webserver_bsp/\libucosii_bsp.a(alt_exception_entry.o)
                0x02000020                alt_exception
 *(.exceptions.entry.user)
 *(.exceptions.entry.ecc_fatal)
 *(.exceptions.entry)
 .exceptions.entry
                0x02000020       0x54 F:/Qsys/qsys_webserver/qsys/software/qsys_webserver_bsp/\libucosii_bsp.a(alt_exception_entry.o)
 *(.exceptions.irqtest.user)
 *(.exceptions.irqtest)
 .exceptions.irqtest
                0x02000074       0x10 F:/Qsys/qsys_webserver/qsys/software/qsys_webserver_bsp/\libucosii_bsp.a(alt_irq_entry.o)
 *(.exceptions.irqhandler.user)
 *(.exceptions.irqhandler)
 .exceptions.irqhandler
                0x02000084        0x4 F:/Qsys/qsys_webserver/qsys/software/qsys_webserver_bsp/\libucosii_bsp.a(alt_irq_entry.o)
 *(.exceptions.irqreturn.user)
 *(.exceptions.irqreturn)
 .exceptions.irqreturn
                0x02000088        0x4 F:/Qsys/qsys_webserver/qsys/software/qsys_webserver_bsp/\libucosii_bsp.a(alt_irq_entry.o)
 *(.exceptions.notirq.label)
 .exceptions.notirq.label
                0x0200008c        0x0 F:/Qsys/qsys_webserver/qsys/software/qsys_webserver_bsp/\libucosii_bsp.a(alt_irq_entry.o)
 *(.exceptions.notirq.user)
 *(.exceptions.notirq)
 .exceptions.notirq
                0x0200008c        0x8 F:/Qsys/qsys_webserver/qsys/software/qsys_webserver_bsp/\libucosii_bsp.a(alt_exception_entry.o)
 *(.exceptions.soft.user)
 *(.exceptions.soft)
 *(.exceptions.unknown.user)
 *(.exceptions.unknown)
 .exceptions.unknown
                0x02000094        0x4 F:/Qsys/qsys_webserver/qsys/software/qsys_webserver_bsp/\libucosii_bsp.a(alt_exception_entry.o)
 *(.exceptions.exit.label)
 .exceptions.exit.label
                0x02000098        0x0 F:/Qsys/qsys_webserver/qsys/software/qsys_webserver_bsp/\libucosii_bsp.a(alt_irq_entry.o)
 .exceptions.exit.label
                0x02000098        0x0 F:/Qsys/qsys_webserver/qsys/software/qsys_webserver_bsp/\libucosii_bsp.a(alt_exception_entry.o)
 *(.exceptions.exit.user)
 *(.exceptions.exit)
 .exceptions.exit
                0x02000098       0x54 F:/Qsys/qsys_webserver/qsys/software/qsys_webserver_bsp/\libucosii_bsp.a(alt_exception_entry.o)
 *(.exceptions)
 .exceptions    0x020000ec       0xd0 F:/Qsys/qsys_webserver/qsys/software/qsys_webserver_bsp/\libucosii_bsp.a(alt_irq_handler.o)
                0x020000ec                alt_irq_handler
                0x020001bc                PROVIDE (__ram_exceptions_end, ABSOLUTE (.))
                0x02000020                PROVIDE (__flash_exceptions_start, LOADADDR (.exceptions))

.text           0x020001bc    0x4bf6c
                0x020001bc                PROVIDE (stext, ABSOLUTE (.))
 *(.interp)
 *(.hash)
 *(.dynsym)
 *(.dynstr)
 *(.gnu.version)
 *(.gnu.version_d)
 *(.gnu.version_r)
 *(.rel.init)
 *(.rela.init)
 *(.rel.text .rel.text.* .rel.gnu.linkonce.t.*)
 *(.rela.text .rela.text.* .rela.gnu.linkonce.t.*)
 *(.rel.fini)
 *(.rela.fini)
 *(.rel.rodata .rel.rodata.* .rel.gnu.linkonce.r.*)
 *(.rela.rodata .rela.rodata.* .rela.gnu.linkonce.r.*)
 *(.rel.data .rel.data.* .rel.gnu.linkonce.d.*)
 *(.rela.data .rela.data.* .rela.gnu.linkonce.d.*)
 *(.rel.tdata .rel.tdata.* .rel.gnu.linkonce.td.*)
 *(.rela.tdata .rela.tdata.* .rela.gnu.linkonce.td.*)
 *(.rel.tbss .rel.tbss.* .rel.gnu.linkonce.tb.*)
 *(.rela.tbss .rela.tbss.* .rela.gnu.linkonce.tb.*)
 *(.rel.ctors)
 *(.rela.ctors)
 *(.rel.dtors)
 *(.rela.dtors)
 *(.rel.got)
 *(.rela.got)
 *(.rel.sdata .rel.sdata.* .rel.gnu.linkonce.s.*)
 *(.rela.sdata .rela.sdata.* .rela.gnu.linkonce.s.*)
 *(.rel.sbss .rel.sbss.* .rel.gnu.linkonce.sb.*)
 *(.rela.sbss .rela.sbss.* .rela.gnu.linkonce.sb.*)
 *(.rel.sdata2 .rel.sdata2.* .rel.gnu.linkonce.s2.*)
 *(.rela.sdata2 .rela.sdata2.* .rela.gnu.linkonce.s2.*)
 *(.rel.sbss2 .rel.sbss2.* .rel.gnu.linkonce.sb2.*)
 *(.rela.sbss2 .rela.sbss2.* .rela.gnu.linkonce.sb2.*)
 *(.rel.bss .rel.bss.* .rel.gnu.linkonce.b.*)
 *(.rela.bss .rela.bss.* .rela.gnu.linkonce.b.*)
 *(.rel.plt)
 *(.rela.plt)
 *(.rel.dyn)
 *(.init)
 *(.plt)
 *(.text .stub .text.* .gnu.linkonce.t.*)
 .text          0x020001bc       0x48 F:/Qsys/qsys_webserver/qsys/software/qsys_webserver_bsp//obj/HAL/src/crt0.o
                0x020001bc                _start
 .text          0x02000204      0x648 obj/default/alt_error_handler.o
                0x02000204                alt_uCOSIIErrorHandler
 .text          0x0200084c     0x2840 obj/default/http.o
                0x0200084c                print
                0x0200087c                sweep
                0x02000960                http_cleanup_lcd_text
                0x020009e4                lcd_output
                0x02000aac                http_parse_multipart_header
                0x02000cfc                file_upload
                0x02000f78                ProgFlashStub
                0x02000fcc                http_reset_connection
                0x02001098                http_manage_connection
                0x02001234                http_handle_accept
                0x02001350                http_read_line
                0x02001400                http_parse_type_boundary
                0x02001500                http_process_headers
                0x02001714                http_process_request
                0x020019e0                http_send_file_chunk
                0x02001b74                http_send_file_header
                0x020022d4                http_find_file
                0x0200253c                http_send_redirect
                0x02002570                http_handle_post
                0x020028a4                http_prepare_response
                0x02002914                http_handle_receive
                0x02002cd8                http_handle_transmit
                0x02002d38                WSTask
 .text          0x0200308c      0x938 obj/default/network_utilities.o
                0x0200308c                die_with_error
                0x020030bc                get_serial_number
                0x0200328c                generate_and_store_mac_addr
                0x0200344c                generate_mac_addr
                0x0200358c                get_board_mac_addr
                0x02003694                get_mac_addr
                0x020036e8                get_ip_addr
                0x02003898                FindLastFlashSectorOffset
 .text          0x020039c4      0x810 obj/default/srec_flash.o
                0x020039c4                ProgFlash
                0x02003c54                ParseAndProgramLine
                0x02003f00                ParseSRECBuf
 .text          0x020041d4      0x300 obj/default/web_server.o
                0x020041d4                WSInitialTask
                0x0200424c                main
                0x020043bc                board_control_task
                0x02004454                LED_task
 .text          0x020044d4       0x18 d:/eda/quartus13/nios2eds/bin/gnu/h-i686-mingw32/bin/../lib/gcc/nios2-elf/4.7.3/../../../../../H-i686-mingw32/nios2-elf/lib\libc.a(lib_a-atoi.o)
                0x020044d4                atoi
                0x020044e0                _atoi_r
 .text          0x020044ec        0x0 d:/eda/quartus13/nios2eds/bin/gnu/h-i686-mingw32/bin/../lib/gcc/nios2-elf/4.7.3/../../../../../H-i686-mingw32/nios2-elf/lib\libc.a(lib_a-ctype_.o)
 .text          0x020044ec      0x150 d:/eda/quartus13/nios2eds/bin/gnu/h-i686-mingw32/bin/../lib/gcc/nios2-elf/4.7.3/../../../../../H-i686-mingw32/nios2-elf/lib\libc.a(lib_a-fclose.o)
                0x020044ec                _fclose_r
                0x02004628                fclose
 .text          0x0200463c      0x218 d:/eda/quartus13/nios2eds/bin/gnu/h-i686-mingw32/bin/../lib/gcc/nios2-elf/4.7.3/../../../../../H-i686-mingw32/nios2-elf/lib\libc.a(lib_a-fflush.o)
                0x0200463c                _fflush_r
                0x02004824                fflush
 .text          0x02004854       0x48 d:/eda/quartus13/nios2eds/bin/gnu/h-i686-mingw32/bin/../lib/gcc/nios2-elf/4.7.3/../../../../../H-i686-mingw32/nios2-elf/lib\libc.a(lib_a-fgetpos.o)
                0x02004854                _fgetpos_r
                0x02004880                fgetpos
 .text          0x0200489c      0x2d8 d:/eda/quartus13/nios2eds/bin/gnu/h-i686-mingw32/bin/../lib/gcc/nios2-elf/4.7.3/../../../../../H-i686-mingw32/nios2-elf/lib\libc.a(lib_a-findfp.o)
                0x020048ac                _cleanup_r
                0x020048b8                __sfmoreglue
                0x0200491c                _cleanup
                0x0200492c                __sinit
                0x02004a38                __sfp
                0x02004b34                __sfp_lock_acquire
                0x02004b38                __sfp_lock_release
                0x02004b3c                __sinit_lock_acquire
                0x02004b40                __sinit_lock_release
                0x02004b44                __fp_lock_all
                0x02004b5c                __fp_unlock_all
 .text          0x02004b74      0x14c d:/eda/quartus13/nios2eds/bin/gnu/h-i686-mingw32/bin/../lib/gcc/nios2-elf/4.7.3/../../../../../H-i686-mingw32/nios2-elf/lib\libc.a(lib_a-fopen.o)
                0x02004b74                _fopen_r
                0x02004ca4                fopen
 .text          0x02004cc0       0x4c d:/eda/quartus13/nios2eds/bin/gnu/h-i686-mingw32/bin/../lib/gcc/nios2-elf/4.7.3/../../../../../H-i686-mingw32/nios2-elf/lib\libc.a(lib_a-fprintf.o)
                0x02004cc0                _fprintf_r
                0x02004ce8                fprintf
 .text          0x02004d0c      0x26c d:/eda/quartus13/nios2eds/bin/gnu/h-i686-mingw32/bin/../lib/gcc/nios2-elf/4.7.3/../../../../../H-i686-mingw32/nios2-elf/lib\libc.a(lib_a-fread.o)
                0x02004d0c                _fread_r
                0x02004f38                fread
 .text          0x02004f78      0x40c d:/eda/quartus13/nios2eds/bin/gnu/h-i686-mingw32/bin/../lib/gcc/nios2-elf/4.7.3/../../../../../H-i686-mingw32/nios2-elf/lib\libc.a(lib_a-freer.o)
                0x02004f78                _malloc_trim_r
                0x020050b4                _free_r
 .text          0x02005384      0x498 d:/eda/quartus13/nios2eds/bin/gnu/h-i686-mingw32/bin/../lib/gcc/nios2-elf/4.7.3/../../../../../H-i686-mingw32/nios2-elf/lib\libc.a(lib_a-fseek.o)
                0x02005384                _fseek_r
                0x020057f8                fseek
 .text          0x0200581c       0x68 d:/eda/quartus13/nios2eds/bin/gnu/h-i686-mingw32/bin/../lib/gcc/nios2-elf/4.7.3/../../../../../H-i686-mingw32/nios2-elf/lib\libc.a(lib_a-fstatr.o)
                0x0200581c                _fstat_r
 .text          0x02005884      0x124 d:/eda/quartus13/nios2eds/bin/gnu/h-i686-mingw32/bin/../lib/gcc/nios2-elf/4.7.3/../../../../../H-i686-mingw32/nios2-elf/lib\libc.a(lib_a-ftell.o)
                0x02005884                _ftell_r
                0x02005994                ftell
 .text          0x020059a8      0x160 d:/eda/quartus13/nios2eds/bin/gnu/h-i686-mingw32/bin/../lib/gcc/nios2-elf/4.7.3/../../../../../H-i686-mingw32/nios2-elf/lib\libc.a(lib_a-fwalk.o)
                0x020059a8                _fwalk
                0x02005a50                _fwalk_reent
 .text          0x02005b08       0xe0 d:/eda/quartus13/nios2eds/bin/gnu/h-i686-mingw32/bin/../lib/gcc/nios2-elf/4.7.3/../../../../../H-i686-mingw32/nios2-elf/lib\libc.a(lib_a-fwrite.o)
                0x02005b08                _fwrite_r
                0x02005ba8                fwrite
 .text          0x02005be8       0xf8 d:/eda/quartus13/nios2eds/bin/gnu/h-i686-mingw32/bin/../lib/gcc/nios2-elf/4.7.3/../../../../../H-i686-mingw32/nios2-elf/lib\libc.a(lib_a-getc.o)
                0x02005be8                _getc_r
                0x02005c58                getc
 .text          0x02005ce0        0x0 d:/eda/quartus13/nios2eds/bin/gnu/h-i686-mingw32/bin/../lib/gcc/nios2-elf/4.7.3/../../../../../H-i686-mingw32/nios2-elf/lib\libc.a(lib_a-impure.o)
 .text          0x02005ce0        0x0 d:/eda/quartus13/nios2eds/bin/gnu/h-i686-mingw32/bin/../lib/gcc/nios2-elf/4.7.3/../../../../../H-i686-mingw32/nios2-elf/lib\libc.a(lib_a-int_errno.o)
 .text          0x02005ce0      0x1a8 d:/eda/quartus13/nios2eds/bin/gnu/h-i686-mingw32/bin/../lib/gcc/nios2-elf/4.7.3/../../../../../H-i686-mingw32/nios2-elf/lib\libc.a(lib_a-makebuf.o)
                0x02005ce0                __smakebuf_r
 .text          0x02005e88      0x784 d:/eda/quartus13/nios2eds/bin/gnu/h-i686-mingw32/bin/../lib/gcc/nios2-elf/4.7.3/../../../../../H-i686-mingw32/nios2-elf/lib\libc.a(lib_a-mallocr.o)
                0x02005e88                _malloc_r
 .text          0x0200660c       0xf8 d:/eda/quartus13/nios2eds/bin/gnu/h-i686-mingw32/bin/../lib/gcc/nios2-elf/4.7.3/../../../../../H-i686-mingw32/nios2-elf/lib\libc.a(lib_a-memcpy.o)
                0x0200660c                memcpy
 .text          0x02006704      0x128 d:/eda/quartus13/nios2eds/bin/gnu/h-i686-mingw32/bin/../lib/gcc/nios2-elf/4.7.3/../../../../../H-i686-mingw32/nios2-elf/lib\libc.a(lib_a-memmove.o)
                0x02006704                memmove
 .text          0x0200682c       0xdc d:/eda/quartus13/nios2eds/bin/gnu/h-i686-mingw32/bin/../lib/gcc/nios2-elf/4.7.3/../../../../../H-i686-mingw32/nios2-elf/lib\libc.a(lib_a-memset.o)
                0x0200682c                memset
 .text          0x02006908       0x6c d:/eda/quartus13/nios2eds/bin/gnu/h-i686-mingw32/bin/../lib/gcc/nios2-elf/4.7.3/../../../../../H-i686-mingw32/nios2-elf/lib\libc.a(lib_a-openr.o)
                0x02006908                _open_r
 .text          0x02006974       0x84 d:/eda/quartus13/nios2eds/bin/gnu/h-i686-mingw32/bin/../lib/gcc/nios2-elf/4.7.3/../../../../../H-i686-mingw32/nios2-elf/lib\libc.a(lib_a-perror.o)
                0x02006974                _perror_r
                0x020069e4                perror
 .text          0x020069f8       0x68 d:/eda/quartus13/nios2eds/bin/gnu/h-i686-mingw32/bin/../lib/gcc/nios2-elf/4.7.3/../../../../../H-i686-mingw32/nios2-elf/lib\libc.a(lib_a-printf.o)
                0x020069f8                _printf_r
                0x02006a24                printf
 .text          0x02006a60      0x1ac d:/eda/quartus13/nios2eds/bin/gnu/h-i686-mingw32/bin/../lib/gcc/nios2-elf/4.7.3/../../../../../H-i686-mingw32/nios2-elf/lib\libc.a(lib_a-putc.o)
                0x02006a60                _putc_r
                0x02006b1c                putc
 .text          0x02006c0c       0x24 d:/eda/quartus13/nios2eds/bin/gnu/h-i686-mingw32/bin/../lib/gcc/nios2-elf/4.7.3/../../../../../H-i686-mingw32/nios2-elf/lib\libc.a(lib_a-putchar.o)
                0x02006c0c                _putchar_r
                0x02006c14                putchar
 .text          0x02006c30       0x98 d:/eda/quartus13/nios2eds/bin/gnu/h-i686-mingw32/bin/../lib/gcc/nios2-elf/4.7.3/../../../../../H-i686-mingw32/nios2-elf/lib\libc.a(lib_a-puts.o)
                0x02006c30                _puts_r
                0x02006cb4                puts
 .text          0x02006cc8      0x208 d:/eda/quartus13/nios2eds/bin/gnu/h-i686-mingw32/bin/../lib/gcc/nios2-elf/4.7.3/../../../../../H-i686-mingw32/nios2-elf/lib\libc.a(lib_a-refill.o)
                0x02006ce4                __srefill_r
 .text          0x02006ed0       0x60 d:/eda/quartus13/nios2eds/bin/gnu/h-i686-mingw32/bin/../lib/gcc/nios2-elf/4.7.3/../../../../../H-i686-mingw32/nios2-elf/lib\libc.a(lib_a-rget.o)
                0x02006ed0                __srget_r
                0x02006f1c                __srget
 .text          0x02006f30       0x64 d:/eda/quartus13/nios2eds/bin/gnu/h-i686-mingw32/bin/../lib/gcc/nios2-elf/4.7.3/../../../../../H-i686-mingw32/nios2-elf/lib\libc.a(lib_a-sbrkr.o)
                0x02006f30                _sbrk_r
 .text          0x02006f94       0xc4 d:/eda/quartus13/nios2eds/bin/gnu/h-i686-mingw32/bin/../lib/gcc/nios2-elf/4.7.3/../../../../../H-i686-mingw32/nios2-elf/lib\libc.a(lib_a-sprintf.o)
                0x02006f94                _sprintf_r
                0x02006fec                sprintf
 .text          0x02007058       0xfc d:/eda/quartus13/nios2eds/bin/gnu/h-i686-mingw32/bin/../lib/gcc/nios2-elf/4.7.3/../../../../../H-i686-mingw32/nios2-elf/lib\libc.a(lib_a-sscanf.o)
                0x02007060                sscanf
                0x020070dc                _sscanf_r
 .text          0x02007154      0x140 d:/eda/quartus13/nios2eds/bin/gnu/h-i686-mingw32/bin/../lib/gcc/nios2-elf/4.7.3/../../../../../H-i686-mingw32/nios2-elf/lib\libc.a(lib_a-stdio.o)
                0x02007154                __sread
                0x020071a8                __swrite
                0x02007230                __sseek
                0x0200728c                __sclose
 .text          0x02007294       0xb4 d:/eda/quartus13/nios2eds/bin/gnu/h-i686-mingw32/bin/../lib/gcc/nios2-elf/4.7.3/../../../../../H-i686-mingw32/nios2-elf/lib\libc.a(lib_a-strcasecmp.o)
                0x02007294                strcasecmp
 .text          0x02007348       0x98 d:/eda/quartus13/nios2eds/bin/gnu/h-i686-mingw32/bin/../lib/gcc/nios2-elf/4.7.3/../../../../../H-i686-mingw32/nios2-elf/lib\libc.a(lib_a-strcat.o)
                0x02007348                strcat
 .text          0x020073e0       0xe8 d:/eda/quartus13/nios2eds/bin/gnu/h-i686-mingw32/bin/../lib/gcc/nios2-elf/4.7.3/../../../../../H-i686-mingw32/nios2-elf/lib\libc.a(lib_a-strchr.o)
                0x020073e0                strchr
 .text          0x020074c8       0xa4 d:/eda/quartus13/nios2eds/bin/gnu/h-i686-mingw32/bin/../lib/gcc/nios2-elf/4.7.3/../../../../../H-i686-mingw32/nios2-elf/lib\libc.a(lib_a-strcmp.o)
                0x020074c8                strcmp
 .text          0x0200756c       0x94 d:/eda/quartus13/nios2eds/bin/gnu/h-i686-mingw32/bin/../lib/gcc/nios2-elf/4.7.3/../../../../../H-i686-mingw32/nios2-elf/lib\libc.a(lib_a-strcpy.o)
                0x0200756c                strcpy
 .text          0x02007600      0x664 d:/eda/quartus13/nios2eds/bin/gnu/h-i686-mingw32/bin/../lib/gcc/nios2-elf/4.7.3/../../../../../H-i686-mingw32/nios2-elf/lib\libc.a(lib_a-strerror.o)
                0x02007600                strerror
 .text          0x02007c64       0x8c d:/eda/quartus13/nios2eds/bin/gnu/h-i686-mingw32/bin/../lib/gcc/nios2-elf/4.7.3/../../../../../H-i686-mingw32/nios2-elf/lib\libc.a(lib_a-strlen.o)
                0x02007c64                strlen
 .text          0x02007cf0       0xfc d:/eda/quartus13/nios2eds/bin/gnu/h-i686-mingw32/bin/../lib/gcc/nios2-elf/4.7.3/../../../../../H-i686-mingw32/nios2-elf/lib\libc.a(lib_a-strncmp.o)
                0x02007cf0                strncmp
 .text          0x02007dec       0xb8 d:/eda/quartus13/nios2eds/bin/gnu/h-i686-mingw32/bin/../lib/gcc/nios2-elf/4.7.3/../../../../../H-i686-mingw32/nios2-elf/lib\libc.a(lib_a-strncpy.o)
                0x02007dec                strncpy
 .text          0x02007ea4      0x804 d:/eda/quartus13/nios2eds/bin/gnu/h-i686-mingw32/bin/../lib/gcc/nios2-elf/4.7.3/../../../../../H-i686-mingw32/nios2-elf/lib\libc.a(lib_a-strstr.o)
                0x02008334                strstr
 .text          0x020086a8       0x18 d:/eda/quartus13/nios2eds/bin/gnu/h-i686-mingw32/bin/../lib/gcc/nios2-elf/4.7.3/../../../../../H-i686-mingw32/nios2-elf/lib\libc.a(lib_a-strtok.o)
                0x020086a8                strtok
 .text          0x020086c0       0xac d:/eda/quartus13/nios2eds/bin/gnu/h-i686-mingw32/bin/../lib/gcc/nios2-elf/4.7.3/../../../../../H-i686-mingw32/nios2-elf/lib\libc.a(lib_a-strtok_r.o)
                0x020086c0                __strtok_r
                0x02008764                strtok_r
 .text          0x0200876c      0x288 d:/eda/quartus13/nios2eds/bin/gnu/h-i686-mingw32/bin/../lib/gcc/nios2-elf/4.7.3/../../../../../H-i686-mingw32/nios2-elf/lib\libc.a(lib_a-strtol.o)
                0x0200876c                _strtol_r
                0x020089d0                strtol
 .text          0x020089f4        0x8 d:/eda/quartus13/nios2eds/bin/gnu/h-i686-mingw32/bin/../lib/gcc/nios2-elf/4.7.3/../../../../../H-i686-mingw32/nios2-elf/lib\libc.a(lib_a-u_strerr.o)
                0x020089f4                _user_strerror
 .text          0x020089fc     0x1e50 d:/eda/quartus13/nios2eds/bin/gnu/h-i686-mingw32/bin/../lib/gcc/nios2-elf/4.7.3/../../../../../H-i686-mingw32/nios2-elf/lib\libc.a(lib_a-vfprintf.o)
                0x02008a30                ___vfprintf_internal_r
                0x0200a828                __vfprintf_internal
 .text          0x0200a84c     0x1738 d:/eda/quartus13/nios2eds/bin/gnu/h-i686-mingw32/bin/../lib/gcc/nios2-elf/4.7.3/../../../../../H-i686-mingw32/nios2-elf/lib\libc.a(lib_a-vfscanf.o)
                0x0200a84c                __svfscanf_r
                0x0200bea4                _vfscanf_r
                0x0200bef0                __svfscanf
                0x0200bf14                vfscanf
 .text          0x0200bf84      0x158 d:/eda/quartus13/nios2eds/bin/gnu/h-i686-mingw32/bin/../lib/gcc/nios2-elf/4.7.3/../../../../../H-i686-mingw32/nios2-elf/lib\libc.a(lib_a-wbuf.o)
                0x0200bf84                __swbuf_r
                0x0200c0c0                __swbuf
 .text          0x0200c0dc       0x6c d:/eda/quartus13/nios2eds/bin/gnu/h-i686-mingw32/bin/../lib/gcc/nios2-elf/4.7.3/../../../../../H-i686-mingw32/nios2-elf/lib\libc.a(lib_a-writer.o)
                0x0200c0dc                _write_r
 .text          0x0200c148      0x174 d:/eda/quartus13/nios2eds/bin/gnu/h-i686-mingw32/bin/../lib/gcc/nios2-elf/4.7.3/../../../../../H-i686-mingw32/nios2-elf/lib\libc.a(lib_a-wsetup.o)
                0x0200c148                __swsetup_r
 .text          0x0200c2bc       0x64 d:/eda/quartus13/nios2eds/bin/gnu/h-i686-mingw32/bin/../lib/gcc/nios2-elf/4.7.3/../../../../../H-i686-mingw32/nios2-elf/lib\libc.a(lib_a-closer.o)
                0x0200c2bc                _close_r
 .text          0x0200c320     0x1824 d:/eda/quartus13/nios2eds/bin/gnu/h-i686-mingw32/bin/../lib/gcc/nios2-elf/4.7.3/../../../../../H-i686-mingw32/nios2-elf/lib\libc.a(lib_a-dtoa.o)
                0x0200c528                _dtoa_r
 .text          0x0200db44       0x98 d:/eda/quartus13/nios2eds/bin/gnu/h-i686-mingw32/bin/../lib/gcc/nios2-elf/4.7.3/../../../../../H-i686-mingw32/nios2-elf/lib\libc.a(lib_a-flags.o)
                0x0200db44                __sflags
 .text          0x0200dbdc       0xa4 d:/eda/quartus13/nios2eds/bin/gnu/h-i686-mingw32/bin/../lib/gcc/nios2-elf/4.7.3/../../../../../H-i686-mingw32/nios2-elf/lib\libc.a(lib_a-fputc.o)
                0x0200dbdc                _fputc_r
                0x0200dc20                fputc
 .text          0x0200dc80       0x90 d:/eda/quartus13/nios2eds/bin/gnu/h-i686-mingw32/bin/../lib/gcc/nios2-elf/4.7.3/../../../../../H-i686-mingw32/nios2-elf/lib\libc.a(lib_a-fputs.o)
                0x0200dc80                _fputs_r
                0x0200dcf4                fputs
 .text          0x0200dd10      0x4e4 d:/eda/quartus13/nios2eds/bin/gnu/h-i686-mingw32/bin/../lib/gcc/nios2-elf/4.7.3/../../../../../H-i686-mingw32/nios2-elf/lib\libc.a(lib_a-fvwrite.o)
                0x0200dd10                __sfvwrite_r
 .text          0x0200e1f4       0x64 d:/eda/quartus13/nios2eds/bin/gnu/h-i686-mingw32/bin/../lib/gcc/nios2-elf/4.7.3/../../../../../H-i686-mingw32/nios2-elf/lib\libc.a(lib_a-isattyr.o)
                0x0200e1f4                _isatty_r
 .text          0x0200e258       0x38 d:/eda/quartus13/nios2eds/bin/gnu/h-i686-mingw32/bin/../lib/gcc/nios2-elf/4.7.3/../../../../../H-i686-mingw32/nios2-elf/lib\libc.a(lib_a-iswspace.o)
                0x0200e258                iswspace
 .text          0x0200e290       0xdc d:/eda/quartus13/nios2eds/bin/gnu/h-i686-mingw32/bin/../lib/gcc/nios2-elf/4.7.3/../../../../../H-i686-mingw32/nios2-elf/lib\libc.a(lib_a-locale.o)
                0x0200e290                _setlocale_r
                0x0200e32c                __locale_charset
                0x0200e338                _localeconv_r
                0x0200e344                setlocale
                0x0200e360                localeconv
 .text          0x0200e36c       0x6c d:/eda/quartus13/nios2eds/bin/gnu/h-i686-mingw32/bin/../lib/gcc/nios2-elf/4.7.3/../../../../../H-i686-mingw32/nios2-elf/lib\libc.a(lib_a-lseekr.o)
                0x0200e36c                _lseek_r
 .text          0x0200e3d8       0xa4 d:/eda/quartus13/nios2eds/bin/gnu/h-i686-mingw32/bin/../lib/gcc/nios2-elf/4.7.3/../../../../../H-i686-mingw32/nios2-elf/lib\libc.a(lib_a-mbrtowc.o)
                0x0200e3d8                _mbrtowc_r
                0x0200e43c                mbrtowc
 .text          0x0200e47c       0x44 d:/eda/quartus13/nios2eds/bin/gnu/h-i686-mingw32/bin/../lib/gcc/nios2-elf/4.7.3/../../../../../H-i686-mingw32/nios2-elf/lib\libc.a(lib_a-mbtowc_r.o)
                0x0200e47c                _mbtowc_r
 .text          0x0200e4c0       0xf8 d:/eda/quartus13/nios2eds/bin/gnu/h-i686-mingw32/bin/../lib/gcc/nios2-elf/4.7.3/../../../../../H-i686-mingw32/nios2-elf/lib\libc.a(lib_a-memchr.o)
                0x0200e4c0                memchr
 .text          0x0200e5b8       0x7c d:/eda/quartus13/nios2eds/bin/gnu/h-i686-mingw32/bin/../lib/gcc/nios2-elf/4.7.3/../../../../../H-i686-mingw32/nios2-elf/lib\libc.a(lib_a-memcmp.o)
                0x0200e5b8                memcmp
 .text          0x0200e634      0xfa8 d:/eda/quartus13/nios2eds/bin/gnu/h-i686-mingw32/bin/../lib/gcc/nios2-elf/4.7.3/../../../../../H-i686-mingw32/nios2-elf/lib\libc.a(lib_a-mprec.o)
                0x0200e634                _Balloc
                0x0200e6dc                _Bfree
                0x0200e704                __multadd
                0x0200e818                __s2b
                0x0200e91c                __hi0bits
                0x0200e984                __lo0bits
                0x0200ea34                __i2b
                0x0200ea70                __multiply
                0x0200ec50                __pow5mult
                0x0200ed7c                __lshift
                0x0200eed8                __mcmp
                0x0200ef30                __mdiff
                0x0200f0d8                __ulp
                0x0200f138                __b2d
                0x0200f280                __d2b
                0x0200f3c4                __ratio
                0x0200f468                _mprec_log10
                0x0200f4dc                __copybits
                0x0200f558                __any_on
 .text          0x0200f5dc       0x6c d:/eda/quartus13/nios2eds/bin/gnu/h-i686-mingw32/bin/../lib/gcc/nios2-elf/4.7.3/../../../../../H-i686-mingw32/nios2-elf/lib\libc.a(lib_a-readr.o)
                0x0200f5dc                _read_r
 .text          0x0200f648      0x5fc d:/eda/quartus13/nios2eds/bin/gnu/h-i686-mingw32/bin/../lib/gcc/nios2-elf/4.7.3/../../../../../H-i686-mingw32/nios2-elf/lib\libc.a(lib_a-reallocr.o)
                0x0200f648                _realloc_r
 .text          0x0200fc44       0x38 d:/eda/quartus13/nios2eds/bin/gnu/h-i686-mingw32/bin/../lib/gcc/nios2-elf/4.7.3/../../../../../H-i686-mingw32/nios2-elf/lib\libc.a(lib_a-s_isinfd.o)
                0x0200fc44                __isinfd
 .text          0x0200fc7c       0x2c d:/eda/quartus13/nios2eds/bin/gnu/h-i686-mingw32/bin/../lib/gcc/nios2-elf/4.7.3/../../../../../H-i686-mingw32/nios2-elf/lib\libc.a(lib_a-s_isnand.o)
                0x0200fc7c                __isnand
 .text          0x0200fca8       0xc4 d:/eda/quartus13/nios2eds/bin/gnu/h-i686-mingw32/bin/../lib/gcc/nios2-elf/4.7.3/../../../../../H-i686-mingw32/nios2-elf/lib\libc.a(lib_a-sccl.o)
                0x0200fca8                __sccl
 .text          0x0200fd6c        0x8 d:/eda/quartus13/nios2eds/bin/gnu/h-i686-mingw32/bin/../lib/gcc/nios2-elf/4.7.3/../../../../../H-i686-mingw32/nios2-elf/lib\libc.a(lib_a-sf_nan.o)
                0x0200fd6c                nanf
 .text          0x0200fd74     0x1594 d:/eda/quartus13/nios2eds/bin/gnu/h-i686-mingw32/bin/../lib/gcc/nios2-elf/4.7.3/../../../../../H-i686-mingw32/nios2-elf/lib\libc.a(lib_a-strtod.o)
                0x0200fd74                _strtod_r
                0x020111cc                strtod
                0x020111e8                strtof
 .text          0x02011308      0x330 d:/eda/quartus13/nios2eds/bin/gnu/h-i686-mingw32/bin/../lib/gcc/nios2-elf/4.7.3/../../../../../H-i686-mingw32/nios2-elf/lib\libc.a(lib_a-strtoll_r.o)
                0x02011308                _strtoll_r
 .text          0x02011638      0x2a8 d:/eda/quartus13/nios2eds/bin/gnu/h-i686-mingw32/bin/../lib/gcc/nios2-elf/4.7.3/../../../../../H-i686-mingw32/nios2-elf/lib\libc.a(lib_a-strtoul.o)
                0x02011638                _strtoul_r
                0x020118bc                strtoul
 .text          0x020118e0      0x394 d:/eda/quartus13/nios2eds/bin/gnu/h-i686-mingw32/bin/../lib/gcc/nios2-elf/4.7.3/../../../../../H-i686-mingw32/nios2-elf/lib\libc.a(lib_a-strtoull_r.o)
                0x020118e0                _strtoull_r
 .text          0x02011c74      0x2a8 d:/eda/quartus13/nios2eds/bin/gnu/h-i686-mingw32/bin/../lib/gcc/nios2-elf/4.7.3/../../../../../H-i686-mingw32/nios2-elf/lib\libc.a(lib_a-ungetc.o)
                0x02011c74                __submore
                0x02011d64                _ungetc_r
                0x02011f00                ungetc
 .text          0x02011f1c       0xbc d:/eda/quartus13/nios2eds/bin/gnu/h-i686-mingw32/bin/../lib/gcc/nios2-elf/4.7.3/../../../../../H-i686-mingw32/nios2-elf/lib\libc.a(lib_a-callocr.o)
                0x02011f1c                _calloc_r
 .text          0x02011fd8      0x8e0 d:/eda/quartus13/nios2eds/bin/gnu/h-i686-mingw32/bin/../lib/gcc/nios2-elf/4.7.3/../../../../../H-i686-mingw32/nios2-elf/lib\libc.a(lib_a-gdtoa-gethex.o)
                0x020120e8                __hexdig_init
                0x02012178                __gethex
 .text          0x020128b8      0x28c d:/eda/quartus13/nios2eds/bin/gnu/h-i686-mingw32/bin/../lib/gcc/nios2-elf/4.7.3/../../../../../H-i686-mingw32/nios2-elf/lib\libc.a(lib_a-gdtoa-hexnan.o)
                0x020128b8                __hexnan
 .text          0x02012b44       0x60 d:/eda/quartus13/nios2eds/bin/gnu/h-i686-mingw32/bin/../lib/gcc/nios2-elf/4.7.3\libgcc.a(_muldi3.o)
                0x02012b44                __muldi3
 .text          0x02012ba4       0x84 d:/eda/quartus13/nios2eds/bin/gnu/h-i686-mingw32/bin/../lib/gcc/nios2-elf/4.7.3\libgcc.a(_fixunsdfsi.o)
                0x02012ba4                __fixunsdfsi
 .text          0x02012c28      0x5c8 d:/eda/quartus13/nios2eds/bin/gnu/h-i686-mingw32/bin/../lib/gcc/nios2-elf/4.7.3\libgcc.a(_udivdi3.o)
                0x02012c28                __udivdi3
 .text          0x020131f0      0x58c d:/eda/quartus13/nios2eds/bin/gnu/h-i686-mingw32/bin/../lib/gcc/nios2-elf/4.7.3\libgcc.a(_umoddi3.o)
                0x020131f0                __umoddi3
 .text          0x0201377c       0x54 d:/eda/quartus13/nios2eds/bin/gnu/h-i686-mingw32/bin/../lib/gcc/nios2-elf/4.7.3\libgcc.a(_eq_sf.o)
                0x0201377c                __eqsf2
 .text          0x020137d0       0x5c d:/eda/quartus13/nios2eds/bin/gnu/h-i686-mingw32/bin/../lib/gcc/nios2-elf/4.7.3\libgcc.a(_gt_sf.o)
                0x020137d0                __gtsf2
 .text          0x0201382c       0x54 d:/eda/quartus13/nios2eds/bin/gnu/h-i686-mingw32/bin/../lib/gcc/nios2-elf/4.7.3\libgcc.a(_lt_sf.o)
                0x0201382c                __ltsf2
 .text          0x02013880      0x408 d:/eda/quartus13/nios2eds/bin/gnu/h-i686-mingw32/bin/../lib/gcc/nios2-elf/4.7.3\libgcc.a(_addsub_df.o)
                0x02013bd4                __adddf3
                0x02013c28                __subdf3
 .text          0x02013c88      0x2e4 d:/eda/quartus13/nios2eds/bin/gnu/h-i686-mingw32/bin/../lib/gcc/nios2-elf/4.7.3\libgcc.a(_mul_df.o)
                0x02013c88                __muldf3
 .text          0x02013f6c      0x1b4 d:/eda/quartus13/nios2eds/bin/gnu/h-i686-mingw32/bin/../lib/gcc/nios2-elf/4.7.3\libgcc.a(_div_df.o)
                0x02013f6c                __divdf3
 .text          0x02014120       0x5c d:/eda/quartus13/nios2eds/bin/gnu/h-i686-mingw32/bin/../lib/gcc/nios2-elf/4.7.3\libgcc.a(_eq_df.o)
                0x02014120                __eqdf2
 .text          0x0201417c       0x5c d:/eda/quartus13/nios2eds/bin/gnu/h-i686-mingw32/bin/../lib/gcc/nios2-elf/4.7.3\libgcc.a(_ne_df.o)
                0x0201417c                __nedf2
 .text          0x020141d8       0x64 d:/eda/quartus13/nios2eds/bin/gnu/h-i686-mingw32/bin/../lib/gcc/nios2-elf/4.7.3\libgcc.a(_gt_df.o)
                0x020141d8                __gtdf2
 .text          0x0201423c       0x64 d:/eda/quartus13/nios2eds/bin/gnu/h-i686-mingw32/bin/../lib/gcc/nios2-elf/4.7.3\libgcc.a(_ge_df.o)
                0x0201423c                __gedf2
 .text          0x020142a0       0x5c d:/eda/quartus13/nios2eds/bin/gnu/h-i686-mingw32/bin/../lib/gcc/nios2-elf/4.7.3\libgcc.a(_lt_df.o)
                0x020142a0                __ltdf2
 .text          0x020142fc       0x5c d:/eda/quartus13/nios2eds/bin/gnu/h-i686-mingw32/bin/../lib/gcc/nios2-elf/4.7.3\libgcc.a(_le_df.o)
                0x020142fc                __ledf2
 .text          0x02014358       0xd4 d:/eda/quartus13/nios2eds/bin/gnu/h-i686-mingw32/bin/../lib/gcc/nios2-elf/4.7.3\libgcc.a(_si_to_df.o)
                0x02014358                __floatsidf
 .text          0x0201442c       0xd4 d:/eda/quartus13/nios2eds/bin/gnu/h-i686-mingw32/bin/../lib/gcc/nios2-elf/4.7.3\libgcc.a(_df_to_si.o)
                0x0201442c                __fixdfsi
 .text          0x02014500       0x60 d:/eda/quartus13/nios2eds/bin/gnu/h-i686-mingw32/bin/../lib/gcc/nios2-elf/4.7.3\libgcc.a(_df_to_sf.o)
                0x02014500                __truncdfsf2
 .text          0x02014560        0x0 d:/eda/quartus13/nios2eds/bin/gnu/h-i686-mingw32/bin/../lib/gcc/nios2-elf/4.7.3\libgcc.a(_thenan_df.o)
 .text          0x02014560      0x11c d:/eda/quartus13/nios2eds/bin/gnu/h-i686-mingw32/bin/../lib/gcc/nios2-elf/4.7.3\libgcc.a(_usi_to_df.o)
                0x02014560                __floatunsidf
 .text          0x0201467c      0x130 d:/eda/quartus13/nios2eds/bin/gnu/h-i686-mingw32/bin/../lib/gcc/nios2-elf/4.7.3\libgcc.a(lib2-divmod.o)
                0x020146f0                __divsi3
                0x02014740                __modsi3
                0x0201479c                __udivsi3
                0x020147a4                __umodsi3
 .text          0x020147ac        0x0 d:/eda/quartus13/nios2eds/bin/gnu/h-i686-mingw32/bin/../lib/gcc/nios2-elf/4.7.3\libgcc.a(_clz.o)
 .text          0x020147ac       0xac d:/eda/quartus13/nios2eds/bin/gnu/h-i686-mingw32/bin/../lib/gcc/nios2-elf/4.7.3\libgcc.a(_clzsi2.o)
                0x020147ac                __clzsi2
 .text          0x02014858       0xc8 d:/eda/quartus13/nios2eds/bin/gnu/h-i686-mingw32/bin/../lib/gcc/nios2-elf/4.7.3\libgcc.a(_unpack_sf.o)
                0x02014858                __unpack_f
 .text          0x02014920       0xbc d:/eda/quartus13/nios2eds/bin/gnu/h-i686-mingw32/bin/../lib/gcc/nios2-elf/4.7.3\libgcc.a(_fpcmp_parts_sf.o)
                0x02014920                __fpcmp_parts_f
 .text          0x020149dc       0x2c d:/eda/quartus13/nios2eds/bin/gnu/h-i686-mingw32/bin/../lib/gcc/nios2-elf/4.7.3\libgcc.a(_make_sf.o)
                0x020149dc                __make_fp
 .text          0x02014a08      0x224 d:/eda/quartus13/nios2eds/bin/gnu/h-i686-mingw32/bin/../lib/gcc/nios2-elf/4.7.3\libgcc.a(_pack_df.o)
                0x02014a08                __pack_d
 .text          0x02014c2c      0x104 d:/eda/quartus13/nios2eds/bin/gnu/h-i686-mingw32/bin/../lib/gcc/nios2-elf/4.7.3\libgcc.a(_unpack_df.o)
                0x02014c2c                __unpack_d
 .text          0x02014d30       0xd0 d:/eda/quartus13/nios2eds/bin/gnu/h-i686-mingw32/bin/../lib/gcc/nios2-elf/4.7.3\libgcc.a(_fpcmp_parts_df.o)
                0x02014d30                __fpcmp_parts_d
 .text          0x02014e00       0x44 d:/eda/quartus13/nios2eds/bin/gnu/h-i686-mingw32/bin/../lib/gcc/nios2-elf/4.7.3\libgcc.a(_lshrdi3.o)
                0x02014e00                __lshrdi3
 .text          0x02014e44       0x44 d:/eda/quartus13/nios2eds/bin/gnu/h-i686-mingw32/bin/../lib/gcc/nios2-elf/4.7.3\libgcc.a(_ashldi3.o)
                0x02014e44                __ashldi3
 .text          0x02014e88      0x12c d:/eda/quartus13/nios2eds/bin/gnu/h-i686-mingw32/bin/../lib/gcc/nios2-elf/4.7.3\libgcc.a(_pack_sf.o)
                0x02014e88                __pack_f
 .text          0x02014fb4       0x74 F:/Qsys/qsys_webserver/qsys/software/qsys_webserver_bsp/\libucosii_bsp.a(alt_dcache_flush.o)
                0x02014fb4                alt_dcache_flush
 .text          0x02015028       0xb8 F:/Qsys/qsys_webserver/qsys/software/qsys_webserver_bsp/\libucosii_bsp.a(alt_flash_dev.o)
                0x02015028                alt_flash_open_dev
                0x02015090                alt_flash_close_dev
 .text          0x020150e0       0xfc F:/Qsys/qsys_webserver/qsys/software/qsys_webserver_bsp/\libucosii_bsp.a(alt_fstat.o)
                0x02015130                fstat
 .text          0x020151dc       0xf0 F:/Qsys/qsys_webserver/qsys/software/qsys_webserver_bsp/\libucosii_bsp.a(alt_isatty.o)
                0x0201522c                isatty
 .text          0x020152cc      0x120 F:/Qsys/qsys_webserver/qsys/software/qsys_webserver_bsp/\libucosii_bsp.a(alt_lseek.o)
                0x0201531c                lseek
 .text          0x020153ec       0xcc F:/Qsys/qsys_webserver/qsys/software/qsys_webserver_bsp/\libucosii_bsp.a(alt_main.o)
                0x020153ec                alt_main
 .text          0x020154b8      0x270 F:/Qsys/qsys_webserver/qsys/software/qsys_webserver_bsp/\libucosii_bsp.a(alt_open.o)
                0x020155d4                open
 .text          0x02015728       0x60 F:/Qsys/qsys_webserver/qsys/software/qsys_webserver_bsp/\libucosii_bsp.a(alt_release_fd.o)
                0x02015728                alt_release_fd
 .text          0x02015788       0xb0 F:/Qsys/qsys_webserver/qsys/software/qsys_webserver_bsp/\libucosii_bsp.a(alt_sbrk.o)
                0x02015788                sbrk
 .text          0x02015838      0x19c F:/Qsys/qsys_webserver/qsys/software/qsys_webserver_bsp/\libucosii_bsp.a(alt_tick.o)
                0x02015838                alt_alarm_stop
                0x020158d0                alt_tick
 .text          0x020159d4      0x118 F:/Qsys/qsys_webserver/qsys/software/qsys_webserver_bsp/\libucosii_bsp.a(alt_env_lock.o)
                0x020159d4                __env_lock
                0x02015a8c                __env_unlock
 .text          0x02015aec      0x1e8 F:/Qsys/qsys_webserver/qsys/software/qsys_webserver_bsp/\libucosii_bsp.a(alt_malloc_lock.o)
                0x02015aec                __malloc_lock
                0x02015c00                __malloc_unlock
 .text          0x02015cd4     0x2018 F:/Qsys/qsys_webserver/qsys/software/qsys_webserver_bsp/\libucosii_bsp.a(os_core.o)
                0x02015cd4                OSEventNameGet
                0x02015df4                OSEventNameSet
                0x02015f38                OSEventPendMulti
                0x02016574                OSInit
                0x020165c8                OSIntEnter
                0x02016644                OSIntExit
                0x02016738                OSSchedLock
                0x020167c0                OSSchedUnlock
                0x02016898                OSStart
                0x02016904                OSStatInit
                0x020169b0                OSTimeTick
                0x02016bd0                OSVersion
                0x02016bf0                OS_Dummy
                0x02016c0c                OS_EventTaskRdy
                0x02016da4                OS_EventTaskWait
                0x02016eac                OS_EventTaskWaitMulti
                0x02016ff4                OS_EventTaskRemove
                0x020170a4                OS_EventTaskRemoveMulti
                0x0201719c                OS_EventWaitListInit
                0x02017568                OS_MemClr
                0x020175bc                OS_MemCopy
                0x02017628                OS_Sched
                0x02017764                OS_StrCopy
                0x020177e0                OS_StrLen
                0x02017834                OS_TaskIdle
                0x02017890                OS_TaskStat
                0x0201794c                OS_TaskStatStkChk
                0x02017a14                OS_TCBInit
 .text          0x02017cec      0x18c F:/Qsys/qsys_webserver/qsys/software/qsys_webserver_bsp/\libucosii_bsp.a(os_dbg.o)
                0x02017cec                OSDebugInit
 .text          0x02017e78     0x1834 F:/Qsys/qsys_webserver/qsys/software/qsys_webserver_bsp/\libucosii_bsp.a(os_flag.o)
                0x02017e78                OSFlagAccept
                0x02018180                OSFlagCreate
                0x020182a8                OSFlagDel
                0x02018518                OSFlagNameGet
                0x02018648                OSFlagNameSet
                0x0201879c                OSFlagPend
                0x02018d9c                OSFlagPendGetFlagsRdy
                0x02018e04                OSFlagPost
                0x02019198                OSFlagQuery
                0x0201941c                OS_FlagInit
                0x0201960c                OS_FlagUnlink
 .text          0x020196ac      0xba0 F:/Qsys/qsys_webserver/qsys/software/qsys_webserver_bsp/\libucosii_bsp.a(os_mbox.o)
                0x020196ac                OSMboxAccept
                0x02019744                OSMboxCreate
                0x02019840                OSMboxDel
                0x02019ab0                OSMboxPend
                0x02019d54                OSMboxPendAbort
                0x02019ec8                OSMboxPost
                0x02019fd8                OSMboxPostOpt
                0x0201a134                OSMboxQuery
 .text          0x0201a24c      0x788 F:/Qsys/qsys_webserver/qsys/software/qsys_webserver_bsp/\libucosii_bsp.a(os_mem.o)
                0x0201a24c                OSMemCreate
                0x0201a440                OSMemGet
                0x0201a530                OSMemNameGet
                0x0201a628                OSMemNameSet
                0x0201a744                OSMemPut
                0x0201a81c                OSMemQuery
                0x0201a904                OS_MemInit
 .text          0x0201a9d4     0x1224 F:/Qsys/qsys_webserver/qsys/software/qsys_webserver_bsp/\libucosii_bsp.a(os_q.o)
                0x0201a9d4                OSQAccept
                0x0201ab14                OSQCreate
                0x0201ad0c                OSQDel
                0x0201afdc                OSQFlush
                0x0201b094                OSQPend
                0x0201b390                OSQPendAbort
                0x0201b504                OSQPost
                0x0201b66c                OSQPostFront
                0x0201b7dc                OSQPostOpt
                0x0201b9e8                OSQQuery
                0x0201bb4c                OS_QInit
 .text          0x0201bbf8      0xb28 F:/Qsys/qsys_webserver/qsys/software/qsys_webserver_bsp/\libucosii_bsp.a(os_sem.o)
                0x0201bbf8                OSSemAccept
                0x0201bca8                OSSemCreate
                0x0201bda8                OSSemDel
                0x0201c018                OSSemPend
                0x0201c284                OSSemPendAbort
                0x0201c3f8                OSSemPost
                0x0201c508                OSSemQuery
                0x0201c620                OSSemSet
 .text          0x0201c720     0x18ec F:/Qsys/qsys_webserver/qsys/software/qsys_webserver_bsp/\libucosii_bsp.a(os_task.o)
                0x0201c720                OSTaskChangePrio
                0x0201cc48                OSTaskCreate
                0x0201ce04                OSTaskCreateExt
                0x0201cff8                OSTaskDel
                0x0201d3d4                OSTaskDelReq
                0x0201d52c                OSTaskNameGet
                0x0201d6d4                OSTaskNameSet
                0x0201d898                OSTaskResume
                0x0201da8c                OSTaskStkChk
                0x0201dc60                OSTaskSuspend
                0x0201de70                OSTaskQuery
                0x0201df9c                OS_TaskStkClr
 .text          0x0201e00c      0x62c F:/Qsys/qsys_webserver/qsys/software/qsys_webserver_bsp/\libucosii_bsp.a(os_time.o)
                0x0201e00c                OSTimeDly
                0x0201e154                OSTimeDlyHMSM
                0x0201e384                OSTimeDlyResume
                0x0201e570                OSTimeGet
                0x0201e5d4                OSTimeSet
 .text          0x0201e638      0x2d8 F:/Qsys/qsys_webserver/qsys/software/qsys_webserver_bsp/\libucosii_bsp.a(alt_sys_init.o)
                0x0201e670                alt_irq_init
                0x0201e6a4                alt_sys_init
 .text          0x0201e910      0x990 F:/Qsys/qsys_webserver/qsys/software/qsys_webserver_bsp/\libucosii_bsp.a(altera_avalon_epcs_flash_controller.o)
                0x0201e948                alt_epcs_flash_init
                0x0201ed10                alt_epcs_flash_write
                0x0201ef70                alt_epcs_flash_get_info
                0x0201f090                alt_epcs_flash_erase_block
                0x0201f104                alt_epcs_flash_write_block
                0x0201f208                alt_epcs_flash_read
 .text          0x0201f2a0      0x164 F:/Qsys/qsys_webserver/qsys/software/qsys_webserver_bsp/\libucosii_bsp.a(altera_avalon_jtag_uart_fd.o)
                0x0201f2a0                altera_avalon_jtag_uart_read_fd
                0x0201f300                altera_avalon_jtag_uart_write_fd
                0x0201f360                altera_avalon_jtag_uart_close_fd
                0x0201f3b0                altera_avalon_jtag_uart_ioctl_fd
 .text          0x0201f404      0x55c F:/Qsys/qsys_webserver/qsys/software/qsys_webserver_bsp/\libucosii_bsp.a(altera_avalon_jtag_uart_init.o)
                0x0201f404                altera_avalon_jtag_uart_init
                0x0201f8f8                altera_avalon_jtag_uart_close
 .text          0x0201f960       0xf4 F:/Qsys/qsys_webserver/qsys/software/qsys_webserver_bsp/\libucosii_bsp.a(altera_avalon_jtag_uart_ioctl.o)
                0x0201f960                altera_avalon_jtag_uart_ioctl
 .text          0x0201fa54      0x2c4 F:/Qsys/qsys_webserver/qsys/software/qsys_webserver_bsp/\libucosii_bsp.a(altera_avalon_jtag_uart_read.o)
                0x0201fa54                altera_avalon_jtag_uart_read
 .text          0x0201fd18      0x2d0 F:/Qsys/qsys_webserver/qsys/software/qsys_webserver_bsp/\libucosii_bsp.a(altera_avalon_jtag_uart_write.o)
                0x0201fd18                altera_avalon_jtag_uart_write
 .text          0x0201ffe8      0xd00 F:/Qsys/qsys_webserver/qsys/software/qsys_webserver_bsp/\libucosii_bsp.a(altera_avalon_sgdma.o)
                0x02020038                alt_avalon_sgdma_do_async_transfer
                0x0202015c                alt_avalon_sgdma_do_sync_transfer
                0x0202026c                alt_avalon_sgdma_construct_mem_to_mem_desc
                0x020202dc                alt_avalon_sgdma_construct_mem_to_mem_desc_burst
                0x0202035c                alt_avalon_sgdma_construct_stream_to_mem_desc
                0x020203b8                alt_avalon_sgdma_construct_stream_to_mem_desc_burst
                0x0202042c                alt_avalon_sgdma_construct_mem_to_stream_desc
                0x020204a8                alt_avalon_sgdma_construct_mem_to_stream_desc_burst
                0x02020530                alt_avalon_sgdma_register_callback
                0x02020580                alt_avalon_sgdma_start
                0x020205d4                alt_avalon_sgdma_stop
                0x0202062c                alt_avalon_sgdma_check_descriptor_status
                0x02020690                alt_avalon_sgdma_open
                0x020206e0                alt_avalon_sgdma_construct_descriptor
                0x02020768                alt_avalon_sgdma_enable_desc_poll
                0x020207e8                alt_avalon_sgdma_disable_desc_poll
                0x02020848                alt_avalon_sgdma_construct_descriptor_burst
                0x02020c44                alt_avalon_sgdma_init
 .text          0x02020ce8       0xfc F:/Qsys/qsys_webserver/qsys/software/qsys_webserver_bsp/\libucosii_bsp.a(altera_avalon_timer_sc.o)
                0x02020d5c                alt_avalon_timer_sc_init
 .text          0x02020de4      0xc34 F:/Qsys/qsys_webserver/qsys/software/qsys_webserver_bsp/\libucosii_bsp.a(altera_ro_zipfs.o)
                0x0202107c                check_directory_header
                0x02021668                alt_ro_zipfs_open
                0x020216f8                alt_ro_zipfs_read
                0x0202180c                alt_ro_zipfs_seek
                0x02021948                alt_ro_zipfs_fstat
                0x020219c0                alt_ro_zipfs_check_valid
 .text          0x02021a18      0x624 F:/Qsys/qsys_webserver/qsys/software/qsys_webserver_bsp/\libucosii_bsp.a(epcs_commands.o)
                0x02021a18                epcs_read_status_register
                0x02021ae4                epcs_sector_erase
                0x02021bdc                epcs_read_buffer
                0x02021cd0                epcs_write_enable
                0x02021d20                epcs_write_status_register
                0x02021d88                epcs_write_buffer
                0x02021ea4                epcs_read_electronic_signature
                0x02021f0c                epcs_read_device_id
                0x02021f8c                epcs_enter_4_bytes_mode
                0x02021fe4                epcs_exit_4_bytes_mode
 .text          0x0202203c     0x172c F:/Qsys/qsys_webserver/qsys/software/qsys_webserver_bsp/\libucosii_bsp.a(ins_tse_mac.o)
                0x0202203c                altera_eth_tse_init
                0x02022180                prep_tse_mac
                0x02022404                tse_mac_init
                0x02022e88                tse_mac_raw_send
                0x02023180                tse_sgdmaRx_isr
                0x02023230                tse_sgdma_read_init
                0x020233e0                tse_mac_rcv
                0x02023624                tse_mac_stats
                0x02023664                tse_mac_close
 .text          0x02023768       0x48 F:/Qsys/qsys_webserver/qsys/software/qsys_webserver_bsp/\libucosii_bsp.a(alt_iniche_close.o)
                0x02023768                close
 .text          0x020237b0      0x128 F:/Qsys/qsys_webserver/qsys/software/qsys_webserver_bsp/\libucosii_bsp.a(alt_iniche_dev.o)
                0x020237b0                iniche_devices_init
 .text          0x020238d8       0x70 F:/Qsys/qsys_webserver/qsys/software/qsys_webserver_bsp/\libucosii_bsp.a(alt_iniche_read.o)
                0x020238d8                read
 .text          0x02023948       0x68 F:/Qsys/qsys_webserver/qsys/software/qsys_webserver_bsp/\libucosii_bsp.a(alt_iniche_write.o)
                0x02023948                write
 .text          0x020239b0      0xe20 F:/Qsys/qsys_webserver/qsys/software/qsys_webserver_bsp/\libucosii_bsp.a(ipnet.o)
                0x020239b0                Netinit
                0x02023fa0                fixup_subnet_mask
                0x020240f8                netclose
                0x020241dc                pktdemux
                0x02024588                c_older
                0x02024640                ip2mac
 .text          0x020247d0      0x460 F:/Qsys/qsys_webserver/qsys/software/qsys_webserver_bsp/\libucosii_bsp.a(ipstart.o)
                0x020247d0                ip_startup
                0x02024a74                exit_hook
                0x02024ae0                ip_exit
                0x02024bac                if_netnumber
 .text          0x02024c30     0x10a8 F:/Qsys/qsys_webserver/qsys/software/qsys_webserver_bsp/\libucosii_bsp.a(igmp_cmn.o)
                0x02024c30                igmp_init
                0x02024d20                igmp_input
                0x02024e00                igmp_fasttimo
                0x02025024                igmp_send
                0x020252cc                igmp_joingroup
                0x02025528                igmp_leavegroup
                0x020255a4                igmp_validate
                0x020258b8                igmp_print_stats
 .text          0x02025cd8      0xa84 F:/Qsys/qsys_webserver/qsys/software/qsys_webserver_bsp/\libucosii_bsp.a(bsdsock.o)
                0x02025cd8                bsd_accept
                0x02025df0                bsd_getpeername
                0x02025f08                bsd_getsockname
                0x02026020                bsd_i_sockoptlen
                0x0202615c                bsd_getsockopt
                0x02026260                bsd_ioctl
                0x0202634c                bsd_inet_ntoa
                0x02026380                bsd_recvfrom
                0x020264bc                bsd_select
                0x02026688                bsd_setsockopt
 .text          0x0202675c       0xfc F:/Qsys/qsys_webserver/qsys/software/qsys_webserver_bsp/\libucosii_bsp.a(cksum.o)
                0x0202675c                ccksum
                0x02026804                cksum
 .text          0x02026858      0xa54 F:/Qsys/qsys_webserver/qsys/software/qsys_webserver_bsp/\libucosii_bsp.a(in_utils.o)
                0x02026858                do_trap
                0x02026884                nextarg
                0x02026900                hexdump
                0x02026a40                print_ipad
                0x02026abc                print_uptime
                0x02026bf8                panic
                0x02026c3c                print_eth
                0x02026d94                uslash
                0x02026e10                ns_printf
                0x02026f7c                std_out
                0x02026fc0                con_page
                0x0202709c                parse_args
 .text          0x020272ac      0x1ac F:/Qsys/qsys_webserver/qsys/software/qsys_webserver_bsp/\libucosii_bsp.a(netmain.o)
                0x020272ac                netmain
                0x0202738c                tk_netmain
                0x02027414                tk_nettick
 .text          0x02027458      0x600 F:/Qsys/qsys_webserver/qsys/software/qsys_webserver_bsp/\libucosii_bsp.a(tk_crnos.o)
                0x02027458                TK_OSTimeDly
                0x02027484                TK_OSTaskResume
                0x020274f4                tcp_sleep
                0x02027698                tcp_wakeup
                0x0202779c                TK_OSTaskQuery
                0x02027808                tk_yield
                0x02027834                tk_stats
 .text          0x02027a58      0x778 F:/Qsys/qsys_webserver/qsys/software/qsys_webserver_bsp/\libucosii_bsp.a(pktalloc.o)
                0x02027a58                pk_init
                0x02027cec                pk_alloc
                0x02027db8                pk_validate
                0x02028044                pk_free
                0x020280f4                pk_get_max_intrsafe_buf_len
                0x02028114                dump_buf_estats
 .text          0x020281d0      0x264 F:/Qsys/qsys_webserver/qsys/software/qsys_webserver_bsp/\libucosii_bsp.a(q.o)
                0x020281d0                getq
                0x02028288                putq
                0x02028334                qdel
 .text          0x02028434      0x194 F:/Qsys/qsys_webserver/qsys/software/qsys_webserver_bsp/\libucosii_bsp.a(asm_cksum.o)
                0x02028434                asm_cksum
 .text          0x020285c8      0x2d0 F:/Qsys/qsys_webserver/qsys/software/qsys_webserver_bsp/\libucosii_bsp.a(brdutils.o)
                0x020285c8                dtrap
                0x020285f8                kbhit
                0x02028694                getch
                0x020286f8                clock_init
                0x02028734                clock_c
                0x02028750                cticks_hook
                0x020287fc                irq_Mask
                0x02028858                irq_Unmask
 .text          0x02028898      0x4ac F:/Qsys/qsys_webserver/qsys/software/qsys_webserver_bsp/\libucosii_bsp.a(osportco.o)
                0x02028898                LOCK_NET_RESOURCE
                0x0202895c                UNLOCK_NET_RESOURCE
                0x020289e0                TK_NEWTASK
                0x02028c10                wait_app_sem
                0x02028ccc                post_app_sem
 .text          0x02028d44      0x540 F:/Qsys/qsys_webserver/qsys/software/qsys_webserver_bsp/\libucosii_bsp.a(targnios.o)
                0x02028d44                alt_iniche_init
                0x02028f40                pre_task_setup
                0x02028fb4                post_task_setup
                0x02028fd4                prep_armintcp
                0x0202900c                calloc2
                0x02029040                npalloc
                0x0202912c                npfree
                0x020291ec                ncpalloc
                0x0202923c                ncpfree
 .text          0x02029284     0x189c F:/Qsys/qsys_webserver/qsys/software/qsys_webserver_bsp/\libucosii_bsp.a(nptcp.o)
                0x02029284                pffindtype
                0x02029314                pffindproto
                0x020293d8                m_getnbuf
                0x02029560                m_free
                0x02029678                m_freem
                0x020296b8                m_copy
                0x020299a8                m_adj
                0x02029b78                mbuf_len
                0x02029bcc                dtom
                0x02029c68                remque
                0x02029cd8                insque
                0x02029d50                nptcp_init
                0x02029e58                tcp_rcv
                0x0202a01c                ip_output
                0x0202a5e0                in_broadcast
                0x0202a618                np_stripoptions
                0x0202a70c                so_icmpdu
                0x0202aa5c                tcp_tick
 .text          0x0202ab20      0x974 F:/Qsys/qsys_webserver/qsys/software/qsys_webserver_bsp/\libucosii_bsp.a(rawsock.o)
                0x0202ab20                rawip_lookup
                0x0202ab84                rawip_soinput
                0x0202ad4c                rawip_usrreq
 .text          0x0202b494     0x15f8 F:/Qsys/qsys_webserver/qsys/software/qsys_webserver_bsp/\libucosii_bsp.a(sockcall.o)
                0x0202b494                DOMAIN_CHECK
                0x0202b4e0                t_socket
                0x0202b560                t_bind
                0x0202b6bc                t_listen
                0x0202b78c                t_accept
                0x0202b9d8                t_connect
                0x0202bc40                t_getpeername
                0x0202bc84                t_getsockname
                0x0202be9c                t_setsockopt
                0x0202c050                t_getsockopt
                0x0202c1d4                t_recv
                0x0202c2b4                t_recvfrom
                0x0202c3ec                t_sendto
                0x0202c5d8                t_send
                0x0202c7dc                t_shutdown
                0x0202c8ac                t_socketclose
                0x0202c9f4                t_errno
 .text          0x0202ca8c     0x20cc F:/Qsys/qsys_webserver/qsys/software/qsys_webserver_bsp/\libucosii_bsp.a(socket.o)
                0x0202ca8c                socreate
                0x0202cc40                sobind
                0x0202cc9c                solisten
                0x0202cd6c                sofree
                0x0202ce8c                soclose
                0x0202d1d4                soabort
                0x0202d224                soaccept
                0x0202d2bc                soconnect
                0x0202d374                sodisconnect
                0x0202d40c                sosend
                0x0202d968                soreceive
                0x0202e0a8                soshutdown
                0x0202e140                sorflush
                0x0202e238                sosetopt
                0x0202e668                sogetopt
                0x0202eb10                sohasoutofband
 .text          0x0202eb58     0x127c F:/Qsys/qsys_webserver/qsys/software/qsys_webserver_bsp/\libucosii_bsp.a(socket2.o)
                0x0202eb58                soisconnecting
                0x0202ebc4                soisconnected
                0x0202ecc4                soisdisconnecting
                0x0202ed58                soisdisconnected
                0x0202ee18                sonewconn
                0x0202f038                soqinsque
                0x0202f0e0                soqremque
                0x0202f1e8                socantsendmore
                0x0202f23c                socantrcvmore
                0x0202f290                sbselqueue
                0x0202f2c8                sbwait
                0x0202f330                sbwakeup
                0x0202f3c4                soreserve
                0x0202f44c                sbreserve
                0x0202f49c                sbrelease
                0x0202f4e4                sbappend
                0x0202f584                sbappendrecord
                0x0202f65c                sbappendaddr
                0x0202f834                sbcompress
                0x0202fa0c                sbflush
                0x0202fa94                sbdrop
                0x0202fc4c                sbdropend
                0x0202fd48                sbdroprecord
 .text          0x0202fdd4      0x888 F:/Qsys/qsys_webserver/qsys/software/qsys_webserver_bsp/\libucosii_bsp.a(soselect.o)
                0x0202fdd4                t_select
                0x0202ffc0                sock_selscan
                0x020300fc                sock_select
                0x020302e0                in_pcbnotify
                0x020303a0                tcp_notify
                0x0203041c                ifd_clr
                0x0203050c                ifd_set
                0x02030580                ifd_isset
                0x020305f8                ifd_get
 .text          0x0203065c     0x2dc4 F:/Qsys/qsys_webserver/qsys/software/qsys_webserver_bsp/\libucosii_bsp.a(tcp_in.o)
                0x0203065c                tcp_reass
                0x02030a68                tcp_input
                0x02032da8                tcp_dooptions
                0x02032f28                tcp_pulloutofband
                0x02033054                tcp_xmit_timer
                0x020332dc                ip4_tcpmss
                0x02033328                tcp_mss
 .text          0x02033420     0x11e0 F:/Qsys/qsys_webserver/qsys/software/qsys_webserver_bsp/\libucosii_bsp.a(tcp_out.o)
                0x02033420                tcp_output
                0x0203443c                tcp_setpersist
 .text          0x02034600      0x954 F:/Qsys/qsys_webserver/qsys/software/qsys_webserver_bsp/\libucosii_bsp.a(tcp_subr.o)
                0x02034600                tcp_init
                0x02034658                tcp_template
                0x02034760                tcp_respond
                0x02034b6c                tcp_newtcpcb
                0x02034c78                tcp_drop
                0x02034d24                tcp_close
                0x02034e14                tcp_quench
                0x02034e5c                tcp_putseq
                0x02034edc                tcp_getseq
 .text          0x02034f54      0x750 F:/Qsys/qsys_webserver/qsys/software/qsys_webserver_bsp/\libucosii_bsp.a(tcp_timr.o)
                0x02034f54                tcp_slowtimo
                0x020351d8                tcp_canceltimers
                0x02035234                tcp_timers
 .text          0x020356a4      0x9a4 F:/Qsys/qsys_webserver/qsys/software/qsys_webserver_bsp/\libucosii_bsp.a(tcp_usr.o)
                0x020356a4                tcp_usrreq
                0x02035d90                tcp_attach
                0x02035ea8                tcp_disconnect
                0x02035f74                tcp_usrclosed
 .text          0x02036048       0x40 F:/Qsys/qsys_webserver/qsys/software/qsys_webserver_bsp/\libucosii_bsp.a(tcpport.o)
                0x02036048                tcpinit
 .text          0x02036088      0xbc4 F:/Qsys/qsys_webserver/qsys/software/qsys_webserver_bsp/\libucosii_bsp.a(udpsock.o)
                0x02036088                udp_lookup
                0x020360ec                udp_soinput
                0x0203628c                udp_usrreq
                0x020364cc                udp4_sockbind
                0x020367a8                udp4_socksend
                0x02036b24                udp4_sockaddr
 .text          0x02036c4c      0x140 F:/Qsys/qsys_webserver/qsys/software/qsys_webserver_bsp/\libucosii_bsp.a(alt_alarm_start.o)
                0x02036c4c                alt_alarm_start
 .text          0x02036d8c      0x118 F:/Qsys/qsys_webserver/qsys/software/qsys_webserver_bsp/\libucosii_bsp.a(alt_close.o)
                0x02036ddc                alt_close
 .text          0x02036ea4       0x2c F:/Qsys/qsys_webserver/qsys/software/qsys_webserver_bsp/\libucosii_bsp.a(alt_dev.o)
 .text          0x02036ed0       0xf0 F:/Qsys/qsys_webserver/qsys/software/qsys_webserver_bsp/\libucosii_bsp.a(alt_dev_llist_insert.o)
                0x02036f20                alt_dev_llist_insert
 .text          0x02036fc0       0x5c F:/Qsys/qsys_webserver/qsys/software/qsys_webserver_bsp/\libucosii_bsp.a(alt_do_ctors.o)
                0x02036fc0                _do_ctors
 .text          0x0203701c       0x5c F:/Qsys/qsys_webserver/qsys/software/qsys_webserver_bsp/\libucosii_bsp.a(alt_do_dtors.o)
                0x0203701c                _do_dtors
 .text          0x02037078        0x0 F:/Qsys/qsys_webserver/qsys/software/qsys_webserver_bsp/\libucosii_bsp.a(alt_errno.o)
 .text          0x02037078       0x90 F:/Qsys/qsys_webserver/qsys/software/qsys_webserver_bsp/\libucosii_bsp.a(alt_find_dev.o)
                0x02037078                alt_find_dev
 .text          0x02037108      0x114 F:/Qsys/qsys_webserver/qsys/software/qsys_webserver_bsp/\libucosii_bsp.a(alt_find_file.o)
                0x02037108                alt_find_file
 .text          0x0203721c       0x84 F:/Qsys/qsys_webserver/qsys/software/qsys_webserver_bsp/\libucosii_bsp.a(alt_fs_reg.o)
                0x0203721c                alt_fs_reg
 .text          0x020372a0       0xfc F:/Qsys/qsys_webserver/qsys/software/qsys_webserver_bsp/\libucosii_bsp.a(alt_get_fd.o)
                0x020372a0                alt_get_fd
 .text          0x0203739c      0x1d8 F:/Qsys/qsys_webserver/qsys/software/qsys_webserver_bsp/\libucosii_bsp.a(alt_iic.o)
                0x0203739c                alt_ic_isr_register
                0x020373ec                alt_ic_irq_enable
                0x02037488                alt_ic_irq_disable
                0x02037528                alt_ic_irq_enabled
 .text          0x02037574       0xf0 F:/Qsys/qsys_webserver/qsys/software/qsys_webserver_bsp/\libucosii_bsp.a(alt_iic_isr_register.o)
                0x02037574                alt_iic_isr_register
 .text          0x02037664      0x138 F:/Qsys/qsys_webserver/qsys/software/qsys_webserver_bsp/\libucosii_bsp.a(alt_io_redirect.o)
                0x02037724                alt_io_redirect
 .text          0x0203779c        0x0 F:/Qsys/qsys_webserver/qsys/software/qsys_webserver_bsp/\libucosii_bsp.a(alt_irq_entry.o)
 .text          0x0203779c        0x0 F:/Qsys/qsys_webserver/qsys/software/qsys_webserver_bsp/\libucosii_bsp.a(alt_irq_handler.o)
 .text          0x0203779c        0x0 F:/Qsys/qsys_webserver/qsys/software/qsys_webserver_bsp/\libucosii_bsp.a(alt_irq_vars.o)
 .text          0x0203779c      0x140 F:/Qsys/qsys_webserver/qsys/software/qsys_webserver_bsp/\libucosii_bsp.a(alt_read.o)
                0x020377ec                alt_read
 .text          0x020378dc       0x34 F:/Qsys/qsys_webserver/qsys/software/qsys_webserver_bsp/\libucosii_bsp.a(alt_remap_cached.o)
                0x020378dc                alt_remap_cached
 .text          0x02037910       0x40 F:/Qsys/qsys_webserver/qsys/software/qsys_webserver_bsp/\libucosii_bsp.a(alt_remap_uncached.o)
                0x02037910                alt_remap_uncached
 .text          0x02037950       0x58 F:/Qsys/qsys_webserver/qsys/software/qsys_webserver_bsp/\libucosii_bsp.a(alt_uncached_malloc.o)
                0x02037950                alt_uncached_malloc
 .text          0x020379a8      0x13c F:/Qsys/qsys_webserver/qsys/software/qsys_webserver_bsp/\libucosii_bsp.a(alt_write.o)
                0x020379f8                alt_write
 .text          0x02037ae4       0x20 F:/Qsys/qsys_webserver/qsys/software/qsys_webserver_bsp/\libucosii_bsp.a(altera_nios2_qsys_irq.o)
                0x02037ae4                altera_nios2_qsys_irq_init
 .text          0x02037b04       0xd0 F:/Qsys/qsys_webserver/qsys/software/qsys_webserver_bsp/\libucosii_bsp.a(os_cpu_a.o)
                0x02037b04                OSCtxSw
                0x02037b04                OSIntCtxSw
                0x02037b90                OSStartHighRdy
                0x02037bb0                OSStartTsk
 .text          0x02037bd4      0x408 F:/Qsys/qsys_webserver/qsys/software/qsys_webserver_bsp/\libucosii_bsp.a(os_cpu_c.o)
                0x02037bd4                OSTaskStkInit
                0x02037ec8                OSTaskCreateHook
                0x02037ee8                OSTaskDelHook
                0x02037f08                OSTaskSwHook
                0x02037f24                OSTaskStatHook
                0x02037f40                OSTimeTickHook
                0x02037f68                OSInitHookBegin
                0x02037f84                OSInitHookEnd
                0x02037fa0                OSTaskIdleHook
                0x02037fbc                OSTCBInitHook
 .text          0x02037fdc      0x208 F:/Qsys/qsys_webserver/qsys/software/qsys_webserver_bsp/\libucosii_bsp.a(altera_avalon_spi.o)
                0x02037fdc                alt_avalon_spi_command
 .text          0x020381e4     0x4fa8 F:/Qsys/qsys_webserver/qsys/software/qsys_webserver_bsp/\libucosii_bsp.a(altera_avalon_tse.o)
                0x020381e4                no_printf
                0x02038210                tse_mac_initTransInfo2
                0x02038270                tse_mac_sTxWrite
                0x02038350                tse_mac_aRxRead
                0x020383f4                tse_mac_SwReset
                0x0203847c                tse_mac_setMIImode
                0x020384d0                tse_mac_setGMIImode
                0x02038520                alt_tse_phy_add_profile
                0x02038704                alt_tse_system_add_sys
                0x02039100                alt_tse_sys_enable_mdio_sharing
                0x02039264                alt_tse_mac_get_common_speed
                0x020392a4                alt_tse_mac_set_common_speed
                0x020392ec                alt_tse_get_system_index
                0x02039358                alt_tse_get_mac_group_index
                0x020393cc                alt_tse_get_mac_info_index
                0x0203944c                alt_tse_get_mac_info
                0x02039524                alt_tse_mac_set_speed
                0x02039604                alt_tse_mac_set_duplex
                0x02039690                getPHYSpeed
                0x0203a104                alt_tse_phy_rd_mdio_addr
                0x0203a14c                alt_tse_phy_wr_mdio_addr
                0x0203a1a4                alt_tse_phy_wr_mdio_reg
                0x0203a2d0                alt_tse_phy_rd_mdio_reg
                0x0203a39c                alt_tse_phy_add_profile_default
                0x0203a634                alt_tse_phy_print_profile
                0x0203a844                alt_tse_mac_group_init
                0x0203aee0                alt_tse_mac_get_phy
                0x0203b2fc                alt_tse_mac_associate_phy
                0x0203b53c                alt_tse_phy_cfg_pcs
                0x0203b664                alt_tse_phy_init
                0x0203b77c                alt_tse_phy_restart_an
                0x0203b940                alt_tse_phy_check_link
                0x0203baa0                alt_tse_phy_get_cap
                0x0203c038                alt_tse_phy_set_adv_1000
                0x0203c1f4                alt_tse_phy_set_adv_100
                0x0203c43c                alt_tse_phy_set_adv_10
                0x0203c5e4                alt_tse_phy_get_common_speed
                0x0203c90c                alt_tse_phy_set_common_speed
                0x0203cdc4                marvell_phy_cfg
                0x0203ce5c                marvell_cfg_gmii
                0x0203cf40                marvell_cfg_sgmii
                0x0203d024                marvell_cfg_rgmii
                0x0203d114                DP83848C_link_status_read
 .text          0x0203d18c        0x0 F:/Qsys/qsys_webserver/qsys/software/qsys_webserver_bsp/\libucosii_bsp.a(altera_avalon_tse_system_info.o)
 .text          0x0203d18c      0x480 F:/Qsys/qsys_webserver/qsys/software/qsys_webserver_bsp/\libucosii_bsp.a(allports.o)
                0x0203d18c                netmain_init
                0x0203d280                icmp_port_du
                0x0203d310                station_state
                0x0203d4b0                sysuptime
                0x0203d544                packet_check
                0x0203d594                mcastlist
                0x0203d5b8                prep_modules
 .text          0x0203d60c      0x54c F:/Qsys/qsys_webserver/qsys/software/qsys_webserver_bsp/\libucosii_bsp.a(timeouts.o)
                0x0203d60c                inet_timer
                0x0203d904                in_timerset
                0x0203dabc                in_timerkill
 .text          0x0203db58       0xac F:/Qsys/qsys_webserver/qsys/software/qsys_webserver_bsp/\libucosii_bsp.a(tk_misc.o)
                0x0203db58                create_apptasks
                0x0203db7c                task_stats
 .text          0x0203dc04       0xa0 F:/Qsys/qsys_webserver/qsys/software/qsys_webserver_bsp/\libucosii_bsp.a(alt_iniche_fcntl.o)
                0x0203dc04                fcntl
 .text          0x0203dca4     0x14b8 F:/Qsys/qsys_webserver/qsys/software/qsys_webserver_bsp/\libucosii_bsp.a(et_arp.o)
                0x0203dca4                etainit
                0x0203dcec                et_send
                0x0203de78                arp_free_pending
                0x0203defc                arp_send_pending
                0x0203df6c                send_arp
                0x0203e3c4                find_oldest_arp
                0x0203e578                make_arp_entry
                0x0203e678                arpReply
                0x0203e93c                arprcv
                0x0203eba8                send_via_arp
                0x0203ed50                cb_arpent_tmo
                0x0203eea0                grat_arp
 .text          0x0203f15c      0x270 F:/Qsys/qsys_webserver/qsys/software/qsys_webserver_bsp/\libucosii_bsp.a(iface.o)
                0x0203f15c                if_getbynum
                0x0203f1d8                isbcast
                0x0203f2ac                reg_type
                0x0203f33c                if_killsocks
 .text          0x0203f3cc     0x2068 F:/Qsys/qsys_webserver/qsys/software/qsys_webserver_bsp/\libucosii_bsp.a(ip.o)
                0x0203f3cc                ip_init
                0x0203f4b4                ip_bldhead
                0x0203f638                ip_write_internal
                0x0203fd78                ip_write
                0x0203ff90                ip_write2
                0x02040308                ip_raw_write
                0x020403cc                ip_fragment_lc
                0x020407e4                ip_fragment
                0x02040d94                ip_mymach
                0x02040e3c                ip_dump
                0x020410e4                iproute
                0x02041304                ip_copypkt
 .text          0x02041434     0x1ca0 F:/Qsys/qsys_webserver/qsys/software/qsys_webserver_bsp/\libucosii_bsp.a(ip_reasm.o)
                0x02041434                ip_reasm_match_frag_with_ire
                0x020414f8                ip_reasm_determine_type_of_frag
                0x020415c8                ip_reasm_check_mem_useage
                0x0204165c                ip_reasm_incr_mem_useage
                0x020416fc                ip_reasm_decr_mem_useage
                0x02041794                ip_reasm_process_first_fragment
                0x02041a4c                ip_reassm
                0x02041ad4                ip_reasm_compute_overlap
                0x02042038                ip_reasm_process_subsequent_fragments
                0x02042568                ip_reasm_find_ire
                0x020425c0                ip_reasm_copy_queued_fragments_into_reassy_buffer
                0x0204290c                ip_reasm_process_timer_tick
                0x02042a28                ip_reasm_delete_ire
                0x02042bdc                ip_reasm_mark_compact_rfq
                0x02042d0c                ipr_stats
                0x02043084                ip_reasm_send_icmp_timex
 .text          0x020430d4      0xdbc F:/Qsys/qsys_webserver/qsys/software/qsys_webserver_bsp/\libucosii_bsp.a(ipdemux.o)
                0x020430d4                ip_rcv
                0x020434b4                ip_rcv_phase2
                0x02043a90                ip_demux
 .text          0x02043e90      0x2b8 F:/Qsys/qsys_webserver/qsys/software/qsys_webserver_bsp/\libucosii_bsp.a(ipmc.o)
                0x02043e90                in_addmulti
                0x02043fdc                in_delmulti
                0x020440e4                lookup_mcast
 .text          0x02044148       0xd8 F:/Qsys/qsys_webserver/qsys/software/qsys_webserver_bsp/\libucosii_bsp.a(ipport.o)
                0x02044148                prep_ifaces
                0x020441d0                netexit
                0x020441f8                evtmap_setup
 .text          0x02044220      0x518 F:/Qsys/qsys_webserver/qsys/software/qsys_webserver_bsp/\libucosii_bsp.a(ipraw.o)
                0x02044220                ip_raw_open
                0x02044300                ip_raw_close
                0x020443bc                ip_raw_input
                0x020445e0                ip_raw_alloc
                0x020446a0                ip_raw_free
                0x020446e0                ip_raw_maxalloc
 .text          0x02044738      0x694 F:/Qsys/qsys_webserver/qsys/software/qsys_webserver_bsp/\libucosii_bsp.a(iproute.o)
                0x02044738                rt_lookup
                0x020448ac                add_route
                0x02044c98                del_route
 .text          0x02044dcc      0xda0 F:/Qsys/qsys_webserver/qsys/software/qsys_webserver_bsp/\libucosii_bsp.a(udp.o)
                0x02044dcc                udpdemux
                0x020455e4                udp_send
                0x02045884                udpswap
                0x02045974                udp_socket
                0x02045a44                udp_alloc
                0x02045b00                udp_maxalloc
                0x02045b2c                udp_free
 .text          0x02045b6c      0x2cc F:/Qsys/qsys_webserver/qsys/software/qsys_webserver_bsp/\libucosii_bsp.a(igmp.o)
                0x02045b6c                igmpv1_input
 .text          0x02045e38      0x74c F:/Qsys/qsys_webserver/qsys/software/qsys_webserver_bsp/\libucosii_bsp.a(igmp2.o)
                0x02045e38                igmpv2_input
                0x02045f80                igmpv2_process_report
                0x020460c0                igmpv2_process_query
                0x020462fc                igmpv2_chk_set_timer
                0x02046444                igmpv2_chk4_rtr_alert_opt
 .text          0x02046584      0x8ac F:/Qsys/qsys_webserver/qsys/software/qsys_webserver_bsp/\libucosii_bsp.a(ipopt.o)
                0x02046584                IPADDR_TO_NETP
                0x020466cc                ip_setmoptions
                0x02046c98                ip_getmoptions
                0x02046dac                ip_freemoptions
 .text          0x02046e30      0x738 F:/Qsys/qsys_webserver/qsys/software/qsys_webserver_bsp/\libucosii_bsp.a(u_mctest.o)
                0x02046e30                u_mctest_init
                0x02046e60                u_mctest_run
 .text          0x02047568      0x3d0 F:/Qsys/qsys_webserver/qsys/software/qsys_webserver_bsp/\libucosii_bsp.a(memdev.o)
                0x02047568                init_memdev
                0x020475e0                md_fopen
                0x02047608                md_fclose
                0x02047628                md_fread
                0x02047784                md_fwrite
                0x020477fc                md_fseek
                0x02047828                md_ftell
                0x0204784c                md_fgetc
                0x02047914                md_unlink
 .text          0x02047938      0x774 F:/Qsys/qsys_webserver/qsys/software/qsys_webserver_bsp/\libucosii_bsp.a(parseip.o)
                0x02047938                parse_ipad
                0x02047c34                inet_addr
                0x02047c94                hextoa
                0x02047ce0                inet_pton
                0x02047d74                inet_ntop
                0x02047df4                print46_addr
                0x02047e50                inet46_addr
                0x02047f10                inet_setport
                0x02047f78                convert_ip
 .text          0x020480ac      0x19c F:/Qsys/qsys_webserver/qsys/software/qsys_webserver_bsp/\libucosii_bsp.a(tcpcksum.o)
                0x020480ac                tcp_cksum
 .text          0x02048248      0x2f0 F:/Qsys/qsys_webserver/qsys/software/qsys_webserver_bsp/\libucosii_bsp.a(udp_open.o)
                0x02048248                udp_open
                0x02048460                udp_close
 .text          0x02048538      0x874 F:/Qsys/qsys_webserver/qsys/software/qsys_webserver_bsp/\libucosii_bsp.a(in_pcb.o)
                0x02048538                in_pcballoc
                0x020485c0                in_pcbdetach
                0x02048614                in_pcbbind
                0x02048824                in_pcbconnect
                0x02048a00                in_pcbdisconnect
                0x02048a58                in_setsockaddr
                0x02048ad8                in_setpeeraddr
                0x02048b58                in_pcblookup
 .text          0x02048dac     0x18e0 F:/Qsys/qsys_webserver/qsys/software/qsys_webserver_bsp/\libucosii_bsp.a(vfsfiles.o)
                0x02048dac                set_vfopen_error
                0x02048dd4                get_vfopen_error
                0x02048df4                vf_alloc_and_link_vop
                0x02048e64                vf_alloc_buffer
                0x02048f2c                vf_free_buffer
                0x02048f78                vfopen_locked
                0x020492b0                vfopen
                0x02049300                vfclose_locked
                0x020494bc                vfclose
                0x020494fc                vfflush
                0x02049544                vfgets
                0x0204961c                vfeof
                0x0204966c                vunlink_flag_open_files
                0x020496c4                vunlink
                0x020498c4                vfread
                0x02049a50                vfwrite_locked
                0x02049dfc                vfwrite
                0x02049e5c                vfseek
                0x02049fa8                vftell
                0x0204a0b8                vgetc_locked
                0x0204a1b0                vgetc
                0x0204a1f8                vfslookup_locked
                0x0204a31c                vfslookup
                0x0204a364                strippath
                0x0204a538                isvfile_locked
                0x0204a590                isvfile
                0x0204a5d8                vferror
                0x0204a634                vclearerr
 .text          0x0204a68c       0x24 F:/Qsys/qsys_webserver/qsys/software/qsys_webserver_bsp/\libucosii_bsp.a(vfsport.o)
                0x0204a68c                prep_vfs
 .text          0x0204a6b0        0x0 F:/Qsys/qsys_webserver/qsys/software/qsys_webserver_bsp/\libucosii_bsp.a(alt_exception_entry.o)
 .text          0x0204a6b0      0x168 F:/Qsys/qsys_webserver/qsys/software/qsys_webserver_bsp/\libucosii_bsp.a(alt_fcntl.o)
                0x0204a700                alt_fcntl
 .text          0x0204a818      0x114 F:/Qsys/qsys_webserver/qsys/software/qsys_webserver_bsp/\libucosii_bsp.a(alt_usleep.o)
                0x0204a818                usleep
 .text          0x0204a92c     0x1288 F:/Qsys/qsys_webserver/qsys/software/qsys_webserver_bsp/\libucosii_bsp.a(icmp.o)
                0x0204a92c                icmprcv
                0x0204b514                icmp_destun
                0x0204b828                icmp_timex
                0x0204bb64                icmp_du
 .text          0x0204bbb4      0x128 F:/Qsys/qsys_webserver/qsys/software/qsys_webserver_bsp/\libucosii_bsp.a(alt_busy_sleep.o)
                0x0204bbb4                alt_busy_sleep
 .text          0x0204bcdc       0x14 d:/eda/quartus13/nios2eds/bin/gnu/h-i686-mingw32/bin/../lib/gcc/nios2-elf/4.7.3/../../../../../H-i686-mingw32/nios2-elf/lib\libc.a(lib_a-atexit.o)
                0x0204bcdc                atexit
 .text          0x0204bcf0       0x1c d:/eda/quartus13/nios2eds/bin/gnu/h-i686-mingw32/bin/../lib/gcc/nios2-elf/4.7.3/../../../../../H-i686-mingw32/nios2-elf/lib\libc.a(lib_a-calloc.o)
                0x0204bcf0                calloc
 .text          0x0204bd0c       0x38 d:/eda/quartus13/nios2eds/bin/gnu/h-i686-mingw32/bin/../lib/gcc/nios2-elf/4.7.3/../../../../../H-i686-mingw32/nios2-elf/lib\libc.a(lib_a-exit.o)
                0x0204bd0c                exit
 .text          0x0204bd44       0x28 d:/eda/quartus13/nios2eds/bin/gnu/h-i686-mingw32/bin/../lib/gcc/nios2-elf/4.7.3/../../../../../H-i686-mingw32/nios2-elf/lib\libc.a(lib_a-malloc.o)
                0x0204bd44                malloc
                0x0204bd58                free
 .text          0x0204bd6c       0x34 d:/eda/quartus13/nios2eds/bin/gnu/h-i686-mingw32/bin/../lib/gcc/nios2-elf/4.7.3/../../../../../H-i686-mingw32/nios2-elf/lib\libc.a(lib_a-vprintf.o)
                0x0204bd6c                vprintf
                0x0204bd8c                _vprintf_r
 .text          0x0204bda0       0x74 d:/eda/quartus13/nios2eds/bin/gnu/h-i686-mingw32/bin/../lib/gcc/nios2-elf/4.7.3/../../../../../H-i686-mingw32/nios2-elf/lib\libc.a(lib_a-vsprintf.o)
                0x0204bda0                _vsprintf_r
                0x0204bdf0                vsprintf
 .text          0x0204be14      0x130 d:/eda/quartus13/nios2eds/bin/gnu/h-i686-mingw32/bin/../lib/gcc/nios2-elf/4.7.3/../../../../../H-i686-mingw32/nios2-elf/lib\libc.a(lib_a-__atexit.o)
                0x0204be14                __register_exitproc
 .text          0x0204bf44      0x1a0 d:/eda/quartus13/nios2eds/bin/gnu/h-i686-mingw32/bin/../lib/gcc/nios2-elf/4.7.3/../../../../../H-i686-mingw32/nios2-elf/lib\libc.a(lib_a-__call_atexit.o)
                0x0204bf44                __call_exitprocs
 .text          0x0204c0e4       0x44 F:/Qsys/qsys_webserver/qsys/software/qsys_webserver_bsp/\libucosii_bsp.a(alt_exit.o)
                0x0204c0e4                _exit
 *(.gnu.warning.*)
 *(.fini)
                0x0204c128                PROVIDE (__etext, ABSOLUTE (.))
                0x0204c128                PROVIDE (_etext, ABSOLUTE (.))
                0x0204c128                PROVIDE (etext, ABSOLUTE (.))
 *(.eh_frame_hdr)
                0x0204c128                . = ALIGN (0x4)
                0x0204c128                PROVIDE (__preinit_array_start, ABSOLUTE (.))
 *(.preinit_array)
                0x0204c128                PROVIDE (__preinit_array_end, ABSOLUTE (.))
                0x0204c128                PROVIDE (__init_array_start, ABSOLUTE (.))
 *(.init_array)
                0x0204c128                PROVIDE (__init_array_end, ABSOLUTE (.))
                0x0204c128                PROVIDE (__fini_array_start, ABSOLUTE (.))
 *(.fini_array)
                0x0204c128                PROVIDE (__fini_array_end, ABSOLUTE (.))
 *(.eh_frame)
 *(.gcc_except_table .gcc_except_table.*)
 *(.dynamic)
                0x0204c128                PROVIDE (__CTOR_LIST__, ABSOLUTE (.))
 *(.ctors)
 *(SORT(.ctors.*))
                0x0204c128                PROVIDE (__CTOR_END__, ABSOLUTE (.))
                0x0204c128                PROVIDE (__DTOR_LIST__, ABSOLUTE (.))
 *(.dtors)
 *(SORT(.dtors.*))
                0x0204c128                PROVIDE (__DTOR_END__, ABSOLUTE (.))
 *(.jcr)
                0x0204c128                . = ALIGN (0x4)

.rodata         0x0204c128     0x6080
                0x0204c128                PROVIDE (__ram_rodata_start, ABSOLUTE (.))
                0x0204c128                . = ALIGN (0x4)
 *(.rodata .rodata.* .gnu.linkonce.r.*)
 .rodata        0x0204c128      0x654 obj/default/alt_error_handler.o
 .rodata        0x0204c77c      0x828 obj/default/http.o
 .rodata        0x0204cfa4      0x268 obj/default/network_utilities.o
 .rodata        0x0204d20c      0x1ac obj/default/srec_flash.o
 .rodata        0x0204d3b8       0x24 obj/default/web_server.o
 .rodata        0x0204d3dc      0x281 d:/eda/quartus13/nios2eds/bin/gnu/h-i686-mingw32/bin/../lib/gcc/nios2-elf/4.7.3/../../../../../H-i686-mingw32/nios2-elf/lib\libc.a(lib_a-ctype_.o)
                0x0204d3dc                _ctype_
 *fill*         0x0204d65d        0x3 
 .rodata.str1.4
                0x0204d660        0x2 d:/eda/quartus13/nios2eds/bin/gnu/h-i686-mingw32/bin/../lib/gcc/nios2-elf/4.7.3/../../../../../H-i686-mingw32/nios2-elf/lib\libc.a(lib_a-impure.o)
                                  0x4 (size before relaxing)
 *fill*         0x0204d662        0x2 
 .rodata.str1.4
                0x0204d664        0x3 d:/eda/quartus13/nios2eds/bin/gnu/h-i686-mingw32/bin/../lib/gcc/nios2-elf/4.7.3/../../../../../H-i686-mingw32/nios2-elf/lib\libc.a(lib_a-perror.o)
                                  0x4 (size before relaxing)
 *fill*         0x0204d667        0x1 
 .rodata.str1.4
                0x0204d668        0x2 d:/eda/quartus13/nios2eds/bin/gnu/h-i686-mingw32/bin/../lib/gcc/nios2-elf/4.7.3/../../../../../H-i686-mingw32/nios2-elf/lib\libc.a(lib_a-puts.o)
                                  0x4 (size before relaxing)
 *fill*         0x0204d66a        0x2 
 .rodata.str1.4
                0x0204d66c      0x7a1 d:/eda/quartus13/nios2eds/bin/gnu/h-i686-mingw32/bin/../lib/gcc/nios2-elf/4.7.3/../../../../../H-i686-mingw32/nios2-elf/lib\libc.a(lib_a-strerror.o)
                                0x7a8 (size before relaxing)
 *fill*         0x0204de0d        0x3 
 .rodata.str1.4
                0x0204de10       0x42 d:/eda/quartus13/nios2eds/bin/gnu/h-i686-mingw32/bin/../lib/gcc/nios2-elf/4.7.3/../../../../../H-i686-mingw32/nios2-elf/lib\libc.a(lib_a-vfprintf.o)
                                 0x44 (size before relaxing)
 .rodata        0x0204de52       0x20 d:/eda/quartus13/nios2eds/bin/gnu/h-i686-mingw32/bin/../lib/gcc/nios2-elf/4.7.3/../../../../../H-i686-mingw32/nios2-elf/lib\libc.a(lib_a-vfprintf.o)
 *fill*         0x0204de72        0x2 
 .rodata.str1.4
                0x0204de74        0x5 d:/eda/quartus13/nios2eds/bin/gnu/h-i686-mingw32/bin/../lib/gcc/nios2-elf/4.7.3/../../../../../H-i686-mingw32/nios2-elf/lib\libc.a(lib_a-vfscanf.o)
                                  0x8 (size before relaxing)
 *fill*         0x0204de79        0x1 
 .rodata        0x0204de7a       0x22 d:/eda/quartus13/nios2eds/bin/gnu/h-i686-mingw32/bin/../lib/gcc/nios2-elf/4.7.3/../../../../../H-i686-mingw32/nios2-elf/lib\libc.a(lib_a-vfscanf.o)
 .rodata.str1.4
                0x0204de9c       0x10 d:/eda/quartus13/nios2eds/bin/gnu/h-i686-mingw32/bin/../lib/gcc/nios2-elf/4.7.3/../../../../../H-i686-mingw32/nios2-elf/lib\libc.a(lib_a-dtoa.o)
                                 0x14 (size before relaxing)
 .rodata.str1.4
                0x0204deac        0xe d:/eda/quartus13/nios2eds/bin/gnu/h-i686-mingw32/bin/../lib/gcc/nios2-elf/4.7.3/../../../../../H-i686-mingw32/nios2-elf/lib\libc.a(lib_a-locale.o)
                                 0x18 (size before relaxing)
 *fill*         0x0204deba        0x2 
 .rodata        0x0204debc       0x30 d:/eda/quartus13/nios2eds/bin/gnu/h-i686-mingw32/bin/../lib/gcc/nios2-elf/4.7.3/../../../../../H-i686-mingw32/nios2-elf/lib\libc.a(lib_a-locale.o)
 .rodata.str1.4
                0x00000000        0x4 d:/eda/quartus13/nios2eds/bin/gnu/h-i686-mingw32/bin/../lib/gcc/nios2-elf/4.7.3/../../../../../H-i686-mingw32/nios2-elf/lib\libc.a(lib_a-mbrtowc.o)
 .rodata        0x0204deec      0x124 d:/eda/quartus13/nios2eds/bin/gnu/h-i686-mingw32/bin/../lib/gcc/nios2-elf/4.7.3/../../../../../H-i686-mingw32/nios2-elf/lib\libc.a(lib_a-mprec.o)
                0x0204deec                __mprec_tinytens
                0x0204df14                __mprec_bigtens
                0x0204df3c                __mprec_tens
 .rodata.str1.4
                0x0204e010        0xf d:/eda/quartus13/nios2eds/bin/gnu/h-i686-mingw32/bin/../lib/gcc/nios2-elf/4.7.3/../../../../../H-i686-mingw32/nios2-elf/lib\libc.a(lib_a-strtod.o)
                                 0x10 (size before relaxing)
 *fill*         0x0204e01f        0x1 
 .rodata        0x0204e020       0x28 d:/eda/quartus13/nios2eds/bin/gnu/h-i686-mingw32/bin/../lib/gcc/nios2-elf/4.7.3/../../../../../H-i686-mingw32/nios2-elf/lib\libc.a(lib_a-strtod.o)
 .rodata.str1.4
                0x0204e048       0x1c d:/eda/quartus13/nios2eds/bin/gnu/h-i686-mingw32/bin/../lib/gcc/nios2-elf/4.7.3/../../../../../H-i686-mingw32/nios2-elf/lib\libc.a(lib_a-gdtoa-gethex.o)
 .rodata        0x0204e064       0x14 d:/eda/quartus13/nios2eds/bin/gnu/h-i686-mingw32/bin/../lib/gcc/nios2-elf/4.7.3\libgcc.a(_thenan_df.o)
                0x0204e064                __thenan_df
 .rodata        0x0204e078      0x100 d:/eda/quartus13/nios2eds/bin/gnu/h-i686-mingw32/bin/../lib/gcc/nios2-elf/4.7.3\libgcc.a(_clz.o)
                0x0204e078                __clz_tab
 .rodata        0x0204e178       0x10 F:/Qsys/qsys_webserver/qsys/software/qsys_webserver_bsp/\libucosii_bsp.a(alt_main.o)
 .rodata        0x0204e188      0x120 F:/Qsys/qsys_webserver/qsys/software/qsys_webserver_bsp/\libucosii_bsp.a(os_core.o)
                0x0204e188                OSUnMapTbl
 .rodata        0x0204e2a8       0x6c F:/Qsys/qsys_webserver/qsys/software/qsys_webserver_bsp/\libucosii_bsp.a(alt_sys_init.o)
 .rodata        0x0204e314       0x1c F:/Qsys/qsys_webserver/qsys/software/qsys_webserver_bsp/\libucosii_bsp.a(altera_ro_zipfs.o)
 .rodata        0x0204e330      0x36c F:/Qsys/qsys_webserver/qsys/software/qsys_webserver_bsp/\libucosii_bsp.a(ins_tse_mac.o)
 .rodata        0x0204e69c       0xd8 F:/Qsys/qsys_webserver/qsys/software/qsys_webserver_bsp/\libucosii_bsp.a(ipnet.o)
 .rodata        0x0204e774       0xec F:/Qsys/qsys_webserver/qsys/software/qsys_webserver_bsp/\libucosii_bsp.a(ipstart.o)
 .rodata        0x0204e860      0x54c F:/Qsys/qsys_webserver/qsys/software/qsys_webserver_bsp/\libucosii_bsp.a(igmp_cmn.o)
 .rodata        0x0204edac       0xb8 F:/Qsys/qsys_webserver/qsys/software/qsys_webserver_bsp/\libucosii_bsp.a(in_utils.o)
 .rodata        0x0204ee64       0x34 F:/Qsys/qsys_webserver/qsys/software/qsys_webserver_bsp/\libucosii_bsp.a(netmain.o)
 .rodata        0x0204ee98      0x1a8 F:/Qsys/qsys_webserver/qsys/software/qsys_webserver_bsp/\libucosii_bsp.a(tk_crnos.o)
 .rodata        0x0204f040      0x118 F:/Qsys/qsys_webserver/qsys/software/qsys_webserver_bsp/\libucosii_bsp.a(pktalloc.o)
 .rodata        0x0204f158       0x2c F:/Qsys/qsys_webserver/qsys/software/qsys_webserver_bsp/\libucosii_bsp.a(brdutils.o)
 .rodata        0x0204f184      0x26c F:/Qsys/qsys_webserver/qsys/software/qsys_webserver_bsp/\libucosii_bsp.a(osportco.o)
 .rodata        0x0204f3f0       0xa0 F:/Qsys/qsys_webserver/qsys/software/qsys_webserver_bsp/\libucosii_bsp.a(targnios.o)
 .rodata        0x0204f490       0x90 F:/Qsys/qsys_webserver/qsys/software/qsys_webserver_bsp/\libucosii_bsp.a(nptcp.o)
 .rodata        0x0204f520        0x8 F:/Qsys/qsys_webserver/qsys/software/qsys_webserver_bsp/\libucosii_bsp.a(sockcall.o)
 .rodata        0x0204f528       0x50 F:/Qsys/qsys_webserver/qsys/software/qsys_webserver_bsp/\libucosii_bsp.a(socket.o)
 .rodata        0x0204f578       0x40 F:/Qsys/qsys_webserver/qsys/software/qsys_webserver_bsp/\libucosii_bsp.a(socket2.o)
 .rodata        0x0204f5b8       0x20 F:/Qsys/qsys_webserver/qsys/software/qsys_webserver_bsp/\libucosii_bsp.a(tcp_in.o)
 .rodata        0x0204f5d8       0x40 F:/Qsys/qsys_webserver/qsys/software/qsys_webserver_bsp/\libucosii_bsp.a(tcp_out.o)
 .rodata        0x0204f618       0x24 F:/Qsys/qsys_webserver/qsys/software/qsys_webserver_bsp/\libucosii_bsp.a(tcp_subr.o)
 .rodata        0x0204f63c       0x2c F:/Qsys/qsys_webserver/qsys/software/qsys_webserver_bsp/\libucosii_bsp.a(tcp_usr.o)
 .rodata        0x0204f668        0xc F:/Qsys/qsys_webserver/qsys/software/qsys_webserver_bsp/\libucosii_bsp.a(alt_dev.o)
 .rodata        0x0204f674        0x4 F:/Qsys/qsys_webserver/qsys/software/qsys_webserver_bsp/\libucosii_bsp.a(os_cpu_c.o)
 .rodata        0x0204f678     0x1be4 F:/Qsys/qsys_webserver/qsys/software/qsys_webserver_bsp/\libucosii_bsp.a(altera_avalon_tse.o)
 .rodata        0x0205125c       0x20 F:/Qsys/qsys_webserver/qsys/software/qsys_webserver_bsp/\libucosii_bsp.a(altera_avalon_tse_system_info.o)
 .rodata        0x0205127c      0x1d4 F:/Qsys/qsys_webserver/qsys/software/qsys_webserver_bsp/\libucosii_bsp.a(allports.o)
 .rodata        0x02051450       0x34 F:/Qsys/qsys_webserver/qsys/software/qsys_webserver_bsp/\libucosii_bsp.a(tk_misc.o)
 .rodata        0x02051484       0x44 F:/Qsys/qsys_webserver/qsys/software/qsys_webserver_bsp/\libucosii_bsp.a(et_arp.o)
 .rodata        0x020514c8      0x1dc F:/Qsys/qsys_webserver/qsys/software/qsys_webserver_bsp/\libucosii_bsp.a(ip.o)
 .rodata        0x020516a4      0x158 F:/Qsys/qsys_webserver/qsys/software/qsys_webserver_bsp/\libucosii_bsp.a(ip_reasm.o)
 .rodata        0x020517fc      0x120 F:/Qsys/qsys_webserver/qsys/software/qsys_webserver_bsp/\libucosii_bsp.a(ipdemux.o)
 .rodata        0x0205191c       0x34 F:/Qsys/qsys_webserver/qsys/software/qsys_webserver_bsp/\libucosii_bsp.a(ipport.o)
 .rodata        0x02051950       0x24 F:/Qsys/qsys_webserver/qsys/software/qsys_webserver_bsp/\libucosii_bsp.a(ipraw.o)
 .rodata        0x02051974       0x38 F:/Qsys/qsys_webserver/qsys/software/qsys_webserver_bsp/\libucosii_bsp.a(iproute.o)
 .rodata        0x020519ac       0xe8 F:/Qsys/qsys_webserver/qsys/software/qsys_webserver_bsp/\libucosii_bsp.a(udp.o)
 .rodata        0x02051a94      0x2b0 F:/Qsys/qsys_webserver/qsys/software/qsys_webserver_bsp/\libucosii_bsp.a(u_mctest.o)
 .rodata        0x02051d44       0x94 F:/Qsys/qsys_webserver/qsys/software/qsys_webserver_bsp/\libucosii_bsp.a(parseip.o)
 .rodata        0x02051dd8       0x84 F:/Qsys/qsys_webserver/qsys/software/qsys_webserver_bsp/\libucosii_bsp.a(udp_open.o)
 .rodata        0x02051e5c       0x34 F:/Qsys/qsys_webserver/qsys/software/qsys_webserver_bsp/\libucosii_bsp.a(vfsfiles.o)
 .rodata        0x02051e90      0x318 F:/Qsys/qsys_webserver/qsys/software/qsys_webserver_bsp/\libucosii_bsp.a(icmp.o)
 *(.rodata1)
                0x020521a8                . = ALIGN (0x4)
                0x020521a8                PROVIDE (__ram_rodata_end, ABSOLUTE (.))
                0x0204c128                PROVIDE (__flash_rodata_start, LOADADDR (.rodata))

.rwdata         0x020521a8     0x206c
                0x020521a8                PROVIDE (__ram_rwdata_start, ABSOLUTE (.))
                0x020521a8                . = ALIGN (0x4)
 *(.got.plt)
 *(.got)
 *(.data1)
 *(.data .data.* .gnu.linkonce.d.*)
 .data          0x020521a8        0x0 F:/Qsys/qsys_webserver/qsys/software/qsys_webserver_bsp//obj/HAL/src/crt0.o
 .data          0x020521a8        0x0 obj/default/alt_error_handler.o
 .data          0x020521a8        0x0 obj/default/http.o
 .data          0x020521a8        0x0 obj/default/network_utilities.o
 .data          0x020521a8        0x0 obj/default/srec_flash.o
 .data          0x020521a8       0x18 obj/default/web_server.o
                0x020521a8                wstask
 .data          0x020521c0        0x0 d:/eda/quartus13/nios2eds/bin/gnu/h-i686-mingw32/bin/../lib/gcc/nios2-elf/4.7.3/../../../../../H-i686-mingw32/nios2-elf/lib\libc.a(lib_a-atoi.o)
 .data          0x020521c0        0x0 d:/eda/quartus13/nios2eds/bin/gnu/h-i686-mingw32/bin/../lib/gcc/nios2-elf/4.7.3/../../../../../H-i686-mingw32/nios2-elf/lib\libc.a(lib_a-ctype_.o)
 .data          0x020521c0        0x0 d:/eda/quartus13/nios2eds/bin/gnu/h-i686-mingw32/bin/../lib/gcc/nios2-elf/4.7.3/../../../../../H-i686-mingw32/nios2-elf/lib\libc.a(lib_a-fclose.o)
 .data          0x020521c0        0x0 d:/eda/quartus13/nios2eds/bin/gnu/h-i686-mingw32/bin/../lib/gcc/nios2-elf/4.7.3/../../../../../H-i686-mingw32/nios2-elf/lib\libc.a(lib_a-fflush.o)
 .data          0x020521c0        0x0 d:/eda/quartus13/nios2eds/bin/gnu/h-i686-mingw32/bin/../lib/gcc/nios2-elf/4.7.3/../../../../../H-i686-mingw32/nios2-elf/lib\libc.a(lib_a-fgetpos.o)
 .data          0x020521c0        0x0 d:/eda/quartus13/nios2eds/bin/gnu/h-i686-mingw32/bin/../lib/gcc/nios2-elf/4.7.3/../../../../../H-i686-mingw32/nios2-elf/lib\libc.a(lib_a-findfp.o)
 .data          0x020521c0        0x0 d:/eda/quartus13/nios2eds/bin/gnu/h-i686-mingw32/bin/../lib/gcc/nios2-elf/4.7.3/../../../../../H-i686-mingw32/nios2-elf/lib\libc.a(lib_a-fopen.o)
 .data          0x020521c0        0x0 d:/eda/quartus13/nios2eds/bin/gnu/h-i686-mingw32/bin/../lib/gcc/nios2-elf/4.7.3/../../../../../H-i686-mingw32/nios2-elf/lib\libc.a(lib_a-fprintf.o)
 .data          0x020521c0        0x0 d:/eda/quartus13/nios2eds/bin/gnu/h-i686-mingw32/bin/../lib/gcc/nios2-elf/4.7.3/../../../../../H-i686-mingw32/nios2-elf/lib\libc.a(lib_a-fread.o)
 .data          0x020521c0        0x0 d:/eda/quartus13/nios2eds/bin/gnu/h-i686-mingw32/bin/../lib/gcc/nios2-elf/4.7.3/../../../../../H-i686-mingw32/nios2-elf/lib\libc.a(lib_a-freer.o)
 .data          0x020521c0        0x0 d:/eda/quartus13/nios2eds/bin/gnu/h-i686-mingw32/bin/../lib/gcc/nios2-elf/4.7.3/../../../../../H-i686-mingw32/nios2-elf/lib\libc.a(lib_a-fseek.o)
 .data          0x020521c0        0x0 d:/eda/quartus13/nios2eds/bin/gnu/h-i686-mingw32/bin/../lib/gcc/nios2-elf/4.7.3/../../../../../H-i686-mingw32/nios2-elf/lib\libc.a(lib_a-fstatr.o)
 .data          0x020521c0        0x0 d:/eda/quartus13/nios2eds/bin/gnu/h-i686-mingw32/bin/../lib/gcc/nios2-elf/4.7.3/../../../../../H-i686-mingw32/nios2-elf/lib\libc.a(lib_a-ftell.o)
 .data          0x020521c0        0x0 d:/eda/quartus13/nios2eds/bin/gnu/h-i686-mingw32/bin/../lib/gcc/nios2-elf/4.7.3/../../../../../H-i686-mingw32/nios2-elf/lib\libc.a(lib_a-fwalk.o)
 .data          0x020521c0        0x0 d:/eda/quartus13/nios2eds/bin/gnu/h-i686-mingw32/bin/../lib/gcc/nios2-elf/4.7.3/../../../../../H-i686-mingw32/nios2-elf/lib\libc.a(lib_a-fwrite.o)
 .data          0x020521c0        0x0 d:/eda/quartus13/nios2eds/bin/gnu/h-i686-mingw32/bin/../lib/gcc/nios2-elf/4.7.3/../../../../../H-i686-mingw32/nios2-elf/lib\libc.a(lib_a-getc.o)
 .data          0x020521c0      0x400 d:/eda/quartus13/nios2eds/bin/gnu/h-i686-mingw32/bin/../lib/gcc/nios2-elf/4.7.3/../../../../../H-i686-mingw32/nios2-elf/lib\libc.a(lib_a-impure.o)
 .data          0x020525c0        0x0 d:/eda/quartus13/nios2eds/bin/gnu/h-i686-mingw32/bin/../lib/gcc/nios2-elf/4.7.3/../../../../../H-i686-mingw32/nios2-elf/lib\libc.a(lib_a-int_errno.o)
 .data          0x020525c0        0x0 d:/eda/quartus13/nios2eds/bin/gnu/h-i686-mingw32/bin/../lib/gcc/nios2-elf/4.7.3/../../../../../H-i686-mingw32/nios2-elf/lib\libc.a(lib_a-makebuf.o)
 .data          0x020525c0      0x408 d:/eda/quartus13/nios2eds/bin/gnu/h-i686-mingw32/bin/../lib/gcc/nios2-elf/4.7.3/../../../../../H-i686-mingw32/nios2-elf/lib\libc.a(lib_a-mallocr.o)
                0x020525c0                __malloc_av_
 .data          0x020529c8        0x0 d:/eda/quartus13/nios2eds/bin/gnu/h-i686-mingw32/bin/../lib/gcc/nios2-elf/4.7.3/../../../../../H-i686-mingw32/nios2-elf/lib\libc.a(lib_a-memcpy.o)
 .data          0x020529c8        0x0 d:/eda/quartus13/nios2eds/bin/gnu/h-i686-mingw32/bin/../lib/gcc/nios2-elf/4.7.3/../../../../../H-i686-mingw32/nios2-elf/lib\libc.a(lib_a-memmove.o)
 .data          0x020529c8        0x0 d:/eda/quartus13/nios2eds/bin/gnu/h-i686-mingw32/bin/../lib/gcc/nios2-elf/4.7.3/../../../../../H-i686-mingw32/nios2-elf/lib\libc.a(lib_a-memset.o)
 .data          0x020529c8        0x0 d:/eda/quartus13/nios2eds/bin/gnu/h-i686-mingw32/bin/../lib/gcc/nios2-elf/4.7.3/../../../../../H-i686-mingw32/nios2-elf/lib\libc.a(lib_a-openr.o)
 .data          0x020529c8        0x0 d:/eda/quartus13/nios2eds/bin/gnu/h-i686-mingw32/bin/../lib/gcc/nios2-elf/4.7.3/../../../../../H-i686-mingw32/nios2-elf/lib\libc.a(lib_a-perror.o)
 .data          0x020529c8        0x0 d:/eda/quartus13/nios2eds/bin/gnu/h-i686-mingw32/bin/../lib/gcc/nios2-elf/4.7.3/../../../../../H-i686-mingw32/nios2-elf/lib\libc.a(lib_a-printf.o)
 .data          0x020529c8        0x0 d:/eda/quartus13/nios2eds/bin/gnu/h-i686-mingw32/bin/../lib/gcc/nios2-elf/4.7.3/../../../../../H-i686-mingw32/nios2-elf/lib\libc.a(lib_a-putc.o)
 .data          0x020529c8        0x0 d:/eda/quartus13/nios2eds/bin/gnu/h-i686-mingw32/bin/../lib/gcc/nios2-elf/4.7.3/../../../../../H-i686-mingw32/nios2-elf/lib\libc.a(lib_a-putchar.o)
 .data          0x020529c8        0x0 d:/eda/quartus13/nios2eds/bin/gnu/h-i686-mingw32/bin/../lib/gcc/nios2-elf/4.7.3/../../../../../H-i686-mingw32/nios2-elf/lib\libc.a(lib_a-puts.o)
 .data          0x020529c8        0x0 d:/eda/quartus13/nios2eds/bin/gnu/h-i686-mingw32/bin/../lib/gcc/nios2-elf/4.7.3/../../../../../H-i686-mingw32/nios2-elf/lib\libc.a(lib_a-refill.o)
 .data          0x020529c8        0x0 d:/eda/quartus13/nios2eds/bin/gnu/h-i686-mingw32/bin/../lib/gcc/nios2-elf/4.7.3/../../../../../H-i686-mingw32/nios2-elf/lib\libc.a(lib_a-rget.o)
 .data          0x020529c8        0x0 d:/eda/quartus13/nios2eds/bin/gnu/h-i686-mingw32/bin/../lib/gcc/nios2-elf/4.7.3/../../../../../H-i686-mingw32/nios2-elf/lib\libc.a(lib_a-sbrkr.o)
 .data          0x020529c8        0x0 d:/eda/quartus13/nios2eds/bin/gnu/h-i686-mingw32/bin/../lib/gcc/nios2-elf/4.7.3/../../../../../H-i686-mingw32/nios2-elf/lib\libc.a(lib_a-sprintf.o)
 .data          0x020529c8        0x0 d:/eda/quartus13/nios2eds/bin/gnu/h-i686-mingw32/bin/../lib/gcc/nios2-elf/4.7.3/../../../../../H-i686-mingw32/nios2-elf/lib\libc.a(lib_a-sscanf.o)
 .data          0x020529c8        0x0 d:/eda/quartus13/nios2eds/bin/gnu/h-i686-mingw32/bin/../lib/gcc/nios2-elf/4.7.3/../../../../../H-i686-mingw32/nios2-elf/lib\libc.a(lib_a-stdio.o)
 .data          0x020529c8        0x0 d:/eda/quartus13/nios2eds/bin/gnu/h-i686-mingw32/bin/../lib/gcc/nios2-elf/4.7.3/../../../../../H-i686-mingw32/nios2-elf/lib\libc.a(lib_a-strcasecmp.o)
 .data          0x020529c8        0x0 d:/eda/quartus13/nios2eds/bin/gnu/h-i686-mingw32/bin/../lib/gcc/nios2-elf/4.7.3/../../../../../H-i686-mingw32/nios2-elf/lib\libc.a(lib_a-strcat.o)
 .data          0x020529c8        0x0 d:/eda/quartus13/nios2eds/bin/gnu/h-i686-mingw32/bin/../lib/gcc/nios2-elf/4.7.3/../../../../../H-i686-mingw32/nios2-elf/lib\libc.a(lib_a-strchr.o)
 .data          0x020529c8        0x0 d:/eda/quartus13/nios2eds/bin/gnu/h-i686-mingw32/bin/../lib/gcc/nios2-elf/4.7.3/../../../../../H-i686-mingw32/nios2-elf/lib\libc.a(lib_a-strcmp.o)
 .data          0x020529c8        0x0 d:/eda/quartus13/nios2eds/bin/gnu/h-i686-mingw32/bin/../lib/gcc/nios2-elf/4.7.3/../../../../../H-i686-mingw32/nios2-elf/lib\libc.a(lib_a-strcpy.o)
 .data          0x020529c8        0x0 d:/eda/quartus13/nios2eds/bin/gnu/h-i686-mingw32/bin/../lib/gcc/nios2-elf/4.7.3/../../../../../H-i686-mingw32/nios2-elf/lib\libc.a(lib_a-strerror.o)
 .data          0x020529c8        0x0 d:/eda/quartus13/nios2eds/bin/gnu/h-i686-mingw32/bin/../lib/gcc/nios2-elf/4.7.3/../../../../../H-i686-mingw32/nios2-elf/lib\libc.a(lib_a-strlen.o)
 .data          0x020529c8        0x0 d:/eda/quartus13/nios2eds/bin/gnu/h-i686-mingw32/bin/../lib/gcc/nios2-elf/4.7.3/../../../../../H-i686-mingw32/nios2-elf/lib\libc.a(lib_a-strncmp.o)
 .data          0x020529c8        0x0 d:/eda/quartus13/nios2eds/bin/gnu/h-i686-mingw32/bin/../lib/gcc/nios2-elf/4.7.3/../../../../../H-i686-mingw32/nios2-elf/lib\libc.a(lib_a-strncpy.o)
 .data          0x020529c8        0x0 d:/eda/quartus13/nios2eds/bin/gnu/h-i686-mingw32/bin/../lib/gcc/nios2-elf/4.7.3/../../../../../H-i686-mingw32/nios2-elf/lib\libc.a(lib_a-strstr.o)
 .data          0x020529c8        0x0 d:/eda/quartus13/nios2eds/bin/gnu/h-i686-mingw32/bin/../lib/gcc/nios2-elf/4.7.3/../../../../../H-i686-mingw32/nios2-elf/lib\libc.a(lib_a-strtok.o)
 .data          0x020529c8        0x0 d:/eda/quartus13/nios2eds/bin/gnu/h-i686-mingw32/bin/../lib/gcc/nios2-elf/4.7.3/../../../../../H-i686-mingw32/nios2-elf/lib\libc.a(lib_a-strtok_r.o)
 .data          0x020529c8        0x0 d:/eda/quartus13/nios2eds/bin/gnu/h-i686-mingw32/bin/../lib/gcc/nios2-elf/4.7.3/../../../../../H-i686-mingw32/nios2-elf/lib\libc.a(lib_a-strtol.o)
 .data          0x020529c8        0x0 d:/eda/quartus13/nios2eds/bin/gnu/h-i686-mingw32/bin/../lib/gcc/nios2-elf/4.7.3/../../../../../H-i686-mingw32/nios2-elf/lib\libc.a(lib_a-u_strerr.o)
 .data          0x020529c8        0x0 d:/eda/quartus13/nios2eds/bin/gnu/h-i686-mingw32/bin/../lib/gcc/nios2-elf/4.7.3/../../../../../H-i686-mingw32/nios2-elf/lib\libc.a(lib_a-vfprintf.o)
 .data          0x020529c8        0x0 d:/eda/quartus13/nios2eds/bin/gnu/h-i686-mingw32/bin/../lib/gcc/nios2-elf/4.7.3/../../../../../H-i686-mingw32/nios2-elf/lib\libc.a(lib_a-vfscanf.o)
 .data          0x020529c8        0x0 d:/eda/quartus13/nios2eds/bin/gnu/h-i686-mingw32/bin/../lib/gcc/nios2-elf/4.7.3/../../../../../H-i686-mingw32/nios2-elf/lib\libc.a(lib_a-wbuf.o)
 .data          0x020529c8        0x0 d:/eda/quartus13/nios2eds/bin/gnu/h-i686-mingw32/bin/../lib/gcc/nios2-elf/4.7.3/../../../../../H-i686-mingw32/nios2-elf/lib\libc.a(lib_a-writer.o)
 .data          0x020529c8        0x0 d:/eda/quartus13/nios2eds/bin/gnu/h-i686-mingw32/bin/../lib/gcc/nios2-elf/4.7.3/../../../../../H-i686-mingw32/nios2-elf/lib\libc.a(lib_a-wsetup.o)
 .data          0x020529c8        0x0 d:/eda/quartus13/nios2eds/bin/gnu/h-i686-mingw32/bin/../lib/gcc/nios2-elf/4.7.3/../../../../../H-i686-mingw32/nios2-elf/lib\libc.a(lib_a-closer.o)
 .data          0x020529c8        0x0 d:/eda/quartus13/nios2eds/bin/gnu/h-i686-mingw32/bin/../lib/gcc/nios2-elf/4.7.3/../../../../../H-i686-mingw32/nios2-elf/lib\libc.a(lib_a-dtoa.o)
 .data          0x020529c8        0x0 d:/eda/quartus13/nios2eds/bin/gnu/h-i686-mingw32/bin/../lib/gcc/nios2-elf/4.7.3/../../../../../H-i686-mingw32/nios2-elf/lib\libc.a(lib_a-flags.o)
 .data          0x020529c8        0x0 d:/eda/quartus13/nios2eds/bin/gnu/h-i686-mingw32/bin/../lib/gcc/nios2-elf/4.7.3/../../../../../H-i686-mingw32/nios2-elf/lib\libc.a(lib_a-fputc.o)
 .data          0x020529c8        0x0 d:/eda/quartus13/nios2eds/bin/gnu/h-i686-mingw32/bin/../lib/gcc/nios2-elf/4.7.3/../../../../../H-i686-mingw32/nios2-elf/lib\libc.a(lib_a-fputs.o)
 .data          0x020529c8        0x0 d:/eda/quartus13/nios2eds/bin/gnu/h-i686-mingw32/bin/../lib/gcc/nios2-elf/4.7.3/../../../../../H-i686-mingw32/nios2-elf/lib\libc.a(lib_a-fvwrite.o)
 .data          0x020529c8        0x0 d:/eda/quartus13/nios2eds/bin/gnu/h-i686-mingw32/bin/../lib/gcc/nios2-elf/4.7.3/../../../../../H-i686-mingw32/nios2-elf/lib\libc.a(lib_a-isattyr.o)
 .data          0x020529c8        0x0 d:/eda/quartus13/nios2eds/bin/gnu/h-i686-mingw32/bin/../lib/gcc/nios2-elf/4.7.3/../../../../../H-i686-mingw32/nios2-elf/lib\libc.a(lib_a-iswspace.o)
 .data          0x020529c8        0xc d:/eda/quartus13/nios2eds/bin/gnu/h-i686-mingw32/bin/../lib/gcc/nios2-elf/4.7.3/../../../../../H-i686-mingw32/nios2-elf/lib\libc.a(lib_a-locale.o)
                0x020529c8                __lc_ctype
 .data          0x020529d4        0x0 d:/eda/quartus13/nios2eds/bin/gnu/h-i686-mingw32/bin/../lib/gcc/nios2-elf/4.7.3/../../../../../H-i686-mingw32/nios2-elf/lib\libc.a(lib_a-lseekr.o)
 .data          0x020529d4        0x0 d:/eda/quartus13/nios2eds/bin/gnu/h-i686-mingw32/bin/../lib/gcc/nios2-elf/4.7.3/../../../../../H-i686-mingw32/nios2-elf/lib\libc.a(lib_a-mbrtowc.o)
 .data          0x020529d4        0x0 d:/eda/quartus13/nios2eds/bin/gnu/h-i686-mingw32/bin/../lib/gcc/nios2-elf/4.7.3/../../../../../H-i686-mingw32/nios2-elf/lib\libc.a(lib_a-mbtowc_r.o)
 .data          0x020529d4        0x0 d:/eda/quartus13/nios2eds/bin/gnu/h-i686-mingw32/bin/../lib/gcc/nios2-elf/4.7.3/../../../../../H-i686-mingw32/nios2-elf/lib\libc.a(lib_a-memchr.o)
 .data          0x020529d4        0x0 d:/eda/quartus13/nios2eds/bin/gnu/h-i686-mingw32/bin/../lib/gcc/nios2-elf/4.7.3/../../../../../H-i686-mingw32/nios2-elf/lib\libc.a(lib_a-memcmp.o)
 .data          0x020529d4        0x0 d:/eda/quartus13/nios2eds/bin/gnu/h-i686-mingw32/bin/../lib/gcc/nios2-elf/4.7.3/../../../../../H-i686-mingw32/nios2-elf/lib\libc.a(lib_a-mprec.o)
 .data          0x020529d4        0x0 d:/eda/quartus13/nios2eds/bin/gnu/h-i686-mingw32/bin/../lib/gcc/nios2-elf/4.7.3/../../../../../H-i686-mingw32/nios2-elf/lib\libc.a(lib_a-readr.o)
 .data          0x020529d4        0x0 d:/eda/quartus13/nios2eds/bin/gnu/h-i686-mingw32/bin/../lib/gcc/nios2-elf/4.7.3/../../../../../H-i686-mingw32/nios2-elf/lib\libc.a(lib_a-reallocr.o)
 .data          0x020529d4        0x0 d:/eda/quartus13/nios2eds/bin/gnu/h-i686-mingw32/bin/../lib/gcc/nios2-elf/4.7.3/../../../../../H-i686-mingw32/nios2-elf/lib\libc.a(lib_a-s_isinfd.o)
 .data          0x020529d4        0x0 d:/eda/quartus13/nios2eds/bin/gnu/h-i686-mingw32/bin/../lib/gcc/nios2-elf/4.7.3/../../../../../H-i686-mingw32/nios2-elf/lib\libc.a(lib_a-s_isnand.o)
 .data          0x020529d4        0x0 d:/eda/quartus13/nios2eds/bin/gnu/h-i686-mingw32/bin/../lib/gcc/nios2-elf/4.7.3/../../../../../H-i686-mingw32/nios2-elf/lib\libc.a(lib_a-sccl.o)
 .data          0x020529d4        0x0 d:/eda/quartus13/nios2eds/bin/gnu/h-i686-mingw32/bin/../lib/gcc/nios2-elf/4.7.3/../../../../../H-i686-mingw32/nios2-elf/lib\libc.a(lib_a-sf_nan.o)
 .data          0x020529d4       0x28 d:/eda/quartus13/nios2eds/bin/gnu/h-i686-mingw32/bin/../lib/gcc/nios2-elf/4.7.3/../../../../../H-i686-mingw32/nios2-elf/lib\libc.a(lib_a-strtod.o)
 .data          0x020529fc        0x0 d:/eda/quartus13/nios2eds/bin/gnu/h-i686-mingw32/bin/../lib/gcc/nios2-elf/4.7.3/../../../../../H-i686-mingw32/nios2-elf/lib\libc.a(lib_a-strtoll_r.o)
 .data          0x020529fc        0x0 d:/eda/quartus13/nios2eds/bin/gnu/h-i686-mingw32/bin/../lib/gcc/nios2-elf/4.7.3/../../../../../H-i686-mingw32/nios2-elf/lib\libc.a(lib_a-strtoul.o)
 .data          0x020529fc        0x0 d:/eda/quartus13/nios2eds/bin/gnu/h-i686-mingw32/bin/../lib/gcc/nios2-elf/4.7.3/../../../../../H-i686-mingw32/nios2-elf/lib\libc.a(lib_a-strtoull_r.o)
 .data          0x020529fc        0x0 d:/eda/quartus13/nios2eds/bin/gnu/h-i686-mingw32/bin/../lib/gcc/nios2-elf/4.7.3/../../../../../H-i686-mingw32/nios2-elf/lib\libc.a(lib_a-ungetc.o)
 .data          0x020529fc        0x0 d:/eda/quartus13/nios2eds/bin/gnu/h-i686-mingw32/bin/../lib/gcc/nios2-elf/4.7.3/../../../../../H-i686-mingw32/nios2-elf/lib\libc.a(lib_a-callocr.o)
 .data          0x020529fc        0x0 d:/eda/quartus13/nios2eds/bin/gnu/h-i686-mingw32/bin/../lib/gcc/nios2-elf/4.7.3/../../../../../H-i686-mingw32/nios2-elf/lib\libc.a(lib_a-gdtoa-gethex.o)
 .data          0x020529fc        0x0 d:/eda/quartus13/nios2eds/bin/gnu/h-i686-mingw32/bin/../lib/gcc/nios2-elf/4.7.3/../../../../../H-i686-mingw32/nios2-elf/lib\libc.a(lib_a-gdtoa-hexnan.o)
 .data          0x020529fc        0x0 d:/eda/quartus13/nios2eds/bin/gnu/h-i686-mingw32/bin/../lib/gcc/nios2-elf/4.7.3\libgcc.a(_muldi3.o)
 .data          0x020529fc        0x0 d:/eda/quartus13/nios2eds/bin/gnu/h-i686-mingw32/bin/../lib/gcc/nios2-elf/4.7.3\libgcc.a(_fixunsdfsi.o)
 .data          0x020529fc        0x0 d:/eda/quartus13/nios2eds/bin/gnu/h-i686-mingw32/bin/../lib/gcc/nios2-elf/4.7.3\libgcc.a(_udivdi3.o)
 .data          0x020529fc        0x0 d:/eda/quartus13/nios2eds/bin/gnu/h-i686-mingw32/bin/../lib/gcc/nios2-elf/4.7.3\libgcc.a(_umoddi3.o)
 .data          0x020529fc        0x0 d:/eda/quartus13/nios2eds/bin/gnu/h-i686-mingw32/bin/../lib/gcc/nios2-elf/4.7.3\libgcc.a(_eq_sf.o)
 .data          0x020529fc        0x0 d:/eda/quartus13/nios2eds/bin/gnu/h-i686-mingw32/bin/../lib/gcc/nios2-elf/4.7.3\libgcc.a(_gt_sf.o)
 .data          0x020529fc        0x0 d:/eda/quartus13/nios2eds/bin/gnu/h-i686-mingw32/bin/../lib/gcc/nios2-elf/4.7.3\libgcc.a(_lt_sf.o)
 .data          0x020529fc        0x0 d:/eda/quartus13/nios2eds/bin/gnu/h-i686-mingw32/bin/../lib/gcc/nios2-elf/4.7.3\libgcc.a(_addsub_df.o)
 .data          0x020529fc        0x0 d:/eda/quartus13/nios2eds/bin/gnu/h-i686-mingw32/bin/../lib/gcc/nios2-elf/4.7.3\libgcc.a(_mul_df.o)
 .data          0x020529fc        0x0 d:/eda/quartus13/nios2eds/bin/gnu/h-i686-mingw32/bin/../lib/gcc/nios2-elf/4.7.3\libgcc.a(_div_df.o)
 .data          0x020529fc        0x0 d:/eda/quartus13/nios2eds/bin/gnu/h-i686-mingw32/bin/../lib/gcc/nios2-elf/4.7.3\libgcc.a(_eq_df.o)
 .data          0x020529fc        0x0 d:/eda/quartus13/nios2eds/bin/gnu/h-i686-mingw32/bin/../lib/gcc/nios2-elf/4.7.3\libgcc.a(_ne_df.o)
 .data          0x020529fc        0x0 d:/eda/quartus13/nios2eds/bin/gnu/h-i686-mingw32/bin/../lib/gcc/nios2-elf/4.7.3\libgcc.a(_gt_df.o)
 .data          0x020529fc        0x0 d:/eda/quartus13/nios2eds/bin/gnu/h-i686-mingw32/bin/../lib/gcc/nios2-elf/4.7.3\libgcc.a(_ge_df.o)
 .data          0x020529fc        0x0 d:/eda/quartus13/nios2eds/bin/gnu/h-i686-mingw32/bin/../lib/gcc/nios2-elf/4.7.3\libgcc.a(_lt_df.o)
 .data          0x020529fc        0x0 d:/eda/quartus13/nios2eds/bin/gnu/h-i686-mingw32/bin/../lib/gcc/nios2-elf/4.7.3\libgcc.a(_le_df.o)
 .data          0x020529fc        0x0 d:/eda/quartus13/nios2eds/bin/gnu/h-i686-mingw32/bin/../lib/gcc/nios2-elf/4.7.3\libgcc.a(_si_to_df.o)
 .data          0x020529fc        0x0 d:/eda/quartus13/nios2eds/bin/gnu/h-i686-mingw32/bin/../lib/gcc/nios2-elf/4.7.3\libgcc.a(_df_to_si.o)
 .data          0x020529fc        0x0 d:/eda/quartus13/nios2eds/bin/gnu/h-i686-mingw32/bin/../lib/gcc/nios2-elf/4.7.3\libgcc.a(_df_to_sf.o)
 .data          0x020529fc        0x0 d:/eda/quartus13/nios2eds/bin/gnu/h-i686-mingw32/bin/../lib/gcc/nios2-elf/4.7.3\libgcc.a(_thenan_df.o)
 .data          0x020529fc        0x0 d:/eda/quartus13/nios2eds/bin/gnu/h-i686-mingw32/bin/../lib/gcc/nios2-elf/4.7.3\libgcc.a(_usi_to_df.o)
 .data          0x020529fc        0x0 d:/eda/quartus13/nios2eds/bin/gnu/h-i686-mingw32/bin/../lib/gcc/nios2-elf/4.7.3\libgcc.a(lib2-divmod.o)
 .data          0x020529fc        0x0 d:/eda/quartus13/nios2eds/bin/gnu/h-i686-mingw32/bin/../lib/gcc/nios2-elf/4.7.3\libgcc.a(_clz.o)
 .data          0x020529fc        0x0 d:/eda/quartus13/nios2eds/bin/gnu/h-i686-mingw32/bin/../lib/gcc/nios2-elf/4.7.3\libgcc.a(_clzsi2.o)
 .data          0x020529fc        0x0 d:/eda/quartus13/nios2eds/bin/gnu/h-i686-mingw32/bin/../lib/gcc/nios2-elf/4.7.3\libgcc.a(_unpack_sf.o)
 .data          0x020529fc        0x0 d:/eda/quartus13/nios2eds/bin/gnu/h-i686-mingw32/bin/../lib/gcc/nios2-elf/4.7.3\libgcc.a(_fpcmp_parts_sf.o)
 .data          0x020529fc        0x0 d:/eda/quartus13/nios2eds/bin/gnu/h-i686-mingw32/bin/../lib/gcc/nios2-elf/4.7.3\libgcc.a(_make_sf.o)
 .data          0x020529fc        0x0 d:/eda/quartus13/nios2eds/bin/gnu/h-i686-mingw32/bin/../lib/gcc/nios2-elf/4.7.3\libgcc.a(_pack_df.o)
 .data          0x020529fc        0x0 d:/eda/quartus13/nios2eds/bin/gnu/h-i686-mingw32/bin/../lib/gcc/nios2-elf/4.7.3\libgcc.a(_unpack_df.o)
 .data          0x020529fc        0x0 d:/eda/quartus13/nios2eds/bin/gnu/h-i686-mingw32/bin/../lib/gcc/nios2-elf/4.7.3\libgcc.a(_fpcmp_parts_df.o)
 .data          0x020529fc        0x0 d:/eda/quartus13/nios2eds/bin/gnu/h-i686-mingw32/bin/../lib/gcc/nios2-elf/4.7.3\libgcc.a(_lshrdi3.o)
 .data          0x020529fc        0x0 d:/eda/quartus13/nios2eds/bin/gnu/h-i686-mingw32/bin/../lib/gcc/nios2-elf/4.7.3\libgcc.a(_ashldi3.o)
 .data          0x020529fc        0x0 d:/eda/quartus13/nios2eds/bin/gnu/h-i686-mingw32/bin/../lib/gcc/nios2-elf/4.7.3\libgcc.a(_pack_sf.o)
 .data          0x020529fc        0x0 F:/Qsys/qsys_webserver/qsys/software/qsys_webserver_bsp/\libucosii_bsp.a(alt_dcache_flush.o)
 .data          0x020529fc        0x0 F:/Qsys/qsys_webserver/qsys/software/qsys_webserver_bsp/\libucosii_bsp.a(alt_flash_dev.o)
 .data          0x020529fc        0x0 F:/Qsys/qsys_webserver/qsys/software/qsys_webserver_bsp/\libucosii_bsp.a(alt_fstat.o)
 .data          0x020529fc        0x0 F:/Qsys/qsys_webserver/qsys/software/qsys_webserver_bsp/\libucosii_bsp.a(alt_isatty.o)
 .data          0x020529fc        0x0 F:/Qsys/qsys_webserver/qsys/software/qsys_webserver_bsp/\libucosii_bsp.a(alt_lseek.o)
 .data          0x020529fc        0x0 F:/Qsys/qsys_webserver/qsys/software/qsys_webserver_bsp/\libucosii_bsp.a(alt_main.o)
 .data          0x020529fc        0x0 F:/Qsys/qsys_webserver/qsys/software/qsys_webserver_bsp/\libucosii_bsp.a(alt_open.o)
 .data          0x020529fc        0x0 F:/Qsys/qsys_webserver/qsys/software/qsys_webserver_bsp/\libucosii_bsp.a(alt_release_fd.o)
 .data          0x020529fc        0x0 F:/Qsys/qsys_webserver/qsys/software/qsys_webserver_bsp/\libucosii_bsp.a(alt_sbrk.o)
 .data          0x020529fc        0x0 F:/Qsys/qsys_webserver/qsys/software/qsys_webserver_bsp/\libucosii_bsp.a(alt_tick.o)
 .data          0x020529fc        0x0 F:/Qsys/qsys_webserver/qsys/software/qsys_webserver_bsp/\libucosii_bsp.a(alt_env_lock.o)
 .data          0x020529fc        0x0 F:/Qsys/qsys_webserver/qsys/software/qsys_webserver_bsp/\libucosii_bsp.a(alt_malloc_lock.o)
 .data          0x020529fc        0x0 F:/Qsys/qsys_webserver/qsys/software/qsys_webserver_bsp/\libucosii_bsp.a(os_core.o)
 .data          0x020529fc        0x0 F:/Qsys/qsys_webserver/qsys/software/qsys_webserver_bsp/\libucosii_bsp.a(os_dbg.o)
 .data          0x020529fc        0x0 F:/Qsys/qsys_webserver/qsys/software/qsys_webserver_bsp/\libucosii_bsp.a(os_flag.o)
 .data          0x020529fc        0x0 F:/Qsys/qsys_webserver/qsys/software/qsys_webserver_bsp/\libucosii_bsp.a(os_mbox.o)
 .data          0x020529fc        0x0 F:/Qsys/qsys_webserver/qsys/software/qsys_webserver_bsp/\libucosii_bsp.a(os_mem.o)
 .data          0x020529fc        0x0 F:/Qsys/qsys_webserver/qsys/software/qsys_webserver_bsp/\libucosii_bsp.a(os_q.o)
 .data          0x020529fc        0x0 F:/Qsys/qsys_webserver/qsys/software/qsys_webserver_bsp/\libucosii_bsp.a(os_sem.o)
 .data          0x020529fc        0x0 F:/Qsys/qsys_webserver/qsys/software/qsys_webserver_bsp/\libucosii_bsp.a(os_task.o)
 .data          0x020529fc        0x0 F:/Qsys/qsys_webserver/qsys/software/qsys_webserver_bsp/\libucosii_bsp.a(os_time.o)
 .data          0x020529fc     0x11c4 F:/Qsys/qsys_webserver/qsys/software/qsys_webserver_bsp/\libucosii_bsp.a(alt_sys_init.o)
 .data          0x02053bc0        0x0 F:/Qsys/qsys_webserver/qsys/software/qsys_webserver_bsp/\libucosii_bsp.a(altera_avalon_epcs_flash_controller.o)
 .data          0x02053bc0        0x0 F:/Qsys/qsys_webserver/qsys/software/qsys_webserver_bsp/\libucosii_bsp.a(altera_avalon_jtag_uart_fd.o)
 .data          0x02053bc0        0x0 F:/Qsys/qsys_webserver/qsys/software/qsys_webserver_bsp/\libucosii_bsp.a(altera_avalon_jtag_uart_init.o)
 .data          0x02053bc0        0x0 F:/Qsys/qsys_webserver/qsys/software/qsys_webserver_bsp/\libucosii_bsp.a(altera_avalon_jtag_uart_ioctl.o)
 .data          0x02053bc0        0x0 F:/Qsys/qsys_webserver/qsys/software/qsys_webserver_bsp/\libucosii_bsp.a(altera_avalon_jtag_uart_read.o)
 .data          0x02053bc0        0x0 F:/Qsys/qsys_webserver/qsys/software/qsys_webserver_bsp/\libucosii_bsp.a(altera_avalon_jtag_uart_write.o)
 .data          0x02053bc0        0x0 F:/Qsys/qsys_webserver/qsys/software/qsys_webserver_bsp/\libucosii_bsp.a(altera_avalon_sgdma.o)
 .data          0x02053bc0        0x0 F:/Qsys/qsys_webserver/qsys/software/qsys_webserver_bsp/\libucosii_bsp.a(altera_avalon_timer_sc.o)
 .data          0x02053bc0        0x0 F:/Qsys/qsys_webserver/qsys/software/qsys_webserver_bsp/\libucosii_bsp.a(altera_ro_zipfs.o)
 .data          0x02053bc0        0x0 F:/Qsys/qsys_webserver/qsys/software/qsys_webserver_bsp/\libucosii_bsp.a(epcs_commands.o)
 .data          0x02053bc0        0x0 F:/Qsys/qsys_webserver/qsys/software/qsys_webserver_bsp/\libucosii_bsp.a(ins_tse_mac.o)
 .data          0x02053bc0        0x0 F:/Qsys/qsys_webserver/qsys/software/qsys_webserver_bsp/\libucosii_bsp.a(alt_iniche_close.o)
 .data          0x02053bc0        0x0 F:/Qsys/qsys_webserver/qsys/software/qsys_webserver_bsp/\libucosii_bsp.a(alt_iniche_dev.o)
 .data          0x02053bc0        0x0 F:/Qsys/qsys_webserver/qsys/software/qsys_webserver_bsp/\libucosii_bsp.a(alt_iniche_read.o)
 .data          0x02053bc0        0x0 F:/Qsys/qsys_webserver/qsys/software/qsys_webserver_bsp/\libucosii_bsp.a(alt_iniche_write.o)
 .data          0x02053bc0        0x0 F:/Qsys/qsys_webserver/qsys/software/qsys_webserver_bsp/\libucosii_bsp.a(ipnet.o)
 .data          0x02053bc0        0x0 F:/Qsys/qsys_webserver/qsys/software/qsys_webserver_bsp/\libucosii_bsp.a(ipstart.o)
 .data          0x02053bc0        0x0 F:/Qsys/qsys_webserver/qsys/software/qsys_webserver_bsp/\libucosii_bsp.a(igmp_cmn.o)
 .data          0x02053bc0        0x0 F:/Qsys/qsys_webserver/qsys/software/qsys_webserver_bsp/\libucosii_bsp.a(bsdsock.o)
 .data          0x02053bc0        0x0 F:/Qsys/qsys_webserver/qsys/software/qsys_webserver_bsp/\libucosii_bsp.a(cksum.o)
 .data          0x02053bc0        0x0 F:/Qsys/qsys_webserver/qsys/software/qsys_webserver_bsp/\libucosii_bsp.a(in_utils.o)
 .data          0x02053bc0       0x30 F:/Qsys/qsys_webserver/qsys/software/qsys_webserver_bsp/\libucosii_bsp.a(netmain.o)
                0x02053bc0                nettasks
 .data          0x02053bf0        0x0 F:/Qsys/qsys_webserver/qsys/software/qsys_webserver_bsp/\libucosii_bsp.a(tk_crnos.o)
 .data          0x02053bf0        0x0 F:/Qsys/qsys_webserver/qsys/software/qsys_webserver_bsp/\libucosii_bsp.a(pktalloc.o)
 .data          0x02053bf0        0x0 F:/Qsys/qsys_webserver/qsys/software/qsys_webserver_bsp/\libucosii_bsp.a(q.o)
 .data          0x02053bf0        0x0 F:/Qsys/qsys_webserver/qsys/software/qsys_webserver_bsp/\libucosii_bsp.a(asm_cksum.o)
 .data          0x02053bf0        0x0 F:/Qsys/qsys_webserver/qsys/software/qsys_webserver_bsp/\libucosii_bsp.a(brdutils.o)
 .data          0x02053bf0        0x0 F:/Qsys/qsys_webserver/qsys/software/qsys_webserver_bsp/\libucosii_bsp.a(osportco.o)
 .data          0x02053bf0        0x0 F:/Qsys/qsys_webserver/qsys/software/qsys_webserver_bsp/\libucosii_bsp.a(targnios.o)
 .data          0x02053bf0       0x48 F:/Qsys/qsys_webserver/qsys/software/qsys_webserver_bsp/\libucosii_bsp.a(nptcp.o)
                0x02053bf0                tcp_protosw
                0x02053c08                udp_protosw
                0x02053c20                rawip_protosw
 .data          0x02053c38        0x0 F:/Qsys/qsys_webserver/qsys/software/qsys_webserver_bsp/\libucosii_bsp.a(rawsock.o)
 .data          0x02053c38        0x0 F:/Qsys/qsys_webserver/qsys/software/qsys_webserver_bsp/\libucosii_bsp.a(sockcall.o)
 .data          0x02053c38        0x0 F:/Qsys/qsys_webserver/qsys/software/qsys_webserver_bsp/\libucosii_bsp.a(socket.o)
 .data          0x02053c38        0x0 F:/Qsys/qsys_webserver/qsys/software/qsys_webserver_bsp/\libucosii_bsp.a(socket2.o)
 .data          0x02053c38        0x0 F:/Qsys/qsys_webserver/qsys/software/qsys_webserver_bsp/\libucosii_bsp.a(soselect.o)
 .data          0x02053c38        0x0 F:/Qsys/qsys_webserver/qsys/software/qsys_webserver_bsp/\libucosii_bsp.a(tcp_in.o)
 .data          0x02053c38        0xb F:/Qsys/qsys_webserver/qsys/software/qsys_webserver_bsp/\libucosii_bsp.a(tcp_out.o)
                0x02053c38                tcp_outflags
 .data          0x02053c43        0x0 F:/Qsys/qsys_webserver/qsys/software/qsys_webserver_bsp/\libucosii_bsp.a(tcp_subr.o)
 .data          0x02053c43        0xd F:/Qsys/qsys_webserver/qsys/software/qsys_webserver_bsp/\libucosii_bsp.a(tcp_timr.o)
                0x02053c43                tcp_backoff
 .data          0x02053c50        0x0 F:/Qsys/qsys_webserver/qsys/software/qsys_webserver_bsp/\libucosii_bsp.a(tcp_usr.o)
 .data          0x02053c50        0x0 F:/Qsys/qsys_webserver/qsys/software/qsys_webserver_bsp/\libucosii_bsp.a(tcpport.o)
 .data          0x02053c50        0x0 F:/Qsys/qsys_webserver/qsys/software/qsys_webserver_bsp/\libucosii_bsp.a(udpsock.o)
 .data          0x02053c50        0x0 F:/Qsys/qsys_webserver/qsys/software/qsys_webserver_bsp/\libucosii_bsp.a(alt_alarm_start.o)
 .data          0x02053c50        0x0 F:/Qsys/qsys_webserver/qsys/software/qsys_webserver_bsp/\libucosii_bsp.a(alt_close.o)
 .data          0x02053c50      0x1a8 F:/Qsys/qsys_webserver/qsys/software/qsys_webserver_bsp/\libucosii_bsp.a(alt_dev.o)
                0x02053c50                alt_dev_null
                0x02053c78                alt_fd_list
 .data          0x02053df8        0x0 F:/Qsys/qsys_webserver/qsys/software/qsys_webserver_bsp/\libucosii_bsp.a(alt_dev_llist_insert.o)
 .data          0x02053df8        0x0 F:/Qsys/qsys_webserver/qsys/software/qsys_webserver_bsp/\libucosii_bsp.a(alt_do_ctors.o)
 .data          0x02053df8        0x0 F:/Qsys/qsys_webserver/qsys/software/qsys_webserver_bsp/\libucosii_bsp.a(alt_do_dtors.o)
 .data          0x02053df8        0x0 F:/Qsys/qsys_webserver/qsys/software/qsys_webserver_bsp/\libucosii_bsp.a(alt_errno.o)
 .data          0x02053df8        0x0 F:/Qsys/qsys_webserver/qsys/software/qsys_webserver_bsp/\libucosii_bsp.a(alt_find_dev.o)
 .data          0x02053df8        0x0 F:/Qsys/qsys_webserver/qsys/software/qsys_webserver_bsp/\libucosii_bsp.a(alt_find_file.o)
 .data          0x02053df8        0x0 F:/Qsys/qsys_webserver/qsys/software/qsys_webserver_bsp/\libucosii_bsp.a(alt_fs_reg.o)
 .data          0x02053df8        0x0 F:/Qsys/qsys_webserver/qsys/software/qsys_webserver_bsp/\libucosii_bsp.a(alt_get_fd.o)
 .data          0x02053df8        0x0 F:/Qsys/qsys_webserver/qsys/software/qsys_webserver_bsp/\libucosii_bsp.a(alt_iic.o)
 .data          0x02053df8        0x0 F:/Qsys/qsys_webserver/qsys/software/qsys_webserver_bsp/\libucosii_bsp.a(alt_iic_isr_register.o)
 .data          0x02053df8        0x0 F:/Qsys/qsys_webserver/qsys/software/qsys_webserver_bsp/\libucosii_bsp.a(alt_io_redirect.o)
 .data          0x02053df8        0x0 F:/Qsys/qsys_webserver/qsys/software/qsys_webserver_bsp/\libucosii_bsp.a(alt_irq_entry.o)
 .data          0x02053df8        0x0 F:/Qsys/qsys_webserver/qsys/software/qsys_webserver_bsp/\libucosii_bsp.a(alt_irq_handler.o)
 .data          0x02053df8        0x0 F:/Qsys/qsys_webserver/qsys/software/qsys_webserver_bsp/\libucosii_bsp.a(alt_irq_vars.o)
 .data          0x02053df8        0x0 F:/Qsys/qsys_webserver/qsys/software/qsys_webserver_bsp/\libucosii_bsp.a(alt_read.o)
 .data          0x02053df8        0x0 F:/Qsys/qsys_webserver/qsys/software/qsys_webserver_bsp/\libucosii_bsp.a(alt_remap_cached.o)
 .data          0x02053df8        0x0 F:/Qsys/qsys_webserver/qsys/software/qsys_webserver_bsp/\libucosii_bsp.a(alt_remap_uncached.o)
 .data          0x02053df8        0x0 F:/Qsys/qsys_webserver/qsys/software/qsys_webserver_bsp/\libucosii_bsp.a(alt_uncached_malloc.o)
 .data          0x02053df8        0x0 F:/Qsys/qsys_webserver/qsys/software/qsys_webserver_bsp/\libucosii_bsp.a(alt_write.o)
 .data          0x02053df8        0x0 F:/Qsys/qsys_webserver/qsys/software/qsys_webserver_bsp/\libucosii_bsp.a(altera_nios2_qsys_irq.o)
 .data          0x02053df8        0x0 F:/Qsys/qsys_webserver/qsys/software/qsys_webserver_bsp/\libucosii_bsp.a(os_cpu_a.o)
 .data          0x02053df8        0x0 F:/Qsys/qsys_webserver/qsys/software/qsys_webserver_bsp/\libucosii_bsp.a(os_cpu_c.o)
 .data          0x02053df8        0x0 F:/Qsys/qsys_webserver/qsys/software/qsys_webserver_bsp/\libucosii_bsp.a(altera_avalon_spi.o)
 .data          0x02053df8        0x0 F:/Qsys/qsys_webserver/qsys/software/qsys_webserver_bsp/\libucosii_bsp.a(altera_avalon_tse.o)
 .data          0x02053df8      0x120 F:/Qsys/qsys_webserver/qsys/software/qsys_webserver_bsp/\libucosii_bsp.a(altera_avalon_tse_system_info.o)
                0x02053df8                tse_mac_device
 .data          0x02053f18       0x18 F:/Qsys/qsys_webserver/qsys/software/qsys_webserver_bsp/\libucosii_bsp.a(allports.o)
                0x02053f18                icmpdu_types
 .data          0x02053f30        0x0 F:/Qsys/qsys_webserver/qsys/software/qsys_webserver_bsp/\libucosii_bsp.a(timeouts.o)
 .data          0x02053f30        0x0 F:/Qsys/qsys_webserver/qsys/software/qsys_webserver_bsp/\libucosii_bsp.a(tk_misc.o)
 .data          0x02053f30        0x0 F:/Qsys/qsys_webserver/qsys/software/qsys_webserver_bsp/\libucosii_bsp.a(alt_iniche_fcntl.o)
 .data          0x02053f30        0x0 F:/Qsys/qsys_webserver/qsys/software/qsys_webserver_bsp/\libucosii_bsp.a(et_arp.o)
 .data          0x02053f30        0x0 F:/Qsys/qsys_webserver/qsys/software/qsys_webserver_bsp/\libucosii_bsp.a(iface.o)
 .data          0x02053f30        0x0 F:/Qsys/qsys_webserver/qsys/software/qsys_webserver_bsp/\libucosii_bsp.a(ip.o)
 .data          0x02053f30        0x0 F:/Qsys/qsys_webserver/qsys/software/qsys_webserver_bsp/\libucosii_bsp.a(ip_reasm.o)
 .data          0x02053f30        0x0 F:/Qsys/qsys_webserver/qsys/software/qsys_webserver_bsp/\libucosii_bsp.a(ipdemux.o)
 .data          0x02053f30        0x0 F:/Qsys/qsys_webserver/qsys/software/qsys_webserver_bsp/\libucosii_bsp.a(ipmc.o)
 .data          0x02053f30        0x0 F:/Qsys/qsys_webserver/qsys/software/qsys_webserver_bsp/\libucosii_bsp.a(ipport.o)
 .data          0x02053f30        0x0 F:/Qsys/qsys_webserver/qsys/software/qsys_webserver_bsp/\libucosii_bsp.a(ipraw.o)
 .data          0x02053f30        0x9 F:/Qsys/qsys_webserver/qsys/software/qsys_webserver_bsp/\libucosii_bsp.a(iproute.o)
                0x02053f30                rtp_priority
 .data          0x02053f39        0x0 F:/Qsys/qsys_webserver/qsys/software/qsys_webserver_bsp/\libucosii_bsp.a(udp.o)
 .data          0x02053f39        0x0 F:/Qsys/qsys_webserver/qsys/software/qsys_webserver_bsp/\libucosii_bsp.a(igmp.o)
 .data          0x02053f39        0x0 F:/Qsys/qsys_webserver/qsys/software/qsys_webserver_bsp/\libucosii_bsp.a(igmp2.o)
 .data          0x02053f39        0x0 F:/Qsys/qsys_webserver/qsys/software/qsys_webserver_bsp/\libucosii_bsp.a(ipopt.o)
 .data          0x02053f39        0x0 F:/Qsys/qsys_webserver/qsys/software/qsys_webserver_bsp/\libucosii_bsp.a(u_mctest.o)
 *fill*         0x02053f39        0x3 
 .data          0x02053f3c       0xd4 F:/Qsys/qsys_webserver/qsys/software/qsys_webserver_bsp/\libucosii_bsp.a(memdev.o)
                0x02053f3c                mdio
                0x02053f60                mdlist
 .data          0x02054010        0x0 F:/Qsys/qsys_webserver/qsys/software/qsys_webserver_bsp/\libucosii_bsp.a(parseip.o)
 .data          0x02054010        0x0 F:/Qsys/qsys_webserver/qsys/software/qsys_webserver_bsp/\libucosii_bsp.a(tcpcksum.o)
 .data          0x02054010        0x0 F:/Qsys/qsys_webserver/qsys/software/qsys_webserver_bsp/\libucosii_bsp.a(udp_open.o)
 .data          0x02054010        0x0 F:/Qsys/qsys_webserver/qsys/software/qsys_webserver_bsp/\libucosii_bsp.a(in_pcb.o)
 .data          0x02054010       0x80 F:/Qsys/qsys_webserver/qsys/software/qsys_webserver_bsp/\libucosii_bsp.a(vfsfiles.o)
                0x02054010                vfs_root_path
 .data          0x02054090        0x0 F:/Qsys/qsys_webserver/qsys/software/qsys_webserver_bsp/\libucosii_bsp.a(vfsport.o)
 .data          0x02054090        0x0 F:/Qsys/qsys_webserver/qsys/software/qsys_webserver_bsp/\libucosii_bsp.a(alt_exception_entry.o)
 .data          0x02054090        0x0 F:/Qsys/qsys_webserver/qsys/software/qsys_webserver_bsp/\libucosii_bsp.a(alt_fcntl.o)
 .data          0x02054090        0x0 F:/Qsys/qsys_webserver/qsys/software/qsys_webserver_bsp/\libucosii_bsp.a(alt_usleep.o)
 .data          0x02054090       0x18 F:/Qsys/qsys_webserver/qsys/software/qsys_webserver_bsp/\libucosii_bsp.a(icmp.o)
 .data          0x020540a8        0x0 F:/Qsys/qsys_webserver/qsys/software/qsys_webserver_bsp/\libucosii_bsp.a(alt_busy_sleep.o)
 .data          0x020540a8        0x0 d:/eda/quartus13/nios2eds/bin/gnu/h-i686-mingw32/bin/../lib/gcc/nios2-elf/4.7.3/../../../../../H-i686-mingw32/nios2-elf/lib\libc.a(lib_a-atexit.o)
 .data          0x020540a8        0x0 d:/eda/quartus13/nios2eds/bin/gnu/h-i686-mingw32/bin/../lib/gcc/nios2-elf/4.7.3/../../../../../H-i686-mingw32/nios2-elf/lib\libc.a(lib_a-calloc.o)
 .data          0x020540a8        0x0 d:/eda/quartus13/nios2eds/bin/gnu/h-i686-mingw32/bin/../lib/gcc/nios2-elf/4.7.3/../../../../../H-i686-mingw32/nios2-elf/lib\libc.a(lib_a-exit.o)
 .data          0x020540a8        0x0 d:/eda/quartus13/nios2eds/bin/gnu/h-i686-mingw32/bin/../lib/gcc/nios2-elf/4.7.3/../../../../../H-i686-mingw32/nios2-elf/lib\libc.a(lib_a-malloc.o)
 .data          0x020540a8        0x0 d:/eda/quartus13/nios2eds/bin/gnu/h-i686-mingw32/bin/../lib/gcc/nios2-elf/4.7.3/../../../../../H-i686-mingw32/nios2-elf/lib\libc.a(lib_a-vprintf.o)
 .data          0x020540a8        0x0 d:/eda/quartus13/nios2eds/bin/gnu/h-i686-mingw32/bin/../lib/gcc/nios2-elf/4.7.3/../../../../../H-i686-mingw32/nios2-elf/lib\libc.a(lib_a-vsprintf.o)
 .data          0x020540a8        0x0 d:/eda/quartus13/nios2eds/bin/gnu/h-i686-mingw32/bin/../lib/gcc/nios2-elf/4.7.3/../../../../../H-i686-mingw32/nios2-elf/lib\libc.a(lib_a-__atexit.o)
 .data          0x020540a8        0x0 d:/eda/quartus13/nios2eds/bin/gnu/h-i686-mingw32/bin/../lib/gcc/nios2-elf/4.7.3/../../../../../H-i686-mingw32/nios2-elf/lib\libc.a(lib_a-__call_atexit.o)
 .data          0x020540a8        0x0 F:/Qsys/qsys_webserver/qsys/software/qsys_webserver_bsp/\libucosii_bsp.a(alt_exit.o)
                0x0205c0a8                _gp = ABSOLUTE ((. + 0x8000))
                0x0205c0a8                PROVIDE (gp, _gp)
 *(.rwdata .rwdata.*)
 *(.sdata .sdata.* .gnu.linkonce.s.*)
 .sdata         0x020540a8       0x28 obj/default/http.o
                0x020540a8                mapping
                0x020540b0                sweep_field
                0x020540b8                lcd_field
                0x020540c0                upload_field
                0x020540c8                flash_field
 .sdata         0x020540d0        0x4 d:/eda/quartus13/nios2eds/bin/gnu/h-i686-mingw32/bin/../lib/gcc/nios2-elf/4.7.3/../../../../../H-i686-mingw32/nios2-elf/lib\libc.a(lib_a-ctype_.o)
                0x020540d0                __ctype_ptr
 .sdata         0x020540d4        0x8 d:/eda/quartus13/nios2eds/bin/gnu/h-i686-mingw32/bin/../lib/gcc/nios2-elf/4.7.3/../../../../../H-i686-mingw32/nios2-elf/lib\libc.a(lib_a-impure.o)
                0x020540d4                _global_impure_ptr
                0x020540d8                _impure_ptr
 .sdata         0x020540dc        0x8 d:/eda/quartus13/nios2eds/bin/gnu/h-i686-mingw32/bin/../lib/gcc/nios2-elf/4.7.3/../../../../../H-i686-mingw32/nios2-elf/lib\libc.a(lib_a-mallocr.o)
                0x020540dc                __malloc_sbrk_base
                0x020540e0                __malloc_trim_threshold
 .sdata         0x020540e4        0x4 d:/eda/quartus13/nios2eds/bin/gnu/h-i686-mingw32/bin/../lib/gcc/nios2-elf/4.7.3/../../../../../H-i686-mingw32/nios2-elf/lib\libc.a(lib_a-locale.o)
                0x020540e4                __mb_cur_max
 .sdata         0x020540e8        0x8 F:/Qsys/qsys_webserver/qsys/software/qsys_webserver_bsp/\libucosii_bsp.a(alt_flash_dev.o)
                0x020540e8                alt_flash_dev_list
 .sdata         0x020540f0        0x4 F:/Qsys/qsys_webserver/qsys/software/qsys_webserver_bsp/\libucosii_bsp.a(alt_sbrk.o)
 .sdata         0x020540f4        0x8 F:/Qsys/qsys_webserver/qsys/software/qsys_webserver_bsp/\libucosii_bsp.a(alt_tick.o)
                0x020540f4                alt_alarm_list
 .sdata         0x020540fc        0x4 F:/Qsys/qsys_webserver/qsys/software/qsys_webserver_bsp/\libucosii_bsp.a(alt_env_lock.o)
 .sdata         0x02054100        0x4 F:/Qsys/qsys_webserver/qsys/software/qsys_webserver_bsp/\libucosii_bsp.a(alt_malloc_lock.o)
 .sdata         0x02054104       0x74 F:/Qsys/qsys_webserver/qsys/software/qsys_webserver_bsp/\libucosii_bsp.a(os_dbg.o)
                0x02054104                OSDebugEn
                0x02054108                OSEndiannessTest
                0x0205410c                OSEventEn
                0x0205410e                OSEventMax
                0x02054110                OSEventNameSize
                0x02054112                OSEventSize
                0x02054114                OSEventTblSize
                0x02054116                OSEventMultiEn
                0x02054118                OSFlagEn
                0x0205411a                OSFlagGrpSize
                0x0205411c                OSFlagNodeSize
                0x0205411e                OSFlagWidth
                0x02054120                OSFlagMax
                0x02054122                OSFlagNameSize
                0x02054124                OSLowestPrio
                0x02054126                OSMboxEn
                0x02054128                OSMemEn
                0x0205412a                OSMemMax
                0x0205412c                OSMemNameSize
                0x0205412e                OSMemSize
                0x02054130                OSMemTblSize
                0x02054132                OSMutexEn
                0x02054134                OSPtrSize
                0x02054136                OSQEn
                0x02054138                OSQMax
                0x0205413a                OSQSize
                0x0205413c                OSRdyTblSize
                0x0205413e                OSSemEn
                0x02054140                OSStkWidth
                0x02054142                OSTaskCreateEn
                0x02054144                OSTaskCreateExtEn
                0x02054146                OSTaskDelEn
                0x02054148                OSTaskIdleStkSize
                0x0205414a                OSTaskProfileEn
                0x0205414c                OSTaskMax
                0x0205414e                OSTaskNameSize
                0x02054150                OSTaskStatEn
                0x02054152                OSTaskStatStkSize
                0x02054154                OSTaskStatStkChkEn
                0x02054156                OSTaskSwHookEn
                0x02054158                OSTCBPrioTblMax
                0x0205415a                OSTCBSize
                0x0205415c                OSTicksPerSec
                0x0205415e                OSTimeTickHookEn
                0x02054160                OSVersionNbr
                0x02054162                OSTmrEn
                0x02054164                OSTmrCfgMax
                0x02054166                OSTmrCfgNameSize
                0x02054168                OSTmrCfgWheelSize
                0x0205416a                OSTmrCfgTicksPerSec
                0x0205416c                OSTmrSize
                0x0205416e                OSTmrTblSize
                0x02054170                OSTmrWheelSize
                0x02054172                OSTmrWheelTblSize
                0x02054174                OSDataSize
 .sdata         0x02054178        0x4 F:/Qsys/qsys_webserver/qsys/software/qsys_webserver_bsp/\libucosii_bsp.a(alt_sys_init.o)
                0x02054178                tse_mac_name
 .sdata         0x0205417c        0x8 F:/Qsys/qsys_webserver/qsys/software/qsys_webserver_bsp/\libucosii_bsp.a(altera_avalon_sgdma.o)
                0x0205417c                alt_sgdma_list
 .sdata         0x02054184        0x8 F:/Qsys/qsys_webserver/qsys/software/qsys_webserver_bsp/\libucosii_bsp.a(alt_iniche_dev.o)
                0x02054184                alt_iniche_dev_list
 .sdata         0x0205418c        0x4 F:/Qsys/qsys_webserver/qsys/software/qsys_webserver_bsp/\libucosii_bsp.a(ipstart.o)
                0x0205418c                ipmcfail_str
 .sdata         0x02054190        0x4 F:/Qsys/qsys_webserver/qsys/software/qsys_webserver_bsp/\libucosii_bsp.a(cksum.o)
 .sdata         0x02054194        0x4 F:/Qsys/qsys_webserver/qsys/software/qsys_webserver_bsp/\libucosii_bsp.a(netmain.o)
                0x02054194                num_net_tasks
 .sdata         0x02054198       0x10 F:/Qsys/qsys_webserver/qsys/software/qsys_webserver_bsp/\libucosii_bsp.a(pktalloc.o)
                0x02054198                lilbufs
                0x0205419c                lilbufsiz
                0x020541a0                bigbufs
                0x020541a4                bigbufsiz
 .sdata         0x020541a8        0x4 F:/Qsys/qsys_webserver/qsys/software/qsys_webserver_bsp/\libucosii_bsp.a(brdutils.o)
                0x020541a8                kb_last
 .sdata         0x020541ac        0x4 F:/Qsys/qsys_webserver/qsys/software/qsys_webserver_bsp/\libucosii_bsp.a(nptcp.o)
                0x020541ac                TCPTV_MSL
 .sdata         0x020541b0        0x2 F:/Qsys/qsys_webserver/qsys/software/qsys_webserver_bsp/\libucosii_bsp.a(socket.o)
                0x020541b0                socket_defaults
 .sdata         0x020541b2        0x1 F:/Qsys/qsys_webserver/qsys/software/qsys_webserver_bsp/\libucosii_bsp.a(tcp_in.o)
                0x020541b2                tcprexmtthresh
 *fill*         0x020541b3        0x1 
 .sdata         0x020541b4        0x4 F:/Qsys/qsys_webserver/qsys/software/qsys_webserver_bsp/\libucosii_bsp.a(tcp_subr.o)
                0x020541b4                tcp_ttl
 .sdata         0x020541b8        0x8 F:/Qsys/qsys_webserver/qsys/software/qsys_webserver_bsp/\libucosii_bsp.a(tcp_timr.o)
                0x020541b8                tcp_keepidle
                0x020541bc                tcp_keepintvl
 .sdata         0x020541c0        0x8 F:/Qsys/qsys_webserver/qsys/software/qsys_webserver_bsp/\libucosii_bsp.a(tcp_usr.o)
                0x020541c0                tcp_sendspace
                0x020541c4                tcp_recvspace
 .sdata         0x020541c8       0x14 F:/Qsys/qsys_webserver/qsys/software/qsys_webserver_bsp/\libucosii_bsp.a(alt_dev.o)
                0x020541c8                alt_fs_list
                0x020541d0                alt_dev_list
                0x020541d8                alt_max_fd
 .sdata         0x020541dc        0x4 F:/Qsys/qsys_webserver/qsys/software/qsys_webserver_bsp/\libucosii_bsp.a(alt_errno.o)
                0x020541dc                alt_errno
 .sdata         0x020541e0        0x4 F:/Qsys/qsys_webserver/qsys/software/qsys_webserver_bsp/\libucosii_bsp.a(alt_irq_vars.o)
                0x020541e0                alt_priority_mask
 .sdata         0x020541e4        0x1 F:/Qsys/qsys_webserver/qsys/software/qsys_webserver_bsp/\libucosii_bsp.a(altera_avalon_tse.o)
                0x020541e4                max_mac_system
 *fill*         0x020541e5        0x3 
 .sdata         0x020541e8       0x10 F:/Qsys/qsys_webserver/qsys/software/qsys_webserver_bsp/\libucosii_bsp.a(allports.o)
                0x020541e8                name
                0x020541ec                prompt
                0x020541f0                pingdelay
                0x020541f4                deflength
 .sdata         0x020541f8        0x4 F:/Qsys/qsys_webserver/qsys/software/qsys_webserver_bsp/\libucosii_bsp.a(et_arp.o)
                0x020541f8                arp_ageout
 .sdata         0x020541fc        0x8 F:/Qsys/qsys_webserver/qsys/software/qsys_webserver_bsp/\libucosii_bsp.a(ip.o)
                0x02054200                ipRoutes
 .sdata         0x02054204        0x4 F:/Qsys/qsys_webserver/qsys/software/qsys_webserver_bsp/\libucosii_bsp.a(u_mctest.o)
 .sdata         0x02054208        0x4 F:/Qsys/qsys_webserver/qsys/software/qsys_webserver_bsp/\libucosii_bsp.a(memdev.o)
                0x02054208                mdlist_size
 .sdata         0x0205420c        0x4 F:/Qsys/qsys_webserver/qsys/software/qsys_webserver_bsp/\libucosii_bsp.a(parseip.o)
                0x0205420c                pton_error
 .sdata         0x02054210        0x4 F:/Qsys/qsys_webserver/qsys/software/qsys_webserver_bsp/\libucosii_bsp.a(vfsfiles.o)
                0x02054210                http_root_path
 *(.sdata2 .sdata2.* .gnu.linkonce.s2.*)
                0x02054214                . = ALIGN (0x4)
                0x02054214                _edata = ABSOLUTE (.)
                0x02054214                PROVIDE (edata, ABSOLUTE (.))
                0x02054214                PROVIDE (__ram_rwdata_end, ABSOLUTE (.))
                0x020521a8                PROVIDE (__flash_rwdata_start, LOADADDR (.rwdata))

.bss            0x02054214   0x5e9fa8
                0x02054214                __bss_start = ABSOLUTE (.)
                0x02054214                PROVIDE (__sbss_start, ABSOLUTE (.))
                0x02054214                PROVIDE (___sbss_start, ABSOLUTE (.))
 *(.dynsbss)
 *(.sbss .sbss.* .gnu.linkonce.sb.*)
 .sbss          0x02054214        0x8 obj/default/network_utilities.o
                0x02054214                last_flash_sector_offset
                0x02054218                last_flash_sector
 .sbss          0x0205421c        0x8 obj/default/srec_flash.o
                0x0205421c                line_count
                0x02054220                current_flash_block
 .sbss          0x02054224        0x5 obj/default/web_server.o
                0x02054224                board_control_mbox
                0x02054228                to_wstask
 *fill*         0x02054229        0x3 
 .sbss          0x0205422c        0x4 d:/eda/quartus13/nios2eds/bin/gnu/h-i686-mingw32/bin/../lib/gcc/nios2-elf/4.7.3/../../../../../H-i686-mingw32/nios2-elf/lib\libc.a(lib_a-int_errno.o)
                0x0205422c                errno
 .sbss          0x02054230        0xc d:/eda/quartus13/nios2eds/bin/gnu/h-i686-mingw32/bin/../lib/gcc/nios2-elf/4.7.3/../../../../../H-i686-mingw32/nios2-elf/lib\libc.a(lib_a-mallocr.o)
                0x02054230                __malloc_max_total_mem
                0x02054234                __malloc_max_sbrked_mem
                0x02054238                __malloc_top_pad
 .sbss          0x0205423c        0xc d:/eda/quartus13/nios2eds/bin/gnu/h-i686-mingw32/bin/../lib/gcc/nios2-elf/4.7.3/../../../../../H-i686-mingw32/nios2-elf/lib\libc.a(lib_a-locale.o)
                0x0205423c                _PathLocale
                0x02054240                __mlocale_changed
                0x02054244                __nlocale_changed
 .sbss          0x02054248        0xc F:/Qsys/qsys_webserver/qsys/software/qsys_webserver_bsp/\libucosii_bsp.a(alt_main.o)
                0x02054248                alt_argc
                0x0205424c                alt_argv
                0x02054250                alt_envp
 .sbss          0x02054254        0x8 F:/Qsys/qsys_webserver/qsys/software/qsys_webserver_bsp/\libucosii_bsp.a(alt_tick.o)
                0x02054254                _alt_tick_rate
                0x02054258                _alt_nticks
 .sbss          0x0205425c        0x8 F:/Qsys/qsys_webserver/qsys/software/qsys_webserver_bsp/\libucosii_bsp.a(alt_env_lock.o)
                0x02054260                alt_envsem
 .sbss          0x02054264        0x8 F:/Qsys/qsys_webserver/qsys/software/qsys_webserver_bsp/\libucosii_bsp.a(alt_malloc_lock.o)
                0x02054268                alt_heapsem
 .sbss          0x0205426c       0x50 F:/Qsys/qsys_webserver/qsys/software/qsys_webserver_bsp/\libucosii_bsp.a(os_core.o)
                0x0205426c                OSLockNesting
                0x0205426d                OSRunning
                0x02054270                OSIdleCtr
                0x02054274                OSPrioHighRdy
                0x02054275                OSPrioCur
                0x02054278                OSTCBList
                0x0205427c                OSTickStepState
                0x02054280                OSCtxSwCtr
                0x02054284                OSIdleCtrMax
                0x02054288                OSTCBFreeList
                0x0205428c                OSCPUUsage
                0x0205428d                OSTaskCtr
                0x02054290                OSMemFreeList
                0x02054294                OSTCBHighRdy
                0x02054298                OSQFreeList
                0x0205429c                OSRdyGrp
                0x0205429d                OSRdyTbl
                0x020542a0                OSEventFreeList
                0x020542a4                OSIntNesting
                0x020542a8                OSTCBCur
                0x020542ac                OSTime
                0x020542b0                OSFlagFreeList
                0x020542b4                OSStatRdy
                0x020542b8                OSIdleCtrRun
 .sbss          0x020542bc        0x1 F:/Qsys/qsys_webserver/qsys/software/qsys_webserver_bsp/\libucosii_bsp.a(ins_tse_mac.o)
                0x020542bc                number_of_tse_mac
 *fill*         0x020542bd        0x3 
 .sbss          0x020542c0        0xc F:/Qsys/qsys_webserver/qsys/software/qsys_webserver_bsp/\libucosii_bsp.a(ipnet.o)
                0x020542c0                MaxLnh
                0x020542c4                MaxMtu
                0x020542c8                NDEBUG
 .sbss          0x020542cc        0x8 F:/Qsys/qsys_webserver/qsys/software/qsys_webserver_bsp/\libucosii_bsp.a(ipstart.o)
                0x020542cc                ifNumber
 .sbss          0x020542d4       0x10 F:/Qsys/qsys_webserver/qsys/software/qsys_webserver_bsp/\libucosii_bsp.a(igmp_cmn.o)
                0x020542d4                igmp_timers_are_running
                0x020542d8                igmp_cticks
                0x020542dc                igmp_all_hosts_group
                0x020542e0                igmp_all_rtrs_group
 .sbss          0x020542e4        0xe F:/Qsys/qsys_webserver/qsys/software/qsys_webserver_bsp/\libucosii_bsp.a(netmain.o)
                0x020542e4                netmain_wakes
                0x020542e8                nettick_wakes
                0x020542ec                iniche_net_ready
                0x020542f0                to_netmain
                0x020542f1                to_nettick
 *fill*         0x020542f2        0x2 
 .sbss          0x020542f4        0x4 F:/Qsys/qsys_webserver/qsys/software/qsys_webserver_bsp/\libucosii_bsp.a(tk_crnos.o)
                0x020542f4                tcp_sleep_timeout
 .sbss          0x020542f8       0x18 F:/Qsys/qsys_webserver/qsys/software/qsys_webserver_bsp/\libucosii_bsp.a(brdutils.o)
                0x020542f8                cticks_initialized
                0x020542fc                irq_level
                0x02054308                cticks_factor
                0x0205430c                OS_TPS
 .sbss          0x02054310       0x18 F:/Qsys/qsys_webserver/qsys/software/qsys_webserver_bsp/\libucosii_bsp.a(osportco.o)
                0x02054310                tcp_sleep_count
                0x02054314                tcp_wakeup_count
                0x02054318                netq_intmask
                0x0205431c                old_mode
                0x02054320                global_TCPwakeup_setIndx
                0x02054324                cticks
 .sbss          0x02054328        0xc F:/Qsys/qsys_webserver/qsys/software/qsys_webserver_bsp/\libucosii_bsp.a(targnios.o)
                0x02054328                memtrapsize
                0x0205432c                mheap_sem_ptr
                0x02054330                rcvdq_sem_ptr
 .sbss          0x02054334       0x12 F:/Qsys/qsys_webserver/qsys/software/qsys_webserver_bsp/\libucosii_bsp.a(nptcp.o)
                0x02054334                nextslow
                0x0205433c                mbstat
                0x02054344                select_wait
 *fill*         0x02054346        0x2 
 .sbss          0x02054348        0x8 F:/Qsys/qsys_webserver/qsys/software/qsys_webserver_bsp/\libucosii_bsp.a(tcp_in.o)
                0x02054348                tcpprintfs
                0x0205434c                dropline
 .sbss          0x02054350        0x4 F:/Qsys/qsys_webserver/qsys/software/qsys_webserver_bsp/\libucosii_bsp.a(tcp_out.o)
                0x02054350                tcp_optionbuf
 .sbss          0x02054354        0x8 F:/Qsys/qsys_webserver/qsys/software/qsys_webserver_bsp/\libucosii_bsp.a(tcp_timr.o)
                0x02054354                tcp_maxidle
                0x02054358                tcp_iss
 .sbss          0x0205435c        0x4 F:/Qsys/qsys_webserver/qsys/software/qsys_webserver_bsp/\libucosii_bsp.a(alt_dev.o)
                0x0205435c                alt_fd_list_lock
 .sbss          0x02054360        0x4 F:/Qsys/qsys_webserver/qsys/software/qsys_webserver_bsp/\libucosii_bsp.a(alt_irq_vars.o)
                0x02054360                alt_irq_active
 .sbss          0x02054364        0x4 F:/Qsys/qsys_webserver/qsys/software/qsys_webserver_bsp/\libucosii_bsp.a(altera_avalon_tse.o)
                0x02054364                phy_profile_count
                0x02054365                mac_group_count
 .sbss          0x02054368        0x8 F:/Qsys/qsys_webserver/qsys/software/qsys_webserver_bsp/\libucosii_bsp.a(allports.o)
                0x02054368                activehost
 .sbss          0x02054370        0xc F:/Qsys/qsys_webserver/qsys/software/qsys_webserver_bsp/\libucosii_bsp.a(timeouts.o)
                0x02054370                nextppp
                0x02054374                port_1s_callout
 .sbss          0x0205437c       0x1c F:/Qsys/qsys_webserver/qsys/software/qsys_webserver_bsp/\libucosii_bsp.a(et_arp.o)
                0x02054380                arpcache
                0x02054388                arpReqsIn
                0x0205438c                arpReqsOut
                0x02054390                arpRepsIn
                0x02054394                arpRepsOut
 .sbss          0x02054398        0x4 F:/Qsys/qsys_webserver/qsys/software/qsys_webserver_bsp/\libucosii_bsp.a(ip.o)
                0x02054398                rt_mib
 .sbss          0x0205439c        0xc F:/Qsys/qsys_webserver/qsys/software/qsys_webserver_bsp/\libucosii_bsp.a(ip_reasm.o)
                0x0205439c                ipr_curr_mem
                0x020543a0                h_ireq
                0x020543a4                ire_cticks
 .sbss          0x020543a8       0x11 F:/Qsys/qsys_webserver/qsys/software/qsys_webserver_bsp/\libucosii_bsp.a(ipport.o)
                0x020543a8                port_prep
                0x020543ac                net_system_exit
                0x020543b0                so_evtmap_create
                0x020543b4                so_evtmap_delete
                0x020543b8                so_evtmap
 *fill*         0x020543b9        0x3 
 .sbss          0x020543bc        0x4 F:/Qsys/qsys_webserver/qsys/software/qsys_webserver_bsp/\libucosii_bsp.a(ipraw.o)
                0x020543bc                ipraw_eps
 .sbss          0x020543c0        0x4 F:/Qsys/qsys_webserver/qsys/software/qsys_webserver_bsp/\libucosii_bsp.a(iproute.o)
                0x020543c0                cachedRoute
 .sbss          0x020543c4        0x2 F:/Qsys/qsys_webserver/qsys/software/qsys_webserver_bsp/\libucosii_bsp.a(udp.o)
 *fill*         0x020543c6        0x2 
 .sbss          0x020543c8        0x4 F:/Qsys/qsys_webserver/qsys/software/qsys_webserver_bsp/\libucosii_bsp.a(udp_open.o)
                0x020543c8                firstudp
 .sbss          0x020543cc        0x8 F:/Qsys/qsys_webserver/qsys/software/qsys_webserver_bsp/\libucosii_bsp.a(in_pcb.o)
                0x020543cc                inpcb_cachehits
                0x020543d0                inpcb_cachemiss
 .sbss          0x020543d4       0x20 F:/Qsys/qsys_webserver/qsys/software/qsys_webserver_bsp/\libucosii_bsp.a(vfsfiles.o)
                0x020543d4                vfsystems
                0x020543d8                vfiles
                0x020543dc                vfsfiles
                0x020543e0                vfopen_error
                0x020543e4                vfs_dir_stale
                0x020543e8                vfs_open_files
                0x020543ec                vfs_total_rw_space
                0x020543f0                vfs_total_dyna_files
 .sbss          0x020543f4        0x4 F:/Qsys/qsys_webserver/qsys/software/qsys_webserver_bsp/\libucosii_bsp.a(icmp.o)
                0x020543f4                icmpdu_hook
 *(.sbss2 .sbss2.* .gnu.linkonce.sb2.*)
 *(.scommon)
                0x020543f8                PROVIDE (__sbss_end, ABSOLUTE (.))
                0x020543f8                PROVIDE (___sbss_end, ABSOLUTE (.))
 *(.dynbss)
 *(.bss .bss.* .gnu.linkonce.b.*)
 .bss           0x020543f8        0x0 F:/Qsys/qsys_webserver/qsys/software/qsys_webserver_bsp//obj/HAL/src/crt0.o
 .bss           0x020543f8        0x0 obj/default/alt_error_handler.o
 .bss           0x020543f8     0xcb10 obj/default/http.o
 .bss           0x02060f08        0x0 obj/default/network_utilities.o
 .bss           0x02060f08        0x0 obj/default/srec_flash.o
 .bss           0x02060f08        0x0 obj/default/web_server.o
 .bss           0x02060f08        0x0 d:/eda/quartus13/nios2eds/bin/gnu/h-i686-mingw32/bin/../lib/gcc/nios2-elf/4.7.3/../../../../../H-i686-mingw32/nios2-elf/lib\libc.a(lib_a-atoi.o)
 .bss           0x02060f08        0x0 d:/eda/quartus13/nios2eds/bin/gnu/h-i686-mingw32/bin/../lib/gcc/nios2-elf/4.7.3/../../../../../H-i686-mingw32/nios2-elf/lib\libc.a(lib_a-ctype_.o)
 .bss           0x02060f08        0x0 d:/eda/quartus13/nios2eds/bin/gnu/h-i686-mingw32/bin/../lib/gcc/nios2-elf/4.7.3/../../../../../H-i686-mingw32/nios2-elf/lib\libc.a(lib_a-fclose.o)
 .bss           0x02060f08        0x0 d:/eda/quartus13/nios2eds/bin/gnu/h-i686-mingw32/bin/../lib/gcc/nios2-elf/4.7.3/../../../../../H-i686-mingw32/nios2-elf/lib\libc.a(lib_a-fflush.o)
 .bss           0x02060f08        0x0 d:/eda/quartus13/nios2eds/bin/gnu/h-i686-mingw32/bin/../lib/gcc/nios2-elf/4.7.3/../../../../../H-i686-mingw32/nios2-elf/lib\libc.a(lib_a-fgetpos.o)
 .bss           0x02060f08        0x0 d:/eda/quartus13/nios2eds/bin/gnu/h-i686-mingw32/bin/../lib/gcc/nios2-elf/4.7.3/../../../../../H-i686-mingw32/nios2-elf/lib\libc.a(lib_a-findfp.o)
 .bss           0x02060f08        0x0 d:/eda/quartus13/nios2eds/bin/gnu/h-i686-mingw32/bin/../lib/gcc/nios2-elf/4.7.3/../../../../../H-i686-mingw32/nios2-elf/lib\libc.a(lib_a-fopen.o)
 .bss           0x02060f08        0x0 d:/eda/quartus13/nios2eds/bin/gnu/h-i686-mingw32/bin/../lib/gcc/nios2-elf/4.7.3/../../../../../H-i686-mingw32/nios2-elf/lib\libc.a(lib_a-fprintf.o)
 .bss           0x02060f08        0x0 d:/eda/quartus13/nios2eds/bin/gnu/h-i686-mingw32/bin/../lib/gcc/nios2-elf/4.7.3/../../../../../H-i686-mingw32/nios2-elf/lib\libc.a(lib_a-fread.o)
 .bss           0x02060f08        0x0 d:/eda/quartus13/nios2eds/bin/gnu/h-i686-mingw32/bin/../lib/gcc/nios2-elf/4.7.3/../../../../../H-i686-mingw32/nios2-elf/lib\libc.a(lib_a-freer.o)
 .bss           0x02060f08        0x0 d:/eda/quartus13/nios2eds/bin/gnu/h-i686-mingw32/bin/../lib/gcc/nios2-elf/4.7.3/../../../../../H-i686-mingw32/nios2-elf/lib\libc.a(lib_a-fseek.o)
 .bss           0x02060f08        0x0 d:/eda/quartus13/nios2eds/bin/gnu/h-i686-mingw32/bin/../lib/gcc/nios2-elf/4.7.3/../../../../../H-i686-mingw32/nios2-elf/lib\libc.a(lib_a-fstatr.o)
 .bss           0x02060f08        0x0 d:/eda/quartus13/nios2eds/bin/gnu/h-i686-mingw32/bin/../lib/gcc/nios2-elf/4.7.3/../../../../../H-i686-mingw32/nios2-elf/lib\libc.a(lib_a-ftell.o)
 .bss           0x02060f08        0x0 d:/eda/quartus13/nios2eds/bin/gnu/h-i686-mingw32/bin/../lib/gcc/nios2-elf/4.7.3/../../../../../H-i686-mingw32/nios2-elf/lib\libc.a(lib_a-fwalk.o)
 .bss           0x02060f08        0x0 d:/eda/quartus13/nios2eds/bin/gnu/h-i686-mingw32/bin/../lib/gcc/nios2-elf/4.7.3/../../../../../H-i686-mingw32/nios2-elf/lib\libc.a(lib_a-fwrite.o)
 .bss           0x02060f08        0x0 d:/eda/quartus13/nios2eds/bin/gnu/h-i686-mingw32/bin/../lib/gcc/nios2-elf/4.7.3/../../../../../H-i686-mingw32/nios2-elf/lib\libc.a(lib_a-getc.o)
 .bss           0x02060f08        0x0 d:/eda/quartus13/nios2eds/bin/gnu/h-i686-mingw32/bin/../lib/gcc/nios2-elf/4.7.3/../../../../../H-i686-mingw32/nios2-elf/lib\libc.a(lib_a-impure.o)
 .bss           0x02060f08        0x0 d:/eda/quartus13/nios2eds/bin/gnu/h-i686-mingw32/bin/../lib/gcc/nios2-elf/4.7.3/../../../../../H-i686-mingw32/nios2-elf/lib\libc.a(lib_a-int_errno.o)
 .bss           0x02060f08        0x0 d:/eda/quartus13/nios2eds/bin/gnu/h-i686-mingw32/bin/../lib/gcc/nios2-elf/4.7.3/../../../../../H-i686-mingw32/nios2-elf/lib\libc.a(lib_a-makebuf.o)
 .bss           0x02060f08       0x28 d:/eda/quartus13/nios2eds/bin/gnu/h-i686-mingw32/bin/../lib/gcc/nios2-elf/4.7.3/../../../../../H-i686-mingw32/nios2-elf/lib\libc.a(lib_a-mallocr.o)
                0x02060f08                __malloc_current_mallinfo
 .bss           0x02060f30        0x0 d:/eda/quartus13/nios2eds/bin/gnu/h-i686-mingw32/bin/../lib/gcc/nios2-elf/4.7.3/../../../../../H-i686-mingw32/nios2-elf/lib\libc.a(lib_a-memcpy.o)
 .bss           0x02060f30        0x0 d:/eda/quartus13/nios2eds/bin/gnu/h-i686-mingw32/bin/../lib/gcc/nios2-elf/4.7.3/../../../../../H-i686-mingw32/nios2-elf/lib\libc.a(lib_a-memmove.o)
 .bss           0x02060f30        0x0 d:/eda/quartus13/nios2eds/bin/gnu/h-i686-mingw32/bin/../lib/gcc/nios2-elf/4.7.3/../../../../../H-i686-mingw32/nios2-elf/lib\libc.a(lib_a-memset.o)
 .bss           0x02060f30        0x0 d:/eda/quartus13/nios2eds/bin/gnu/h-i686-mingw32/bin/../lib/gcc/nios2-elf/4.7.3/../../../../../H-i686-mingw32/nios2-elf/lib\libc.a(lib_a-openr.o)
 .bss           0x02060f30        0x0 d:/eda/quartus13/nios2eds/bin/gnu/h-i686-mingw32/bin/../lib/gcc/nios2-elf/4.7.3/../../../../../H-i686-mingw32/nios2-elf/lib\libc.a(lib_a-perror.o)
 .bss           0x02060f30        0x0 d:/eda/quartus13/nios2eds/bin/gnu/h-i686-mingw32/bin/../lib/gcc/nios2-elf/4.7.3/../../../../../H-i686-mingw32/nios2-elf/lib\libc.a(lib_a-printf.o)
 .bss           0x02060f30        0x0 d:/eda/quartus13/nios2eds/bin/gnu/h-i686-mingw32/bin/../lib/gcc/nios2-elf/4.7.3/../../../../../H-i686-mingw32/nios2-elf/lib\libc.a(lib_a-putc.o)
 .bss           0x02060f30        0x0 d:/eda/quartus13/nios2eds/bin/gnu/h-i686-mingw32/bin/../lib/gcc/nios2-elf/4.7.3/../../../../../H-i686-mingw32/nios2-elf/lib\libc.a(lib_a-putchar.o)
 .bss           0x02060f30        0x0 d:/eda/quartus13/nios2eds/bin/gnu/h-i686-mingw32/bin/../lib/gcc/nios2-elf/4.7.3/../../../../../H-i686-mingw32/nios2-elf/lib\libc.a(lib_a-puts.o)
 .bss           0x02060f30        0x0 d:/eda/quartus13/nios2eds/bin/gnu/h-i686-mingw32/bin/../lib/gcc/nios2-elf/4.7.3/../../../../../H-i686-mingw32/nios2-elf/lib\libc.a(lib_a-refill.o)
 .bss           0x02060f30        0x0 d:/eda/quartus13/nios2eds/bin/gnu/h-i686-mingw32/bin/../lib/gcc/nios2-elf/4.7.3/../../../../../H-i686-mingw32/nios2-elf/lib\libc.a(lib_a-rget.o)
 .bss           0x02060f30        0x0 d:/eda/quartus13/nios2eds/bin/gnu/h-i686-mingw32/bin/../lib/gcc/nios2-elf/4.7.3/../../../../../H-i686-mingw32/nios2-elf/lib\libc.a(lib_a-sbrkr.o)
 .bss           0x02060f30        0x0 d:/eda/quartus13/nios2eds/bin/gnu/h-i686-mingw32/bin/../lib/gcc/nios2-elf/4.7.3/../../../../../H-i686-mingw32/nios2-elf/lib\libc.a(lib_a-sprintf.o)
 .bss           0x02060f30        0x0 d:/eda/quartus13/nios2eds/bin/gnu/h-i686-mingw32/bin/../lib/gcc/nios2-elf/4.7.3/../../../../../H-i686-mingw32/nios2-elf/lib\libc.a(lib_a-sscanf.o)
 .bss           0x02060f30        0x0 d:/eda/quartus13/nios2eds/bin/gnu/h-i686-mingw32/bin/../lib/gcc/nios2-elf/4.7.3/../../../../../H-i686-mingw32/nios2-elf/lib\libc.a(lib_a-stdio.o)
 .bss           0x02060f30        0x0 d:/eda/quartus13/nios2eds/bin/gnu/h-i686-mingw32/bin/../lib/gcc/nios2-elf/4.7.3/../../../../../H-i686-mingw32/nios2-elf/lib\libc.a(lib_a-strcasecmp.o)
 .bss           0x02060f30        0x0 d:/eda/quartus13/nios2eds/bin/gnu/h-i686-mingw32/bin/../lib/gcc/nios2-elf/4.7.3/../../../../../H-i686-mingw32/nios2-elf/lib\libc.a(lib_a-strcat.o)
 .bss           0x02060f30        0x0 d:/eda/quartus13/nios2eds/bin/gnu/h-i686-mingw32/bin/../lib/gcc/nios2-elf/4.7.3/../../../../../H-i686-mingw32/nios2-elf/lib\libc.a(lib_a-strchr.o)
 .bss           0x02060f30        0x0 d:/eda/quartus13/nios2eds/bin/gnu/h-i686-mingw32/bin/../lib/gcc/nios2-elf/4.7.3/../../../../../H-i686-mingw32/nios2-elf/lib\libc.a(lib_a-strcmp.o)
 .bss           0x02060f30        0x0 d:/eda/quartus13/nios2eds/bin/gnu/h-i686-mingw32/bin/../lib/gcc/nios2-elf/4.7.3/../../../../../H-i686-mingw32/nios2-elf/lib\libc.a(lib_a-strcpy.o)
 .bss           0x02060f30        0x0 d:/eda/quartus13/nios2eds/bin/gnu/h-i686-mingw32/bin/../lib/gcc/nios2-elf/4.7.3/../../../../../H-i686-mingw32/nios2-elf/lib\libc.a(lib_a-strerror.o)
 .bss           0x02060f30        0x0 d:/eda/quartus13/nios2eds/bin/gnu/h-i686-mingw32/bin/../lib/gcc/nios2-elf/4.7.3/../../../../../H-i686-mingw32/nios2-elf/lib\libc.a(lib_a-strlen.o)
 .bss           0x02060f30        0x0 d:/eda/quartus13/nios2eds/bin/gnu/h-i686-mingw32/bin/../lib/gcc/nios2-elf/4.7.3/../../../../../H-i686-mingw32/nios2-elf/lib\libc.a(lib_a-strncmp.o)
 .bss           0x02060f30        0x0 d:/eda/quartus13/nios2eds/bin/gnu/h-i686-mingw32/bin/../lib/gcc/nios2-elf/4.7.3/../../../../../H-i686-mingw32/nios2-elf/lib\libc.a(lib_a-strncpy.o)
 .bss           0x02060f30        0x0 d:/eda/quartus13/nios2eds/bin/gnu/h-i686-mingw32/bin/../lib/gcc/nios2-elf/4.7.3/../../../../../H-i686-mingw32/nios2-elf/lib\libc.a(lib_a-strstr.o)
 .bss           0x02060f30        0x0 d:/eda/quartus13/nios2eds/bin/gnu/h-i686-mingw32/bin/../lib/gcc/nios2-elf/4.7.3/../../../../../H-i686-mingw32/nios2-elf/lib\libc.a(lib_a-strtok.o)
 .bss           0x02060f30        0x0 d:/eda/quartus13/nios2eds/bin/gnu/h-i686-mingw32/bin/../lib/gcc/nios2-elf/4.7.3/../../../../../H-i686-mingw32/nios2-elf/lib\libc.a(lib_a-strtok_r.o)
 .bss           0x02060f30        0x0 d:/eda/quartus13/nios2eds/bin/gnu/h-i686-mingw32/bin/../lib/gcc/nios2-elf/4.7.3/../../../../../H-i686-mingw32/nios2-elf/lib\libc.a(lib_a-strtol.o)
 .bss           0x02060f30        0x0 d:/eda/quartus13/nios2eds/bin/gnu/h-i686-mingw32/bin/../lib/gcc/nios2-elf/4.7.3/../../../../../H-i686-mingw32/nios2-elf/lib\libc.a(lib_a-u_strerr.o)
 .bss           0x02060f30        0x0 d:/eda/quartus13/nios2eds/bin/gnu/h-i686-mingw32/bin/../lib/gcc/nios2-elf/4.7.3/../../../../../H-i686-mingw32/nios2-elf/lib\libc.a(lib_a-vfprintf.o)
 .bss           0x02060f30        0x0 d:/eda/quartus13/nios2eds/bin/gnu/h-i686-mingw32/bin/../lib/gcc/nios2-elf/4.7.3/../../../../../H-i686-mingw32/nios2-elf/lib\libc.a(lib_a-vfscanf.o)
 .bss           0x02060f30        0x0 d:/eda/quartus13/nios2eds/bin/gnu/h-i686-mingw32/bin/../lib/gcc/nios2-elf/4.7.3/../../../../../H-i686-mingw32/nios2-elf/lib\libc.a(lib_a-wbuf.o)
 .bss           0x02060f30        0x0 d:/eda/quartus13/nios2eds/bin/gnu/h-i686-mingw32/bin/../lib/gcc/nios2-elf/4.7.3/../../../../../H-i686-mingw32/nios2-elf/lib\libc.a(lib_a-writer.o)
 .bss           0x02060f30        0x0 d:/eda/quartus13/nios2eds/bin/gnu/h-i686-mingw32/bin/../lib/gcc/nios2-elf/4.7.3/../../../../../H-i686-mingw32/nios2-elf/lib\libc.a(lib_a-wsetup.o)
 .bss           0x02060f30        0x0 d:/eda/quartus13/nios2eds/bin/gnu/h-i686-mingw32/bin/../lib/gcc/nios2-elf/4.7.3/../../../../../H-i686-mingw32/nios2-elf/lib\libc.a(lib_a-closer.o)
 .bss           0x02060f30        0x0 d:/eda/quartus13/nios2eds/bin/gnu/h-i686-mingw32/bin/../lib/gcc/nios2-elf/4.7.3/../../../../../H-i686-mingw32/nios2-elf/lib\libc.a(lib_a-dtoa.o)
 .bss           0x02060f30        0x0 d:/eda/quartus13/nios2eds/bin/gnu/h-i686-mingw32/bin/../lib/gcc/nios2-elf/4.7.3/../../../../../H-i686-mingw32/nios2-elf/lib\libc.a(lib_a-flags.o)
 .bss           0x02060f30        0x0 d:/eda/quartus13/nios2eds/bin/gnu/h-i686-mingw32/bin/../lib/gcc/nios2-elf/4.7.3/../../../../../H-i686-mingw32/nios2-elf/lib\libc.a(lib_a-fputc.o)
 .bss           0x02060f30        0x0 d:/eda/quartus13/nios2eds/bin/gnu/h-i686-mingw32/bin/../lib/gcc/nios2-elf/4.7.3/../../../../../H-i686-mingw32/nios2-elf/lib\libc.a(lib_a-fputs.o)
 .bss           0x02060f30        0x0 d:/eda/quartus13/nios2eds/bin/gnu/h-i686-mingw32/bin/../lib/gcc/nios2-elf/4.7.3/../../../../../H-i686-mingw32/nios2-elf/lib\libc.a(lib_a-fvwrite.o)
 .bss           0x02060f30        0x0 d:/eda/quartus13/nios2eds/bin/gnu/h-i686-mingw32/bin/../lib/gcc/nios2-elf/4.7.3/../../../../../H-i686-mingw32/nios2-elf/lib\libc.a(lib_a-isattyr.o)
 .bss           0x02060f30        0x0 d:/eda/quartus13/nios2eds/bin/gnu/h-i686-mingw32/bin/../lib/gcc/nios2-elf/4.7.3/../../../../../H-i686-mingw32/nios2-elf/lib\libc.a(lib_a-iswspace.o)
 .bss           0x02060f30        0x0 d:/eda/quartus13/nios2eds/bin/gnu/h-i686-mingw32/bin/../lib/gcc/nios2-elf/4.7.3/../../../../../H-i686-mingw32/nios2-elf/lib\libc.a(lib_a-locale.o)
 .bss           0x02060f30        0x0 d:/eda/quartus13/nios2eds/bin/gnu/h-i686-mingw32/bin/../lib/gcc/nios2-elf/4.7.3/../../../../../H-i686-mingw32/nios2-elf/lib\libc.a(lib_a-lseekr.o)
 .bss           0x02060f30        0x0 d:/eda/quartus13/nios2eds/bin/gnu/h-i686-mingw32/bin/../lib/gcc/nios2-elf/4.7.3/../../../../../H-i686-mingw32/nios2-elf/lib\libc.a(lib_a-mbrtowc.o)
 .bss           0x02060f30        0x0 d:/eda/quartus13/nios2eds/bin/gnu/h-i686-mingw32/bin/../lib/gcc/nios2-elf/4.7.3/../../../../../H-i686-mingw32/nios2-elf/lib\libc.a(lib_a-mbtowc_r.o)
 .bss           0x02060f30        0x0 d:/eda/quartus13/nios2eds/bin/gnu/h-i686-mingw32/bin/../lib/gcc/nios2-elf/4.7.3/../../../../../H-i686-mingw32/nios2-elf/lib\libc.a(lib_a-memchr.o)
 .bss           0x02060f30        0x0 d:/eda/quartus13/nios2eds/bin/gnu/h-i686-mingw32/bin/../lib/gcc/nios2-elf/4.7.3/../../../../../H-i686-mingw32/nios2-elf/lib\libc.a(lib_a-memcmp.o)
 .bss           0x02060f30        0x0 d:/eda/quartus13/nios2eds/bin/gnu/h-i686-mingw32/bin/../lib/gcc/nios2-elf/4.7.3/../../../../../H-i686-mingw32/nios2-elf/lib\libc.a(lib_a-mprec.o)
 .bss           0x02060f30        0x0 d:/eda/quartus13/nios2eds/bin/gnu/h-i686-mingw32/bin/../lib/gcc/nios2-elf/4.7.3/../../../../../H-i686-mingw32/nios2-elf/lib\libc.a(lib_a-readr.o)
 .bss           0x02060f30        0x0 d:/eda/quartus13/nios2eds/bin/gnu/h-i686-mingw32/bin/../lib/gcc/nios2-elf/4.7.3/../../../../../H-i686-mingw32/nios2-elf/lib\libc.a(lib_a-reallocr.o)
 .bss           0x02060f30        0x0 d:/eda/quartus13/nios2eds/bin/gnu/h-i686-mingw32/bin/../lib/gcc/nios2-elf/4.7.3/../../../../../H-i686-mingw32/nios2-elf/lib\libc.a(lib_a-s_isinfd.o)
 .bss           0x02060f30        0x0 d:/eda/quartus13/nios2eds/bin/gnu/h-i686-mingw32/bin/../lib/gcc/nios2-elf/4.7.3/../../../../../H-i686-mingw32/nios2-elf/lib\libc.a(lib_a-s_isnand.o)
 .bss           0x02060f30        0x0 d:/eda/quartus13/nios2eds/bin/gnu/h-i686-mingw32/bin/../lib/gcc/nios2-elf/4.7.3/../../../../../H-i686-mingw32/nios2-elf/lib\libc.a(lib_a-sccl.o)
 .bss           0x02060f30        0x0 d:/eda/quartus13/nios2eds/bin/gnu/h-i686-mingw32/bin/../lib/gcc/nios2-elf/4.7.3/../../../../../H-i686-mingw32/nios2-elf/lib\libc.a(lib_a-sf_nan.o)
 .bss           0x02060f30        0x0 d:/eda/quartus13/nios2eds/bin/gnu/h-i686-mingw32/bin/../lib/gcc/nios2-elf/4.7.3/../../../../../H-i686-mingw32/nios2-elf/lib\libc.a(lib_a-strtod.o)
 .bss           0x02060f30        0x0 d:/eda/quartus13/nios2eds/bin/gnu/h-i686-mingw32/bin/../lib/gcc/nios2-elf/4.7.3/../../../../../H-i686-mingw32/nios2-elf/lib\libc.a(lib_a-strtoll_r.o)
 .bss           0x02060f30        0x0 d:/eda/quartus13/nios2eds/bin/gnu/h-i686-mingw32/bin/../lib/gcc/nios2-elf/4.7.3/../../../../../H-i686-mingw32/nios2-elf/lib\libc.a(lib_a-strtoul.o)
 .bss           0x02060f30        0x0 d:/eda/quartus13/nios2eds/bin/gnu/h-i686-mingw32/bin/../lib/gcc/nios2-elf/4.7.3/../../../../../H-i686-mingw32/nios2-elf/lib\libc.a(lib_a-strtoull_r.o)
 .bss           0x02060f30        0x0 d:/eda/quartus13/nios2eds/bin/gnu/h-i686-mingw32/bin/../lib/gcc/nios2-elf/4.7.3/../../../../../H-i686-mingw32/nios2-elf/lib\libc.a(lib_a-ungetc.o)
 .bss           0x02060f30        0x0 d:/eda/quartus13/nios2eds/bin/gnu/h-i686-mingw32/bin/../lib/gcc/nios2-elf/4.7.3/../../../../../H-i686-mingw32/nios2-elf/lib\libc.a(lib_a-callocr.o)
 .bss           0x02060f30        0x0 d:/eda/quartus13/nios2eds/bin/gnu/h-i686-mingw32/bin/../lib/gcc/nios2-elf/4.7.3/../../../../../H-i686-mingw32/nios2-elf/lib\libc.a(lib_a-gdtoa-gethex.o)
 .bss           0x02060f30        0x0 d:/eda/quartus13/nios2eds/bin/gnu/h-i686-mingw32/bin/../lib/gcc/nios2-elf/4.7.3/../../../../../H-i686-mingw32/nios2-elf/lib\libc.a(lib_a-gdtoa-hexnan.o)
 .bss           0x02060f30        0x0 d:/eda/quartus13/nios2eds/bin/gnu/h-i686-mingw32/bin/../lib/gcc/nios2-elf/4.7.3\libgcc.a(_muldi3.o)
 .bss           0x02060f30        0x0 d:/eda/quartus13/nios2eds/bin/gnu/h-i686-mingw32/bin/../lib/gcc/nios2-elf/4.7.3\libgcc.a(_fixunsdfsi.o)
 .bss           0x02060f30        0x0 d:/eda/quartus13/nios2eds/bin/gnu/h-i686-mingw32/bin/../lib/gcc/nios2-elf/4.7.3\libgcc.a(_udivdi3.o)
 .bss           0x02060f30        0x0 d:/eda/quartus13/nios2eds/bin/gnu/h-i686-mingw32/bin/../lib/gcc/nios2-elf/4.7.3\libgcc.a(_umoddi3.o)
 .bss           0x02060f30        0x0 d:/eda/quartus13/nios2eds/bin/gnu/h-i686-mingw32/bin/../lib/gcc/nios2-elf/4.7.3\libgcc.a(_eq_sf.o)
 .bss           0x02060f30        0x0 d:/eda/quartus13/nios2eds/bin/gnu/h-i686-mingw32/bin/../lib/gcc/nios2-elf/4.7.3\libgcc.a(_gt_sf.o)
 .bss           0x02060f30        0x0 d:/eda/quartus13/nios2eds/bin/gnu/h-i686-mingw32/bin/../lib/gcc/nios2-elf/4.7.3\libgcc.a(_lt_sf.o)
 .bss           0x02060f30        0x0 d:/eda/quartus13/nios2eds/bin/gnu/h-i686-mingw32/bin/../lib/gcc/nios2-elf/4.7.3\libgcc.a(_addsub_df.o)
 .bss           0x02060f30        0x0 d:/eda/quartus13/nios2eds/bin/gnu/h-i686-mingw32/bin/../lib/gcc/nios2-elf/4.7.3\libgcc.a(_mul_df.o)
 .bss           0x02060f30        0x0 d:/eda/quartus13/nios2eds/bin/gnu/h-i686-mingw32/bin/../lib/gcc/nios2-elf/4.7.3\libgcc.a(_div_df.o)
 .bss           0x02060f30        0x0 d:/eda/quartus13/nios2eds/bin/gnu/h-i686-mingw32/bin/../lib/gcc/nios2-elf/4.7.3\libgcc.a(_eq_df.o)
 .bss           0x02060f30        0x0 d:/eda/quartus13/nios2eds/bin/gnu/h-i686-mingw32/bin/../lib/gcc/nios2-elf/4.7.3\libgcc.a(_ne_df.o)
 .bss           0x02060f30        0x0 d:/eda/quartus13/nios2eds/bin/gnu/h-i686-mingw32/bin/../lib/gcc/nios2-elf/4.7.3\libgcc.a(_gt_df.o)
 .bss           0x02060f30        0x0 d:/eda/quartus13/nios2eds/bin/gnu/h-i686-mingw32/bin/../lib/gcc/nios2-elf/4.7.3\libgcc.a(_ge_df.o)
 .bss           0x02060f30        0x0 d:/eda/quartus13/nios2eds/bin/gnu/h-i686-mingw32/bin/../lib/gcc/nios2-elf/4.7.3\libgcc.a(_lt_df.o)
 .bss           0x02060f30        0x0 d:/eda/quartus13/nios2eds/bin/gnu/h-i686-mingw32/bin/../lib/gcc/nios2-elf/4.7.3\libgcc.a(_le_df.o)
 .bss           0x02060f30        0x0 d:/eda/quartus13/nios2eds/bin/gnu/h-i686-mingw32/bin/../lib/gcc/nios2-elf/4.7.3\libgcc.a(_si_to_df.o)
 .bss           0x02060f30        0x0 d:/eda/quartus13/nios2eds/bin/gnu/h-i686-mingw32/bin/../lib/gcc/nios2-elf/4.7.3\libgcc.a(_df_to_si.o)
 .bss           0x02060f30        0x0 d:/eda/quartus13/nios2eds/bin/gnu/h-i686-mingw32/bin/../lib/gcc/nios2-elf/4.7.3\libgcc.a(_df_to_sf.o)
 .bss           0x02060f30        0x0 d:/eda/quartus13/nios2eds/bin/gnu/h-i686-mingw32/bin/../lib/gcc/nios2-elf/4.7.3\libgcc.a(_thenan_df.o)
 .bss           0x02060f30        0x0 d:/eda/quartus13/nios2eds/bin/gnu/h-i686-mingw32/bin/../lib/gcc/nios2-elf/4.7.3\libgcc.a(_usi_to_df.o)
 .bss           0x02060f30        0x0 d:/eda/quartus13/nios2eds/bin/gnu/h-i686-mingw32/bin/../lib/gcc/nios2-elf/4.7.3\libgcc.a(lib2-divmod.o)
 .bss           0x02060f30        0x0 d:/eda/quartus13/nios2eds/bin/gnu/h-i686-mingw32/bin/../lib/gcc/nios2-elf/4.7.3\libgcc.a(_clz.o)
 .bss           0x02060f30        0x0 d:/eda/quartus13/nios2eds/bin/gnu/h-i686-mingw32/bin/../lib/gcc/nios2-elf/4.7.3\libgcc.a(_clzsi2.o)
 .bss           0x02060f30        0x0 d:/eda/quartus13/nios2eds/bin/gnu/h-i686-mingw32/bin/../lib/gcc/nios2-elf/4.7.3\libgcc.a(_unpack_sf.o)
 .bss           0x02060f30        0x0 d:/eda/quartus13/nios2eds/bin/gnu/h-i686-mingw32/bin/../lib/gcc/nios2-elf/4.7.3\libgcc.a(_fpcmp_parts_sf.o)
 .bss           0x02060f30        0x0 d:/eda/quartus13/nios2eds/bin/gnu/h-i686-mingw32/bin/../lib/gcc/nios2-elf/4.7.3\libgcc.a(_make_sf.o)
 .bss           0x02060f30        0x0 d:/eda/quartus13/nios2eds/bin/gnu/h-i686-mingw32/bin/../lib/gcc/nios2-elf/4.7.3\libgcc.a(_pack_df.o)
 .bss           0x02060f30        0x0 d:/eda/quartus13/nios2eds/bin/gnu/h-i686-mingw32/bin/../lib/gcc/nios2-elf/4.7.3\libgcc.a(_unpack_df.o)
 .bss           0x02060f30        0x0 d:/eda/quartus13/nios2eds/bin/gnu/h-i686-mingw32/bin/../lib/gcc/nios2-elf/4.7.3\libgcc.a(_fpcmp_parts_df.o)
 .bss           0x02060f30        0x0 d:/eda/quartus13/nios2eds/bin/gnu/h-i686-mingw32/bin/../lib/gcc/nios2-elf/4.7.3\libgcc.a(_lshrdi3.o)
 .bss           0x02060f30        0x0 d:/eda/quartus13/nios2eds/bin/gnu/h-i686-mingw32/bin/../lib/gcc/nios2-elf/4.7.3\libgcc.a(_ashldi3.o)
 .bss           0x02060f30        0x0 d:/eda/quartus13/nios2eds/bin/gnu/h-i686-mingw32/bin/../lib/gcc/nios2-elf/4.7.3\libgcc.a(_pack_sf.o)
 .bss           0x02060f30        0x0 F:/Qsys/qsys_webserver/qsys/software/qsys_webserver_bsp/\libucosii_bsp.a(alt_dcache_flush.o)
 .bss           0x02060f30        0x0 F:/Qsys/qsys_webserver/qsys/software/qsys_webserver_bsp/\libucosii_bsp.a(alt_flash_dev.o)
 .bss           0x02060f30        0x0 F:/Qsys/qsys_webserver/qsys/software/qsys_webserver_bsp/\libucosii_bsp.a(alt_fstat.o)
 .bss           0x02060f30        0x0 F:/Qsys/qsys_webserver/qsys/software/qsys_webserver_bsp/\libucosii_bsp.a(alt_isatty.o)
 .bss           0x02060f30        0x0 F:/Qsys/qsys_webserver/qsys/software/qsys_webserver_bsp/\libucosii_bsp.a(alt_lseek.o)
 .bss           0x02060f30        0x0 F:/Qsys/qsys_webserver/qsys/software/qsys_webserver_bsp/\libucosii_bsp.a(alt_main.o)
 .bss           0x02060f30        0x0 F:/Qsys/qsys_webserver/qsys/software/qsys_webserver_bsp/\libucosii_bsp.a(alt_open.o)
 .bss           0x02060f30        0x0 F:/Qsys/qsys_webserver/qsys/software/qsys_webserver_bsp/\libucosii_bsp.a(alt_release_fd.o)
 .bss           0x02060f30        0x0 F:/Qsys/qsys_webserver/qsys/software/qsys_webserver_bsp/\libucosii_bsp.a(alt_sbrk.o)
 .bss           0x02060f30        0x0 F:/Qsys/qsys_webserver/qsys/software/qsys_webserver_bsp/\libucosii_bsp.a(alt_tick.o)
 .bss           0x02060f30        0x0 F:/Qsys/qsys_webserver/qsys/software/qsys_webserver_bsp/\libucosii_bsp.a(alt_env_lock.o)
 .bss           0x02060f30        0x0 F:/Qsys/qsys_webserver/qsys/software/qsys_webserver_bsp/\libucosii_bsp.a(alt_malloc_lock.o)
 .bss           0x02060f30        0x0 F:/Qsys/qsys_webserver/qsys/software/qsys_webserver_bsp/\libucosii_bsp.a(os_core.o)
 .bss           0x02060f30        0x0 F:/Qsys/qsys_webserver/qsys/software/qsys_webserver_bsp/\libucosii_bsp.a(os_dbg.o)
 .bss           0x02060f30        0x0 F:/Qsys/qsys_webserver/qsys/software/qsys_webserver_bsp/\libucosii_bsp.a(os_flag.o)
 .bss           0x02060f30        0x0 F:/Qsys/qsys_webserver/qsys/software/qsys_webserver_bsp/\libucosii_bsp.a(os_mbox.o)
 .bss           0x02060f30        0x0 F:/Qsys/qsys_webserver/qsys/software/qsys_webserver_bsp/\libucosii_bsp.a(os_mem.o)
 .bss           0x02060f30        0x0 F:/Qsys/qsys_webserver/qsys/software/qsys_webserver_bsp/\libucosii_bsp.a(os_q.o)
 .bss           0x02060f30        0x0 F:/Qsys/qsys_webserver/qsys/software/qsys_webserver_bsp/\libucosii_bsp.a(os_sem.o)
 .bss           0x02060f30        0x0 F:/Qsys/qsys_webserver/qsys/software/qsys_webserver_bsp/\libucosii_bsp.a(os_task.o)
 .bss           0x02060f30        0x0 F:/Qsys/qsys_webserver/qsys/software/qsys_webserver_bsp/\libucosii_bsp.a(os_time.o)
 .bss           0x02060f30        0x0 F:/Qsys/qsys_webserver/qsys/software/qsys_webserver_bsp/\libucosii_bsp.a(alt_sys_init.o)
 .bss           0x02060f30        0x0 F:/Qsys/qsys_webserver/qsys/software/qsys_webserver_bsp/\libucosii_bsp.a(altera_avalon_epcs_flash_controller.o)
 .bss           0x02060f30        0x0 F:/Qsys/qsys_webserver/qsys/software/qsys_webserver_bsp/\libucosii_bsp.a(altera_avalon_jtag_uart_fd.o)
 .bss           0x02060f30        0x0 F:/Qsys/qsys_webserver/qsys/software/qsys_webserver_bsp/\libucosii_bsp.a(altera_avalon_jtag_uart_init.o)
 .bss           0x02060f30        0x0 F:/Qsys/qsys_webserver/qsys/software/qsys_webserver_bsp/\libucosii_bsp.a(altera_avalon_jtag_uart_ioctl.o)
 .bss           0x02060f30        0x0 F:/Qsys/qsys_webserver/qsys/software/qsys_webserver_bsp/\libucosii_bsp.a(altera_avalon_jtag_uart_read.o)
 .bss           0x02060f30        0x0 F:/Qsys/qsys_webserver/qsys/software/qsys_webserver_bsp/\libucosii_bsp.a(altera_avalon_jtag_uart_write.o)
 .bss           0x02060f30        0x0 F:/Qsys/qsys_webserver/qsys/software/qsys_webserver_bsp/\libucosii_bsp.a(altera_avalon_sgdma.o)
 .bss           0x02060f30        0x0 F:/Qsys/qsys_webserver/qsys/software/qsys_webserver_bsp/\libucosii_bsp.a(altera_avalon_timer_sc.o)
 .bss           0x02060f30        0x0 F:/Qsys/qsys_webserver/qsys/software/qsys_webserver_bsp/\libucosii_bsp.a(altera_ro_zipfs.o)
 .bss           0x02060f30        0x0 F:/Qsys/qsys_webserver/qsys/software/qsys_webserver_bsp/\libucosii_bsp.a(epcs_commands.o)
 .bss           0x02060f30        0x0 F:/Qsys/qsys_webserver/qsys/software/qsys_webserver_bsp/\libucosii_bsp.a(ins_tse_mac.o)
 .bss           0x02060f30        0x0 F:/Qsys/qsys_webserver/qsys/software/qsys_webserver_bsp/\libucosii_bsp.a(alt_iniche_close.o)
 .bss           0x02060f30        0x0 F:/Qsys/qsys_webserver/qsys/software/qsys_webserver_bsp/\libucosii_bsp.a(alt_iniche_dev.o)
 .bss           0x02060f30        0x0 F:/Qsys/qsys_webserver/qsys/software/qsys_webserver_bsp/\libucosii_bsp.a(alt_iniche_read.o)
 .bss           0x02060f30        0x0 F:/Qsys/qsys_webserver/qsys/software/qsys_webserver_bsp/\libucosii_bsp.a(alt_iniche_write.o)
 .bss           0x02060f30        0x0 F:/Qsys/qsys_webserver/qsys/software/qsys_webserver_bsp/\libucosii_bsp.a(ipnet.o)
 .bss           0x02060f30       0x3c F:/Qsys/qsys_webserver/qsys/software/qsys_webserver_bsp/\libucosii_bsp.a(ipstart.o)
 .bss           0x02060f6c        0x0 F:/Qsys/qsys_webserver/qsys/software/qsys_webserver_bsp/\libucosii_bsp.a(igmp_cmn.o)
 .bss           0x02060f6c        0x0 F:/Qsys/qsys_webserver/qsys/software/qsys_webserver_bsp/\libucosii_bsp.a(bsdsock.o)
 .bss           0x02060f6c        0x0 F:/Qsys/qsys_webserver/qsys/software/qsys_webserver_bsp/\libucosii_bsp.a(cksum.o)
 .bss           0x02060f6c       0x18 F:/Qsys/qsys_webserver/qsys/software/qsys_webserver_bsp/\libucosii_bsp.a(in_utils.o)
 .bss           0x02060f84        0x0 F:/Qsys/qsys_webserver/qsys/software/qsys_webserver_bsp/\libucosii_bsp.a(netmain.o)
 .bss           0x02060f84        0x0 F:/Qsys/qsys_webserver/qsys/software/qsys_webserver_bsp/\libucosii_bsp.a(tk_crnos.o)
 .bss           0x02060f84        0x0 F:/Qsys/qsys_webserver/qsys/software/qsys_webserver_bsp/\libucosii_bsp.a(pktalloc.o)
 .bss           0x02060f84        0x0 F:/Qsys/qsys_webserver/qsys/software/qsys_webserver_bsp/\libucosii_bsp.a(q.o)
 .bss           0x02060f84        0x0 F:/Qsys/qsys_webserver/qsys/software/qsys_webserver_bsp/\libucosii_bsp.a(asm_cksum.o)
 .bss           0x02060f84        0x0 F:/Qsys/qsys_webserver/qsys/software/qsys_webserver_bsp/\libucosii_bsp.a(brdutils.o)
 .bss           0x02060f84        0x0 F:/Qsys/qsys_webserver/qsys/software/qsys_webserver_bsp/\libucosii_bsp.a(osportco.o)
 .bss           0x02060f84        0x0 F:/Qsys/qsys_webserver/qsys/software/qsys_webserver_bsp/\libucosii_bsp.a(targnios.o)
 .bss           0x02060f84        0x0 F:/Qsys/qsys_webserver/qsys/software/qsys_webserver_bsp/\libucosii_bsp.a(nptcp.o)
 .bss           0x02060f84        0x0 F:/Qsys/qsys_webserver/qsys/software/qsys_webserver_bsp/\libucosii_bsp.a(rawsock.o)
 .bss           0x02060f84        0x0 F:/Qsys/qsys_webserver/qsys/software/qsys_webserver_bsp/\libucosii_bsp.a(sockcall.o)
 .bss           0x02060f84        0x0 F:/Qsys/qsys_webserver/qsys/software/qsys_webserver_bsp/\libucosii_bsp.a(socket.o)
 .bss           0x02060f84        0x0 F:/Qsys/qsys_webserver/qsys/software/qsys_webserver_bsp/\libucosii_bsp.a(socket2.o)
 .bss           0x02060f84        0x0 F:/Qsys/qsys_webserver/qsys/software/qsys_webserver_bsp/\libucosii_bsp.a(soselect.o)
 .bss           0x02060f84        0x0 F:/Qsys/qsys_webserver/qsys/software/qsys_webserver_bsp/\libucosii_bsp.a(tcp_in.o)
 .bss           0x02060f84        0x0 F:/Qsys/qsys_webserver/qsys/software/qsys_webserver_bsp/\libucosii_bsp.a(tcp_out.o)
 .bss           0x02060f84        0x0 F:/Qsys/qsys_webserver/qsys/software/qsys_webserver_bsp/\libucosii_bsp.a(tcp_subr.o)
 .bss           0x02060f84        0x0 F:/Qsys/qsys_webserver/qsys/software/qsys_webserver_bsp/\libucosii_bsp.a(tcp_timr.o)
 .bss           0x02060f84        0x0 F:/Qsys/qsys_webserver/qsys/software/qsys_webserver_bsp/\libucosii_bsp.a(tcp_usr.o)
 .bss           0x02060f84        0x0 F:/Qsys/qsys_webserver/qsys/software/qsys_webserver_bsp/\libucosii_bsp.a(tcpport.o)
 .bss           0x02060f84        0x0 F:/Qsys/qsys_webserver/qsys/software/qsys_webserver_bsp/\libucosii_bsp.a(udpsock.o)
 .bss           0x02060f84        0x0 F:/Qsys/qsys_webserver/qsys/software/qsys_webserver_bsp/\libucosii_bsp.a(alt_alarm_start.o)
 .bss           0x02060f84        0x0 F:/Qsys/qsys_webserver/qsys/software/qsys_webserver_bsp/\libucosii_bsp.a(alt_close.o)
 .bss           0x02060f84        0x0 F:/Qsys/qsys_webserver/qsys/software/qsys_webserver_bsp/\libucosii_bsp.a(alt_dev.o)
 .bss           0x02060f84        0x0 F:/Qsys/qsys_webserver/qsys/software/qsys_webserver_bsp/\libucosii_bsp.a(alt_dev_llist_insert.o)
 .bss           0x02060f84        0x0 F:/Qsys/qsys_webserver/qsys/software/qsys_webserver_bsp/\libucosii_bsp.a(alt_do_ctors.o)
 .bss           0x02060f84        0x0 F:/Qsys/qsys_webserver/qsys/software/qsys_webserver_bsp/\libucosii_bsp.a(alt_do_dtors.o)
 .bss           0x02060f84        0x0 F:/Qsys/qsys_webserver/qsys/software/qsys_webserver_bsp/\libucosii_bsp.a(alt_errno.o)
 .bss           0x02060f84        0x0 F:/Qsys/qsys_webserver/qsys/software/qsys_webserver_bsp/\libucosii_bsp.a(alt_find_dev.o)
 .bss           0x02060f84        0x0 F:/Qsys/qsys_webserver/qsys/software/qsys_webserver_bsp/\libucosii_bsp.a(alt_find_file.o)
 .bss           0x02060f84        0x0 F:/Qsys/qsys_webserver/qsys/software/qsys_webserver_bsp/\libucosii_bsp.a(alt_fs_reg.o)
 .bss           0x02060f84        0x0 F:/Qsys/qsys_webserver/qsys/software/qsys_webserver_bsp/\libucosii_bsp.a(alt_get_fd.o)
 .bss           0x02060f84        0x0 F:/Qsys/qsys_webserver/qsys/software/qsys_webserver_bsp/\libucosii_bsp.a(alt_iic.o)
 .bss           0x02060f84        0x0 F:/Qsys/qsys_webserver/qsys/software/qsys_webserver_bsp/\libucosii_bsp.a(alt_iic_isr_register.o)
 .bss           0x02060f84        0x0 F:/Qsys/qsys_webserver/qsys/software/qsys_webserver_bsp/\libucosii_bsp.a(alt_io_redirect.o)
 .bss           0x02060f84        0x0 F:/Qsys/qsys_webserver/qsys/software/qsys_webserver_bsp/\libucosii_bsp.a(alt_irq_entry.o)
 .bss           0x02060f84        0x0 F:/Qsys/qsys_webserver/qsys/software/qsys_webserver_bsp/\libucosii_bsp.a(alt_irq_handler.o)
 .bss           0x02060f84        0x0 F:/Qsys/qsys_webserver/qsys/software/qsys_webserver_bsp/\libucosii_bsp.a(alt_irq_vars.o)
 .bss           0x02060f84        0x0 F:/Qsys/qsys_webserver/qsys/software/qsys_webserver_bsp/\libucosii_bsp.a(alt_read.o)
 .bss           0x02060f84        0x0 F:/Qsys/qsys_webserver/qsys/software/qsys_webserver_bsp/\libucosii_bsp.a(alt_remap_cached.o)
 .bss           0x02060f84        0x0 F:/Qsys/qsys_webserver/qsys/software/qsys_webserver_bsp/\libucosii_bsp.a(alt_remap_uncached.o)
 .bss           0x02060f84        0x0 F:/Qsys/qsys_webserver/qsys/software/qsys_webserver_bsp/\libucosii_bsp.a(alt_uncached_malloc.o)
 .bss           0x02060f84        0x0 F:/Qsys/qsys_webserver/qsys/software/qsys_webserver_bsp/\libucosii_bsp.a(alt_write.o)
 .bss           0x02060f84        0x0 F:/Qsys/qsys_webserver/qsys/software/qsys_webserver_bsp/\libucosii_bsp.a(altera_nios2_qsys_irq.o)
 .bss           0x02060f84        0x0 F:/Qsys/qsys_webserver/qsys/software/qsys_webserver_bsp/\libucosii_bsp.a(os_cpu_a.o)
 .bss           0x02060f84        0x0 F:/Qsys/qsys_webserver/qsys/software/qsys_webserver_bsp/\libucosii_bsp.a(os_cpu_c.o)
 .bss           0x02060f84        0x0 F:/Qsys/qsys_webserver/qsys/software/qsys_webserver_bsp/\libucosii_bsp.a(altera_avalon_spi.o)
 .bss           0x02060f84        0x0 F:/Qsys/qsys_webserver/qsys/software/qsys_webserver_bsp/\libucosii_bsp.a(altera_avalon_tse.o)
 .bss           0x02060f84        0x0 F:/Qsys/qsys_webserver/qsys/software/qsys_webserver_bsp/\libucosii_bsp.a(altera_avalon_tse_system_info.o)
 .bss           0x02060f84        0x0 F:/Qsys/qsys_webserver/qsys/software/qsys_webserver_bsp/\libucosii_bsp.a(allports.o)
 .bss           0x02060f84        0x0 F:/Qsys/qsys_webserver/qsys/software/qsys_webserver_bsp/\libucosii_bsp.a(timeouts.o)
 .bss           0x02060f84        0x0 F:/Qsys/qsys_webserver/qsys/software/qsys_webserver_bsp/\libucosii_bsp.a(tk_misc.o)
 .bss           0x02060f84        0x0 F:/Qsys/qsys_webserver/qsys/software/qsys_webserver_bsp/\libucosii_bsp.a(alt_iniche_fcntl.o)
 .bss           0x02060f84        0x0 F:/Qsys/qsys_webserver/qsys/software/qsys_webserver_bsp/\libucosii_bsp.a(et_arp.o)
 .bss           0x02060f84        0x0 F:/Qsys/qsys_webserver/qsys/software/qsys_webserver_bsp/\libucosii_bsp.a(iface.o)
 .bss           0x02060f84        0x0 F:/Qsys/qsys_webserver/qsys/software/qsys_webserver_bsp/\libucosii_bsp.a(ip.o)
 .bss           0x02060f84        0x0 F:/Qsys/qsys_webserver/qsys/software/qsys_webserver_bsp/\libucosii_bsp.a(ip_reasm.o)
 .bss           0x02060f84        0x0 F:/Qsys/qsys_webserver/qsys/software/qsys_webserver_bsp/\libucosii_bsp.a(ipdemux.o)
 .bss           0x02060f84        0x0 F:/Qsys/qsys_webserver/qsys/software/qsys_webserver_bsp/\libucosii_bsp.a(ipmc.o)
 .bss           0x02060f84        0x0 F:/Qsys/qsys_webserver/qsys/software/qsys_webserver_bsp/\libucosii_bsp.a(ipport.o)
 .bss           0x02060f84        0x0 F:/Qsys/qsys_webserver/qsys/software/qsys_webserver_bsp/\libucosii_bsp.a(ipraw.o)
 .bss           0x02060f84        0x0 F:/Qsys/qsys_webserver/qsys/software/qsys_webserver_bsp/\libucosii_bsp.a(iproute.o)
 .bss           0x02060f84        0x0 F:/Qsys/qsys_webserver/qsys/software/qsys_webserver_bsp/\libucosii_bsp.a(udp.o)
 .bss           0x02060f84        0x0 F:/Qsys/qsys_webserver/qsys/software/qsys_webserver_bsp/\libucosii_bsp.a(igmp.o)
 .bss           0x02060f84        0x0 F:/Qsys/qsys_webserver/qsys/software/qsys_webserver_bsp/\libucosii_bsp.a(igmp2.o)
 .bss           0x02060f84        0x0 F:/Qsys/qsys_webserver/qsys/software/qsys_webserver_bsp/\libucosii_bsp.a(ipopt.o)
 .bss           0x02060f84        0x0 F:/Qsys/qsys_webserver/qsys/software/qsys_webserver_bsp/\libucosii_bsp.a(u_mctest.o)
 .bss           0x02060f84        0x0 F:/Qsys/qsys_webserver/qsys/software/qsys_webserver_bsp/\libucosii_bsp.a(memdev.o)
 .bss           0x02060f84       0x1e F:/Qsys/qsys_webserver/qsys/software/qsys_webserver_bsp/\libucosii_bsp.a(parseip.o)
 .bss           0x02060fa2        0x0 F:/Qsys/qsys_webserver/qsys/software/qsys_webserver_bsp/\libucosii_bsp.a(tcpcksum.o)
 .bss           0x02060fa2        0x0 F:/Qsys/qsys_webserver/qsys/software/qsys_webserver_bsp/\libucosii_bsp.a(udp_open.o)
 .bss           0x02060fa2        0x0 F:/Qsys/qsys_webserver/qsys/software/qsys_webserver_bsp/\libucosii_bsp.a(in_pcb.o)
 .bss           0x02060fa2        0x0 F:/Qsys/qsys_webserver/qsys/software/qsys_webserver_bsp/\libucosii_bsp.a(vfsfiles.o)
 .bss           0x02060fa2        0x0 F:/Qsys/qsys_webserver/qsys/software/qsys_webserver_bsp/\libucosii_bsp.a(vfsport.o)
 .bss           0x02060fa2        0x0 F:/Qsys/qsys_webserver/qsys/software/qsys_webserver_bsp/\libucosii_bsp.a(alt_exception_entry.o)
 .bss           0x02060fa2        0x0 F:/Qsys/qsys_webserver/qsys/software/qsys_webserver_bsp/\libucosii_bsp.a(alt_fcntl.o)
 .bss           0x02060fa2        0x0 F:/Qsys/qsys_webserver/qsys/software/qsys_webserver_bsp/\libucosii_bsp.a(alt_usleep.o)
 .bss           0x02060fa2        0x0 F:/Qsys/qsys_webserver/qsys/software/qsys_webserver_bsp/\libucosii_bsp.a(icmp.o)
 .bss           0x02060fa2        0x0 F:/Qsys/qsys_webserver/qsys/software/qsys_webserver_bsp/\libucosii_bsp.a(alt_busy_sleep.o)
 .bss           0x02060fa2        0x0 d:/eda/quartus13/nios2eds/bin/gnu/h-i686-mingw32/bin/../lib/gcc/nios2-elf/4.7.3/../../../../../H-i686-mingw32/nios2-elf/lib\libc.a(lib_a-atexit.o)
 .bss           0x02060fa2        0x0 d:/eda/quartus13/nios2eds/bin/gnu/h-i686-mingw32/bin/../lib/gcc/nios2-elf/4.7.3/../../../../../H-i686-mingw32/nios2-elf/lib\libc.a(lib_a-calloc.o)
 .bss           0x02060fa2        0x0 d:/eda/quartus13/nios2eds/bin/gnu/h-i686-mingw32/bin/../lib/gcc/nios2-elf/4.7.3/../../../../../H-i686-mingw32/nios2-elf/lib\libc.a(lib_a-exit.o)
 .bss           0x02060fa2        0x0 d:/eda/quartus13/nios2eds/bin/gnu/h-i686-mingw32/bin/../lib/gcc/nios2-elf/4.7.3/../../../../../H-i686-mingw32/nios2-elf/lib\libc.a(lib_a-malloc.o)
 .bss           0x02060fa2        0x0 d:/eda/quartus13/nios2eds/bin/gnu/h-i686-mingw32/bin/../lib/gcc/nios2-elf/4.7.3/../../../../../H-i686-mingw32/nios2-elf/lib\libc.a(lib_a-vprintf.o)
 .bss           0x02060fa2        0x0 d:/eda/quartus13/nios2eds/bin/gnu/h-i686-mingw32/bin/../lib/gcc/nios2-elf/4.7.3/../../../../../H-i686-mingw32/nios2-elf/lib\libc.a(lib_a-vsprintf.o)
 .bss           0x02060fa2        0x0 d:/eda/quartus13/nios2eds/bin/gnu/h-i686-mingw32/bin/../lib/gcc/nios2-elf/4.7.3/../../../../../H-i686-mingw32/nios2-elf/lib\libc.a(lib_a-__atexit.o)
 .bss           0x02060fa2        0x0 d:/eda/quartus13/nios2eds/bin/gnu/h-i686-mingw32/bin/../lib/gcc/nios2-elf/4.7.3/../../../../../H-i686-mingw32/nios2-elf/lib\libc.a(lib_a-__call_atexit.o)
 .bss           0x02060fa2        0x0 F:/Qsys/qsys_webserver/qsys/software/qsys_webserver_bsp/\libucosii_bsp.a(alt_exit.o)
 *(COMMON)
 *fill*         0x02060fa2        0x2 
 COMMON         0x02060fa4   0x5d0de4 obj/default/http.o
                0x02060fa4                upload_buf
                0x02619d2c                board_funcs
                0x02619d56                http_rx_buffer
                0x02625d58                flash_inf
                0x02625d88                http_tx_buffer
 COMMON         0x02631d88      0x104 obj/default/srec_flash.o
                0x02631d88                frag
 COMMON         0x02631e8c     0x8000 obj/default/web_server.o
                0x02631e8c                SSDTaskStk
                0x02633e8c                WSInitialTaskStk
                0x02635e8c                LEDTaskStk
                0x02637e8c                BCTaskStk
 COMMON         0x02639e8c      0x100 d:/eda/quartus13/nios2eds/bin/gnu/h-i686-mingw32/bin/../lib/gcc/nios2-elf/4.7.3/../../../../../H-i686-mingw32/nios2-elf/lib\libc.a(lib_a-gdtoa-gethex.o)
                0x02639e8c                __hexdig
 COMMON         0x02639f8c     0x3224 F:/Qsys/qsys_webserver/qsys/software/qsys_webserver_bsp/\libucosii_bsp.a(os_core.o)
                0x02639f8c                OSFlagTbl
                0x0263a2fc                OSMemTbl
                0x0263af2c                OSTaskStatStk
                0x0263b72c                OSQTbl
                0x0263b90c                OSTaskIdleStk
                0x0263c10c                OSEventTbl
                0x0263cc4c                OSTCBTbl
                0x0263d15c                OSTCBPrioTbl
 COMMON         0x0263d1b0       0xe0 F:/Qsys/qsys_webserver/qsys/software/qsys_webserver_bsp/\libucosii_bsp.a(alt_sys_init.o)
                0x0263d1b0                tse_mac_if
 COMMON         0x0263d290      0x160 F:/Qsys/qsys_webserver/qsys/software/qsys_webserver_bsp/\libucosii_bsp.a(ins_tse_mac.o)
                0x0263d290                tse_iniche_dev_driver_data
                0x0263d2c0                tse
 COMMON         0x0263d3f0       0x14 F:/Qsys/qsys_webserver/qsys/software/qsys_webserver_bsp/\libucosii_bsp.a(ipnet.o)
                0x0263d3f0                rcvdq
 COMMON         0x0263d404      0x310 F:/Qsys/qsys_webserver/qsys/software/qsys_webserver_bsp/\libucosii_bsp.a(ipstart.o)
                0x0263d404                netstatic
                0x0263d704                nets
 COMMON         0x0263d714       0x64 F:/Qsys/qsys_webserver/qsys/software/qsys_webserver_bsp/\libucosii_bsp.a(igmp_cmn.o)
                0x0263d714                igmpstats
 COMMON         0x0263d778       0x24 F:/Qsys/qsys_webserver/qsys/software/qsys_webserver_bsp/\libucosii_bsp.a(in_utils.o)
                0x0263d778                eth_prt_buf
                0x0263d78a                ipreturn
 COMMON         0x0263d79c      0x128 F:/Qsys/qsys_webserver/qsys/software/qsys_webserver_bsp/\libucosii_bsp.a(pktalloc.o)
                0x0263d79c                lilfreeq
                0x0263d7b0                memestats
                0x0263d7c0                pktlog
                0x0263d8b0                bigfreeq
 COMMON         0x0263d8c4      0x1ec F:/Qsys/qsys_webserver/qsys/software/qsys_webserver_bsp/\libucosii_bsp.a(osportco.o)
                0x0263d8c4                global_tcb_ext
                0x0263d9c0                global_TCPwakeup_set
 COMMON         0x0263dab0       0x58 F:/Qsys/qsys_webserver/qsys/software/qsys_webserver_bsp/\libucosii_bsp.a(targnios.o)
                0x0263dab0                resid_semaphore
                0x0263daf0                app_semaphore
 COMMON         0x0263db08       0x78 F:/Qsys/qsys_webserver/qsys/software/qsys_webserver_bsp/\libucosii_bsp.a(nptcp.o)
                0x0263db08                soq
                0x0263db1c                tcpmib
                0x0263db58                mbufq
                0x0263db6c                mfreeq
 COMMON         0x0263db80       0x28 F:/Qsys/qsys_webserver/qsys/software/qsys_webserver_bsp/\libucosii_bsp.a(tcp_in.o)
                0x0263db80                tcp_saveti
 COMMON         0x0263dba8      0x10c F:/Qsys/qsys_webserver/qsys/software/qsys_webserver_bsp/\libucosii_bsp.a(tcp_subr.o)
                0x0263dba8                tcb
                0x0263dbd4                tcpstat
 COMMON         0x0263dcb4      0x100 F:/Qsys/qsys_webserver/qsys/software/qsys_webserver_bsp/\libucosii_bsp.a(alt_irq_handler.o)
                0x0263dcb4                alt_irq
 COMMON         0x0263ddb4       0x20 F:/Qsys/qsys_webserver/qsys/software/qsys_webserver_bsp/\libucosii_bsp.a(altera_avalon_tse.o)
                0x0263ddb4                pmac_groups
                0x0263ddc4                pphy_profiles
 COMMON         0x0263ddd4       0x64 F:/Qsys/qsys_webserver/qsys/software/qsys_webserver_bsp/\libucosii_bsp.a(timeouts.o)
                0x0263ddd4                intimers
 COMMON         0x0263de38      0x100 F:/Qsys/qsys_webserver/qsys/software/qsys_webserver_bsp/\libucosii_bsp.a(et_arp.o)
                0x0263de38                arp_table
 COMMON         0x0263df38       0x14 F:/Qsys/qsys_webserver/qsys/software/qsys_webserver_bsp/\libucosii_bsp.a(iface.o)
                0x0263df38                netlist
 COMMON         0x0263df4c       0x50 F:/Qsys/qsys_webserver/qsys/software/qsys_webserver_bsp/\libucosii_bsp.a(ip.o)
                0x0263df4c                ip_mib
 COMMON         0x0263df9c       0x18 F:/Qsys/qsys_webserver/qsys/software/qsys_webserver_bsp/\libucosii_bsp.a(ip_reasm.o)
                0x0263df9c                ire_stats
 COMMON         0x0263dfb4       0x10 F:/Qsys/qsys_webserver/qsys/software/qsys_webserver_bsp/\libucosii_bsp.a(udp.o)
                0x0263dfb4                udp_mib
 COMMON         0x0263dfc4       0x68 F:/Qsys/qsys_webserver/qsys/software/qsys_webserver_bsp/\libucosii_bsp.a(icmp.o)
                0x0263dfc4                icmp_mib
 COMMON         0x0263e02c      0x190 d:/eda/quartus13/nios2eds/bin/gnu/h-i686-mingw32/bin/../lib/gcc/nios2-elf/4.7.3/../../../../../H-i686-mingw32/nios2-elf/lib\libc.a(lib_a-atexit.o)
                0x0263e02c                _atexit0
                0x0263e1bc                . = ALIGN (0x4)
                0x0263e1bc                __bss_end = ABSOLUTE (.)

.epcs_flash_controller
                0x00000020        0x0
                0x00000020                PROVIDE (_alt_partition_epcs_flash_controller_start, ABSOLUTE (.))
 *(.epcs_flash_controller .epcs_flash_controller. epcs_flash_controller.*)
                0x00000020                . = ALIGN (0x4)
                0x00000020                PROVIDE (_alt_partition_epcs_flash_controller_end, ABSOLUTE (.))
                0x00000020                PROVIDE (_alt_partition_epcs_flash_controller_load_addr, LOADADDR (.epcs_flash_controller))

.descriptor_memory
                0x00001c00        0x0
                0x00001c00                PROVIDE (_alt_partition_descriptor_memory_start, ABSOLUTE (.))
 *(.descriptor_memory .descriptor_memory. descriptor_memory.*)
                0x00001c00                . = ALIGN (0x4)
                0x00001c00                PROVIDE (_alt_partition_descriptor_memory_end, ABSOLUTE (.))
                0x00001c00                PROVIDE (_alt_partition_descriptor_memory_load_addr, LOADADDR (.descriptor_memory))

.sdram          0x0263e1bc        0x0
                0x0263e1bc                PROVIDE (_alt_partition_sdram_start, ABSOLUTE (.))
 *(.sdram .sdram. sdram.*)
                0x0263e1bc                . = ALIGN (0x4)
                0x0263e1bc                PROVIDE (_alt_partition_sdram_end, ABSOLUTE (.))
                0x0263e1bc                _end = ABSOLUTE (.)
                0x0263e1bc                end = ABSOLUTE (.)
                0x0263e1bc                __alt_stack_base = ABSOLUTE (.)
                0x0263e1bc                PROVIDE (_alt_partition_sdram_load_addr, LOADADDR (.sdram))

.stab
 *(.stab)

.stabstr
 *(.stabstr)

.stab.excl
 *(.stab.excl)

.stab.exclstr
 *(.stab.exclstr)

.stab.index
 *(.stab.index)

.stab.indexstr
 *(.stab.indexstr)

.comment        0x00000000       0x23
 *(.comment)
 .comment       0x00000000       0x23 obj/default/alt_error_handler.o
                                 0x24 (size before relaxing)
 .comment       0x00000000       0x24 obj/default/http.o
 .comment       0x00000000       0x24 obj/default/network_utilities.o
 .comment       0x00000000       0x24 obj/default/srec_flash.o
 .comment       0x00000000       0x24 obj/default/web_server.o
 .comment       0x00000000       0x24 d:/eda/quartus13/nios2eds/bin/gnu/h-i686-mingw32/bin/../lib/gcc/nios2-elf/4.7.3/../../../../../H-i686-mingw32/nios2-elf/lib\libc.a(lib_a-atoi.o)
 .comment       0x00000000       0x24 d:/eda/quartus13/nios2eds/bin/gnu/h-i686-mingw32/bin/../lib/gcc/nios2-elf/4.7.3/../../../../../H-i686-mingw32/nios2-elf/lib\libc.a(lib_a-ctype_.o)
 .comment       0x00000000       0x24 d:/eda/quartus13/nios2eds/bin/gnu/h-i686-mingw32/bin/../lib/gcc/nios2-elf/4.7.3/../../../../../H-i686-mingw32/nios2-elf/lib\libc.a(lib_a-fclose.o)
 .comment       0x00000000       0x24 d:/eda/quartus13/nios2eds/bin/gnu/h-i686-mingw32/bin/../lib/gcc/nios2-elf/4.7.3/../../../../../H-i686-mingw32/nios2-elf/lib\libc.a(lib_a-fflush.o)
 .comment       0x00000000       0x24 d:/eda/quartus13/nios2eds/bin/gnu/h-i686-mingw32/bin/../lib/gcc/nios2-elf/4.7.3/../../../../../H-i686-mingw32/nios2-elf/lib\libc.a(lib_a-fgetpos.o)
 .comment       0x00000000       0x24 d:/eda/quartus13/nios2eds/bin/gnu/h-i686-mingw32/bin/../lib/gcc/nios2-elf/4.7.3/../../../../../H-i686-mingw32/nios2-elf/lib\libc.a(lib_a-findfp.o)
 .comment       0x00000000       0x24 d:/eda/quartus13/nios2eds/bin/gnu/h-i686-mingw32/bin/../lib/gcc/nios2-elf/4.7.3/../../../../../H-i686-mingw32/nios2-elf/lib\libc.a(lib_a-fopen.o)
 .comment       0x00000000       0x24 d:/eda/quartus13/nios2eds/bin/gnu/h-i686-mingw32/bin/../lib/gcc/nios2-elf/4.7.3/../../../../../H-i686-mingw32/nios2-elf/lib\libc.a(lib_a-fprintf.o)
 .comment       0x00000000       0x24 d:/eda/quartus13/nios2eds/bin/gnu/h-i686-mingw32/bin/../lib/gcc/nios2-elf/4.7.3/../../../../../H-i686-mingw32/nios2-elf/lib\libc.a(lib_a-fread.o)
 .comment       0x00000000       0x24 d:/eda/quartus13/nios2eds/bin/gnu/h-i686-mingw32/bin/../lib/gcc/nios2-elf/4.7.3/../../../../../H-i686-mingw32/nios2-elf/lib\libc.a(lib_a-freer.o)
 .comment       0x00000000       0x24 d:/eda/quartus13/nios2eds/bin/gnu/h-i686-mingw32/bin/../lib/gcc/nios2-elf/4.7.3/../../../../../H-i686-mingw32/nios2-elf/lib\libc.a(lib_a-fseek.o)
 .comment       0x00000000       0x24 d:/eda/quartus13/nios2eds/bin/gnu/h-i686-mingw32/bin/../lib/gcc/nios2-elf/4.7.3/../../../../../H-i686-mingw32/nios2-elf/lib\libc.a(lib_a-fstatr.o)
 .comment       0x00000000       0x24 d:/eda/quartus13/nios2eds/bin/gnu/h-i686-mingw32/bin/../lib/gcc/nios2-elf/4.7.3/../../../../../H-i686-mingw32/nios2-elf/lib\libc.a(lib_a-ftell.o)
 .comment       0x00000000       0x24 d:/eda/quartus13/nios2eds/bin/gnu/h-i686-mingw32/bin/../lib/gcc/nios2-elf/4.7.3/../../../../../H-i686-mingw32/nios2-elf/lib\libc.a(lib_a-fwalk.o)
 .comment       0x00000000       0x24 d:/eda/quartus13/nios2eds/bin/gnu/h-i686-mingw32/bin/../lib/gcc/nios2-elf/4.7.3/../../../../../H-i686-mingw32/nios2-elf/lib\libc.a(lib_a-fwrite.o)
 .comment       0x00000000       0x24 d:/eda/quartus13/nios2eds/bin/gnu/h-i686-mingw32/bin/../lib/gcc/nios2-elf/4.7.3/../../../../../H-i686-mingw32/nios2-elf/lib\libc.a(lib_a-getc.o)
 .comment       0x00000000       0x24 d:/eda/quartus13/nios2eds/bin/gnu/h-i686-mingw32/bin/../lib/gcc/nios2-elf/4.7.3/../../../../../H-i686-mingw32/nios2-elf/lib\libc.a(lib_a-impure.o)
 .comment       0x00000000       0x24 d:/eda/quartus13/nios2eds/bin/gnu/h-i686-mingw32/bin/../lib/gcc/nios2-elf/4.7.3/../../../../../H-i686-mingw32/nios2-elf/lib\libc.a(lib_a-int_errno.o)
 .comment       0x00000000       0x24 d:/eda/quartus13/nios2eds/bin/gnu/h-i686-mingw32/bin/../lib/gcc/nios2-elf/4.7.3/../../../../../H-i686-mingw32/nios2-elf/lib\libc.a(lib_a-makebuf.o)
 .comment       0x00000000       0x24 d:/eda/quartus13/nios2eds/bin/gnu/h-i686-mingw32/bin/../lib/gcc/nios2-elf/4.7.3/../../../../../H-i686-mingw32/nios2-elf/lib\libc.a(lib_a-mallocr.o)
 .comment       0x00000000       0x24 d:/eda/quartus13/nios2eds/bin/gnu/h-i686-mingw32/bin/../lib/gcc/nios2-elf/4.7.3/../../../../../H-i686-mingw32/nios2-elf/lib\libc.a(lib_a-memcpy.o)
 .comment       0x00000000       0x24 d:/eda/quartus13/nios2eds/bin/gnu/h-i686-mingw32/bin/../lib/gcc/nios2-elf/4.7.3/../../../../../H-i686-mingw32/nios2-elf/lib\libc.a(lib_a-memmove.o)
 .comment       0x00000000       0x24 d:/eda/quartus13/nios2eds/bin/gnu/h-i686-mingw32/bin/../lib/gcc/nios2-elf/4.7.3/../../../../../H-i686-mingw32/nios2-elf/lib\libc.a(lib_a-memset.o)
 .comment       0x00000000       0x24 d:/eda/quartus13/nios2eds/bin/gnu/h-i686-mingw32/bin/../lib/gcc/nios2-elf/4.7.3/../../../../../H-i686-mingw32/nios2-elf/lib\libc.a(lib_a-openr.o)
 .comment       0x00000000       0x24 d:/eda/quartus13/nios2eds/bin/gnu/h-i686-mingw32/bin/../lib/gcc/nios2-elf/4.7.3/../../../../../H-i686-mingw32/nios2-elf/lib\libc.a(lib_a-perror.o)
 .comment       0x00000000       0x24 d:/eda/quartus13/nios2eds/bin/gnu/h-i686-mingw32/bin/../lib/gcc/nios2-elf/4.7.3/../../../../../H-i686-mingw32/nios2-elf/lib\libc.a(lib_a-printf.o)
 .comment       0x00000000       0x24 d:/eda/quartus13/nios2eds/bin/gnu/h-i686-mingw32/bin/../lib/gcc/nios2-elf/4.7.3/../../../../../H-i686-mingw32/nios2-elf/lib\libc.a(lib_a-putc.o)
 .comment       0x00000000       0x24 d:/eda/quartus13/nios2eds/bin/gnu/h-i686-mingw32/bin/../lib/gcc/nios2-elf/4.7.3/../../../../../H-i686-mingw32/nios2-elf/lib\libc.a(lib_a-putchar.o)
 .comment       0x00000000       0x24 d:/eda/quartus13/nios2eds/bin/gnu/h-i686-mingw32/bin/../lib/gcc/nios2-elf/4.7.3/../../../../../H-i686-mingw32/nios2-elf/lib\libc.a(lib_a-puts.o)
 .comment       0x00000000       0x24 d:/eda/quartus13/nios2eds/bin/gnu/h-i686-mingw32/bin/../lib/gcc/nios2-elf/4.7.3/../../../../../H-i686-mingw32/nios2-elf/lib\libc.a(lib_a-refill.o)
 .comment       0x00000000       0x24 d:/eda/quartus13/nios2eds/bin/gnu/h-i686-mingw32/bin/../lib/gcc/nios2-elf/4.7.3/../../../../../H-i686-mingw32/nios2-elf/lib\libc.a(lib_a-rget.o)
 .comment       0x00000000       0x24 d:/eda/quartus13/nios2eds/bin/gnu/h-i686-mingw32/bin/../lib/gcc/nios2-elf/4.7.3/../../../../../H-i686-mingw32/nios2-elf/lib\libc.a(lib_a-sbrkr.o)
 .comment       0x00000000       0x24 d:/eda/quartus13/nios2eds/bin/gnu/h-i686-mingw32/bin/../lib/gcc/nios2-elf/4.7.3/../../../../../H-i686-mingw32/nios2-elf/lib\libc.a(lib_a-sprintf.o)
 .comment       0x00000000       0x24 d:/eda/quartus13/nios2eds/bin/gnu/h-i686-mingw32/bin/../lib/gcc/nios2-elf/4.7.3/../../../../../H-i686-mingw32/nios2-elf/lib\libc.a(lib_a-sscanf.o)
 .comment       0x00000000       0x24 d:/eda/quartus13/nios2eds/bin/gnu/h-i686-mingw32/bin/../lib/gcc/nios2-elf/4.7.3/../../../../../H-i686-mingw32/nios2-elf/lib\libc.a(lib_a-stdio.o)
 .comment       0x00000000       0x24 d:/eda/quartus13/nios2eds/bin/gnu/h-i686-mingw32/bin/../lib/gcc/nios2-elf/4.7.3/../../../../../H-i686-mingw32/nios2-elf/lib\libc.a(lib_a-strcasecmp.o)
 .comment       0x00000000       0x24 d:/eda/quartus13/nios2eds/bin/gnu/h-i686-mingw32/bin/../lib/gcc/nios2-elf/4.7.3/../../../../../H-i686-mingw32/nios2-elf/lib\libc.a(lib_a-strcat.o)
 .comment       0x00000000       0x24 d:/eda/quartus13/nios2eds/bin/gnu/h-i686-mingw32/bin/../lib/gcc/nios2-elf/4.7.3/../../../../../H-i686-mingw32/nios2-elf/lib\libc.a(lib_a-strchr.o)
 .comment       0x00000000       0x24 d:/eda/quartus13/nios2eds/bin/gnu/h-i686-mingw32/bin/../lib/gcc/nios2-elf/4.7.3/../../../../../H-i686-mingw32/nios2-elf/lib\libc.a(lib_a-strcmp.o)
 .comment       0x00000000       0x24 d:/eda/quartus13/nios2eds/bin/gnu/h-i686-mingw32/bin/../lib/gcc/nios2-elf/4.7.3/../../../../../H-i686-mingw32/nios2-elf/lib\libc.a(lib_a-strcpy.o)
 .comment       0x00000000       0x24 d:/eda/quartus13/nios2eds/bin/gnu/h-i686-mingw32/bin/../lib/gcc/nios2-elf/4.7.3/../../../../../H-i686-mingw32/nios2-elf/lib\libc.a(lib_a-strerror.o)
 .comment       0x00000000       0x24 d:/eda/quartus13/nios2eds/bin/gnu/h-i686-mingw32/bin/../lib/gcc/nios2-elf/4.7.3/../../../../../H-i686-mingw32/nios2-elf/lib\libc.a(lib_a-strlen.o)
 .comment       0x00000000       0x24 d:/eda/quartus13/nios2eds/bin/gnu/h-i686-mingw32/bin/../lib/gcc/nios2-elf/4.7.3/../../../../../H-i686-mingw32/nios2-elf/lib\libc.a(lib_a-strncmp.o)
 .comment       0x00000000       0x24 d:/eda/quartus13/nios2eds/bin/gnu/h-i686-mingw32/bin/../lib/gcc/nios2-elf/4.7.3/../../../../../H-i686-mingw32/nios2-elf/lib\libc.a(lib_a-strncpy.o)
 .comment       0x00000000       0x24 d:/eda/quartus13/nios2eds/bin/gnu/h-i686-mingw32/bin/../lib/gcc/nios2-elf/4.7.3/../../../../../H-i686-mingw32/nios2-elf/lib\libc.a(lib_a-strstr.o)
 .comment       0x00000000       0x24 d:/eda/quartus13/nios2eds/bin/gnu/h-i686-mingw32/bin/../lib/gcc/nios2-elf/4.7.3/../../../../../H-i686-mingw32/nios2-elf/lib\libc.a(lib_a-strtok.o)
 .comment       0x00000000       0x24 d:/eda/quartus13/nios2eds/bin/gnu/h-i686-mingw32/bin/../lib/gcc/nios2-elf/4.7.3/../../../../../H-i686-mingw32/nios2-elf/lib\libc.a(lib_a-strtok_r.o)
 .comment       0x00000000       0x24 d:/eda/quartus13/nios2eds/bin/gnu/h-i686-mingw32/bin/../lib/gcc/nios2-elf/4.7.3/../../../../../H-i686-mingw32/nios2-elf/lib\libc.a(lib_a-strtol.o)
 .comment       0x00000000       0x24 d:/eda/quartus13/nios2eds/bin/gnu/h-i686-mingw32/bin/../lib/gcc/nios2-elf/4.7.3/../../../../../H-i686-mingw32/nios2-elf/lib\libc.a(lib_a-u_strerr.o)
 .comment       0x00000000       0x24 d:/eda/quartus13/nios2eds/bin/gnu/h-i686-mingw32/bin/../lib/gcc/nios2-elf/4.7.3/../../../../../H-i686-mingw32/nios2-elf/lib\libc.a(lib_a-vfprintf.o)
 .comment       0x00000000       0x24 d:/eda/quartus13/nios2eds/bin/gnu/h-i686-mingw32/bin/../lib/gcc/nios2-elf/4.7.3/../../../../../H-i686-mingw32/nios2-elf/lib\libc.a(lib_a-vfscanf.o)
 .comment       0x00000000       0x24 d:/eda/quartus13/nios2eds/bin/gnu/h-i686-mingw32/bin/../lib/gcc/nios2-elf/4.7.3/../../../../../H-i686-mingw32/nios2-elf/lib\libc.a(lib_a-wbuf.o)
 .comment       0x00000000       0x24 d:/eda/quartus13/nios2eds/bin/gnu/h-i686-mingw32/bin/../lib/gcc/nios2-elf/4.7.3/../../../../../H-i686-mingw32/nios2-elf/lib\libc.a(lib_a-writer.o)
 .comment       0x00000000       0x24 d:/eda/quartus13/nios2eds/bin/gnu/h-i686-mingw32/bin/../lib/gcc/nios2-elf/4.7.3/../../../../../H-i686-mingw32/nios2-elf/lib\libc.a(lib_a-wsetup.o)
 .comment       0x00000000       0x24 d:/eda/quartus13/nios2eds/bin/gnu/h-i686-mingw32/bin/../lib/gcc/nios2-elf/4.7.3/../../../../../H-i686-mingw32/nios2-elf/lib\libc.a(lib_a-closer.o)
 .comment       0x00000000       0x24 d:/eda/quartus13/nios2eds/bin/gnu/h-i686-mingw32/bin/../lib/gcc/nios2-elf/4.7.3/../../../../../H-i686-mingw32/nios2-elf/lib\libc.a(lib_a-dtoa.o)
 .comment       0x00000000       0x24 d:/eda/quartus13/nios2eds/bin/gnu/h-i686-mingw32/bin/../lib/gcc/nios2-elf/4.7.3/../../../../../H-i686-mingw32/nios2-elf/lib\libc.a(lib_a-flags.o)
 .comment       0x00000000       0x24 d:/eda/quartus13/nios2eds/bin/gnu/h-i686-mingw32/bin/../lib/gcc/nios2-elf/4.7.3/../../../../../H-i686-mingw32/nios2-elf/lib\libc.a(lib_a-fputc.o)
 .comment       0x00000000       0x24 d:/eda/quartus13/nios2eds/bin/gnu/h-i686-mingw32/bin/../lib/gcc/nios2-elf/4.7.3/../../../../../H-i686-mingw32/nios2-elf/lib\libc.a(lib_a-fputs.o)
 .comment       0x00000000       0x24 d:/eda/quartus13/nios2eds/bin/gnu/h-i686-mingw32/bin/../lib/gcc/nios2-elf/4.7.3/../../../../../H-i686-mingw32/nios2-elf/lib\libc.a(lib_a-fvwrite.o)
 .comment       0x00000000       0x24 d:/eda/quartus13/nios2eds/bin/gnu/h-i686-mingw32/bin/../lib/gcc/nios2-elf/4.7.3/../../../../../H-i686-mingw32/nios2-elf/lib\libc.a(lib_a-isattyr.o)
 .comment       0x00000000       0x24 d:/eda/quartus13/nios2eds/bin/gnu/h-i686-mingw32/bin/../lib/gcc/nios2-elf/4.7.3/../../../../../H-i686-mingw32/nios2-elf/lib\libc.a(lib_a-iswspace.o)
 .comment       0x00000000       0x24 d:/eda/quartus13/nios2eds/bin/gnu/h-i686-mingw32/bin/../lib/gcc/nios2-elf/4.7.3/../../../../../H-i686-mingw32/nios2-elf/lib\libc.a(lib_a-locale.o)
 .comment       0x00000000       0x24 d:/eda/quartus13/nios2eds/bin/gnu/h-i686-mingw32/bin/../lib/gcc/nios2-elf/4.7.3/../../../../../H-i686-mingw32/nios2-elf/lib\libc.a(lib_a-lseekr.o)
 .comment       0x00000000       0x24 d:/eda/quartus13/nios2eds/bin/gnu/h-i686-mingw32/bin/../lib/gcc/nios2-elf/4.7.3/../../../../../H-i686-mingw32/nios2-elf/lib\libc.a(lib_a-mbrtowc.o)
 .comment       0x00000000       0x24 d:/eda/quartus13/nios2eds/bin/gnu/h-i686-mingw32/bin/../lib/gcc/nios2-elf/4.7.3/../../../../../H-i686-mingw32/nios2-elf/lib\libc.a(lib_a-mbtowc_r.o)
 .comment       0x00000000       0x24 d:/eda/quartus13/nios2eds/bin/gnu/h-i686-mingw32/bin/../lib/gcc/nios2-elf/4.7.3/../../../../../H-i686-mingw32/nios2-elf/lib\libc.a(lib_a-memchr.o)
 .comment       0x00000000       0x24 d:/eda/quartus13/nios2eds/bin/gnu/h-i686-mingw32/bin/../lib/gcc/nios2-elf/4.7.3/../../../../../H-i686-mingw32/nios2-elf/lib\libc.a(lib_a-memcmp.o)
 .comment       0x00000000       0x24 d:/eda/quartus13/nios2eds/bin/gnu/h-i686-mingw32/bin/../lib/gcc/nios2-elf/4.7.3/../../../../../H-i686-mingw32/nios2-elf/lib\libc.a(lib_a-mprec.o)
 .comment       0x00000000       0x24 d:/eda/quartus13/nios2eds/bin/gnu/h-i686-mingw32/bin/../lib/gcc/nios2-elf/4.7.3/../../../../../H-i686-mingw32/nios2-elf/lib\libc.a(lib_a-readr.o)
 .comment       0x00000000       0x24 d:/eda/quartus13/nios2eds/bin/gnu/h-i686-mingw32/bin/../lib/gcc/nios2-elf/4.7.3/../../../../../H-i686-mingw32/nios2-elf/lib\libc.a(lib_a-reallocr.o)
 .comment       0x00000000       0x24 d:/eda/quartus13/nios2eds/bin/gnu/h-i686-mingw32/bin/../lib/gcc/nios2-elf/4.7.3/../../../../../H-i686-mingw32/nios2-elf/lib\libc.a(lib_a-s_isinfd.o)
 .comment       0x00000000       0x24 d:/eda/quartus13/nios2eds/bin/gnu/h-i686-mingw32/bin/../lib/gcc/nios2-elf/4.7.3/../../../../../H-i686-mingw32/nios2-elf/lib\libc.a(lib_a-s_isnand.o)
 .comment       0x00000000       0x24 d:/eda/quartus13/nios2eds/bin/gnu/h-i686-mingw32/bin/../lib/gcc/nios2-elf/4.7.3/../../../../../H-i686-mingw32/nios2-elf/lib\libc.a(lib_a-sccl.o)
 .comment       0x00000000       0x24 d:/eda/quartus13/nios2eds/bin/gnu/h-i686-mingw32/bin/../lib/gcc/nios2-elf/4.7.3/../../../../../H-i686-mingw32/nios2-elf/lib\libc.a(lib_a-sf_nan.o)
 .comment       0x00000000       0x24 d:/eda/quartus13/nios2eds/bin/gnu/h-i686-mingw32/bin/../lib/gcc/nios2-elf/4.7.3/../../../../../H-i686-mingw32/nios2-elf/lib\libc.a(lib_a-strtod.o)
 .comment       0x00000000       0x24 d:/eda/quartus13/nios2eds/bin/gnu/h-i686-mingw32/bin/../lib/gcc/nios2-elf/4.7.3/../../../../../H-i686-mingw32/nios2-elf/lib\libc.a(lib_a-strtoll_r.o)
 .comment       0x00000000       0x24 d:/eda/quartus13/nios2eds/bin/gnu/h-i686-mingw32/bin/../lib/gcc/nios2-elf/4.7.3/../../../../../H-i686-mingw32/nios2-elf/lib\libc.a(lib_a-strtoul.o)
 .comment       0x00000000       0x24 d:/eda/quartus13/nios2eds/bin/gnu/h-i686-mingw32/bin/../lib/gcc/nios2-elf/4.7.3/../../../../../H-i686-mingw32/nios2-elf/lib\libc.a(lib_a-strtoull_r.o)
 .comment       0x00000000       0x24 d:/eda/quartus13/nios2eds/bin/gnu/h-i686-mingw32/bin/../lib/gcc/nios2-elf/4.7.3/../../../../../H-i686-mingw32/nios2-elf/lib\libc.a(lib_a-ungetc.o)
 .comment       0x00000000       0x24 d:/eda/quartus13/nios2eds/bin/gnu/h-i686-mingw32/bin/../lib/gcc/nios2-elf/4.7.3/../../../../../H-i686-mingw32/nios2-elf/lib\libc.a(lib_a-callocr.o)
 .comment       0x00000000       0x24 d:/eda/quartus13/nios2eds/bin/gnu/h-i686-mingw32/bin/../lib/gcc/nios2-elf/4.7.3/../../../../../H-i686-mingw32/nios2-elf/lib\libc.a(lib_a-gdtoa-gethex.o)
 .comment       0x00000000       0x24 d:/eda/quartus13/nios2eds/bin/gnu/h-i686-mingw32/bin/../lib/gcc/nios2-elf/4.7.3/../../../../../H-i686-mingw32/nios2-elf/lib\libc.a(lib_a-gdtoa-hexnan.o)
 .comment       0x00000000       0x24 d:/eda/quartus13/nios2eds/bin/gnu/h-i686-mingw32/bin/../lib/gcc/nios2-elf/4.7.3\libgcc.a(_muldi3.o)
 .comment       0x00000000       0x24 d:/eda/quartus13/nios2eds/bin/gnu/h-i686-mingw32/bin/../lib/gcc/nios2-elf/4.7.3\libgcc.a(_fixunsdfsi.o)
 .comment       0x00000000       0x24 d:/eda/quartus13/nios2eds/bin/gnu/h-i686-mingw32/bin/../lib/gcc/nios2-elf/4.7.3\libgcc.a(_udivdi3.o)
 .comment       0x00000000       0x24 d:/eda/quartus13/nios2eds/bin/gnu/h-i686-mingw32/bin/../lib/gcc/nios2-elf/4.7.3\libgcc.a(_umoddi3.o)
 .comment       0x00000000       0x24 d:/eda/quartus13/nios2eds/bin/gnu/h-i686-mingw32/bin/../lib/gcc/nios2-elf/4.7.3\libgcc.a(_eq_sf.o)
 .comment       0x00000000       0x24 d:/eda/quartus13/nios2eds/bin/gnu/h-i686-mingw32/bin/../lib/gcc/nios2-elf/4.7.3\libgcc.a(_gt_sf.o)
 .comment       0x00000000       0x24 d:/eda/quartus13/nios2eds/bin/gnu/h-i686-mingw32/bin/../lib/gcc/nios2-elf/4.7.3\libgcc.a(_lt_sf.o)
 .comment       0x00000000       0x24 d:/eda/quartus13/nios2eds/bin/gnu/h-i686-mingw32/bin/../lib/gcc/nios2-elf/4.7.3\libgcc.a(_addsub_df.o)
 .comment       0x00000000       0x24 d:/eda/quartus13/nios2eds/bin/gnu/h-i686-mingw32/bin/../lib/gcc/nios2-elf/4.7.3\libgcc.a(_mul_df.o)
 .comment       0x00000000       0x24 d:/eda/quartus13/nios2eds/bin/gnu/h-i686-mingw32/bin/../lib/gcc/nios2-elf/4.7.3\libgcc.a(_div_df.o)
 .comment       0x00000000       0x24 d:/eda/quartus13/nios2eds/bin/gnu/h-i686-mingw32/bin/../lib/gcc/nios2-elf/4.7.3\libgcc.a(_eq_df.o)
 .comment       0x00000000       0x24 d:/eda/quartus13/nios2eds/bin/gnu/h-i686-mingw32/bin/../lib/gcc/nios2-elf/4.7.3\libgcc.a(_ne_df.o)
 .comment       0x00000000       0x24 d:/eda/quartus13/nios2eds/bin/gnu/h-i686-mingw32/bin/../lib/gcc/nios2-elf/4.7.3\libgcc.a(_gt_df.o)
 .comment       0x00000000       0x24 d:/eda/quartus13/nios2eds/bin/gnu/h-i686-mingw32/bin/../lib/gcc/nios2-elf/4.7.3\libgcc.a(_ge_df.o)
 .comment       0x00000000       0x24 d:/eda/quartus13/nios2eds/bin/gnu/h-i686-mingw32/bin/../lib/gcc/nios2-elf/4.7.3\libgcc.a(_lt_df.o)
 .comment       0x00000000       0x24 d:/eda/quartus13/nios2eds/bin/gnu/h-i686-mingw32/bin/../lib/gcc/nios2-elf/4.7.3\libgcc.a(_le_df.o)
 .comment       0x00000000       0x24 d:/eda/quartus13/nios2eds/bin/gnu/h-i686-mingw32/bin/../lib/gcc/nios2-elf/4.7.3\libgcc.a(_si_to_df.o)
 .comment       0x00000000       0x24 d:/eda/quartus13/nios2eds/bin/gnu/h-i686-mingw32/bin/../lib/gcc/nios2-elf/4.7.3\libgcc.a(_df_to_si.o)
 .comment       0x00000000       0x24 d:/eda/quartus13/nios2eds/bin/gnu/h-i686-mingw32/bin/../lib/gcc/nios2-elf/4.7.3\libgcc.a(_df_to_sf.o)
 .comment       0x00000000       0x24 d:/eda/quartus13/nios2eds/bin/gnu/h-i686-mingw32/bin/../lib/gcc/nios2-elf/4.7.3\libgcc.a(_thenan_df.o)
 .comment       0x00000000       0x24 d:/eda/quartus13/nios2eds/bin/gnu/h-i686-mingw32/bin/../lib/gcc/nios2-elf/4.7.3\libgcc.a(_usi_to_df.o)
 .comment       0x00000000       0x24 d:/eda/quartus13/nios2eds/bin/gnu/h-i686-mingw32/bin/../lib/gcc/nios2-elf/4.7.3\libgcc.a(lib2-divmod.o)
 .comment       0x00000000       0x24 d:/eda/quartus13/nios2eds/bin/gnu/h-i686-mingw32/bin/../lib/gcc/nios2-elf/4.7.3\libgcc.a(_clz.o)
 .comment       0x00000000       0x24 d:/eda/quartus13/nios2eds/bin/gnu/h-i686-mingw32/bin/../lib/gcc/nios2-elf/4.7.3\libgcc.a(_clzsi2.o)
 .comment       0x00000000       0x24 d:/eda/quartus13/nios2eds/bin/gnu/h-i686-mingw32/bin/../lib/gcc/nios2-elf/4.7.3\libgcc.a(_unpack_sf.o)
 .comment       0x00000000       0x24 d:/eda/quartus13/nios2eds/bin/gnu/h-i686-mingw32/bin/../lib/gcc/nios2-elf/4.7.3\libgcc.a(_fpcmp_parts_sf.o)
 .comment       0x00000000       0x24 d:/eda/quartus13/nios2eds/bin/gnu/h-i686-mingw32/bin/../lib/gcc/nios2-elf/4.7.3\libgcc.a(_make_sf.o)
 .comment       0x00000000       0x24 d:/eda/quartus13/nios2eds/bin/gnu/h-i686-mingw32/bin/../lib/gcc/nios2-elf/4.7.3\libgcc.a(_pack_df.o)
 .comment       0x00000000       0x24 d:/eda/quartus13/nios2eds/bin/gnu/h-i686-mingw32/bin/../lib/gcc/nios2-elf/4.7.3\libgcc.a(_unpack_df.o)
 .comment       0x00000000       0x24 d:/eda/quartus13/nios2eds/bin/gnu/h-i686-mingw32/bin/../lib/gcc/nios2-elf/4.7.3\libgcc.a(_fpcmp_parts_df.o)
 .comment       0x00000000       0x24 d:/eda/quartus13/nios2eds/bin/gnu/h-i686-mingw32/bin/../lib/gcc/nios2-elf/4.7.3\libgcc.a(_lshrdi3.o)
 .comment       0x00000000       0x24 d:/eda/quartus13/nios2eds/bin/gnu/h-i686-mingw32/bin/../lib/gcc/nios2-elf/4.7.3\libgcc.a(_ashldi3.o)
 .comment       0x00000000       0x24 d:/eda/quartus13/nios2eds/bin/gnu/h-i686-mingw32/bin/../lib/gcc/nios2-elf/4.7.3\libgcc.a(_pack_sf.o)
 .comment       0x00000000       0x24 F:/Qsys/qsys_webserver/qsys/software/qsys_webserver_bsp/\libucosii_bsp.a(alt_dcache_flush.o)
 .comment       0x00000000       0x24 F:/Qsys/qsys_webserver/qsys/software/qsys_webserver_bsp/\libucosii_bsp.a(alt_flash_dev.o)
 .comment       0x00000000       0x24 F:/Qsys/qsys_webserver/qsys/software/qsys_webserver_bsp/\libucosii_bsp.a(alt_fstat.o)
 .comment       0x00000000       0x24 F:/Qsys/qsys_webserver/qsys/software/qsys_webserver_bsp/\libucosii_bsp.a(alt_isatty.o)
 .comment       0x00000000       0x24 F:/Qsys/qsys_webserver/qsys/software/qsys_webserver_bsp/\libucosii_bsp.a(alt_lseek.o)
 .comment       0x00000000       0x24 F:/Qsys/qsys_webserver/qsys/software/qsys_webserver_bsp/\libucosii_bsp.a(alt_main.o)
 .comment       0x00000000       0x24 F:/Qsys/qsys_webserver/qsys/software/qsys_webserver_bsp/\libucosii_bsp.a(alt_open.o)
 .comment       0x00000000       0x24 F:/Qsys/qsys_webserver/qsys/software/qsys_webserver_bsp/\libucosii_bsp.a(alt_release_fd.o)
 .comment       0x00000000       0x24 F:/Qsys/qsys_webserver/qsys/software/qsys_webserver_bsp/\libucosii_bsp.a(alt_sbrk.o)
 .comment       0x00000000       0x24 F:/Qsys/qsys_webserver/qsys/software/qsys_webserver_bsp/\libucosii_bsp.a(alt_tick.o)
 .comment       0x00000000       0x24 F:/Qsys/qsys_webserver/qsys/software/qsys_webserver_bsp/\libucosii_bsp.a(alt_env_lock.o)
 .comment       0x00000000       0x24 F:/Qsys/qsys_webserver/qsys/software/qsys_webserver_bsp/\libucosii_bsp.a(alt_malloc_lock.o)
 .comment       0x00000000       0x24 F:/Qsys/qsys_webserver/qsys/software/qsys_webserver_bsp/\libucosii_bsp.a(os_core.o)
 .comment       0x00000000       0x24 F:/Qsys/qsys_webserver/qsys/software/qsys_webserver_bsp/\libucosii_bsp.a(os_dbg.o)
 .comment       0x00000000       0x24 F:/Qsys/qsys_webserver/qsys/software/qsys_webserver_bsp/\libucosii_bsp.a(os_flag.o)
 .comment       0x00000000       0x24 F:/Qsys/qsys_webserver/qsys/software/qsys_webserver_bsp/\libucosii_bsp.a(os_mbox.o)
 .comment       0x00000000       0x24 F:/Qsys/qsys_webserver/qsys/software/qsys_webserver_bsp/\libucosii_bsp.a(os_mem.o)
 .comment       0x00000000       0x24 F:/Qsys/qsys_webserver/qsys/software/qsys_webserver_bsp/\libucosii_bsp.a(os_q.o)
 .comment       0x00000000       0x24 F:/Qsys/qsys_webserver/qsys/software/qsys_webserver_bsp/\libucosii_bsp.a(os_sem.o)
 .comment       0x00000000       0x24 F:/Qsys/qsys_webserver/qsys/software/qsys_webserver_bsp/\libucosii_bsp.a(os_task.o)
 .comment       0x00000000       0x24 F:/Qsys/qsys_webserver/qsys/software/qsys_webserver_bsp/\libucosii_bsp.a(os_time.o)
 .comment       0x00000000       0x24 F:/Qsys/qsys_webserver/qsys/software/qsys_webserver_bsp/\libucosii_bsp.a(alt_sys_init.o)
 .comment       0x00000000       0x24 F:/Qsys/qsys_webserver/qsys/software/qsys_webserver_bsp/\libucosii_bsp.a(altera_avalon_epcs_flash_controller.o)
 .comment       0x00000000       0x24 F:/Qsys/qsys_webserver/qsys/software/qsys_webserver_bsp/\libucosii_bsp.a(altera_avalon_jtag_uart_fd.o)
 .comment       0x00000000       0x24 F:/Qsys/qsys_webserver/qsys/software/qsys_webserver_bsp/\libucosii_bsp.a(altera_avalon_jtag_uart_init.o)
 .comment       0x00000000       0x24 F:/Qsys/qsys_webserver/qsys/software/qsys_webserver_bsp/\libucosii_bsp.a(altera_avalon_jtag_uart_ioctl.o)
 .comment       0x00000000       0x24 F:/Qsys/qsys_webserver/qsys/software/qsys_webserver_bsp/\libucosii_bsp.a(altera_avalon_jtag_uart_read.o)
 .comment       0x00000000       0x24 F:/Qsys/qsys_webserver/qsys/software/qsys_webserver_bsp/\libucosii_bsp.a(altera_avalon_jtag_uart_write.o)
 .comment       0x00000000       0x24 F:/Qsys/qsys_webserver/qsys/software/qsys_webserver_bsp/\libucosii_bsp.a(altera_avalon_sgdma.o)
 .comment       0x00000000       0x24 F:/Qsys/qsys_webserver/qsys/software/qsys_webserver_bsp/\libucosii_bsp.a(altera_avalon_timer_sc.o)
 .comment       0x00000000       0x24 F:/Qsys/qsys_webserver/qsys/software/qsys_webserver_bsp/\libucosii_bsp.a(altera_ro_zipfs.o)
 .comment       0x00000000       0x24 F:/Qsys/qsys_webserver/qsys/software/qsys_webserver_bsp/\libucosii_bsp.a(epcs_commands.o)
 .comment       0x00000000       0x24 F:/Qsys/qsys_webserver/qsys/software/qsys_webserver_bsp/\libucosii_bsp.a(ins_tse_mac.o)
 .comment       0x00000000       0x24 F:/Qsys/qsys_webserver/qsys/software/qsys_webserver_bsp/\libucosii_bsp.a(alt_iniche_close.o)
 .comment       0x00000000       0x24 F:/Qsys/qsys_webserver/qsys/software/qsys_webserver_bsp/\libucosii_bsp.a(alt_iniche_dev.o)
 .comment       0x00000000       0x24 F:/Qsys/qsys_webserver/qsys/software/qsys_webserver_bsp/\libucosii_bsp.a(alt_iniche_read.o)
 .comment       0x00000000       0x24 F:/Qsys/qsys_webserver/qsys/software/qsys_webserver_bsp/\libucosii_bsp.a(alt_iniche_write.o)
 .comment       0x00000000       0x24 F:/Qsys/qsys_webserver/qsys/software/qsys_webserver_bsp/\libucosii_bsp.a(ipnet.o)
 .comment       0x00000000       0x24 F:/Qsys/qsys_webserver/qsys/software/qsys_webserver_bsp/\libucosii_bsp.a(ipstart.o)
 .comment       0x00000000       0x24 F:/Qsys/qsys_webserver/qsys/software/qsys_webserver_bsp/\libucosii_bsp.a(igmp_cmn.o)
 .comment       0x00000000       0x24 F:/Qsys/qsys_webserver/qsys/software/qsys_webserver_bsp/\libucosii_bsp.a(bsdsock.o)
 .comment       0x00000000       0x24 F:/Qsys/qsys_webserver/qsys/software/qsys_webserver_bsp/\libucosii_bsp.a(cksum.o)
 .comment       0x00000000       0x24 F:/Qsys/qsys_webserver/qsys/software/qsys_webserver_bsp/\libucosii_bsp.a(in_utils.o)
 .comment       0x00000000       0x24 F:/Qsys/qsys_webserver/qsys/software/qsys_webserver_bsp/\libucosii_bsp.a(netmain.o)
 .comment       0x00000000       0x24 F:/Qsys/qsys_webserver/qsys/software/qsys_webserver_bsp/\libucosii_bsp.a(tk_crnos.o)
 .comment       0x00000000       0x24 F:/Qsys/qsys_webserver/qsys/software/qsys_webserver_bsp/\libucosii_bsp.a(pktalloc.o)
 .comment       0x00000000       0x24 F:/Qsys/qsys_webserver/qsys/software/qsys_webserver_bsp/\libucosii_bsp.a(q.o)
 .comment       0x00000000       0x24 F:/Qsys/qsys_webserver/qsys/software/qsys_webserver_bsp/\libucosii_bsp.a(brdutils.o)
 .comment       0x00000000       0x24 F:/Qsys/qsys_webserver/qsys/software/qsys_webserver_bsp/\libucosii_bsp.a(osportco.o)
 .comment       0x00000000       0x24 F:/Qsys/qsys_webserver/qsys/software/qsys_webserver_bsp/\libucosii_bsp.a(targnios.o)
 .comment       0x00000000       0x24 F:/Qsys/qsys_webserver/qsys/software/qsys_webserver_bsp/\libucosii_bsp.a(nptcp.o)
 .comment       0x00000000       0x24 F:/Qsys/qsys_webserver/qsys/software/qsys_webserver_bsp/\libucosii_bsp.a(rawsock.o)
 .comment       0x00000000       0x24 F:/Qsys/qsys_webserver/qsys/software/qsys_webserver_bsp/\libucosii_bsp.a(sockcall.o)
 .comment       0x00000000       0x24 F:/Qsys/qsys_webserver/qsys/software/qsys_webserver_bsp/\libucosii_bsp.a(socket.o)
 .comment       0x00000000       0x24 F:/Qsys/qsys_webserver/qsys/software/qsys_webserver_bsp/\libucosii_bsp.a(socket2.o)
 .comment       0x00000000       0x24 F:/Qsys/qsys_webserver/qsys/software/qsys_webserver_bsp/\libucosii_bsp.a(soselect.o)
 .comment       0x00000000       0x24 F:/Qsys/qsys_webserver/qsys/software/qsys_webserver_bsp/\libucosii_bsp.a(tcp_in.o)
 .comment       0x00000000       0x24 F:/Qsys/qsys_webserver/qsys/software/qsys_webserver_bsp/\libucosii_bsp.a(tcp_out.o)
 .comment       0x00000000       0x24 F:/Qsys/qsys_webserver/qsys/software/qsys_webserver_bsp/\libucosii_bsp.a(tcp_subr.o)
 .comment       0x00000000       0x24 F:/Qsys/qsys_webserver/qsys/software/qsys_webserver_bsp/\libucosii_bsp.a(tcp_timr.o)
 .comment       0x00000000       0x24 F:/Qsys/qsys_webserver/qsys/software/qsys_webserver_bsp/\libucosii_bsp.a(tcp_usr.o)
 .comment       0x00000000       0x24 F:/Qsys/qsys_webserver/qsys/software/qsys_webserver_bsp/\libucosii_bsp.a(tcpport.o)
 .comment       0x00000000       0x24 F:/Qsys/qsys_webserver/qsys/software/qsys_webserver_bsp/\libucosii_bsp.a(udpsock.o)
 .comment       0x00000000       0x24 F:/Qsys/qsys_webserver/qsys/software/qsys_webserver_bsp/\libucosii_bsp.a(alt_alarm_start.o)
 .comment       0x00000000       0x24 F:/Qsys/qsys_webserver/qsys/software/qsys_webserver_bsp/\libucosii_bsp.a(alt_close.o)
 .comment       0x00000000       0x24 F:/Qsys/qsys_webserver/qsys/software/qsys_webserver_bsp/\libucosii_bsp.a(alt_dev.o)
 .comment       0x00000000       0x24 F:/Qsys/qsys_webserver/qsys/software/qsys_webserver_bsp/\libucosii_bsp.a(alt_dev_llist_insert.o)
 .comment       0x00000000       0x24 F:/Qsys/qsys_webserver/qsys/software/qsys_webserver_bsp/\libucosii_bsp.a(alt_do_ctors.o)
 .comment       0x00000000       0x24 F:/Qsys/qsys_webserver/qsys/software/qsys_webserver_bsp/\libucosii_bsp.a(alt_do_dtors.o)
 .comment       0x00000000       0x24 F:/Qsys/qsys_webserver/qsys/software/qsys_webserver_bsp/\libucosii_bsp.a(alt_errno.o)
 .comment       0x00000000       0x24 F:/Qsys/qsys_webserver/qsys/software/qsys_webserver_bsp/\libucosii_bsp.a(alt_find_dev.o)
 .comment       0x00000000       0x24 F:/Qsys/qsys_webserver/qsys/software/qsys_webserver_bsp/\libucosii_bsp.a(alt_find_file.o)
 .comment       0x00000000       0x24 F:/Qsys/qsys_webserver/qsys/software/qsys_webserver_bsp/\libucosii_bsp.a(alt_fs_reg.o)
 .comment       0x00000000       0x24 F:/Qsys/qsys_webserver/qsys/software/qsys_webserver_bsp/\libucosii_bsp.a(alt_get_fd.o)
 .comment       0x00000000       0x24 F:/Qsys/qsys_webserver/qsys/software/qsys_webserver_bsp/\libucosii_bsp.a(alt_iic.o)
 .comment       0x00000000       0x24 F:/Qsys/qsys_webserver/qsys/software/qsys_webserver_bsp/\libucosii_bsp.a(alt_iic_isr_register.o)
 .comment       0x00000000       0x24 F:/Qsys/qsys_webserver/qsys/software/qsys_webserver_bsp/\libucosii_bsp.a(alt_io_redirect.o)
 .comment       0x00000000       0x24 F:/Qsys/qsys_webserver/qsys/software/qsys_webserver_bsp/\libucosii_bsp.a(alt_irq_handler.o)
 .comment       0x00000000       0x24 F:/Qsys/qsys_webserver/qsys/software/qsys_webserver_bsp/\libucosii_bsp.a(alt_irq_vars.o)
 .comment       0x00000000       0x24 F:/Qsys/qsys_webserver/qsys/software/qsys_webserver_bsp/\libucosii_bsp.a(alt_read.o)
 .comment       0x00000000       0x24 F:/Qsys/qsys_webserver/qsys/software/qsys_webserver_bsp/\libucosii_bsp.a(alt_remap_cached.o)
 .comment       0x00000000       0x24 F:/Qsys/qsys_webserver/qsys/software/qsys_webserver_bsp/\libucosii_bsp.a(alt_remap_uncached.o)
 .comment       0x00000000       0x24 F:/Qsys/qsys_webserver/qsys/software/qsys_webserver_bsp/\libucosii_bsp.a(alt_uncached_malloc.o)
 .comment       0x00000000       0x24 F:/Qsys/qsys_webserver/qsys/software/qsys_webserver_bsp/\libucosii_bsp.a(alt_write.o)
 .comment       0x00000000       0x24 F:/Qsys/qsys_webserver/qsys/software/qsys_webserver_bsp/\libucosii_bsp.a(altera_nios2_qsys_irq.o)
 .comment       0x00000000       0x24 F:/Qsys/qsys_webserver/qsys/software/qsys_webserver_bsp/\libucosii_bsp.a(os_cpu_c.o)
 .comment       0x00000000       0x24 F:/Qsys/qsys_webserver/qsys/software/qsys_webserver_bsp/\libucosii_bsp.a(altera_avalon_spi.o)
 .comment       0x00000000       0x24 F:/Qsys/qsys_webserver/qsys/software/qsys_webserver_bsp/\libucosii_bsp.a(altera_avalon_tse.o)
 .comment       0x00000000       0x24 F:/Qsys/qsys_webserver/qsys/software/qsys_webserver_bsp/\libucosii_bsp.a(altera_avalon_tse_system_info.o)
 .comment       0x00000000       0x24 F:/Qsys/qsys_webserver/qsys/software/qsys_webserver_bsp/\libucosii_bsp.a(allports.o)
 .comment       0x00000000       0x24 F:/Qsys/qsys_webserver/qsys/software/qsys_webserver_bsp/\libucosii_bsp.a(timeouts.o)
 .comment       0x00000000       0x24 F:/Qsys/qsys_webserver/qsys/software/qsys_webserver_bsp/\libucosii_bsp.a(tk_misc.o)
 .comment       0x00000000       0x24 F:/Qsys/qsys_webserver/qsys/software/qsys_webserver_bsp/\libucosii_bsp.a(alt_iniche_fcntl.o)
 .comment       0x00000000       0x24 F:/Qsys/qsys_webserver/qsys/software/qsys_webserver_bsp/\libucosii_bsp.a(et_arp.o)
 .comment       0x00000000       0x24 F:/Qsys/qsys_webserver/qsys/software/qsys_webserver_bsp/\libucosii_bsp.a(iface.o)
 .comment       0x00000000       0x24 F:/Qsys/qsys_webserver/qsys/software/qsys_webserver_bsp/\libucosii_bsp.a(ip.o)
 .comment       0x00000000       0x24 F:/Qsys/qsys_webserver/qsys/software/qsys_webserver_bsp/\libucosii_bsp.a(ip_reasm.o)
 .comment       0x00000000       0x24 F:/Qsys/qsys_webserver/qsys/software/qsys_webserver_bsp/\libucosii_bsp.a(ipdemux.o)
 .comment       0x00000000       0x24 F:/Qsys/qsys_webserver/qsys/software/qsys_webserver_bsp/\libucosii_bsp.a(ipmc.o)
 .comment       0x00000000       0x24 F:/Qsys/qsys_webserver/qsys/software/qsys_webserver_bsp/\libucosii_bsp.a(ipport.o)
 .comment       0x00000000       0x24 F:/Qsys/qsys_webserver/qsys/software/qsys_webserver_bsp/\libucosii_bsp.a(ipraw.o)
 .comment       0x00000000       0x24 F:/Qsys/qsys_webserver/qsys/software/qsys_webserver_bsp/\libucosii_bsp.a(iproute.o)
 .comment       0x00000000       0x24 F:/Qsys/qsys_webserver/qsys/software/qsys_webserver_bsp/\libucosii_bsp.a(udp.o)
 .comment       0x00000000       0x24 F:/Qsys/qsys_webserver/qsys/software/qsys_webserver_bsp/\libucosii_bsp.a(igmp.o)
 .comment       0x00000000       0x24 F:/Qsys/qsys_webserver/qsys/software/qsys_webserver_bsp/\libucosii_bsp.a(igmp2.o)
 .comment       0x00000000       0x24 F:/Qsys/qsys_webserver/qsys/software/qsys_webserver_bsp/\libucosii_bsp.a(ipopt.o)
 .comment       0x00000000       0x24 F:/Qsys/qsys_webserver/qsys/software/qsys_webserver_bsp/\libucosii_bsp.a(u_mctest.o)
 .comment       0x00000000       0x24 F:/Qsys/qsys_webserver/qsys/software/qsys_webserver_bsp/\libucosii_bsp.a(memdev.o)
 .comment       0x00000000       0x24 F:/Qsys/qsys_webserver/qsys/software/qsys_webserver_bsp/\libucosii_bsp.a(parseip.o)
 .comment       0x00000000       0x24 F:/Qsys/qsys_webserver/qsys/software/qsys_webserver_bsp/\libucosii_bsp.a(tcpcksum.o)
 .comment       0x00000000       0x24 F:/Qsys/qsys_webserver/qsys/software/qsys_webserver_bsp/\libucosii_bsp.a(udp_open.o)
 .comment       0x00000000       0x24 F:/Qsys/qsys_webserver/qsys/software/qsys_webserver_bsp/\libucosii_bsp.a(in_pcb.o)
 .comment       0x00000000       0x24 F:/Qsys/qsys_webserver/qsys/software/qsys_webserver_bsp/\libucosii_bsp.a(vfsfiles.o)
 .comment       0x00000000       0x24 F:/Qsys/qsys_webserver/qsys/software/qsys_webserver_bsp/\libucosii_bsp.a(vfsport.o)
 .comment       0x00000000       0x24 F:/Qsys/qsys_webserver/qsys/software/qsys_webserver_bsp/\libucosii_bsp.a(alt_fcntl.o)
 .comment       0x00000000       0x24 F:/Qsys/qsys_webserver/qsys/software/qsys_webserver_bsp/\libucosii_bsp.a(alt_usleep.o)
 .comment       0x00000000       0x24 F:/Qsys/qsys_webserver/qsys/software/qsys_webserver_bsp/\libucosii_bsp.a(icmp.o)
 .comment       0x00000000       0x24 F:/Qsys/qsys_webserver/qsys/software/qsys_webserver_bsp/\libucosii_bsp.a(alt_busy_sleep.o)
 .comment       0x00000000       0x24 d:/eda/quartus13/nios2eds/bin/gnu/h-i686-mingw32/bin/../lib/gcc/nios2-elf/4.7.3/../../../../../H-i686-mingw32/nios2-elf/lib\libc.a(lib_a-atexit.o)
 .comment       0x00000000       0x24 d:/eda/quartus13/nios2eds/bin/gnu/h-i686-mingw32/bin/../lib/gcc/nios2-elf/4.7.3/../../../../../H-i686-mingw32/nios2-elf/lib\libc.a(lib_a-calloc.o)
 .comment       0x00000000       0x24 d:/eda/quartus13/nios2eds/bin/gnu/h-i686-mingw32/bin/../lib/gcc/nios2-elf/4.7.3/../../../../../H-i686-mingw32/nios2-elf/lib\libc.a(lib_a-exit.o)
 .comment       0x00000000       0x24 d:/eda/quartus13/nios2eds/bin/gnu/h-i686-mingw32/bin/../lib/gcc/nios2-elf/4.7.3/../../../../../H-i686-mingw32/nios2-elf/lib\libc.a(lib_a-malloc.o)
 .comment       0x00000000       0x24 d:/eda/quartus13/nios2eds/bin/gnu/h-i686-mingw32/bin/../lib/gcc/nios2-elf/4.7.3/../../../../../H-i686-mingw32/nios2-elf/lib\libc.a(lib_a-vprintf.o)
 .comment       0x00000000       0x24 d:/eda/quartus13/nios2eds/bin/gnu/h-i686-mingw32/bin/../lib/gcc/nios2-elf/4.7.3/../../../../../H-i686-mingw32/nios2-elf/lib\libc.a(lib_a-vsprintf.o)
 .comment       0x00000000       0x24 d:/eda/quartus13/nios2eds/bin/gnu/h-i686-mingw32/bin/../lib/gcc/nios2-elf/4.7.3/../../../../../H-i686-mingw32/nios2-elf/lib\libc.a(lib_a-__atexit.o)
 .comment       0x00000000       0x24 d:/eda/quartus13/nios2eds/bin/gnu/h-i686-mingw32/bin/../lib/gcc/nios2-elf/4.7.3/../../../../../H-i686-mingw32/nios2-elf/lib\libc.a(lib_a-__call_atexit.o)
 .comment       0x00000000       0x24 F:/Qsys/qsys_webserver/qsys/software/qsys_webserver_bsp/\libucosii_bsp.a(alt_exit.o)

.debug
 *(.debug)

.line
 *(.line)

.debug_srcinfo
 *(.debug_srcinfo)

.debug_sfnames
 *(.debug_sfnames)

.debug_aranges  0x00000000     0x1f88
 *(.debug_aranges)
 .debug_aranges
                0x00000000       0x20 F:/Qsys/qsys_webserver/qsys/software/qsys_webserver_bsp//obj/HAL/src/crt0.o
 .debug_aranges
                0x00000020       0x20 obj/default/alt_error_handler.o
 .debug_aranges
                0x00000040       0x20 obj/default/http.o
 .debug_aranges
                0x00000060       0x20 obj/default/network_utilities.o
 .debug_aranges
                0x00000080       0x20 obj/default/srec_flash.o
 .debug_aranges
                0x000000a0       0x20 obj/default/web_server.o
 .debug_aranges
                0x000000c0       0x20 d:/eda/quartus13/nios2eds/bin/gnu/h-i686-mingw32/bin/../lib/gcc/nios2-elf/4.7.3/../../../../../H-i686-mingw32/nios2-elf/lib\libc.a(lib_a-atoi.o)
 .debug_aranges
                0x000000e0       0x18 d:/eda/quartus13/nios2eds/bin/gnu/h-i686-mingw32/bin/../lib/gcc/nios2-elf/4.7.3/../../../../../H-i686-mingw32/nios2-elf/lib\libc.a(lib_a-ctype_.o)
 .debug_aranges
                0x000000f8       0x20 d:/eda/quartus13/nios2eds/bin/gnu/h-i686-mingw32/bin/../lib/gcc/nios2-elf/4.7.3/../../../../../H-i686-mingw32/nios2-elf/lib\libc.a(lib_a-fclose.o)
 .debug_aranges
                0x00000118       0x20 d:/eda/quartus13/nios2eds/bin/gnu/h-i686-mingw32/bin/../lib/gcc/nios2-elf/4.7.3/../../../../../H-i686-mingw32/nios2-elf/lib\libc.a(lib_a-fflush.o)
 .debug_aranges
                0x00000138       0x20 d:/eda/quartus13/nios2eds/bin/gnu/h-i686-mingw32/bin/../lib/gcc/nios2-elf/4.7.3/../../../../../H-i686-mingw32/nios2-elf/lib\libc.a(lib_a-fgetpos.o)
 .debug_aranges
                0x00000158       0x20 d:/eda/quartus13/nios2eds/bin/gnu/h-i686-mingw32/bin/../lib/gcc/nios2-elf/4.7.3/../../../../../H-i686-mingw32/nios2-elf/lib\libc.a(lib_a-findfp.o)
 .debug_aranges
                0x00000178       0x20 d:/eda/quartus13/nios2eds/bin/gnu/h-i686-mingw32/bin/../lib/gcc/nios2-elf/4.7.3/../../../../../H-i686-mingw32/nios2-elf/lib\libc.a(lib_a-fopen.o)
 .debug_aranges
                0x00000198       0x20 d:/eda/quartus13/nios2eds/bin/gnu/h-i686-mingw32/bin/../lib/gcc/nios2-elf/4.7.3/../../../../../H-i686-mingw32/nios2-elf/lib\libc.a(lib_a-fprintf.o)
 .debug_aranges
                0x000001b8       0x20 d:/eda/quartus13/nios2eds/bin/gnu/h-i686-mingw32/bin/../lib/gcc/nios2-elf/4.7.3/../../../../../H-i686-mingw32/nios2-elf/lib\libc.a(lib_a-fread.o)
 .debug_aranges
                0x000001d8       0x20 d:/eda/quartus13/nios2eds/bin/gnu/h-i686-mingw32/bin/../lib/gcc/nios2-elf/4.7.3/../../../../../H-i686-mingw32/nios2-elf/lib\libc.a(lib_a-freer.o)
 .debug_aranges
                0x000001f8       0x20 d:/eda/quartus13/nios2eds/bin/gnu/h-i686-mingw32/bin/../lib/gcc/nios2-elf/4.7.3/../../../../../H-i686-mingw32/nios2-elf/lib\libc.a(lib_a-fseek.o)
 .debug_aranges
                0x00000218       0x20 d:/eda/quartus13/nios2eds/bin/gnu/h-i686-mingw32/bin/../lib/gcc/nios2-elf/4.7.3/../../../../../H-i686-mingw32/nios2-elf/lib\libc.a(lib_a-fstatr.o)
 .debug_aranges
                0x00000238       0x20 d:/eda/quartus13/nios2eds/bin/gnu/h-i686-mingw32/bin/../lib/gcc/nios2-elf/4.7.3/../../../../../H-i686-mingw32/nios2-elf/lib\libc.a(lib_a-ftell.o)
 .debug_aranges
                0x00000258       0x20 d:/eda/quartus13/nios2eds/bin/gnu/h-i686-mingw32/bin/../lib/gcc/nios2-elf/4.7.3/../../../../../H-i686-mingw32/nios2-elf/lib\libc.a(lib_a-fwalk.o)
 .debug_aranges
                0x00000278       0x20 d:/eda/quartus13/nios2eds/bin/gnu/h-i686-mingw32/bin/../lib/gcc/nios2-elf/4.7.3/../../../../../H-i686-mingw32/nios2-elf/lib\libc.a(lib_a-fwrite.o)
 .debug_aranges
                0x00000298       0x20 d:/eda/quartus13/nios2eds/bin/gnu/h-i686-mingw32/bin/../lib/gcc/nios2-elf/4.7.3/../../../../../H-i686-mingw32/nios2-elf/lib\libc.a(lib_a-getc.o)
 .debug_aranges
                0x000002b8       0x18 d:/eda/quartus13/nios2eds/bin/gnu/h-i686-mingw32/bin/../lib/gcc/nios2-elf/4.7.3/../../../../../H-i686-mingw32/nios2-elf/lib\libc.a(lib_a-impure.o)
 .debug_aranges
                0x000002d0       0x18 d:/eda/quartus13/nios2eds/bin/gnu/h-i686-mingw32/bin/../lib/gcc/nios2-elf/4.7.3/../../../../../H-i686-mingw32/nios2-elf/lib\libc.a(lib_a-int_errno.o)
 .debug_aranges
                0x000002e8       0x20 d:/eda/quartus13/nios2eds/bin/gnu/h-i686-mingw32/bin/../lib/gcc/nios2-elf/4.7.3/../../../../../H-i686-mingw32/nios2-elf/lib\libc.a(lib_a-makebuf.o)
 .debug_aranges
                0x00000308       0x20 d:/eda/quartus13/nios2eds/bin/gnu/h-i686-mingw32/bin/../lib/gcc/nios2-elf/4.7.3/../../../../../H-i686-mingw32/nios2-elf/lib\libc.a(lib_a-mallocr.o)
 .debug_aranges
                0x00000328       0x20 d:/eda/quartus13/nios2eds/bin/gnu/h-i686-mingw32/bin/../lib/gcc/nios2-elf/4.7.3/../../../../../H-i686-mingw32/nios2-elf/lib\libc.a(lib_a-memcpy.o)
 .debug_aranges
                0x00000348       0x20 d:/eda/quartus13/nios2eds/bin/gnu/h-i686-mingw32/bin/../lib/gcc/nios2-elf/4.7.3/../../../../../H-i686-mingw32/nios2-elf/lib\libc.a(lib_a-memmove.o)
 .debug_aranges
                0x00000368       0x20 d:/eda/quartus13/nios2eds/bin/gnu/h-i686-mingw32/bin/../lib/gcc/nios2-elf/4.7.3/../../../../../H-i686-mingw32/nios2-elf/lib\libc.a(lib_a-memset.o)
 .debug_aranges
                0x00000388       0x20 d:/eda/quartus13/nios2eds/bin/gnu/h-i686-mingw32/bin/../lib/gcc/nios2-elf/4.7.3/../../../../../H-i686-mingw32/nios2-elf/lib\libc.a(lib_a-openr.o)
 .debug_aranges
                0x000003a8       0x20 d:/eda/quartus13/nios2eds/bin/gnu/h-i686-mingw32/bin/../lib/gcc/nios2-elf/4.7.3/../../../../../H-i686-mingw32/nios2-elf/lib\libc.a(lib_a-perror.o)
 .debug_aranges
                0x000003c8       0x20 d:/eda/quartus13/nios2eds/bin/gnu/h-i686-mingw32/bin/../lib/gcc/nios2-elf/4.7.3/../../../../../H-i686-mingw32/nios2-elf/lib\libc.a(lib_a-printf.o)
 .debug_aranges
                0x000003e8       0x20 d:/eda/quartus13/nios2eds/bin/gnu/h-i686-mingw32/bin/../lib/gcc/nios2-elf/4.7.3/../../../../../H-i686-mingw32/nios2-elf/lib\libc.a(lib_a-putc.o)
 .debug_aranges
                0x00000408       0x20 d:/eda/quartus13/nios2eds/bin/gnu/h-i686-mingw32/bin/../lib/gcc/nios2-elf/4.7.3/../../../../../H-i686-mingw32/nios2-elf/lib\libc.a(lib_a-putchar.o)
 .debug_aranges
                0x00000428       0x20 d:/eda/quartus13/nios2eds/bin/gnu/h-i686-mingw32/bin/../lib/gcc/nios2-elf/4.7.3/../../../../../H-i686-mingw32/nios2-elf/lib\libc.a(lib_a-puts.o)
 .debug_aranges
                0x00000448       0x20 d:/eda/quartus13/nios2eds/bin/gnu/h-i686-mingw32/bin/../lib/gcc/nios2-elf/4.7.3/../../../../../H-i686-mingw32/nios2-elf/lib\libc.a(lib_a-refill.o)
 .debug_aranges
                0x00000468       0x20 d:/eda/quartus13/nios2eds/bin/gnu/h-i686-mingw32/bin/../lib/gcc/nios2-elf/4.7.3/../../../../../H-i686-mingw32/nios2-elf/lib\libc.a(lib_a-rget.o)
 .debug_aranges
                0x00000488       0x20 d:/eda/quartus13/nios2eds/bin/gnu/h-i686-mingw32/bin/../lib/gcc/nios2-elf/4.7.3/../../../../../H-i686-mingw32/nios2-elf/lib\libc.a(lib_a-sbrkr.o)
 .debug_aranges
                0x000004a8       0x20 d:/eda/quartus13/nios2eds/bin/gnu/h-i686-mingw32/bin/../lib/gcc/nios2-elf/4.7.3/../../../../../H-i686-mingw32/nios2-elf/lib\libc.a(lib_a-sprintf.o)
 .debug_aranges
                0x000004c8       0x20 d:/eda/quartus13/nios2eds/bin/gnu/h-i686-mingw32/bin/../lib/gcc/nios2-elf/4.7.3/../../../../../H-i686-mingw32/nios2-elf/lib\libc.a(lib_a-sscanf.o)
 .debug_aranges
                0x000004e8       0x20 d:/eda/quartus13/nios2eds/bin/gnu/h-i686-mingw32/bin/../lib/gcc/nios2-elf/4.7.3/../../../../../H-i686-mingw32/nios2-elf/lib\libc.a(lib_a-stdio.o)
 .debug_aranges
                0x00000508       0x20 d:/eda/quartus13/nios2eds/bin/gnu/h-i686-mingw32/bin/../lib/gcc/nios2-elf/4.7.3/../../../../../H-i686-mingw32/nios2-elf/lib\libc.a(lib_a-strcasecmp.o)
 .debug_aranges
                0x00000528       0x20 d:/eda/quartus13/nios2eds/bin/gnu/h-i686-mingw32/bin/../lib/gcc/nios2-elf/4.7.3/../../../../../H-i686-mingw32/nios2-elf/lib\libc.a(lib_a-strcat.o)
 .debug_aranges
                0x00000548       0x20 d:/eda/quartus13/nios2eds/bin/gnu/h-i686-mingw32/bin/../lib/gcc/nios2-elf/4.7.3/../../../../../H-i686-mingw32/nios2-elf/lib\libc.a(lib_a-strchr.o)
 .debug_aranges
                0x00000568       0x20 d:/eda/quartus13/nios2eds/bin/gnu/h-i686-mingw32/bin/../lib/gcc/nios2-elf/4.7.3/../../../../../H-i686-mingw32/nios2-elf/lib\libc.a(lib_a-strcmp.o)
 .debug_aranges
                0x00000588       0x20 d:/eda/quartus13/nios2eds/bin/gnu/h-i686-mingw32/bin/../lib/gcc/nios2-elf/4.7.3/../../../../../H-i686-mingw32/nios2-elf/lib\libc.a(lib_a-strcpy.o)
 .debug_aranges
                0x000005a8       0x20 d:/eda/quartus13/nios2eds/bin/gnu/h-i686-mingw32/bin/../lib/gcc/nios2-elf/4.7.3/../../../../../H-i686-mingw32/nios2-elf/lib\libc.a(lib_a-strerror.o)
 .debug_aranges
                0x000005c8       0x20 d:/eda/quartus13/nios2eds/bin/gnu/h-i686-mingw32/bin/../lib/gcc/nios2-elf/4.7.3/../../../../../H-i686-mingw32/nios2-elf/lib\libc.a(lib_a-strlen.o)
 .debug_aranges
                0x000005e8       0x20 d:/eda/quartus13/nios2eds/bin/gnu/h-i686-mingw32/bin/../lib/gcc/nios2-elf/4.7.3/../../../../../H-i686-mingw32/nios2-elf/lib\libc.a(lib_a-strncmp.o)
 .debug_aranges
                0x00000608       0x20 d:/eda/quartus13/nios2eds/bin/gnu/h-i686-mingw32/bin/../lib/gcc/nios2-elf/4.7.3/../../../../../H-i686-mingw32/nios2-elf/lib\libc.a(lib_a-strncpy.o)
 .debug_aranges
                0x00000628       0x20 d:/eda/quartus13/nios2eds/bin/gnu/h-i686-mingw32/bin/../lib/gcc/nios2-elf/4.7.3/../../../../../H-i686-mingw32/nios2-elf/lib\libc.a(lib_a-strstr.o)
 .debug_aranges
                0x00000648       0x20 d:/eda/quartus13/nios2eds/bin/gnu/h-i686-mingw32/bin/../lib/gcc/nios2-elf/4.7.3/../../../../../H-i686-mingw32/nios2-elf/lib\libc.a(lib_a-strtok.o)
 .debug_aranges
                0x00000668       0x20 d:/eda/quartus13/nios2eds/bin/gnu/h-i686-mingw32/bin/../lib/gcc/nios2-elf/4.7.3/../../../../../H-i686-mingw32/nios2-elf/lib\libc.a(lib_a-strtok_r.o)
 .debug_aranges
                0x00000688       0x20 d:/eda/quartus13/nios2eds/bin/gnu/h-i686-mingw32/bin/../lib/gcc/nios2-elf/4.7.3/../../../../../H-i686-mingw32/nios2-elf/lib\libc.a(lib_a-strtol.o)
 .debug_aranges
                0x000006a8       0x20 d:/eda/quartus13/nios2eds/bin/gnu/h-i686-mingw32/bin/../lib/gcc/nios2-elf/4.7.3/../../../../../H-i686-mingw32/nios2-elf/lib\libc.a(lib_a-u_strerr.o)
 .debug_aranges
                0x000006c8       0x20 d:/eda/quartus13/nios2eds/bin/gnu/h-i686-mingw32/bin/../lib/gcc/nios2-elf/4.7.3/../../../../../H-i686-mingw32/nios2-elf/lib\libc.a(lib_a-vfprintf.o)
 .debug_aranges
                0x000006e8       0x20 d:/eda/quartus13/nios2eds/bin/gnu/h-i686-mingw32/bin/../lib/gcc/nios2-elf/4.7.3/../../../../../H-i686-mingw32/nios2-elf/lib\libc.a(lib_a-vfscanf.o)
 .debug_aranges
                0x00000708       0x20 d:/eda/quartus13/nios2eds/bin/gnu/h-i686-mingw32/bin/../lib/gcc/nios2-elf/4.7.3/../../../../../H-i686-mingw32/nios2-elf/lib\libc.a(lib_a-wbuf.o)
 .debug_aranges
                0x00000728       0x20 d:/eda/quartus13/nios2eds/bin/gnu/h-i686-mingw32/bin/../lib/gcc/nios2-elf/4.7.3/../../../../../H-i686-mingw32/nios2-elf/lib\libc.a(lib_a-writer.o)
 .debug_aranges
                0x00000748       0x20 d:/eda/quartus13/nios2eds/bin/gnu/h-i686-mingw32/bin/../lib/gcc/nios2-elf/4.7.3/../../../../../H-i686-mingw32/nios2-elf/lib\libc.a(lib_a-wsetup.o)
 .debug_aranges
                0x00000768       0x20 d:/eda/quartus13/nios2eds/bin/gnu/h-i686-mingw32/bin/../lib/gcc/nios2-elf/4.7.3/../../../../../H-i686-mingw32/nios2-elf/lib\libc.a(lib_a-closer.o)
 .debug_aranges
                0x00000788       0x20 d:/eda/quartus13/nios2eds/bin/gnu/h-i686-mingw32/bin/../lib/gcc/nios2-elf/4.7.3/../../../../../H-i686-mingw32/nios2-elf/lib\libc.a(lib_a-dtoa.o)
 .debug_aranges
                0x000007a8       0x20 d:/eda/quartus13/nios2eds/bin/gnu/h-i686-mingw32/bin/../lib/gcc/nios2-elf/4.7.3/../../../../../H-i686-mingw32/nios2-elf/lib\libc.a(lib_a-flags.o)
 .debug_aranges
                0x000007c8       0x20 d:/eda/quartus13/nios2eds/bin/gnu/h-i686-mingw32/bin/../lib/gcc/nios2-elf/4.7.3/../../../../../H-i686-mingw32/nios2-elf/lib\libc.a(lib_a-fputc.o)
 .debug_aranges
                0x000007e8       0x20 d:/eda/quartus13/nios2eds/bin/gnu/h-i686-mingw32/bin/../lib/gcc/nios2-elf/4.7.3/../../../../../H-i686-mingw32/nios2-elf/lib\libc.a(lib_a-fputs.o)
 .debug_aranges
                0x00000808       0x20 d:/eda/quartus13/nios2eds/bin/gnu/h-i686-mingw32/bin/../lib/gcc/nios2-elf/4.7.3/../../../../../H-i686-mingw32/nios2-elf/lib\libc.a(lib_a-fvwrite.o)
 .debug_aranges
                0x00000828       0x20 d:/eda/quartus13/nios2eds/bin/gnu/h-i686-mingw32/bin/../lib/gcc/nios2-elf/4.7.3/../../../../../H-i686-mingw32/nios2-elf/lib\libc.a(lib_a-isattyr.o)
 .debug_aranges
                0x00000848       0x20 d:/eda/quartus13/nios2eds/bin/gnu/h-i686-mingw32/bin/../lib/gcc/nios2-elf/4.7.3/../../../../../H-i686-mingw32/nios2-elf/lib\libc.a(lib_a-iswspace.o)
 .debug_aranges
                0x00000868       0x20 d:/eda/quartus13/nios2eds/bin/gnu/h-i686-mingw32/bin/../lib/gcc/nios2-elf/4.7.3/../../../../../H-i686-mingw32/nios2-elf/lib\libc.a(lib_a-locale.o)
 .debug_aranges
                0x00000888       0x20 d:/eda/quartus13/nios2eds/bin/gnu/h-i686-mingw32/bin/../lib/gcc/nios2-elf/4.7.3/../../../../../H-i686-mingw32/nios2-elf/lib\libc.a(lib_a-lseekr.o)
 .debug_aranges
                0x000008a8       0x20 d:/eda/quartus13/nios2eds/bin/gnu/h-i686-mingw32/bin/../lib/gcc/nios2-elf/4.7.3/../../../../../H-i686-mingw32/nios2-elf/lib\libc.a(lib_a-mbrtowc.o)
 .debug_aranges
                0x000008c8       0x20 d:/eda/quartus13/nios2eds/bin/gnu/h-i686-mingw32/bin/../lib/gcc/nios2-elf/4.7.3/../../../../../H-i686-mingw32/nios2-elf/lib\libc.a(lib_a-mbtowc_r.o)
 .debug_aranges
                0x000008e8       0x20 d:/eda/quartus13/nios2eds/bin/gnu/h-i686-mingw32/bin/../lib/gcc/nios2-elf/4.7.3/../../../../../H-i686-mingw32/nios2-elf/lib\libc.a(lib_a-memchr.o)
 .debug_aranges
                0x00000908       0x20 d:/eda/quartus13/nios2eds/bin/gnu/h-i686-mingw32/bin/../lib/gcc/nios2-elf/4.7.3/../../../../../H-i686-mingw32/nios2-elf/lib\libc.a(lib_a-memcmp.o)
 .debug_aranges
                0x00000928       0x20 d:/eda/quartus13/nios2eds/bin/gnu/h-i686-mingw32/bin/../lib/gcc/nios2-elf/4.7.3/../../../../../H-i686-mingw32/nios2-elf/lib\libc.a(lib_a-mprec.o)
 .debug_aranges
                0x00000948       0x20 d:/eda/quartus13/nios2eds/bin/gnu/h-i686-mingw32/bin/../lib/gcc/nios2-elf/4.7.3/../../../../../H-i686-mingw32/nios2-elf/lib\libc.a(lib_a-readr.o)
 .debug_aranges
                0x00000968       0x20 d:/eda/quartus13/nios2eds/bin/gnu/h-i686-mingw32/bin/../lib/gcc/nios2-elf/4.7.3/../../../../../H-i686-mingw32/nios2-elf/lib\libc.a(lib_a-reallocr.o)
 .debug_aranges
                0x00000988       0x20 d:/eda/quartus13/nios2eds/bin/gnu/h-i686-mingw32/bin/../lib/gcc/nios2-elf/4.7.3/../../../../../H-i686-mingw32/nios2-elf/lib\libc.a(lib_a-s_isinfd.o)
 .debug_aranges
                0x000009a8       0x20 d:/eda/quartus13/nios2eds/bin/gnu/h-i686-mingw32/bin/../lib/gcc/nios2-elf/4.7.3/../../../../../H-i686-mingw32/nios2-elf/lib\libc.a(lib_a-s_isnand.o)
 .debug_aranges
                0x000009c8       0x20 d:/eda/quartus13/nios2eds/bin/gnu/h-i686-mingw32/bin/../lib/gcc/nios2-elf/4.7.3/../../../../../H-i686-mingw32/nios2-elf/lib\libc.a(lib_a-sccl.o)
 .debug_aranges
                0x000009e8       0x20 d:/eda/quartus13/nios2eds/bin/gnu/h-i686-mingw32/bin/../lib/gcc/nios2-elf/4.7.3/../../../../../H-i686-mingw32/nios2-elf/lib\libc.a(lib_a-sf_nan.o)
 .debug_aranges
                0x00000a08       0x20 d:/eda/quartus13/nios2eds/bin/gnu/h-i686-mingw32/bin/../lib/gcc/nios2-elf/4.7.3/../../../../../H-i686-mingw32/nios2-elf/lib\libc.a(lib_a-strtod.o)
 .debug_aranges
                0x00000a28       0x20 d:/eda/quartus13/nios2eds/bin/gnu/h-i686-mingw32/bin/../lib/gcc/nios2-elf/4.7.3/../../../../../H-i686-mingw32/nios2-elf/lib\libc.a(lib_a-strtoll_r.o)
 .debug_aranges
                0x00000a48       0x20 d:/eda/quartus13/nios2eds/bin/gnu/h-i686-mingw32/bin/../lib/gcc/nios2-elf/4.7.3/../../../../../H-i686-mingw32/nios2-elf/lib\libc.a(lib_a-strtoul.o)
 .debug_aranges
                0x00000a68       0x20 d:/eda/quartus13/nios2eds/bin/gnu/h-i686-mingw32/bin/../lib/gcc/nios2-elf/4.7.3/../../../../../H-i686-mingw32/nios2-elf/lib\libc.a(lib_a-strtoull_r.o)
 .debug_aranges
                0x00000a88       0x20 d:/eda/quartus13/nios2eds/bin/gnu/h-i686-mingw32/bin/../lib/gcc/nios2-elf/4.7.3/../../../../../H-i686-mingw32/nios2-elf/lib\libc.a(lib_a-ungetc.o)
 .debug_aranges
                0x00000aa8       0x20 d:/eda/quartus13/nios2eds/bin/gnu/h-i686-mingw32/bin/../lib/gcc/nios2-elf/4.7.3/../../../../../H-i686-mingw32/nios2-elf/lib\libc.a(lib_a-callocr.o)
 .debug_aranges
                0x00000ac8       0x20 d:/eda/quartus13/nios2eds/bin/gnu/h-i686-mingw32/bin/../lib/gcc/nios2-elf/4.7.3/../../../../../H-i686-mingw32/nios2-elf/lib\libc.a(lib_a-gdtoa-gethex.o)
 .debug_aranges
                0x00000ae8       0x20 d:/eda/quartus13/nios2eds/bin/gnu/h-i686-mingw32/bin/../lib/gcc/nios2-elf/4.7.3/../../../../../H-i686-mingw32/nios2-elf/lib\libc.a(lib_a-gdtoa-hexnan.o)
 .debug_aranges
                0x00000b08       0x20 d:/eda/quartus13/nios2eds/bin/gnu/h-i686-mingw32/bin/../lib/gcc/nios2-elf/4.7.3\libgcc.a(_muldi3.o)
 .debug_aranges
                0x00000b28       0x20 d:/eda/quartus13/nios2eds/bin/gnu/h-i686-mingw32/bin/../lib/gcc/nios2-elf/4.7.3\libgcc.a(_fixunsdfsi.o)
 .debug_aranges
                0x00000b48       0x20 d:/eda/quartus13/nios2eds/bin/gnu/h-i686-mingw32/bin/../lib/gcc/nios2-elf/4.7.3\libgcc.a(_udivdi3.o)
 .debug_aranges
                0x00000b68       0x20 d:/eda/quartus13/nios2eds/bin/gnu/h-i686-mingw32/bin/../lib/gcc/nios2-elf/4.7.3\libgcc.a(_umoddi3.o)
 .debug_aranges
                0x00000b88       0x20 d:/eda/quartus13/nios2eds/bin/gnu/h-i686-mingw32/bin/../lib/gcc/nios2-elf/4.7.3\libgcc.a(_eq_sf.o)
 .debug_aranges
                0x00000ba8       0x20 d:/eda/quartus13/nios2eds/bin/gnu/h-i686-mingw32/bin/../lib/gcc/nios2-elf/4.7.3\libgcc.a(_gt_sf.o)
 .debug_aranges
                0x00000bc8       0x20 d:/eda/quartus13/nios2eds/bin/gnu/h-i686-mingw32/bin/../lib/gcc/nios2-elf/4.7.3\libgcc.a(_lt_sf.o)
 .debug_aranges
                0x00000be8       0x20 d:/eda/quartus13/nios2eds/bin/gnu/h-i686-mingw32/bin/../lib/gcc/nios2-elf/4.7.3\libgcc.a(_addsub_df.o)
 .debug_aranges
                0x00000c08       0x20 d:/eda/quartus13/nios2eds/bin/gnu/h-i686-mingw32/bin/../lib/gcc/nios2-elf/4.7.3\libgcc.a(_mul_df.o)
 .debug_aranges
                0x00000c28       0x20 d:/eda/quartus13/nios2eds/bin/gnu/h-i686-mingw32/bin/../lib/gcc/nios2-elf/4.7.3\libgcc.a(_div_df.o)
 .debug_aranges
                0x00000c48       0x20 d:/eda/quartus13/nios2eds/bin/gnu/h-i686-mingw32/bin/../lib/gcc/nios2-elf/4.7.3\libgcc.a(_eq_df.o)
 .debug_aranges
                0x00000c68       0x20 d:/eda/quartus13/nios2eds/bin/gnu/h-i686-mingw32/bin/../lib/gcc/nios2-elf/4.7.3\libgcc.a(_ne_df.o)
 .debug_aranges
                0x00000c88       0x20 d:/eda/quartus13/nios2eds/bin/gnu/h-i686-mingw32/bin/../lib/gcc/nios2-elf/4.7.3\libgcc.a(_gt_df.o)
 .debug_aranges
                0x00000ca8       0x20 d:/eda/quartus13/nios2eds/bin/gnu/h-i686-mingw32/bin/../lib/gcc/nios2-elf/4.7.3\libgcc.a(_ge_df.o)
 .debug_aranges
                0x00000cc8       0x20 d:/eda/quartus13/nios2eds/bin/gnu/h-i686-mingw32/bin/../lib/gcc/nios2-elf/4.7.3\libgcc.a(_lt_df.o)
 .debug_aranges
                0x00000ce8       0x20 d:/eda/quartus13/nios2eds/bin/gnu/h-i686-mingw32/bin/../lib/gcc/nios2-elf/4.7.3\libgcc.a(_le_df.o)
 .debug_aranges
                0x00000d08       0x20 d:/eda/quartus13/nios2eds/bin/gnu/h-i686-mingw32/bin/../lib/gcc/nios2-elf/4.7.3\libgcc.a(_si_to_df.o)
 .debug_aranges
                0x00000d28       0x20 d:/eda/quartus13/nios2eds/bin/gnu/h-i686-mingw32/bin/../lib/gcc/nios2-elf/4.7.3\libgcc.a(_df_to_si.o)
 .debug_aranges
                0x00000d48       0x20 d:/eda/quartus13/nios2eds/bin/gnu/h-i686-mingw32/bin/../lib/gcc/nios2-elf/4.7.3\libgcc.a(_df_to_sf.o)
 .debug_aranges
                0x00000d68       0x18 d:/eda/quartus13/nios2eds/bin/gnu/h-i686-mingw32/bin/../lib/gcc/nios2-elf/4.7.3\libgcc.a(_thenan_df.o)
 .debug_aranges
                0x00000d80       0x20 d:/eda/quartus13/nios2eds/bin/gnu/h-i686-mingw32/bin/../lib/gcc/nios2-elf/4.7.3\libgcc.a(_usi_to_df.o)
 .debug_aranges
                0x00000da0       0x20 d:/eda/quartus13/nios2eds/bin/gnu/h-i686-mingw32/bin/../lib/gcc/nios2-elf/4.7.3\libgcc.a(lib2-divmod.o)
 .debug_aranges
                0x00000dc0       0x18 d:/eda/quartus13/nios2eds/bin/gnu/h-i686-mingw32/bin/../lib/gcc/nios2-elf/4.7.3\libgcc.a(_clz.o)
 .debug_aranges
                0x00000dd8       0x20 d:/eda/quartus13/nios2eds/bin/gnu/h-i686-mingw32/bin/../lib/gcc/nios2-elf/4.7.3\libgcc.a(_clzsi2.o)
 .debug_aranges
                0x00000df8       0x20 d:/eda/quartus13/nios2eds/bin/gnu/h-i686-mingw32/bin/../lib/gcc/nios2-elf/4.7.3\libgcc.a(_unpack_sf.o)
 .debug_aranges
                0x00000e18       0x20 d:/eda/quartus13/nios2eds/bin/gnu/h-i686-mingw32/bin/../lib/gcc/nios2-elf/4.7.3\libgcc.a(_fpcmp_parts_sf.o)
 .debug_aranges
                0x00000e38       0x20 d:/eda/quartus13/nios2eds/bin/gnu/h-i686-mingw32/bin/../lib/gcc/nios2-elf/4.7.3\libgcc.a(_make_sf.o)
 .debug_aranges
                0x00000e58       0x20 d:/eda/quartus13/nios2eds/bin/gnu/h-i686-mingw32/bin/../lib/gcc/nios2-elf/4.7.3\libgcc.a(_pack_df.o)
 .debug_aranges
                0x00000e78       0x20 d:/eda/quartus13/nios2eds/bin/gnu/h-i686-mingw32/bin/../lib/gcc/nios2-elf/4.7.3\libgcc.a(_unpack_df.o)
 .debug_aranges
                0x00000e98       0x20 d:/eda/quartus13/nios2eds/bin/gnu/h-i686-mingw32/bin/../lib/gcc/nios2-elf/4.7.3\libgcc.a(_fpcmp_parts_df.o)
 .debug_aranges
                0x00000eb8       0x20 d:/eda/quartus13/nios2eds/bin/gnu/h-i686-mingw32/bin/../lib/gcc/nios2-elf/4.7.3\libgcc.a(_lshrdi3.o)
 .debug_aranges
                0x00000ed8       0x20 d:/eda/quartus13/nios2eds/bin/gnu/h-i686-mingw32/bin/../lib/gcc/nios2-elf/4.7.3\libgcc.a(_ashldi3.o)
 .debug_aranges
                0x00000ef8       0x20 d:/eda/quartus13/nios2eds/bin/gnu/h-i686-mingw32/bin/../lib/gcc/nios2-elf/4.7.3\libgcc.a(_pack_sf.o)
 .debug_aranges
                0x00000f18       0x20 F:/Qsys/qsys_webserver/qsys/software/qsys_webserver_bsp/\libucosii_bsp.a(alt_dcache_flush.o)
 .debug_aranges
                0x00000f38       0x20 F:/Qsys/qsys_webserver/qsys/software/qsys_webserver_bsp/\libucosii_bsp.a(alt_flash_dev.o)
 .debug_aranges
                0x00000f58       0x20 F:/Qsys/qsys_webserver/qsys/software/qsys_webserver_bsp/\libucosii_bsp.a(alt_fstat.o)
 .debug_aranges
                0x00000f78       0x20 F:/Qsys/qsys_webserver/qsys/software/qsys_webserver_bsp/\libucosii_bsp.a(alt_isatty.o)
 .debug_aranges
                0x00000f98       0x20 F:/Qsys/qsys_webserver/qsys/software/qsys_webserver_bsp/\libucosii_bsp.a(alt_lseek.o)
 .debug_aranges
                0x00000fb8       0x20 F:/Qsys/qsys_webserver/qsys/software/qsys_webserver_bsp/\libucosii_bsp.a(alt_main.o)
 .debug_aranges
                0x00000fd8       0x20 F:/Qsys/qsys_webserver/qsys/software/qsys_webserver_bsp/\libucosii_bsp.a(alt_open.o)
 .debug_aranges
                0x00000ff8       0x20 F:/Qsys/qsys_webserver/qsys/software/qsys_webserver_bsp/\libucosii_bsp.a(alt_release_fd.o)
 .debug_aranges
                0x00001018       0x20 F:/Qsys/qsys_webserver/qsys/software/qsys_webserver_bsp/\libucosii_bsp.a(alt_sbrk.o)
 .debug_aranges
                0x00001038       0x20 F:/Qsys/qsys_webserver/qsys/software/qsys_webserver_bsp/\libucosii_bsp.a(alt_tick.o)
 .debug_aranges
                0x00001058       0x20 F:/Qsys/qsys_webserver/qsys/software/qsys_webserver_bsp/\libucosii_bsp.a(alt_env_lock.o)
 .debug_aranges
                0x00001078       0x20 F:/Qsys/qsys_webserver/qsys/software/qsys_webserver_bsp/\libucosii_bsp.a(alt_malloc_lock.o)
 .debug_aranges
                0x00001098       0x20 F:/Qsys/qsys_webserver/qsys/software/qsys_webserver_bsp/\libucosii_bsp.a(os_core.o)
 .debug_aranges
                0x000010b8       0x20 F:/Qsys/qsys_webserver/qsys/software/qsys_webserver_bsp/\libucosii_bsp.a(os_dbg.o)
 .debug_aranges
                0x000010d8       0x20 F:/Qsys/qsys_webserver/qsys/software/qsys_webserver_bsp/\libucosii_bsp.a(os_flag.o)
 .debug_aranges
                0x000010f8       0x20 F:/Qsys/qsys_webserver/qsys/software/qsys_webserver_bsp/\libucosii_bsp.a(os_mbox.o)
 .debug_aranges
                0x00001118       0x20 F:/Qsys/qsys_webserver/qsys/software/qsys_webserver_bsp/\libucosii_bsp.a(os_mem.o)
 .debug_aranges
                0x00001138       0x20 F:/Qsys/qsys_webserver/qsys/software/qsys_webserver_bsp/\libucosii_bsp.a(os_q.o)
 .debug_aranges
                0x00001158       0x20 F:/Qsys/qsys_webserver/qsys/software/qsys_webserver_bsp/\libucosii_bsp.a(os_sem.o)
 .debug_aranges
                0x00001178       0x20 F:/Qsys/qsys_webserver/qsys/software/qsys_webserver_bsp/\libucosii_bsp.a(os_task.o)
 .debug_aranges
                0x00001198       0x20 F:/Qsys/qsys_webserver/qsys/software/qsys_webserver_bsp/\libucosii_bsp.a(os_time.o)
 .debug_aranges
                0x000011b8       0x20 F:/Qsys/qsys_webserver/qsys/software/qsys_webserver_bsp/\libucosii_bsp.a(alt_sys_init.o)
 .debug_aranges
                0x000011d8       0x20 F:/Qsys/qsys_webserver/qsys/software/qsys_webserver_bsp/\libucosii_bsp.a(altera_avalon_epcs_flash_controller.o)
 .debug_aranges
                0x000011f8       0x20 F:/Qsys/qsys_webserver/qsys/software/qsys_webserver_bsp/\libucosii_bsp.a(altera_avalon_jtag_uart_fd.o)
 .debug_aranges
                0x00001218       0x20 F:/Qsys/qsys_webserver/qsys/software/qsys_webserver_bsp/\libucosii_bsp.a(altera_avalon_jtag_uart_init.o)
 .debug_aranges
                0x00001238       0x20 F:/Qsys/qsys_webserver/qsys/software/qsys_webserver_bsp/\libucosii_bsp.a(altera_avalon_jtag_uart_ioctl.o)
 .debug_aranges
                0x00001258       0x20 F:/Qsys/qsys_webserver/qsys/software/qsys_webserver_bsp/\libucosii_bsp.a(altera_avalon_jtag_uart_read.o)
 .debug_aranges
                0x00001278       0x20 F:/Qsys/qsys_webserver/qsys/software/qsys_webserver_bsp/\libucosii_bsp.a(altera_avalon_jtag_uart_write.o)
 .debug_aranges
                0x00001298       0x20 F:/Qsys/qsys_webserver/qsys/software/qsys_webserver_bsp/\libucosii_bsp.a(altera_avalon_sgdma.o)
 .debug_aranges
                0x000012b8       0x20 F:/Qsys/qsys_webserver/qsys/software/qsys_webserver_bsp/\libucosii_bsp.a(altera_avalon_timer_sc.o)
 .debug_aranges
                0x000012d8       0x20 F:/Qsys/qsys_webserver/qsys/software/qsys_webserver_bsp/\libucosii_bsp.a(altera_ro_zipfs.o)
 .debug_aranges
                0x000012f8       0x20 F:/Qsys/qsys_webserver/qsys/software/qsys_webserver_bsp/\libucosii_bsp.a(epcs_commands.o)
 .debug_aranges
                0x00001318       0x20 F:/Qsys/qsys_webserver/qsys/software/qsys_webserver_bsp/\libucosii_bsp.a(ins_tse_mac.o)
 .debug_aranges
                0x00001338       0x20 F:/Qsys/qsys_webserver/qsys/software/qsys_webserver_bsp/\libucosii_bsp.a(alt_iniche_close.o)
 .debug_aranges
                0x00001358       0x20 F:/Qsys/qsys_webserver/qsys/software/qsys_webserver_bsp/\libucosii_bsp.a(alt_iniche_dev.o)
 .debug_aranges
                0x00001378       0x20 F:/Qsys/qsys_webserver/qsys/software/qsys_webserver_bsp/\libucosii_bsp.a(alt_iniche_read.o)
 .debug_aranges
                0x00001398       0x20 F:/Qsys/qsys_webserver/qsys/software/qsys_webserver_bsp/\libucosii_bsp.a(alt_iniche_write.o)
 .debug_aranges
                0x000013b8       0x20 F:/Qsys/qsys_webserver/qsys/software/qsys_webserver_bsp/\libucosii_bsp.a(ipnet.o)
 .debug_aranges
                0x000013d8       0x20 F:/Qsys/qsys_webserver/qsys/software/qsys_webserver_bsp/\libucosii_bsp.a(ipstart.o)
 .debug_aranges
                0x000013f8       0x20 F:/Qsys/qsys_webserver/qsys/software/qsys_webserver_bsp/\libucosii_bsp.a(igmp_cmn.o)
 .debug_aranges
                0x00001418       0x20 F:/Qsys/qsys_webserver/qsys/software/qsys_webserver_bsp/\libucosii_bsp.a(bsdsock.o)
 .debug_aranges
                0x00001438       0x20 F:/Qsys/qsys_webserver/qsys/software/qsys_webserver_bsp/\libucosii_bsp.a(cksum.o)
 .debug_aranges
                0x00001458       0x20 F:/Qsys/qsys_webserver/qsys/software/qsys_webserver_bsp/\libucosii_bsp.a(in_utils.o)
 .debug_aranges
                0x00001478       0x20 F:/Qsys/qsys_webserver/qsys/software/qsys_webserver_bsp/\libucosii_bsp.a(netmain.o)
 .debug_aranges
                0x00001498       0x20 F:/Qsys/qsys_webserver/qsys/software/qsys_webserver_bsp/\libucosii_bsp.a(tk_crnos.o)
 .debug_aranges
                0x000014b8       0x20 F:/Qsys/qsys_webserver/qsys/software/qsys_webserver_bsp/\libucosii_bsp.a(pktalloc.o)
 .debug_aranges
                0x000014d8       0x20 F:/Qsys/qsys_webserver/qsys/software/qsys_webserver_bsp/\libucosii_bsp.a(q.o)
 .debug_aranges
                0x000014f8       0x20 F:/Qsys/qsys_webserver/qsys/software/qsys_webserver_bsp/\libucosii_bsp.a(asm_cksum.o)
 .debug_aranges
                0x00001518       0x20 F:/Qsys/qsys_webserver/qsys/software/qsys_webserver_bsp/\libucosii_bsp.a(brdutils.o)
 .debug_aranges
                0x00001538       0x20 F:/Qsys/qsys_webserver/qsys/software/qsys_webserver_bsp/\libucosii_bsp.a(osportco.o)
 .debug_aranges
                0x00001558       0x20 F:/Qsys/qsys_webserver/qsys/software/qsys_webserver_bsp/\libucosii_bsp.a(targnios.o)
 .debug_aranges
                0x00001578       0x20 F:/Qsys/qsys_webserver/qsys/software/qsys_webserver_bsp/\libucosii_bsp.a(nptcp.o)
 .debug_aranges
                0x00001598       0x20 F:/Qsys/qsys_webserver/qsys/software/qsys_webserver_bsp/\libucosii_bsp.a(rawsock.o)
 .debug_aranges
                0x000015b8       0x20 F:/Qsys/qsys_webserver/qsys/software/qsys_webserver_bsp/\libucosii_bsp.a(sockcall.o)
 .debug_aranges
                0x000015d8       0x20 F:/Qsys/qsys_webserver/qsys/software/qsys_webserver_bsp/\libucosii_bsp.a(socket.o)
 .debug_aranges
                0x000015f8       0x20 F:/Qsys/qsys_webserver/qsys/software/qsys_webserver_bsp/\libucosii_bsp.a(socket2.o)
 .debug_aranges
                0x00001618       0x20 F:/Qsys/qsys_webserver/qsys/software/qsys_webserver_bsp/\libucosii_bsp.a(soselect.o)
 .debug_aranges
                0x00001638       0x20 F:/Qsys/qsys_webserver/qsys/software/qsys_webserver_bsp/\libucosii_bsp.a(tcp_in.o)
 .debug_aranges
                0x00001658       0x20 F:/Qsys/qsys_webserver/qsys/software/qsys_webserver_bsp/\libucosii_bsp.a(tcp_out.o)
 .debug_aranges
                0x00001678       0x20 F:/Qsys/qsys_webserver/qsys/software/qsys_webserver_bsp/\libucosii_bsp.a(tcp_subr.o)
 .debug_aranges
                0x00001698       0x20 F:/Qsys/qsys_webserver/qsys/software/qsys_webserver_bsp/\libucosii_bsp.a(tcp_timr.o)
 .debug_aranges
                0x000016b8       0x20 F:/Qsys/qsys_webserver/qsys/software/qsys_webserver_bsp/\libucosii_bsp.a(tcp_usr.o)
 .debug_aranges
                0x000016d8       0x20 F:/Qsys/qsys_webserver/qsys/software/qsys_webserver_bsp/\libucosii_bsp.a(tcpport.o)
 .debug_aranges
                0x000016f8       0x20 F:/Qsys/qsys_webserver/qsys/software/qsys_webserver_bsp/\libucosii_bsp.a(udpsock.o)
 .debug_aranges
                0x00001718       0x20 F:/Qsys/qsys_webserver/qsys/software/qsys_webserver_bsp/\libucosii_bsp.a(alt_alarm_start.o)
 .debug_aranges
                0x00001738       0x20 F:/Qsys/qsys_webserver/qsys/software/qsys_webserver_bsp/\libucosii_bsp.a(alt_close.o)
 .debug_aranges
                0x00001758       0x20 F:/Qsys/qsys_webserver/qsys/software/qsys_webserver_bsp/\libucosii_bsp.a(alt_dev.o)
 .debug_aranges
                0x00001778       0x20 F:/Qsys/qsys_webserver/qsys/software/qsys_webserver_bsp/\libucosii_bsp.a(alt_dev_llist_insert.o)
 .debug_aranges
                0x00001798       0x20 F:/Qsys/qsys_webserver/qsys/software/qsys_webserver_bsp/\libucosii_bsp.a(alt_do_ctors.o)
 .debug_aranges
                0x000017b8       0x20 F:/Qsys/qsys_webserver/qsys/software/qsys_webserver_bsp/\libucosii_bsp.a(alt_do_dtors.o)
 .debug_aranges
                0x000017d8       0x18 F:/Qsys/qsys_webserver/qsys/software/qsys_webserver_bsp/\libucosii_bsp.a(alt_errno.o)
 .debug_aranges
                0x000017f0       0x20 F:/Qsys/qsys_webserver/qsys/software/qsys_webserver_bsp/\libucosii_bsp.a(alt_find_dev.o)
 .debug_aranges
                0x00001810       0x20 F:/Qsys/qsys_webserver/qsys/software/qsys_webserver_bsp/\libucosii_bsp.a(alt_find_file.o)
 .debug_aranges
                0x00001830       0x20 F:/Qsys/qsys_webserver/qsys/software/qsys_webserver_bsp/\libucosii_bsp.a(alt_fs_reg.o)
 .debug_aranges
                0x00001850       0x20 F:/Qsys/qsys_webserver/qsys/software/qsys_webserver_bsp/\libucosii_bsp.a(alt_get_fd.o)
 .debug_aranges
                0x00001870       0x20 F:/Qsys/qsys_webserver/qsys/software/qsys_webserver_bsp/\libucosii_bsp.a(alt_iic.o)
 .debug_aranges
                0x00001890       0x20 F:/Qsys/qsys_webserver/qsys/software/qsys_webserver_bsp/\libucosii_bsp.a(alt_iic_isr_register.o)
 .debug_aranges
                0x000018b0       0x20 F:/Qsys/qsys_webserver/qsys/software/qsys_webserver_bsp/\libucosii_bsp.a(alt_io_redirect.o)
 .debug_aranges
                0x000018d0       0x30 F:/Qsys/qsys_webserver/qsys/software/qsys_webserver_bsp/\libucosii_bsp.a(alt_irq_entry.o)
 .debug_aranges
                0x00001900       0x20 F:/Qsys/qsys_webserver/qsys/software/qsys_webserver_bsp/\libucosii_bsp.a(alt_irq_handler.o)
 .debug_aranges
                0x00001920       0x18 F:/Qsys/qsys_webserver/qsys/software/qsys_webserver_bsp/\libucosii_bsp.a(alt_irq_vars.o)
 .debug_aranges
                0x00001938       0x20 F:/Qsys/qsys_webserver/qsys/software/qsys_webserver_bsp/\libucosii_bsp.a(alt_read.o)
 .debug_aranges
                0x00001958       0x20 F:/Qsys/qsys_webserver/qsys/software/qsys_webserver_bsp/\libucosii_bsp.a(alt_remap_cached.o)
 .debug_aranges
                0x00001978       0x20 F:/Qsys/qsys_webserver/qsys/software/qsys_webserver_bsp/\libucosii_bsp.a(alt_remap_uncached.o)
 .debug_aranges
                0x00001998       0x20 F:/Qsys/qsys_webserver/qsys/software/qsys_webserver_bsp/\libucosii_bsp.a(alt_uncached_malloc.o)
 .debug_aranges
                0x000019b8       0x20 F:/Qsys/qsys_webserver/qsys/software/qsys_webserver_bsp/\libucosii_bsp.a(alt_write.o)
 .debug_aranges
                0x000019d8       0x20 F:/Qsys/qsys_webserver/qsys/software/qsys_webserver_bsp/\libucosii_bsp.a(altera_nios2_qsys_irq.o)
 .debug_aranges
                0x000019f8       0x20 F:/Qsys/qsys_webserver/qsys/software/qsys_webserver_bsp/\libucosii_bsp.a(os_cpu_a.o)
 .debug_aranges
                0x00001a18       0x20 F:/Qsys/qsys_webserver/qsys/software/qsys_webserver_bsp/\libucosii_bsp.a(os_cpu_c.o)
 .debug_aranges
                0x00001a38       0x20 F:/Qsys/qsys_webserver/qsys/software/qsys_webserver_bsp/\libucosii_bsp.a(altera_avalon_spi.o)
 .debug_aranges
                0x00001a58       0x20 F:/Qsys/qsys_webserver/qsys/software/qsys_webserver_bsp/\libucosii_bsp.a(altera_avalon_tse.o)
 .debug_aranges
                0x00001a78       0x18 F:/Qsys/qsys_webserver/qsys/software/qsys_webserver_bsp/\libucosii_bsp.a(altera_avalon_tse_system_info.o)
 .debug_aranges
                0x00001a90       0x20 F:/Qsys/qsys_webserver/qsys/software/qsys_webserver_bsp/\libucosii_bsp.a(allports.o)
 .debug_aranges
                0x00001ab0       0x20 F:/Qsys/qsys_webserver/qsys/software/qsys_webserver_bsp/\libucosii_bsp.a(timeouts.o)
 .debug_aranges
                0x00001ad0       0x20 F:/Qsys/qsys_webserver/qsys/software/qsys_webserver_bsp/\libucosii_bsp.a(tk_misc.o)
 .debug_aranges
                0x00001af0       0x20 F:/Qsys/qsys_webserver/qsys/software/qsys_webserver_bsp/\libucosii_bsp.a(alt_iniche_fcntl.o)
 .debug_aranges
                0x00001b10       0x20 F:/Qsys/qsys_webserver/qsys/software/qsys_webserver_bsp/\libucosii_bsp.a(et_arp.o)
 .debug_aranges
                0x00001b30       0x20 F:/Qsys/qsys_webserver/qsys/software/qsys_webserver_bsp/\libucosii_bsp.a(iface.o)
 .debug_aranges
                0x00001b50       0x20 F:/Qsys/qsys_webserver/qsys/software/qsys_webserver_bsp/\libucosii_bsp.a(ip.o)
 .debug_aranges
                0x00001b70       0x20 F:/Qsys/qsys_webserver/qsys/software/qsys_webserver_bsp/\libucosii_bsp.a(ip_reasm.o)
 .debug_aranges
                0x00001b90       0x20 F:/Qsys/qsys_webserver/qsys/software/qsys_webserver_bsp/\libucosii_bsp.a(ipdemux.o)
 .debug_aranges
                0x00001bb0       0x20 F:/Qsys/qsys_webserver/qsys/software/qsys_webserver_bsp/\libucosii_bsp.a(ipmc.o)
 .debug_aranges
                0x00001bd0       0x20 F:/Qsys/qsys_webserver/qsys/software/qsys_webserver_bsp/\libucosii_bsp.a(ipport.o)
 .debug_aranges
                0x00001bf0       0x20 F:/Qsys/qsys_webserver/qsys/software/qsys_webserver_bsp/\libucosii_bsp.a(ipraw.o)
 .debug_aranges
                0x00001c10       0x20 F:/Qsys/qsys_webserver/qsys/software/qsys_webserver_bsp/\libucosii_bsp.a(iproute.o)
 .debug_aranges
                0x00001c30       0x20 F:/Qsys/qsys_webserver/qsys/software/qsys_webserver_bsp/\libucosii_bsp.a(udp.o)
 .debug_aranges
                0x00001c50       0x20 F:/Qsys/qsys_webserver/qsys/software/qsys_webserver_bsp/\libucosii_bsp.a(igmp.o)
 .debug_aranges
                0x00001c70       0x20 F:/Qsys/qsys_webserver/qsys/software/qsys_webserver_bsp/\libucosii_bsp.a(igmp2.o)
 .debug_aranges
                0x00001c90       0x20 F:/Qsys/qsys_webserver/qsys/software/qsys_webserver_bsp/\libucosii_bsp.a(ipopt.o)
 .debug_aranges
                0x00001cb0       0x20 F:/Qsys/qsys_webserver/qsys/software/qsys_webserver_bsp/\libucosii_bsp.a(u_mctest.o)
 .debug_aranges
                0x00001cd0       0x20 F:/Qsys/qsys_webserver/qsys/software/qsys_webserver_bsp/\libucosii_bsp.a(memdev.o)
 .debug_aranges
                0x00001cf0       0x20 F:/Qsys/qsys_webserver/qsys/software/qsys_webserver_bsp/\libucosii_bsp.a(parseip.o)
 .debug_aranges
                0x00001d10       0x20 F:/Qsys/qsys_webserver/qsys/software/qsys_webserver_bsp/\libucosii_bsp.a(tcpcksum.o)
 .debug_aranges
                0x00001d30       0x20 F:/Qsys/qsys_webserver/qsys/software/qsys_webserver_bsp/\libucosii_bsp.a(udp_open.o)
 .debug_aranges
                0x00001d50       0x20 F:/Qsys/qsys_webserver/qsys/software/qsys_webserver_bsp/\libucosii_bsp.a(in_pcb.o)
 .debug_aranges
                0x00001d70       0x20 F:/Qsys/qsys_webserver/qsys/software/qsys_webserver_bsp/\libucosii_bsp.a(vfsfiles.o)
 .debug_aranges
                0x00001d90       0x20 F:/Qsys/qsys_webserver/qsys/software/qsys_webserver_bsp/\libucosii_bsp.a(vfsport.o)
 .debug_aranges
                0x00001db0       0x38 F:/Qsys/qsys_webserver/qsys/software/qsys_webserver_bsp/\libucosii_bsp.a(alt_exception_entry.o)
 .debug_aranges
                0x00001de8       0x20 F:/Qsys/qsys_webserver/qsys/software/qsys_webserver_bsp/\libucosii_bsp.a(alt_fcntl.o)
 .debug_aranges
                0x00001e08       0x20 F:/Qsys/qsys_webserver/qsys/software/qsys_webserver_bsp/\libucosii_bsp.a(alt_usleep.o)
 .debug_aranges
                0x00001e28       0x20 F:/Qsys/qsys_webserver/qsys/software/qsys_webserver_bsp/\libucosii_bsp.a(icmp.o)
 .debug_aranges
                0x00001e48       0x20 F:/Qsys/qsys_webserver/qsys/software/qsys_webserver_bsp/\libucosii_bsp.a(alt_busy_sleep.o)
 .debug_aranges
                0x00001e68       0x20 d:/eda/quartus13/nios2eds/bin/gnu/h-i686-mingw32/bin/../lib/gcc/nios2-elf/4.7.3/../../../../../H-i686-mingw32/nios2-elf/lib\libc.a(lib_a-atexit.o)
 .debug_aranges
                0x00001e88       0x20 d:/eda/quartus13/nios2eds/bin/gnu/h-i686-mingw32/bin/../lib/gcc/nios2-elf/4.7.3/../../../../../H-i686-mingw32/nios2-elf/lib\libc.a(lib_a-calloc.o)
 .debug_aranges
                0x00001ea8       0x20 d:/eda/quartus13/nios2eds/bin/gnu/h-i686-mingw32/bin/../lib/gcc/nios2-elf/4.7.3/../../../../../H-i686-mingw32/nios2-elf/lib\libc.a(lib_a-exit.o)
 .debug_aranges
                0x00001ec8       0x20 d:/eda/quartus13/nios2eds/bin/gnu/h-i686-mingw32/bin/../lib/gcc/nios2-elf/4.7.3/../../../../../H-i686-mingw32/nios2-elf/lib\libc.a(lib_a-malloc.o)
 .debug_aranges
                0x00001ee8       0x20 d:/eda/quartus13/nios2eds/bin/gnu/h-i686-mingw32/bin/../lib/gcc/nios2-elf/4.7.3/../../../../../H-i686-mingw32/nios2-elf/lib\libc.a(lib_a-vprintf.o)
 .debug_aranges
                0x00001f08       0x20 d:/eda/quartus13/nios2eds/bin/gnu/h-i686-mingw32/bin/../lib/gcc/nios2-elf/4.7.3/../../../../../H-i686-mingw32/nios2-elf/lib\libc.a(lib_a-vsprintf.o)
 .debug_aranges
                0x00001f28       0x20 d:/eda/quartus13/nios2eds/bin/gnu/h-i686-mingw32/bin/../lib/gcc/nios2-elf/4.7.3/../../../../../H-i686-mingw32/nios2-elf/lib\libc.a(lib_a-__atexit.o)
 .debug_aranges
                0x00001f48       0x20 d:/eda/quartus13/nios2eds/bin/gnu/h-i686-mingw32/bin/../lib/gcc/nios2-elf/4.7.3/../../../../../H-i686-mingw32/nios2-elf/lib\libc.a(lib_a-__call_atexit.o)
 .debug_aranges
                0x00001f68       0x20 F:/Qsys/qsys_webserver/qsys/software/qsys_webserver_bsp/\libucosii_bsp.a(alt_exit.o)

.debug_pubnames
 *(.debug_pubnames)

.debug_info     0x00000000    0x7b5b3
 *(.debug_info .gnu.linkonce.wi.*)
 .debug_info    0x00000000       0x70 F:/Qsys/qsys_webserver/qsys/software/qsys_webserver_bsp//obj/HAL/src/crt0.o
 .debug_info    0x00000070      0x9c4 obj/default/alt_error_handler.o
 .debug_info    0x00000a34     0x182b obj/default/http.o
 .debug_info    0x0000225f     0x160f obj/default/network_utilities.o
 .debug_info    0x0000386e      0x830 obj/default/srec_flash.o
 .debug_info    0x0000409e      0x45a obj/default/web_server.o
 .debug_info    0x000044f8      0x9f3 d:/eda/quartus13/nios2eds/bin/gnu/h-i686-mingw32/bin/../lib/gcc/nios2-elf/4.7.3/../../../../../H-i686-mingw32/nios2-elf/lib\libc.a(lib_a-atoi.o)
 .debug_info    0x00004eeb       0x98 d:/eda/quartus13/nios2eds/bin/gnu/h-i686-mingw32/bin/../lib/gcc/nios2-elf/4.7.3/../../../../../H-i686-mingw32/nios2-elf/lib\libc.a(lib_a-ctype_.o)
 .debug_info    0x00004f83      0xa97 d:/eda/quartus13/nios2eds/bin/gnu/h-i686-mingw32/bin/../lib/gcc/nios2-elf/4.7.3/../../../../../H-i686-mingw32/nios2-elf/lib\libc.a(lib_a-fclose.o)
 .debug_info    0x00005a1a      0xad0 d:/eda/quartus13/nios2eds/bin/gnu/h-i686-mingw32/bin/../lib/gcc/nios2-elf/4.7.3/../../../../../H-i686-mingw32/nios2-elf/lib\libc.a(lib_a-fflush.o)
 .debug_info    0x000064ea      0x9fa d:/eda/quartus13/nios2eds/bin/gnu/h-i686-mingw32/bin/../lib/gcc/nios2-elf/4.7.3/../../../../../H-i686-mingw32/nios2-elf/lib\libc.a(lib_a-fgetpos.o)
 .debug_info    0x00006ee4      0xd6f d:/eda/quartus13/nios2eds/bin/gnu/h-i686-mingw32/bin/../lib/gcc/nios2-elf/4.7.3/../../../../../H-i686-mingw32/nios2-elf/lib\libc.a(lib_a-findfp.o)
 .debug_info    0x00007c53      0xb24 d:/eda/quartus13/nios2eds/bin/gnu/h-i686-mingw32/bin/../lib/gcc/nios2-elf/4.7.3/../../../../../H-i686-mingw32/nios2-elf/lib\libc.a(lib_a-fopen.o)
 .debug_info    0x00008777      0xa4b d:/eda/quartus13/nios2eds/bin/gnu/h-i686-mingw32/bin/../lib/gcc/nios2-elf/4.7.3/../../../../../H-i686-mingw32/nios2-elf/lib\libc.a(lib_a-fprintf.o)
 .debug_info    0x000091c2      0xbb3 d:/eda/quartus13/nios2eds/bin/gnu/h-i686-mingw32/bin/../lib/gcc/nios2-elf/4.7.3/../../../../../H-i686-mingw32/nios2-elf/lib\libc.a(lib_a-fread.o)
 .debug_info    0x00009d75      0xcf9 d:/eda/quartus13/nios2eds/bin/gnu/h-i686-mingw32/bin/../lib/gcc/nios2-elf/4.7.3/../../../../../H-i686-mingw32/nios2-elf/lib\libc.a(lib_a-freer.o)
 .debug_info    0x0000aa6e      0xe08 d:/eda/quartus13/nios2eds/bin/gnu/h-i686-mingw32/bin/../lib/gcc/nios2-elf/4.7.3/../../../../../H-i686-mingw32/nios2-elf/lib\libc.a(lib_a-fseek.o)
 .debug_info    0x0000b876      0xb2f d:/eda/quartus13/nios2eds/bin/gnu/h-i686-mingw32/bin/../lib/gcc/nios2-elf/4.7.3/../../../../../H-i686-mingw32/nios2-elf/lib\libc.a(lib_a-fstatr.o)
 .debug_info    0x0000c3a5      0xa18 d:/eda/quartus13/nios2eds/bin/gnu/h-i686-mingw32/bin/../lib/gcc/nios2-elf/4.7.3/../../../../../H-i686-mingw32/nios2-elf/lib\libc.a(lib_a-ftell.o)
 .debug_info    0x0000cdbd      0xb72 d:/eda/quartus13/nios2eds/bin/gnu/h-i686-mingw32/bin/../lib/gcc/nios2-elf/4.7.3/../../../../../H-i686-mingw32/nios2-elf/lib\libc.a(lib_a-fwalk.o)
 .debug_info    0x0000d92f      0xb10 d:/eda/quartus13/nios2eds/bin/gnu/h-i686-mingw32/bin/../lib/gcc/nios2-elf/4.7.3/../../../../../H-i686-mingw32/nios2-elf/lib\libc.a(lib_a-fwrite.o)
 .debug_info    0x0000e43f      0xa0f d:/eda/quartus13/nios2eds/bin/gnu/h-i686-mingw32/bin/../lib/gcc/nios2-elf/4.7.3/../../../../../H-i686-mingw32/nios2-elf/lib\libc.a(lib_a-getc.o)
 .debug_info    0x0000ee4e      0x938 d:/eda/quartus13/nios2eds/bin/gnu/h-i686-mingw32/bin/../lib/gcc/nios2-elf/4.7.3/../../../../../H-i686-mingw32/nios2-elf/lib\libc.a(lib_a-impure.o)
 .debug_info    0x0000f786       0x84 d:/eda/quartus13/nios2eds/bin/gnu/h-i686-mingw32/bin/../lib/gcc/nios2-elf/4.7.3/../../../../../H-i686-mingw32/nios2-elf/lib\libc.a(lib_a-int_errno.o)
 .debug_info    0x0000f80a      0xbc2 d:/eda/quartus13/nios2eds/bin/gnu/h-i686-mingw32/bin/../lib/gcc/nios2-elf/4.7.3/../../../../../H-i686-mingw32/nios2-elf/lib\libc.a(lib_a-makebuf.o)
 .debug_info    0x000103cc      0xe44 d:/eda/quartus13/nios2eds/bin/gnu/h-i686-mingw32/bin/../lib/gcc/nios2-elf/4.7.3/../../../../../H-i686-mingw32/nios2-elf/lib\libc.a(lib_a-mallocr.o)
 .debug_info    0x00011210      0x10e d:/eda/quartus13/nios2eds/bin/gnu/h-i686-mingw32/bin/../lib/gcc/nios2-elf/4.7.3/../../../../../H-i686-mingw32/nios2-elf/lib\libc.a(lib_a-memcpy.o)
 .debug_info    0x0001131e      0x146 d:/eda/quartus13/nios2eds/bin/gnu/h-i686-mingw32/bin/../lib/gcc/nios2-elf/4.7.3/../../../../../H-i686-mingw32/nios2-elf/lib\libc.a(lib_a-memmove.o)
 .debug_info    0x00011464      0x117 d:/eda/quartus13/nios2eds/bin/gnu/h-i686-mingw32/bin/../lib/gcc/nios2-elf/4.7.3/../../../../../H-i686-mingw32/nios2-elf/lib\libc.a(lib_a-memset.o)
 .debug_info    0x0001157b      0x9b2 d:/eda/quartus13/nios2eds/bin/gnu/h-i686-mingw32/bin/../lib/gcc/nios2-elf/4.7.3/../../../../../H-i686-mingw32/nios2-elf/lib\libc.a(lib_a-openr.o)
 .debug_info    0x00011f2d      0xa3f d:/eda/quartus13/nios2eds/bin/gnu/h-i686-mingw32/bin/../lib/gcc/nios2-elf/4.7.3/../../../../../H-i686-mingw32/nios2-elf/lib\libc.a(lib_a-perror.o)
 .debug_info    0x0001296c      0xa6c d:/eda/quartus13/nios2eds/bin/gnu/h-i686-mingw32/bin/../lib/gcc/nios2-elf/4.7.3/../../../../../H-i686-mingw32/nios2-elf/lib\libc.a(lib_a-printf.o)
 .debug_info    0x000133d8      0xa2e d:/eda/quartus13/nios2eds/bin/gnu/h-i686-mingw32/bin/../lib/gcc/nios2-elf/4.7.3/../../../../../H-i686-mingw32/nios2-elf/lib\libc.a(lib_a-putc.o)
 .debug_info    0x00013e06      0x9d7 d:/eda/quartus13/nios2eds/bin/gnu/h-i686-mingw32/bin/../lib/gcc/nios2-elf/4.7.3/../../../../../H-i686-mingw32/nios2-elf/lib\libc.a(lib_a-putchar.o)
 .debug_info    0x000147dd      0xab7 d:/eda/quartus13/nios2eds/bin/gnu/h-i686-mingw32/bin/../lib/gcc/nios2-elf/4.7.3/../../../../../H-i686-mingw32/nios2-elf/lib\libc.a(lib_a-puts.o)
 .debug_info    0x00015294      0xab8 d:/eda/quartus13/nios2eds/bin/gnu/h-i686-mingw32/bin/../lib/gcc/nios2-elf/4.7.3/../../../../../H-i686-mingw32/nios2-elf/lib\libc.a(lib_a-refill.o)
 .debug_info    0x00015d4c      0x9ce d:/eda/quartus13/nios2eds/bin/gnu/h-i686-mingw32/bin/../lib/gcc/nios2-elf/4.7.3/../../../../../H-i686-mingw32/nios2-elf/lib\libc.a(lib_a-rget.o)
 .debug_info    0x0001671a      0x9a3 d:/eda/quartus13/nios2eds/bin/gnu/h-i686-mingw32/bin/../lib/gcc/nios2-elf/4.7.3/../../../../../H-i686-mingw32/nios2-elf/lib\libc.a(lib_a-sbrkr.o)
 .debug_info    0x000170bd      0xa8e d:/eda/quartus13/nios2eds/bin/gnu/h-i686-mingw32/bin/../lib/gcc/nios2-elf/4.7.3/../../../../../H-i686-mingw32/nios2-elf/lib\libc.a(lib_a-sprintf.o)
 .debug_info    0x00017b4b      0xb28 d:/eda/quartus13/nios2eds/bin/gnu/h-i686-mingw32/bin/../lib/gcc/nios2-elf/4.7.3/../../../../../H-i686-mingw32/nios2-elf/lib\libc.a(lib_a-sscanf.o)
 .debug_info    0x00018673      0xbfd d:/eda/quartus13/nios2eds/bin/gnu/h-i686-mingw32/bin/../lib/gcc/nios2-elf/4.7.3/../../../../../H-i686-mingw32/nios2-elf/lib\libc.a(lib_a-stdio.o)
 .debug_info    0x00019270      0x138 d:/eda/quartus13/nios2eds/bin/gnu/h-i686-mingw32/bin/../lib/gcc/nios2-elf/4.7.3/../../../../../H-i686-mingw32/nios2-elf/lib\libc.a(lib_a-strcasecmp.o)
 .debug_info    0x000193a8      0x118 d:/eda/quartus13/nios2eds/bin/gnu/h-i686-mingw32/bin/../lib/gcc/nios2-elf/4.7.3/../../../../../H-i686-mingw32/nios2-elf/lib\libc.a(lib_a-strcat.o)
 .debug_info    0x000194c0      0x11a d:/eda/quartus13/nios2eds/bin/gnu/h-i686-mingw32/bin/../lib/gcc/nios2-elf/4.7.3/../../../../../H-i686-mingw32/nios2-elf/lib\libc.a(lib_a-strchr.o)
 .debug_info    0x000195da       0xe1 d:/eda/quartus13/nios2eds/bin/gnu/h-i686-mingw32/bin/../lib/gcc/nios2-elf/4.7.3/../../../../../H-i686-mingw32/nios2-elf/lib\libc.a(lib_a-strcmp.o)
 .debug_info    0x000196bb      0x114 d:/eda/quartus13/nios2eds/bin/gnu/h-i686-mingw32/bin/../lib/gcc/nios2-elf/4.7.3/../../../../../H-i686-mingw32/nios2-elf/lib\libc.a(lib_a-strcpy.o)
 .debug_info    0x000197cf       0xf6 d:/eda/quartus13/nios2eds/bin/gnu/h-i686-mingw32/bin/../lib/gcc/nios2-elf/4.7.3/../../../../../H-i686-mingw32/nios2-elf/lib\libc.a(lib_a-strerror.o)
 .debug_info    0x000198c5       0xdf d:/eda/quartus13/nios2eds/bin/gnu/h-i686-mingw32/bin/../lib/gcc/nios2-elf/4.7.3/../../../../../H-i686-mingw32/nios2-elf/lib\libc.a(lib_a-strlen.o)
 .debug_info    0x000199a4       0xf9 d:/eda/quartus13/nios2eds/bin/gnu/h-i686-mingw32/bin/../lib/gcc/nios2-elf/4.7.3/../../../../../H-i686-mingw32/nios2-elf/lib\libc.a(lib_a-strncmp.o)
 .debug_info    0x00019a9d      0x12e d:/eda/quartus13/nios2eds/bin/gnu/h-i686-mingw32/bin/../lib/gcc/nios2-elf/4.7.3/../../../../../H-i686-mingw32/nios2-elf/lib\libc.a(lib_a-strncpy.o)
 .debug_info    0x00019bcb      0x50e d:/eda/quartus13/nios2eds/bin/gnu/h-i686-mingw32/bin/../lib/gcc/nios2-elf/4.7.3/../../../../../H-i686-mingw32/nios2-elf/lib\libc.a(lib_a-strstr.o)
 .debug_info    0x0001a0d9      0x997 d:/eda/quartus13/nios2eds/bin/gnu/h-i686-mingw32/bin/../lib/gcc/nios2-elf/4.7.3/../../../../../H-i686-mingw32/nios2-elf/lib\libc.a(lib_a-strtok.o)
 .debug_info    0x0001aa70      0x18d d:/eda/quartus13/nios2eds/bin/gnu/h-i686-mingw32/bin/../lib/gcc/nios2-elf/4.7.3/../../../../../H-i686-mingw32/nios2-elf/lib\libc.a(lib_a-strtok_r.o)
 .debug_info    0x0001abfd      0xa4e d:/eda/quartus13/nios2eds/bin/gnu/h-i686-mingw32/bin/../lib/gcc/nios2-elf/4.7.3/../../../../../H-i686-mingw32/nios2-elf/lib\libc.a(lib_a-strtol.o)
 .debug_info    0x0001b64b       0x65 d:/eda/quartus13/nios2eds/bin/gnu/h-i686-mingw32/bin/../lib/gcc/nios2-elf/4.7.3/../../../../../H-i686-mingw32/nios2-elf/lib\libc.a(lib_a-u_strerr.o)
 .debug_info    0x0001b6b0     0x195a d:/eda/quartus13/nios2eds/bin/gnu/h-i686-mingw32/bin/../lib/gcc/nios2-elf/4.7.3/../../../../../H-i686-mingw32/nios2-elf/lib\libc.a(lib_a-vfprintf.o)
 .debug_info    0x0001d00a     0x150a d:/eda/quartus13/nios2eds/bin/gnu/h-i686-mingw32/bin/../lib/gcc/nios2-elf/4.7.3/../../../../../H-i686-mingw32/nios2-elf/lib\libc.a(lib_a-vfscanf.o)
 .debug_info    0x0001e514      0xa6e d:/eda/quartus13/nios2eds/bin/gnu/h-i686-mingw32/bin/../lib/gcc/nios2-elf/4.7.3/../../../../../H-i686-mingw32/nios2-elf/lib\libc.a(lib_a-wbuf.o)
 .debug_info    0x0001ef82      0x9d2 d:/eda/quartus13/nios2eds/bin/gnu/h-i686-mingw32/bin/../lib/gcc/nios2-elf/4.7.3/../../../../../H-i686-mingw32/nios2-elf/lib\libc.a(lib_a-writer.o)
 .debug_info    0x0001f954      0x9d4 d:/eda/quartus13/nios2eds/bin/gnu/h-i686-mingw32/bin/../lib/gcc/nios2-elf/4.7.3/../../../../../H-i686-mingw32/nios2-elf/lib\libc.a(lib_a-wsetup.o)
 .debug_info    0x00020328      0x97f d:/eda/quartus13/nios2eds/bin/gnu/h-i686-mingw32/bin/../lib/gcc/nios2-elf/4.7.3/../../../../../H-i686-mingw32/nios2-elf/lib\libc.a(lib_a-closer.o)
 .debug_info    0x00020ca7     0x1408 d:/eda/quartus13/nios2eds/bin/gnu/h-i686-mingw32/bin/../lib/gcc/nios2-elf/4.7.3/../../../../../H-i686-mingw32/nios2-elf/lib\libc.a(lib_a-dtoa.o)
 .debug_info    0x000220af      0x97a d:/eda/quartus13/nios2eds/bin/gnu/h-i686-mingw32/bin/../lib/gcc/nios2-elf/4.7.3/../../../../../H-i686-mingw32/nios2-elf/lib\libc.a(lib_a-flags.o)
 .debug_info    0x00022a29      0xa35 d:/eda/quartus13/nios2eds/bin/gnu/h-i686-mingw32/bin/../lib/gcc/nios2-elf/4.7.3/../../../../../H-i686-mingw32/nios2-elf/lib\libc.a(lib_a-fputc.o)
 .debug_info    0x0002345e      0xaf9 d:/eda/quartus13/nios2eds/bin/gnu/h-i686-mingw32/bin/../lib/gcc/nios2-elf/4.7.3/../../../../../H-i686-mingw32/nios2-elf/lib\libc.a(lib_a-fputs.o)
 .debug_info    0x00023f57      0xd05 d:/eda/quartus13/nios2eds/bin/gnu/h-i686-mingw32/bin/../lib/gcc/nios2-elf/4.7.3/../../../../../H-i686-mingw32/nios2-elf/lib\libc.a(lib_a-fvwrite.o)
 .debug_info    0x00024c5c      0x97f d:/eda/quartus13/nios2eds/bin/gnu/h-i686-mingw32/bin/../lib/gcc/nios2-elf/4.7.3/../../../../../H-i686-mingw32/nios2-elf/lib\libc.a(lib_a-isattyr.o)
 .debug_info    0x000255db       0xf2 d:/eda/quartus13/nios2eds/bin/gnu/h-i686-mingw32/bin/../lib/gcc/nios2-elf/4.7.3/../../../../../H-i686-mingw32/nios2-elf/lib\libc.a(lib_a-iswspace.o)
 .debug_info    0x000256cd      0xc10 d:/eda/quartus13/nios2eds/bin/gnu/h-i686-mingw32/bin/../lib/gcc/nios2-elf/4.7.3/../../../../../H-i686-mingw32/nios2-elf/lib\libc.a(lib_a-locale.o)
 .debug_info    0x000262dd      0x9cb d:/eda/quartus13/nios2eds/bin/gnu/h-i686-mingw32/bin/../lib/gcc/nios2-elf/4.7.3/../../../../../H-i686-mingw32/nios2-elf/lib\libc.a(lib_a-lseekr.o)
 .debug_info    0x00026ca8      0xab1 d:/eda/quartus13/nios2eds/bin/gnu/h-i686-mingw32/bin/../lib/gcc/nios2-elf/4.7.3/../../../../../H-i686-mingw32/nios2-elf/lib\libc.a(lib_a-mbrtowc.o)
 .debug_info    0x00027759      0x9a8 d:/eda/quartus13/nios2eds/bin/gnu/h-i686-mingw32/bin/../lib/gcc/nios2-elf/4.7.3/../../../../../H-i686-mingw32/nios2-elf/lib\libc.a(lib_a-mbtowc_r.o)
 .debug_info    0x00028101      0x13e d:/eda/quartus13/nios2eds/bin/gnu/h-i686-mingw32/bin/../lib/gcc/nios2-elf/4.7.3/../../../../../H-i686-mingw32/nios2-elf/lib\libc.a(lib_a-memchr.o)
 .debug_info    0x0002823f      0x117 d:/eda/quartus13/nios2eds/bin/gnu/h-i686-mingw32/bin/../lib/gcc/nios2-elf/4.7.3/../../../../../H-i686-mingw32/nios2-elf/lib\libc.a(lib_a-memcmp.o)
 .debug_info    0x00028356     0x172a d:/eda/quartus13/nios2eds/bin/gnu/h-i686-mingw32/bin/../lib/gcc/nios2-elf/4.7.3/../../../../../H-i686-mingw32/nios2-elf/lib\libc.a(lib_a-mprec.o)
 .debug_info    0x00029a80      0x9cb d:/eda/quartus13/nios2eds/bin/gnu/h-i686-mingw32/bin/../lib/gcc/nios2-elf/4.7.3/../../../../../H-i686-mingw32/nios2-elf/lib\libc.a(lib_a-readr.o)
 .debug_info    0x0002a44b      0xd8e d:/eda/quartus13/nios2eds/bin/gnu/h-i686-mingw32/bin/../lib/gcc/nios2-elf/4.7.3/../../../../../H-i686-mingw32/nios2-elf/lib\libc.a(lib_a-reallocr.o)
 .debug_info    0x0002b1d9       0xe8 d:/eda/quartus13/nios2eds/bin/gnu/h-i686-mingw32/bin/../lib/gcc/nios2-elf/4.7.3/../../../../../H-i686-mingw32/nios2-elf/lib\libc.a(lib_a-s_isinfd.o)
 .debug_info    0x0002b2c1       0xe8 d:/eda/quartus13/nios2eds/bin/gnu/h-i686-mingw32/bin/../lib/gcc/nios2-elf/4.7.3/../../../../../H-i686-mingw32/nios2-elf/lib\libc.a(lib_a-s_isnand.o)
 .debug_info    0x0002b3a9       0xfd d:/eda/quartus13/nios2eds/bin/gnu/h-i686-mingw32/bin/../lib/gcc/nios2-elf/4.7.3/../../../../../H-i686-mingw32/nios2-elf/lib\libc.a(lib_a-sccl.o)
 .debug_info    0x0002b4a6       0xd0 d:/eda/quartus13/nios2eds/bin/gnu/h-i686-mingw32/bin/../lib/gcc/nios2-elf/4.7.3/../../../../../H-i686-mingw32/nios2-elf/lib\libc.a(lib_a-sf_nan.o)
 .debug_info    0x0002b576     0x160f d:/eda/quartus13/nios2eds/bin/gnu/h-i686-mingw32/bin/../lib/gcc/nios2-elf/4.7.3/../../../../../H-i686-mingw32/nios2-elf/lib\libc.a(lib_a-strtod.o)
 .debug_info    0x0002cb85      0x9d7 d:/eda/quartus13/nios2eds/bin/gnu/h-i686-mingw32/bin/../lib/gcc/nios2-elf/4.7.3/../../../../../H-i686-mingw32/nios2-elf/lib\libc.a(lib_a-strtoll_r.o)
 .debug_info    0x0002d55c      0xa4e d:/eda/quartus13/nios2eds/bin/gnu/h-i686-mingw32/bin/../lib/gcc/nios2-elf/4.7.3/../../../../../H-i686-mingw32/nios2-elf/lib\libc.a(lib_a-strtoul.o)
 .debug_info    0x0002dfaa      0x9d7 d:/eda/quartus13/nios2eds/bin/gnu/h-i686-mingw32/bin/../lib/gcc/nios2-elf/4.7.3/../../../../../H-i686-mingw32/nios2-elf/lib\libc.a(lib_a-strtoull_r.o)
 .debug_info    0x0002e981      0xb3a d:/eda/quartus13/nios2eds/bin/gnu/h-i686-mingw32/bin/../lib/gcc/nios2-elf/4.7.3/../../../../../H-i686-mingw32/nios2-elf/lib\libc.a(lib_a-ungetc.o)
 .debug_info    0x0002f4bb      0xa9b d:/eda/quartus13/nios2eds/bin/gnu/h-i686-mingw32/bin/../lib/gcc/nios2-elf/4.7.3/../../../../../H-i686-mingw32/nios2-elf/lib\libc.a(lib_a-callocr.o)
 .debug_info    0x0002ff56     0x1051 d:/eda/quartus13/nios2eds/bin/gnu/h-i686-mingw32/bin/../lib/gcc/nios2-elf/4.7.3/../../../../../H-i686-mingw32/nios2-elf/lib\libc.a(lib_a-gdtoa-gethex.o)
 .debug_info    0x00030fa7      0x328 d:/eda/quartus13/nios2eds/bin/gnu/h-i686-mingw32/bin/../lib/gcc/nios2-elf/4.7.3/../../../../../H-i686-mingw32/nios2-elf/lib\libc.a(lib_a-gdtoa-hexnan.o)
 .debug_info    0x000312cf      0x1ea d:/eda/quartus13/nios2eds/bin/gnu/h-i686-mingw32/bin/../lib/gcc/nios2-elf/4.7.3\libgcc.a(_muldi3.o)
 .debug_info    0x000314b9       0xc5 d:/eda/quartus13/nios2eds/bin/gnu/h-i686-mingw32/bin/../lib/gcc/nios2-elf/4.7.3\libgcc.a(_fixunsdfsi.o)
 .debug_info    0x0003157e      0x718 d:/eda/quartus13/nios2eds/bin/gnu/h-i686-mingw32/bin/../lib/gcc/nios2-elf/4.7.3\libgcc.a(_udivdi3.o)
 .debug_info    0x00031c96      0x771 d:/eda/quartus13/nios2eds/bin/gnu/h-i686-mingw32/bin/../lib/gcc/nios2-elf/4.7.3\libgcc.a(_umoddi3.o)
 .debug_info    0x00032407      0x314 d:/eda/quartus13/nios2eds/bin/gnu/h-i686-mingw32/bin/../lib/gcc/nios2-elf/4.7.3\libgcc.a(_eq_sf.o)
 .debug_info    0x0003271b      0x314 d:/eda/quartus13/nios2eds/bin/gnu/h-i686-mingw32/bin/../lib/gcc/nios2-elf/4.7.3\libgcc.a(_gt_sf.o)
 .debug_info    0x00032a2f      0x314 d:/eda/quartus13/nios2eds/bin/gnu/h-i686-mingw32/bin/../lib/gcc/nios2-elf/4.7.3\libgcc.a(_lt_sf.o)
 .debug_info    0x00032d43      0x588 d:/eda/quartus13/nios2eds/bin/gnu/h-i686-mingw32/bin/../lib/gcc/nios2-elf/4.7.3\libgcc.a(_addsub_df.o)
 .debug_info    0x000332cb      0x519 d:/eda/quartus13/nios2eds/bin/gnu/h-i686-mingw32/bin/../lib/gcc/nios2-elf/4.7.3\libgcc.a(_mul_df.o)
 .debug_info    0x000337e4      0x443 d:/eda/quartus13/nios2eds/bin/gnu/h-i686-mingw32/bin/../lib/gcc/nios2-elf/4.7.3\libgcc.a(_div_df.o)
 .debug_info    0x00033c27      0x320 d:/eda/quartus13/nios2eds/bin/gnu/h-i686-mingw32/bin/../lib/gcc/nios2-elf/4.7.3\libgcc.a(_eq_df.o)
 .debug_info    0x00033f47      0x320 d:/eda/quartus13/nios2eds/bin/gnu/h-i686-mingw32/bin/../lib/gcc/nios2-elf/4.7.3\libgcc.a(_ne_df.o)
 .debug_info    0x00034267      0x320 d:/eda/quartus13/nios2eds/bin/gnu/h-i686-mingw32/bin/../lib/gcc/nios2-elf/4.7.3\libgcc.a(_gt_df.o)
 .debug_info    0x00034587      0x320 d:/eda/quartus13/nios2eds/bin/gnu/h-i686-mingw32/bin/../lib/gcc/nios2-elf/4.7.3\libgcc.a(_ge_df.o)
 .debug_info    0x000348a7      0x320 d:/eda/quartus13/nios2eds/bin/gnu/h-i686-mingw32/bin/../lib/gcc/nios2-elf/4.7.3\libgcc.a(_lt_df.o)
 .debug_info    0x00034bc7      0x320 d:/eda/quartus13/nios2eds/bin/gnu/h-i686-mingw32/bin/../lib/gcc/nios2-elf/4.7.3\libgcc.a(_le_df.o)
 .debug_info    0x00034ee7      0x261 d:/eda/quartus13/nios2eds/bin/gnu/h-i686-mingw32/bin/../lib/gcc/nios2-elf/4.7.3\libgcc.a(_si_to_df.o)
 .debug_info    0x00035148      0x30b d:/eda/quartus13/nios2eds/bin/gnu/h-i686-mingw32/bin/../lib/gcc/nios2-elf/4.7.3\libgcc.a(_df_to_si.o)
 .debug_info    0x00035453      0x2c8 d:/eda/quartus13/nios2eds/bin/gnu/h-i686-mingw32/bin/../lib/gcc/nios2-elf/4.7.3\libgcc.a(_df_to_sf.o)
 .debug_info    0x0003571b      0x155 d:/eda/quartus13/nios2eds/bin/gnu/h-i686-mingw32/bin/../lib/gcc/nios2-elf/4.7.3\libgcc.a(_thenan_df.o)
 .debug_info    0x00035870      0x284 d:/eda/quartus13/nios2eds/bin/gnu/h-i686-mingw32/bin/../lib/gcc/nios2-elf/4.7.3\libgcc.a(_usi_to_df.o)
 .debug_info    0x00035af4      0x289 d:/eda/quartus13/nios2eds/bin/gnu/h-i686-mingw32/bin/../lib/gcc/nios2-elf/4.7.3\libgcc.a(lib2-divmod.o)
 .debug_info    0x00035d7d       0xac d:/eda/quartus13/nios2eds/bin/gnu/h-i686-mingw32/bin/../lib/gcc/nios2-elf/4.7.3\libgcc.a(_clz.o)
 .debug_info    0x00035e29      0x123 d:/eda/quartus13/nios2eds/bin/gnu/h-i686-mingw32/bin/../lib/gcc/nios2-elf/4.7.3\libgcc.a(_clzsi2.o)
 .debug_info    0x00035f4c      0x26a d:/eda/quartus13/nios2eds/bin/gnu/h-i686-mingw32/bin/../lib/gcc/nios2-elf/4.7.3\libgcc.a(_unpack_sf.o)
 .debug_info    0x000361b6      0x226 d:/eda/quartus13/nios2eds/bin/gnu/h-i686-mingw32/bin/../lib/gcc/nios2-elf/4.7.3\libgcc.a(_fpcmp_parts_sf.o)
 .debug_info    0x000363dc      0x20a d:/eda/quartus13/nios2eds/bin/gnu/h-i686-mingw32/bin/../lib/gcc/nios2-elf/4.7.3\libgcc.a(_make_sf.o)
 .debug_info    0x000365e6      0x2f7 d:/eda/quartus13/nios2eds/bin/gnu/h-i686-mingw32/bin/../lib/gcc/nios2-elf/4.7.3\libgcc.a(_pack_df.o)
 .debug_info    0x000368dd      0x265 d:/eda/quartus13/nios2eds/bin/gnu/h-i686-mingw32/bin/../lib/gcc/nios2-elf/4.7.3\libgcc.a(_unpack_df.o)
 .debug_info    0x00036b42      0x226 d:/eda/quartus13/nios2eds/bin/gnu/h-i686-mingw32/bin/../lib/gcc/nios2-elf/4.7.3\libgcc.a(_fpcmp_parts_df.o)
 .debug_info    0x00036d68      0x185 d:/eda/quartus13/nios2eds/bin/gnu/h-i686-mingw32/bin/../lib/gcc/nios2-elf/4.7.3\libgcc.a(_lshrdi3.o)
 .debug_info    0x00036eed      0x185 d:/eda/quartus13/nios2eds/bin/gnu/h-i686-mingw32/bin/../lib/gcc/nios2-elf/4.7.3\libgcc.a(_ashldi3.o)
 .debug_info    0x00037072      0x2f2 d:/eda/quartus13/nios2eds/bin/gnu/h-i686-mingw32/bin/../lib/gcc/nios2-elf/4.7.3\libgcc.a(_pack_sf.o)
 .debug_info    0x00037364       0xda F:/Qsys/qsys_webserver/qsys/software/qsys_webserver_bsp/\libucosii_bsp.a(alt_dcache_flush.o)
 .debug_info    0x0003743e      0x406 F:/Qsys/qsys_webserver/qsys/software/qsys_webserver_bsp/\libucosii_bsp.a(alt_flash_dev.o)
 .debug_info    0x00037844      0x510 F:/Qsys/qsys_webserver/qsys/software/qsys_webserver_bsp/\libucosii_bsp.a(alt_fstat.o)
 .debug_info    0x00037d54      0x513 F:/Qsys/qsys_webserver/qsys/software/qsys_webserver_bsp/\libucosii_bsp.a(alt_isatty.o)
 .debug_info    0x00038267      0x3b9 F:/Qsys/qsys_webserver/qsys/software/qsys_webserver_bsp/\libucosii_bsp.a(alt_lseek.o)
 .debug_info    0x00038620      0x28b F:/Qsys/qsys_webserver/qsys/software/qsys_webserver_bsp/\libucosii_bsp.a(alt_main.o)
 .debug_info    0x000388ab      0x41d F:/Qsys/qsys_webserver/qsys/software/qsys_webserver_bsp/\libucosii_bsp.a(alt_open.o)
 .debug_info    0x00038cc8      0x323 F:/Qsys/qsys_webserver/qsys/software/qsys_webserver_bsp/\libucosii_bsp.a(alt_release_fd.o)
 .debug_info    0x00038feb      0x1b2 F:/Qsys/qsys_webserver/qsys/software/qsys_webserver_bsp/\libucosii_bsp.a(alt_sbrk.o)
 .debug_info    0x0003919d      0x2bf F:/Qsys/qsys_webserver/qsys/software/qsys_webserver_bsp/\libucosii_bsp.a(alt_tick.o)
 .debug_info    0x0003945c      0xd5c F:/Qsys/qsys_webserver/qsys/software/qsys_webserver_bsp/\libucosii_bsp.a(alt_env_lock.o)
 .debug_info    0x0003a1b8      0xea6 F:/Qsys/qsys_webserver/qsys/software/qsys_webserver_bsp/\libucosii_bsp.a(alt_malloc_lock.o)
 .debug_info    0x0003b05e     0x174b F:/Qsys/qsys_webserver/qsys/software/qsys_webserver_bsp/\libucosii_bsp.a(os_core.o)
 .debug_info    0x0003c7a9      0xb93 F:/Qsys/qsys_webserver/qsys/software/qsys_webserver_bsp/\libucosii_bsp.a(os_dbg.o)
 .debug_info    0x0003d33c     0x1040 F:/Qsys/qsys_webserver/qsys/software/qsys_webserver_bsp/\libucosii_bsp.a(os_flag.o)
 .debug_info    0x0003e37c      0xae9 F:/Qsys/qsys_webserver/qsys/software/qsys_webserver_bsp/\libucosii_bsp.a(os_mbox.o)
 .debug_info    0x0003ee65      0x6ba F:/Qsys/qsys_webserver/qsys/software/qsys_webserver_bsp/\libucosii_bsp.a(os_mem.o)
 .debug_info    0x0003f51f      0xe4d F:/Qsys/qsys_webserver/qsys/software/qsys_webserver_bsp/\libucosii_bsp.a(os_q.o)
 .debug_info    0x0004036c      0xa89 F:/Qsys/qsys_webserver/qsys/software/qsys_webserver_bsp/\libucosii_bsp.a(os_sem.o)
 .debug_info    0x00040df5     0x11bb F:/Qsys/qsys_webserver/qsys/software/qsys_webserver_bsp/\libucosii_bsp.a(os_task.o)
 .debug_info    0x00041fb0      0x75d F:/Qsys/qsys_webserver/qsys/software/qsys_webserver_bsp/\libucosii_bsp.a(os_time.o)
 .debug_info    0x0004270d     0x1349 F:/Qsys/qsys_webserver/qsys/software/qsys_webserver_bsp/\libucosii_bsp.a(alt_sys_init.o)
 .debug_info    0x00043a56      0x8ae F:/Qsys/qsys_webserver/qsys/software/qsys_webserver_bsp/\libucosii_bsp.a(altera_avalon_epcs_flash_controller.o)
 .debug_info    0x00044304      0x6f3 F:/Qsys/qsys_webserver/qsys/software/qsys_webserver_bsp/\libucosii_bsp.a(altera_avalon_jtag_uart_fd.o)
 .debug_info    0x000449f7      0x709 F:/Qsys/qsys_webserver/qsys/software/qsys_webserver_bsp/\libucosii_bsp.a(altera_avalon_jtag_uart_init.o)
 .debug_info    0x00045100      0x412 F:/Qsys/qsys_webserver/qsys/software/qsys_webserver_bsp/\libucosii_bsp.a(altera_avalon_jtag_uart_ioctl.o)
 .debug_info    0x00045512      0x5c4 F:/Qsys/qsys_webserver/qsys/software/qsys_webserver_bsp/\libucosii_bsp.a(altera_avalon_jtag_uart_read.o)
 .debug_info    0x00045ad6      0x5c2 F:/Qsys/qsys_webserver/qsys/software/qsys_webserver_bsp/\libucosii_bsp.a(altera_avalon_jtag_uart_write.o)
 .debug_info    0x00046098      0xb20 F:/Qsys/qsys_webserver/qsys/software/qsys_webserver_bsp/\libucosii_bsp.a(altera_avalon_sgdma.o)
 .debug_info    0x00046bb8      0x235 F:/Qsys/qsys_webserver/qsys/software/qsys_webserver_bsp/\libucosii_bsp.a(altera_avalon_timer_sc.o)
 .debug_info    0x00046ded     0x1028 F:/Qsys/qsys_webserver/qsys/software/qsys_webserver_bsp/\libucosii_bsp.a(altera_ro_zipfs.o)
 .debug_info    0x00047e15      0x482 F:/Qsys/qsys_webserver/qsys/software/qsys_webserver_bsp/\libucosii_bsp.a(epcs_commands.o)
 .debug_info    0x00048297     0x1f12 F:/Qsys/qsys_webserver/qsys/software/qsys_webserver_bsp/\libucosii_bsp.a(ins_tse_mac.o)
 .debug_info    0x0004a1a9       0xde F:/Qsys/qsys_webserver/qsys/software/qsys_webserver_bsp/\libucosii_bsp.a(alt_iniche_close.o)
 .debug_info    0x0004a287      0x7ec F:/Qsys/qsys_webserver/qsys/software/qsys_webserver_bsp/\libucosii_bsp.a(alt_iniche_dev.o)
 .debug_info    0x0004aa73      0x107 F:/Qsys/qsys_webserver/qsys/software/qsys_webserver_bsp/\libucosii_bsp.a(alt_iniche_read.o)
 .debug_info    0x0004ab7a      0x10c F:/Qsys/qsys_webserver/qsys/software/qsys_webserver_bsp/\libucosii_bsp.a(alt_iniche_write.o)
 .debug_info    0x0004ac86      0x91f F:/Qsys/qsys_webserver/qsys/software/qsys_webserver_bsp/\libucosii_bsp.a(ipnet.o)
 .debug_info    0x0004b5a5      0x870 F:/Qsys/qsys_webserver/qsys/software/qsys_webserver_bsp/\libucosii_bsp.a(ipstart.o)
 .debug_info    0x0004be15      0xe03 F:/Qsys/qsys_webserver/qsys/software/qsys_webserver_bsp/\libucosii_bsp.a(igmp_cmn.o)
 .debug_info    0x0004cc18      0xfd2 F:/Qsys/qsys_webserver/qsys/software/qsys_webserver_bsp/\libucosii_bsp.a(bsdsock.o)
 .debug_info    0x0004dbea      0x16b F:/Qsys/qsys_webserver/qsys/software/qsys_webserver_bsp/\libucosii_bsp.a(cksum.o)
 .debug_info    0x0004dd55      0x5cc F:/Qsys/qsys_webserver/qsys/software/qsys_webserver_bsp/\libucosii_bsp.a(in_utils.o)
 .debug_info    0x0004e321      0x3bb F:/Qsys/qsys_webserver/qsys/software/qsys_webserver_bsp/\libucosii_bsp.a(netmain.o)
 .debug_info    0x0004e6dc      0x652 F:/Qsys/qsys_webserver/qsys/software/qsys_webserver_bsp/\libucosii_bsp.a(tk_crnos.o)
 .debug_info    0x0004ed2e      0x946 F:/Qsys/qsys_webserver/qsys/software/qsys_webserver_bsp/\libucosii_bsp.a(pktalloc.o)
 .debug_info    0x0004f674      0x206 F:/Qsys/qsys_webserver/qsys/software/qsys_webserver_bsp/\libucosii_bsp.a(q.o)
 .debug_info    0x0004f87a       0x7e F:/Qsys/qsys_webserver/qsys/software/qsys_webserver_bsp/\libucosii_bsp.a(asm_cksum.o)
 .debug_info    0x0004f8f8      0xb44 F:/Qsys/qsys_webserver/qsys/software/qsys_webserver_bsp/\libucosii_bsp.a(brdutils.o)
 .debug_info    0x0005043c      0x4dd F:/Qsys/qsys_webserver/qsys/software/qsys_webserver_bsp/\libucosii_bsp.a(osportco.o)
 .debug_info    0x00050919      0x47b F:/Qsys/qsys_webserver/qsys/software/qsys_webserver_bsp/\libucosii_bsp.a(targnios.o)
 .debug_info    0x00050d94     0x1be5 F:/Qsys/qsys_webserver/qsys/software/qsys_webserver_bsp/\libucosii_bsp.a(nptcp.o)
 .debug_info    0x00052979      0xdab F:/Qsys/qsys_webserver/qsys/software/qsys_webserver_bsp/\libucosii_bsp.a(rawsock.o)
 .debug_info    0x00053724     0x173c F:/Qsys/qsys_webserver/qsys/software/qsys_webserver_bsp/\libucosii_bsp.a(sockcall.o)
 .debug_info    0x00054e60     0x1507 F:/Qsys/qsys_webserver/qsys/software/qsys_webserver_bsp/\libucosii_bsp.a(socket.o)
 .debug_info    0x00056367     0x10bb F:/Qsys/qsys_webserver/qsys/software/qsys_webserver_bsp/\libucosii_bsp.a(socket2.o)
 .debug_info    0x00057422      0xe1e F:/Qsys/qsys_webserver/qsys/software/qsys_webserver_bsp/\libucosii_bsp.a(soselect.o)
 .debug_info    0x00058240     0x1836 F:/Qsys/qsys_webserver/qsys/software/qsys_webserver_bsp/\libucosii_bsp.a(tcp_in.o)
 .debug_info    0x00059a76     0x15a3 F:/Qsys/qsys_webserver/qsys/software/qsys_webserver_bsp/\libucosii_bsp.a(tcp_out.o)
 .debug_info    0x0005b019     0x161b F:/Qsys/qsys_webserver/qsys/software/qsys_webserver_bsp/\libucosii_bsp.a(tcp_subr.o)
 .debug_info    0x0005c634     0x144a F:/Qsys/qsys_webserver/qsys/software/qsys_webserver_bsp/\libucosii_bsp.a(tcp_timr.o)
 .debug_info    0x0005da7e     0x141c F:/Qsys/qsys_webserver/qsys/software/qsys_webserver_bsp/\libucosii_bsp.a(tcp_usr.o)
 .debug_info    0x0005ee9a       0xdd F:/Qsys/qsys_webserver/qsys/software/qsys_webserver_bsp/\libucosii_bsp.a(tcpport.o)
 .debug_info    0x0005ef77      0xeff F:/Qsys/qsys_webserver/qsys/software/qsys_webserver_bsp/\libucosii_bsp.a(udpsock.o)
 .debug_info    0x0005fe76      0x2e4 F:/Qsys/qsys_webserver/qsys/software/qsys_webserver_bsp/\libucosii_bsp.a(alt_alarm_start.o)
 .debug_info    0x0006015a      0x388 F:/Qsys/qsys_webserver/qsys/software/qsys_webserver_bsp/\libucosii_bsp.a(alt_close.o)
 .debug_info    0x000604e2      0x5dd F:/Qsys/qsys_webserver/qsys/software/qsys_webserver_bsp/\libucosii_bsp.a(alt_dev.o)
 .debug_info    0x00060abf      0x1b9 F:/Qsys/qsys_webserver/qsys/software/qsys_webserver_bsp/\libucosii_bsp.a(alt_dev_llist_insert.o)
 .debug_info    0x00060c78       0x8d F:/Qsys/qsys_webserver/qsys/software/qsys_webserver_bsp/\libucosii_bsp.a(alt_do_ctors.o)
 .debug_info    0x00060d05       0x8d F:/Qsys/qsys_webserver/qsys/software/qsys_webserver_bsp/\libucosii_bsp.a(alt_do_dtors.o)
 .debug_info    0x00060d92       0xa3 F:/Qsys/qsys_webserver/qsys/software/qsys_webserver_bsp/\libucosii_bsp.a(alt_errno.o)
 .debug_info    0x00060e35      0x345 F:/Qsys/qsys_webserver/qsys/software/qsys_webserver_bsp/\libucosii_bsp.a(alt_find_dev.o)
 .debug_info    0x0006117a      0x344 F:/Qsys/qsys_webserver/qsys/software/qsys_webserver_bsp/\libucosii_bsp.a(alt_find_file.o)
 .debug_info    0x000614be      0x361 F:/Qsys/qsys_webserver/qsys/software/qsys_webserver_bsp/\libucosii_bsp.a(alt_fs_reg.o)
 .debug_info    0x0006181f      0x486 F:/Qsys/qsys_webserver/qsys/software/qsys_webserver_bsp/\libucosii_bsp.a(alt_get_fd.o)
 .debug_info    0x00061ca5      0x364 F:/Qsys/qsys_webserver/qsys/software/qsys_webserver_bsp/\libucosii_bsp.a(alt_iic.o)
 .debug_info    0x00062009      0x1f6 F:/Qsys/qsys_webserver/qsys/software/qsys_webserver_bsp/\libucosii_bsp.a(alt_iic_isr_register.o)
 .debug_info    0x000621ff      0x528 F:/Qsys/qsys_webserver/qsys/software/qsys_webserver_bsp/\libucosii_bsp.a(alt_io_redirect.o)
 .debug_info    0x00062727       0x75 F:/Qsys/qsys_webserver/qsys/software/qsys_webserver_bsp/\libucosii_bsp.a(alt_irq_entry.o)
 .debug_info    0x0006279c      0x1bd F:/Qsys/qsys_webserver/qsys/software/qsys_webserver_bsp/\libucosii_bsp.a(alt_irq_handler.o)
 .debug_info    0x00062959       0x8a F:/Qsys/qsys_webserver/qsys/software/qsys_webserver_bsp/\libucosii_bsp.a(alt_irq_vars.o)
 .debug_info    0x000629e3      0x538 F:/Qsys/qsys_webserver/qsys/software/qsys_webserver_bsp/\libucosii_bsp.a(alt_read.o)
 .debug_info    0x00062f1b       0xc9 F:/Qsys/qsys_webserver/qsys/software/qsys_webserver_bsp/\libucosii_bsp.a(alt_remap_cached.o)
 .debug_info    0x00062fe4       0xc9 F:/Qsys/qsys_webserver/qsys/software/qsys_webserver_bsp/\libucosii_bsp.a(alt_remap_uncached.o)
 .debug_info    0x000630ad       0xd4 F:/Qsys/qsys_webserver/qsys/software/qsys_webserver_bsp/\libucosii_bsp.a(alt_uncached_malloc.o)
 .debug_info    0x00063181      0x53f F:/Qsys/qsys_webserver/qsys/software/qsys_webserver_bsp/\libucosii_bsp.a(alt_write.o)
 .debug_info    0x000636c0       0x90 F:/Qsys/qsys_webserver/qsys/software/qsys_webserver_bsp/\libucosii_bsp.a(altera_nios2_qsys_irq.o)
 .debug_info    0x00063750       0x74 F:/Qsys/qsys_webserver/qsys/software/qsys_webserver_bsp/\libucosii_bsp.a(os_cpu_a.o)
 .debug_info    0x000637c4      0xdff F:/Qsys/qsys_webserver/qsys/software/qsys_webserver_bsp/\libucosii_bsp.a(os_cpu_c.o)
 .debug_info    0x000645c3      0x18b F:/Qsys/qsys_webserver/qsys/software/qsys_webserver_bsp/\libucosii_bsp.a(altera_avalon_spi.o)
 .debug_info    0x0006474e     0x266f F:/Qsys/qsys_webserver/qsys/software/qsys_webserver_bsp/\libucosii_bsp.a(altera_avalon_tse.o)
 .debug_info    0x00066dbd      0x9a9 F:/Qsys/qsys_webserver/qsys/software/qsys_webserver_bsp/\libucosii_bsp.a(altera_avalon_tse_system_info.o)
 .debug_info    0x00067766      0xa09 F:/Qsys/qsys_webserver/qsys/software/qsys_webserver_bsp/\libucosii_bsp.a(allports.o)
 .debug_info    0x0006816f      0x283 F:/Qsys/qsys_webserver/qsys/software/qsys_webserver_bsp/\libucosii_bsp.a(timeouts.o)
 .debug_info    0x000683f2      0x124 F:/Qsys/qsys_webserver/qsys/software/qsys_webserver_bsp/\libucosii_bsp.a(tk_misc.o)
 .debug_info    0x00068516      0x126 F:/Qsys/qsys_webserver/qsys/software/qsys_webserver_bsp/\libucosii_bsp.a(alt_iniche_fcntl.o)
 .debug_info    0x0006863c      0xee3 F:/Qsys/qsys_webserver/qsys/software/qsys_webserver_bsp/\libucosii_bsp.a(et_arp.o)
 .debug_info    0x0006951f      0xb94 F:/Qsys/qsys_webserver/qsys/software/qsys_webserver_bsp/\libucosii_bsp.a(iface.o)
 .debug_info    0x0006a0b3     0x113b F:/Qsys/qsys_webserver/qsys/software/qsys_webserver_bsp/\libucosii_bsp.a(ip.o)
 .debug_info    0x0006b1ee     0x11bf F:/Qsys/qsys_webserver/qsys/software/qsys_webserver_bsp/\libucosii_bsp.a(ip_reasm.o)
 .debug_info    0x0006c3ad      0x9f4 F:/Qsys/qsys_webserver/qsys/software/qsys_webserver_bsp/\libucosii_bsp.a(ipdemux.o)
 .debug_info    0x0006cda1      0x75a F:/Qsys/qsys_webserver/qsys/software/qsys_webserver_bsp/\libucosii_bsp.a(ipmc.o)
 .debug_info    0x0006d4fb      0x1be F:/Qsys/qsys_webserver/qsys/software/qsys_webserver_bsp/\libucosii_bsp.a(ipport.o)
 .debug_info    0x0006d6b9      0xb01 F:/Qsys/qsys_webserver/qsys/software/qsys_webserver_bsp/\libucosii_bsp.a(ipraw.o)
 .debug_info    0x0006e1ba      0xa6c F:/Qsys/qsys_webserver/qsys/software/qsys_webserver_bsp/\libucosii_bsp.a(iproute.o)
 .debug_info    0x0006ec26      0xe21 F:/Qsys/qsys_webserver/qsys/software/qsys_webserver_bsp/\libucosii_bsp.a(udp.o)
 .debug_info    0x0006fa47      0xa9c F:/Qsys/qsys_webserver/qsys/software/qsys_webserver_bsp/\libucosii_bsp.a(igmp.o)
 .debug_info    0x000704e3      0xc54 F:/Qsys/qsys_webserver/qsys/software/qsys_webserver_bsp/\libucosii_bsp.a(igmp2.o)
 .debug_info    0x00071137      0xc93 F:/Qsys/qsys_webserver/qsys/software/qsys_webserver_bsp/\libucosii_bsp.a(ipopt.o)
 .debug_info    0x00071dca      0x8a4 F:/Qsys/qsys_webserver/qsys/software/qsys_webserver_bsp/\libucosii_bsp.a(u_mctest.o)
 .debug_info    0x0007266e      0x5b5 F:/Qsys/qsys_webserver/qsys/software/qsys_webserver_bsp/\libucosii_bsp.a(memdev.o)
 .debug_info    0x00072c23      0x56c F:/Qsys/qsys_webserver/qsys/software/qsys_webserver_bsp/\libucosii_bsp.a(parseip.o)
 .debug_info    0x0007318f      0x296 F:/Qsys/qsys_webserver/qsys/software/qsys_webserver_bsp/\libucosii_bsp.a(tcpcksum.o)
 .debug_info    0x00073425      0x80f F:/Qsys/qsys_webserver/qsys/software/qsys_webserver_bsp/\libucosii_bsp.a(udp_open.o)
 .debug_info    0x00073c34      0xe16 F:/Qsys/qsys_webserver/qsys/software/qsys_webserver_bsp/\libucosii_bsp.a(in_pcb.o)
 .debug_info    0x00074a4a      0xd45 F:/Qsys/qsys_webserver/qsys/software/qsys_webserver_bsp/\libucosii_bsp.a(vfsfiles.o)
 .debug_info    0x0007578f       0xdd F:/Qsys/qsys_webserver/qsys/software/qsys_webserver_bsp/\libucosii_bsp.a(vfsport.o)
 .debug_info    0x0007586c       0x7b F:/Qsys/qsys_webserver/qsys/software/qsys_webserver_bsp/\libucosii_bsp.a(alt_exception_entry.o)
 .debug_info    0x000758e7      0x54a F:/Qsys/qsys_webserver/qsys/software/qsys_webserver_bsp/\libucosii_bsp.a(alt_fcntl.o)
 .debug_info    0x00075e31      0x145 F:/Qsys/qsys_webserver/qsys/software/qsys_webserver_bsp/\libucosii_bsp.a(alt_usleep.o)
 .debug_info    0x00075f76      0xcc8 F:/Qsys/qsys_webserver/qsys/software/qsys_webserver_bsp/\libucosii_bsp.a(icmp.o)
 .debug_info    0x00076c3e       0xd5 F:/Qsys/qsys_webserver/qsys/software/qsys_webserver_bsp/\libucosii_bsp.a(alt_busy_sleep.o)
 .debug_info    0x00076d13      0x1e6 d:/eda/quartus13/nios2eds/bin/gnu/h-i686-mingw32/bin/../lib/gcc/nios2-elf/4.7.3/../../../../../H-i686-mingw32/nios2-elf/lib\libc.a(lib_a-atexit.o)
 .debug_info    0x00076ef9      0x98e d:/eda/quartus13/nios2eds/bin/gnu/h-i686-mingw32/bin/../lib/gcc/nios2-elf/4.7.3/../../../../../H-i686-mingw32/nios2-elf/lib\libc.a(lib_a-calloc.o)
 .debug_info    0x00077887      0x993 d:/eda/quartus13/nios2eds/bin/gnu/h-i686-mingw32/bin/../lib/gcc/nios2-elf/4.7.3/../../../../../H-i686-mingw32/nios2-elf/lib\libc.a(lib_a-exit.o)
 .debug_info    0x0007821a      0x9c9 d:/eda/quartus13/nios2eds/bin/gnu/h-i686-mingw32/bin/../lib/gcc/nios2-elf/4.7.3/../../../../../H-i686-mingw32/nios2-elf/lib\libc.a(lib_a-malloc.o)
 .debug_info    0x00078be3      0xa25 d:/eda/quartus13/nios2eds/bin/gnu/h-i686-mingw32/bin/../lib/gcc/nios2-elf/4.7.3/../../../../../H-i686-mingw32/nios2-elf/lib\libc.a(lib_a-vprintf.o)
 .debug_info    0x00079608      0xa6a d:/eda/quartus13/nios2eds/bin/gnu/h-i686-mingw32/bin/../lib/gcc/nios2-elf/4.7.3/../../../../../H-i686-mingw32/nios2-elf/lib\libc.a(lib_a-vsprintf.o)
 .debug_info    0x0007a072      0x9f9 d:/eda/quartus13/nios2eds/bin/gnu/h-i686-mingw32/bin/../lib/gcc/nios2-elf/4.7.3/../../../../../H-i686-mingw32/nios2-elf/lib\libc.a(lib_a-__atexit.o)
 .debug_info    0x0007aa6b      0xa07 d:/eda/quartus13/nios2eds/bin/gnu/h-i686-mingw32/bin/../lib/gcc/nios2-elf/4.7.3/../../../../../H-i686-mingw32/nios2-elf/lib\libc.a(lib_a-__call_atexit.o)
 .debug_info    0x0007b472      0x141 F:/Qsys/qsys_webserver/qsys/software/qsys_webserver_bsp/\libucosii_bsp.a(alt_exit.o)

.debug_abbrev   0x00000000    0x189f2
 *(.debug_abbrev)
 .debug_abbrev  0x00000000       0x14 F:/Qsys/qsys_webserver/qsys/software/qsys_webserver_bsp//obj/HAL/src/crt0.o
 .debug_abbrev  0x00000014      0x1bf obj/default/alt_error_handler.o
 .debug_abbrev  0x000001d3      0x316 obj/default/http.o
 .debug_abbrev  0x000004e9      0x2ca obj/default/network_utilities.o
 .debug_abbrev  0x000007b3      0x198 obj/default/srec_flash.o
 .debug_abbrev  0x0000094b      0x195 obj/default/web_server.o
 .debug_abbrev  0x00000ae0      0x1b3 d:/eda/quartus13/nios2eds/bin/gnu/h-i686-mingw32/bin/../lib/gcc/nios2-elf/4.7.3/../../../../../H-i686-mingw32/nios2-elf/lib\libc.a(lib_a-atoi.o)
 .debug_abbrev  0x00000c93       0x5d d:/eda/quartus13/nios2eds/bin/gnu/h-i686-mingw32/bin/../lib/gcc/nios2-elf/4.7.3/../../../../../H-i686-mingw32/nios2-elf/lib\libc.a(lib_a-ctype_.o)
 .debug_abbrev  0x00000cf0      0x24e d:/eda/quartus13/nios2eds/bin/gnu/h-i686-mingw32/bin/../lib/gcc/nios2-elf/4.7.3/../../../../../H-i686-mingw32/nios2-elf/lib\libc.a(lib_a-fclose.o)
 .debug_abbrev  0x00000f3e      0x259 d:/eda/quartus13/nios2eds/bin/gnu/h-i686-mingw32/bin/../lib/gcc/nios2-elf/4.7.3/../../../../../H-i686-mingw32/nios2-elf/lib\libc.a(lib_a-fflush.o)
 .debug_abbrev  0x00001197      0x1d6 d:/eda/quartus13/nios2eds/bin/gnu/h-i686-mingw32/bin/../lib/gcc/nios2-elf/4.7.3/../../../../../H-i686-mingw32/nios2-elf/lib\libc.a(lib_a-fgetpos.o)
 .debug_abbrev  0x0000136d      0x317 d:/eda/quartus13/nios2eds/bin/gnu/h-i686-mingw32/bin/../lib/gcc/nios2-elf/4.7.3/../../../../../H-i686-mingw32/nios2-elf/lib\libc.a(lib_a-findfp.o)
 .debug_abbrev  0x00001684      0x250 d:/eda/quartus13/nios2eds/bin/gnu/h-i686-mingw32/bin/../lib/gcc/nios2-elf/4.7.3/../../../../../H-i686-mingw32/nios2-elf/lib\libc.a(lib_a-fopen.o)
 .debug_abbrev  0x000018d4      0x1e3 d:/eda/quartus13/nios2eds/bin/gnu/h-i686-mingw32/bin/../lib/gcc/nios2-elf/4.7.3/../../../../../H-i686-mingw32/nios2-elf/lib\libc.a(lib_a-fprintf.o)
 .debug_abbrev  0x00001ab7      0x26a d:/eda/quartus13/nios2eds/bin/gnu/h-i686-mingw32/bin/../lib/gcc/nios2-elf/4.7.3/../../../../../H-i686-mingw32/nios2-elf/lib\libc.a(lib_a-fread.o)
 .debug_abbrev  0x00001d21      0x25d d:/eda/quartus13/nios2eds/bin/gnu/h-i686-mingw32/bin/../lib/gcc/nios2-elf/4.7.3/../../../../../H-i686-mingw32/nios2-elf/lib\libc.a(lib_a-freer.o)
 .debug_abbrev  0x00001f7e      0x2be d:/eda/quartus13/nios2eds/bin/gnu/h-i686-mingw32/bin/../lib/gcc/nios2-elf/4.7.3/../../../../../H-i686-mingw32/nios2-elf/lib\libc.a(lib_a-fseek.o)
 .debug_abbrev  0x0000223c      0x1ca d:/eda/quartus13/nios2eds/bin/gnu/h-i686-mingw32/bin/../lib/gcc/nios2-elf/4.7.3/../../../../../H-i686-mingw32/nios2-elf/lib\libc.a(lib_a-fstatr.o)
 .debug_abbrev  0x00002406      0x210 d:/eda/quartus13/nios2eds/bin/gnu/h-i686-mingw32/bin/../lib/gcc/nios2-elf/4.7.3/../../../../../H-i686-mingw32/nios2-elf/lib\libc.a(lib_a-ftell.o)
 .debug_abbrev  0x00002616      0x224 d:/eda/quartus13/nios2eds/bin/gnu/h-i686-mingw32/bin/../lib/gcc/nios2-elf/4.7.3/../../../../../H-i686-mingw32/nios2-elf/lib\libc.a(lib_a-fwalk.o)
 .debug_abbrev  0x0000283a      0x234 d:/eda/quartus13/nios2eds/bin/gnu/h-i686-mingw32/bin/../lib/gcc/nios2-elf/4.7.3/../../../../../H-i686-mingw32/nios2-elf/lib\libc.a(lib_a-fwrite.o)
 .debug_abbrev  0x00002a6e      0x1f8 d:/eda/quartus13/nios2eds/bin/gnu/h-i686-mingw32/bin/../lib/gcc/nios2-elf/4.7.3/../../../../../H-i686-mingw32/nios2-elf/lib\libc.a(lib_a-getc.o)
 .debug_abbrev  0x00002c66      0x162 d:/eda/quartus13/nios2eds/bin/gnu/h-i686-mingw32/bin/../lib/gcc/nios2-elf/4.7.3/../../../../../H-i686-mingw32/nios2-elf/lib\libc.a(lib_a-impure.o)
 .debug_abbrev  0x00002dc8       0x37 d:/eda/quartus13/nios2eds/bin/gnu/h-i686-mingw32/bin/../lib/gcc/nios2-elf/4.7.3/../../../../../H-i686-mingw32/nios2-elf/lib\libc.a(lib_a-int_errno.o)
 .debug_abbrev  0x00002dff      0x1e8 d:/eda/quartus13/nios2eds/bin/gnu/h-i686-mingw32/bin/../lib/gcc/nios2-elf/4.7.3/../../../../../H-i686-mingw32/nios2-elf/lib\libc.a(lib_a-makebuf.o)
 .debug_abbrev  0x00002fe7      0x284 d:/eda/quartus13/nios2eds/bin/gnu/h-i686-mingw32/bin/../lib/gcc/nios2-elf/4.7.3/../../../../../H-i686-mingw32/nios2-elf/lib\libc.a(lib_a-mallocr.o)
 .debug_abbrev  0x0000326b       0x9c d:/eda/quartus13/nios2eds/bin/gnu/h-i686-mingw32/bin/../lib/gcc/nios2-elf/4.7.3/../../../../../H-i686-mingw32/nios2-elf/lib\libc.a(lib_a-memcpy.o)
 .debug_abbrev  0x00003307       0x9c d:/eda/quartus13/nios2eds/bin/gnu/h-i686-mingw32/bin/../lib/gcc/nios2-elf/4.7.3/../../../../../H-i686-mingw32/nios2-elf/lib\libc.a(lib_a-memmove.o)
 .debug_abbrev  0x000033a3       0xac d:/eda/quartus13/nios2eds/bin/gnu/h-i686-mingw32/bin/../lib/gcc/nios2-elf/4.7.3/../../../../../H-i686-mingw32/nios2-elf/lib\libc.a(lib_a-memset.o)
 .debug_abbrev  0x0000344f      0x1cf d:/eda/quartus13/nios2eds/bin/gnu/h-i686-mingw32/bin/../lib/gcc/nios2-elf/4.7.3/../../../../../H-i686-mingw32/nios2-elf/lib\libc.a(lib_a-openr.o)
 .debug_abbrev  0x0000361e      0x21e d:/eda/quartus13/nios2eds/bin/gnu/h-i686-mingw32/bin/../lib/gcc/nios2-elf/4.7.3/../../../../../H-i686-mingw32/nios2-elf/lib\libc.a(lib_a-perror.o)
 .debug_abbrev  0x0000383c      0x209 d:/eda/quartus13/nios2eds/bin/gnu/h-i686-mingw32/bin/../lib/gcc/nios2-elf/4.7.3/../../../../../H-i686-mingw32/nios2-elf/lib\libc.a(lib_a-printf.o)
 .debug_abbrev  0x00003a45      0x1f8 d:/eda/quartus13/nios2eds/bin/gnu/h-i686-mingw32/bin/../lib/gcc/nios2-elf/4.7.3/../../../../../H-i686-mingw32/nios2-elf/lib\libc.a(lib_a-putc.o)
 .debug_abbrev  0x00003c3d      0x1cd d:/eda/quartus13/nios2eds/bin/gnu/h-i686-mingw32/bin/../lib/gcc/nios2-elf/4.7.3/../../../../../H-i686-mingw32/nios2-elf/lib\libc.a(lib_a-putchar.o)
 .debug_abbrev  0x00003e0a      0x208 d:/eda/quartus13/nios2eds/bin/gnu/h-i686-mingw32/bin/../lib/gcc/nios2-elf/4.7.3/../../../../../H-i686-mingw32/nios2-elf/lib\libc.a(lib_a-puts.o)
 .debug_abbrev  0x00004012      0x232 d:/eda/quartus13/nios2eds/bin/gnu/h-i686-mingw32/bin/../lib/gcc/nios2-elf/4.7.3/../../../../../H-i686-mingw32/nios2-elf/lib\libc.a(lib_a-refill.o)
 .debug_abbrev  0x00004244      0x1d6 d:/eda/quartus13/nios2eds/bin/gnu/h-i686-mingw32/bin/../lib/gcc/nios2-elf/4.7.3/../../../../../H-i686-mingw32/nios2-elf/lib\libc.a(lib_a-rget.o)
 .debug_abbrev  0x0000441a      0x1df d:/eda/quartus13/nios2eds/bin/gnu/h-i686-mingw32/bin/../lib/gcc/nios2-elf/4.7.3/../../../../../H-i686-mingw32/nios2-elf/lib\libc.a(lib_a-sbrkr.o)
 .debug_abbrev  0x000045f9      0x1f6 d:/eda/quartus13/nios2eds/bin/gnu/h-i686-mingw32/bin/../lib/gcc/nios2-elf/4.7.3/../../../../../H-i686-mingw32/nios2-elf/lib\libc.a(lib_a-sprintf.o)
 .debug_abbrev  0x000047ef      0x23b d:/eda/quartus13/nios2eds/bin/gnu/h-i686-mingw32/bin/../lib/gcc/nios2-elf/4.7.3/../../../../../H-i686-mingw32/nios2-elf/lib\libc.a(lib_a-sscanf.o)
 .debug_abbrev  0x00004a2a      0x226 d:/eda/quartus13/nios2eds/bin/gnu/h-i686-mingw32/bin/../lib/gcc/nios2-elf/4.7.3/../../../../../H-i686-mingw32/nios2-elf/lib\libc.a(lib_a-stdio.o)
 .debug_abbrev  0x00004c50       0xa2 d:/eda/quartus13/nios2eds/bin/gnu/h-i686-mingw32/bin/../lib/gcc/nios2-elf/4.7.3/../../../../../H-i686-mingw32/nios2-elf/lib\libc.a(lib_a-strcasecmp.o)
 .debug_abbrev  0x00004cf2       0xb3 d:/eda/quartus13/nios2eds/bin/gnu/h-i686-mingw32/bin/../lib/gcc/nios2-elf/4.7.3/../../../../../H-i686-mingw32/nios2-elf/lib\libc.a(lib_a-strcat.o)
 .debug_abbrev  0x00004da5       0x83 d:/eda/quartus13/nios2eds/bin/gnu/h-i686-mingw32/bin/../lib/gcc/nios2-elf/4.7.3/../../../../../H-i686-mingw32/nios2-elf/lib\libc.a(lib_a-strchr.o)
 .debug_abbrev  0x00004e28       0x74 d:/eda/quartus13/nios2eds/bin/gnu/h-i686-mingw32/bin/../lib/gcc/nios2-elf/4.7.3/../../../../../H-i686-mingw32/nios2-elf/lib\libc.a(lib_a-strcmp.o)
 .debug_abbrev  0x00004e9c       0x83 d:/eda/quartus13/nios2eds/bin/gnu/h-i686-mingw32/bin/../lib/gcc/nios2-elf/4.7.3/../../../../../H-i686-mingw32/nios2-elf/lib\libc.a(lib_a-strcpy.o)
 .debug_abbrev  0x00004f1f       0xa7 d:/eda/quartus13/nios2eds/bin/gnu/h-i686-mingw32/bin/../lib/gcc/nios2-elf/4.7.3/../../../../../H-i686-mingw32/nios2-elf/lib\libc.a(lib_a-strerror.o)
 .debug_abbrev  0x00004fc6       0x90 d:/eda/quartus13/nios2eds/bin/gnu/h-i686-mingw32/bin/../lib/gcc/nios2-elf/4.7.3/../../../../../H-i686-mingw32/nios2-elf/lib\libc.a(lib_a-strlen.o)
 .debug_abbrev  0x00005056       0x81 d:/eda/quartus13/nios2eds/bin/gnu/h-i686-mingw32/bin/../lib/gcc/nios2-elf/4.7.3/../../../../../H-i686-mingw32/nios2-elf/lib\libc.a(lib_a-strncmp.o)
 .debug_abbrev  0x000050d7       0x90 d:/eda/quartus13/nios2eds/bin/gnu/h-i686-mingw32/bin/../lib/gcc/nios2-elf/4.7.3/../../../../../H-i686-mingw32/nios2-elf/lib\libc.a(lib_a-strncpy.o)
 .debug_abbrev  0x00005167      0x1f2 d:/eda/quartus13/nios2eds/bin/gnu/h-i686-mingw32/bin/../lib/gcc/nios2-elf/4.7.3/../../../../../H-i686-mingw32/nios2-elf/lib\libc.a(lib_a-strstr.o)
 .debug_abbrev  0x00005359      0x1c0 d:/eda/quartus13/nios2eds/bin/gnu/h-i686-mingw32/bin/../lib/gcc/nios2-elf/4.7.3/../../../../../H-i686-mingw32/nios2-elf/lib\libc.a(lib_a-strtok.o)
 .debug_abbrev  0x00005519       0xef d:/eda/quartus13/nios2eds/bin/gnu/h-i686-mingw32/bin/../lib/gcc/nios2-elf/4.7.3/../../../../../H-i686-mingw32/nios2-elf/lib\libc.a(lib_a-strtok_r.o)
 .debug_abbrev  0x00005608      0x1f6 d:/eda/quartus13/nios2eds/bin/gnu/h-i686-mingw32/bin/../lib/gcc/nios2-elf/4.7.3/../../../../../H-i686-mingw32/nios2-elf/lib\libc.a(lib_a-strtol.o)
 .debug_abbrev  0x000057fe       0x5e d:/eda/quartus13/nios2eds/bin/gnu/h-i686-mingw32/bin/../lib/gcc/nios2-elf/4.7.3/../../../../../H-i686-mingw32/nios2-elf/lib\libc.a(lib_a-u_strerr.o)
 .debug_abbrev  0x0000585c      0x3d9 d:/eda/quartus13/nios2eds/bin/gnu/h-i686-mingw32/bin/../lib/gcc/nios2-elf/4.7.3/../../../../../H-i686-mingw32/nios2-elf/lib\libc.a(lib_a-vfprintf.o)
 .debug_abbrev  0x00005c35      0x340 d:/eda/quartus13/nios2eds/bin/gnu/h-i686-mingw32/bin/../lib/gcc/nios2-elf/4.7.3/../../../../../H-i686-mingw32/nios2-elf/lib\libc.a(lib_a-vfscanf.o)
 .debug_abbrev  0x00005f75      0x21a d:/eda/quartus13/nios2eds/bin/gnu/h-i686-mingw32/bin/../lib/gcc/nios2-elf/4.7.3/../../../../../H-i686-mingw32/nios2-elf/lib\libc.a(lib_a-wbuf.o)
 .debug_abbrev  0x0000618f      0x1c0 d:/eda/quartus13/nios2eds/bin/gnu/h-i686-mingw32/bin/../lib/gcc/nios2-elf/4.7.3/../../../../../H-i686-mingw32/nios2-elf/lib\libc.a(lib_a-writer.o)
 .debug_abbrev  0x0000634f      0x1d5 d:/eda/quartus13/nios2eds/bin/gnu/h-i686-mingw32/bin/../lib/gcc/nios2-elf/4.7.3/../../../../../H-i686-mingw32/nios2-elf/lib\libc.a(lib_a-wsetup.o)
 .debug_abbrev  0x00006524      0x1bb d:/eda/quartus13/nios2eds/bin/gnu/h-i686-mingw32/bin/../lib/gcc/nios2-elf/4.7.3/../../../../../H-i686-mingw32/nios2-elf/lib\libc.a(lib_a-closer.o)
 .debug_abbrev  0x000066df      0x2ab d:/eda/quartus13/nios2eds/bin/gnu/h-i686-mingw32/bin/../lib/gcc/nios2-elf/4.7.3/../../../../../H-i686-mingw32/nios2-elf/lib\libc.a(lib_a-dtoa.o)
 .debug_abbrev  0x0000698a      0x18f d:/eda/quartus13/nios2eds/bin/gnu/h-i686-mingw32/bin/../lib/gcc/nios2-elf/4.7.3/../../../../../H-i686-mingw32/nios2-elf/lib\libc.a(lib_a-flags.o)
 .debug_abbrev  0x00006b19      0x212 d:/eda/quartus13/nios2eds/bin/gnu/h-i686-mingw32/bin/../lib/gcc/nios2-elf/4.7.3/../../../../../H-i686-mingw32/nios2-elf/lib\libc.a(lib_a-fputc.o)
 .debug_abbrev  0x00006d2b      0x21b d:/eda/quartus13/nios2eds/bin/gnu/h-i686-mingw32/bin/../lib/gcc/nios2-elf/4.7.3/../../../../../H-i686-mingw32/nios2-elf/lib\libc.a(lib_a-fputs.o)
 .debug_abbrev  0x00006f46      0x234 d:/eda/quartus13/nios2eds/bin/gnu/h-i686-mingw32/bin/../lib/gcc/nios2-elf/4.7.3/../../../../../H-i686-mingw32/nios2-elf/lib\libc.a(lib_a-fvwrite.o)
 .debug_abbrev  0x0000717a      0x1bb d:/eda/quartus13/nios2eds/bin/gnu/h-i686-mingw32/bin/../lib/gcc/nios2-elf/4.7.3/../../../../../H-i686-mingw32/nios2-elf/lib\libc.a(lib_a-isattyr.o)
 .debug_abbrev  0x00007335       0xa4 d:/eda/quartus13/nios2eds/bin/gnu/h-i686-mingw32/bin/../lib/gcc/nios2-elf/4.7.3/../../../../../H-i686-mingw32/nios2-elf/lib\libc.a(lib_a-iswspace.o)
 .debug_abbrev  0x000073d9      0x29f d:/eda/quartus13/nios2eds/bin/gnu/h-i686-mingw32/bin/../lib/gcc/nios2-elf/4.7.3/../../../../../H-i686-mingw32/nios2-elf/lib\libc.a(lib_a-locale.o)
 .debug_abbrev  0x00007678      0x1ca d:/eda/quartus13/nios2eds/bin/gnu/h-i686-mingw32/bin/../lib/gcc/nios2-elf/4.7.3/../../../../../H-i686-mingw32/nios2-elf/lib\libc.a(lib_a-lseekr.o)
 .debug_abbrev  0x00007842      0x1ca d:/eda/quartus13/nios2eds/bin/gnu/h-i686-mingw32/bin/../lib/gcc/nios2-elf/4.7.3/../../../../../H-i686-mingw32/nios2-elf/lib\libc.a(lib_a-mbrtowc.o)
 .debug_abbrev  0x00007a0c      0x1ad d:/eda/quartus13/nios2eds/bin/gnu/h-i686-mingw32/bin/../lib/gcc/nios2-elf/4.7.3/../../../../../H-i686-mingw32/nios2-elf/lib\libc.a(lib_a-mbtowc_r.o)
 .debug_abbrev  0x00007bb9       0xab d:/eda/quartus13/nios2eds/bin/gnu/h-i686-mingw32/bin/../lib/gcc/nios2-elf/4.7.3/../../../../../H-i686-mingw32/nios2-elf/lib\libc.a(lib_a-memchr.o)
 .debug_abbrev  0x00007c64       0x7f d:/eda/quartus13/nios2eds/bin/gnu/h-i686-mingw32/bin/../lib/gcc/nios2-elf/4.7.3/../../../../../H-i686-mingw32/nios2-elf/lib\libc.a(lib_a-memcmp.o)
 .debug_abbrev  0x00007ce3      0x394 d:/eda/quartus13/nios2eds/bin/gnu/h-i686-mingw32/bin/../lib/gcc/nios2-elf/4.7.3/../../../../../H-i686-mingw32/nios2-elf/lib\libc.a(lib_a-mprec.o)
 .debug_abbrev  0x00008077      0x1bb d:/eda/quartus13/nios2eds/bin/gnu/h-i686-mingw32/bin/../lib/gcc/nios2-elf/4.7.3/../../../../../H-i686-mingw32/nios2-elf/lib\libc.a(lib_a-readr.o)
 .debug_abbrev  0x00008232      0x242 d:/eda/quartus13/nios2eds/bin/gnu/h-i686-mingw32/bin/../lib/gcc/nios2-elf/4.7.3/../../../../../H-i686-mingw32/nios2-elf/lib\libc.a(lib_a-reallocr.o)
 .debug_abbrev  0x00008474       0x6f d:/eda/quartus13/nios2eds/bin/gnu/h-i686-mingw32/bin/../lib/gcc/nios2-elf/4.7.3/../../../../../H-i686-mingw32/nios2-elf/lib\libc.a(lib_a-s_isinfd.o)
 .debug_abbrev  0x000084e3       0x6f d:/eda/quartus13/nios2eds/bin/gnu/h-i686-mingw32/bin/../lib/gcc/nios2-elf/4.7.3/../../../../../H-i686-mingw32/nios2-elf/lib\libc.a(lib_a-s_isnand.o)
 .debug_abbrev  0x00008552       0x96 d:/eda/quartus13/nios2eds/bin/gnu/h-i686-mingw32/bin/../lib/gcc/nios2-elf/4.7.3/../../../../../H-i686-mingw32/nios2-elf/lib\libc.a(lib_a-sccl.o)
 .debug_abbrev  0x000085e8       0x72 d:/eda/quartus13/nios2eds/bin/gnu/h-i686-mingw32/bin/../lib/gcc/nios2-elf/4.7.3/../../../../../H-i686-mingw32/nios2-elf/lib\libc.a(lib_a-sf_nan.o)
 .debug_abbrev  0x0000865a      0x3b8 d:/eda/quartus13/nios2eds/bin/gnu/h-i686-mingw32/bin/../lib/gcc/nios2-elf/4.7.3/../../../../../H-i686-mingw32/nios2-elf/lib\libc.a(lib_a-strtod.o)
 .debug_abbrev  0x00008a12      0x1a0 d:/eda/quartus13/nios2eds/bin/gnu/h-i686-mingw32/bin/../lib/gcc/nios2-elf/4.7.3/../../../../../H-i686-mingw32/nios2-elf/lib\libc.a(lib_a-strtoll_r.o)
 .debug_abbrev  0x00008bb2      0x1f6 d:/eda/quartus13/nios2eds/bin/gnu/h-i686-mingw32/bin/../lib/gcc/nios2-elf/4.7.3/../../../../../H-i686-mingw32/nios2-elf/lib\libc.a(lib_a-strtoul.o)
 .debug_abbrev  0x00008da8      0x1a0 d:/eda/quartus13/nios2eds/bin/gnu/h-i686-mingw32/bin/../lib/gcc/nios2-elf/4.7.3/../../../../../H-i686-mingw32/nios2-elf/lib\libc.a(lib_a-strtoull_r.o)
 .debug_abbrev  0x00008f48      0x255 d:/eda/quartus13/nios2eds/bin/gnu/h-i686-mingw32/bin/../lib/gcc/nios2-elf/4.7.3/../../../../../H-i686-mingw32/nios2-elf/lib\libc.a(lib_a-ungetc.o)
 .debug_abbrev  0x0000919d      0x1f5 d:/eda/quartus13/nios2eds/bin/gnu/h-i686-mingw32/bin/../lib/gcc/nios2-elf/4.7.3/../../../../../H-i686-mingw32/nios2-elf/lib\libc.a(lib_a-callocr.o)
 .debug_abbrev  0x00009392      0x37a d:/eda/quartus13/nios2eds/bin/gnu/h-i686-mingw32/bin/../lib/gcc/nios2-elf/4.7.3/../../../../../H-i686-mingw32/nios2-elf/lib\libc.a(lib_a-gdtoa-gethex.o)
 .debug_abbrev  0x0000970c      0x175 d:/eda/quartus13/nios2eds/bin/gnu/h-i686-mingw32/bin/../lib/gcc/nios2-elf/4.7.3/../../../../../H-i686-mingw32/nios2-elf/lib\libc.a(lib_a-gdtoa-hexnan.o)
 .debug_abbrev  0x00009881       0xe0 d:/eda/quartus13/nios2eds/bin/gnu/h-i686-mingw32/bin/../lib/gcc/nios2-elf/4.7.3\libgcc.a(_muldi3.o)
 .debug_abbrev  0x00009961       0x60 d:/eda/quartus13/nios2eds/bin/gnu/h-i686-mingw32/bin/../lib/gcc/nios2-elf/4.7.3\libgcc.a(_fixunsdfsi.o)
 .debug_abbrev  0x000099c1      0x170 d:/eda/quartus13/nios2eds/bin/gnu/h-i686-mingw32/bin/../lib/gcc/nios2-elf/4.7.3\libgcc.a(_udivdi3.o)
 .debug_abbrev  0x00009b31      0x193 d:/eda/quartus13/nios2eds/bin/gnu/h-i686-mingw32/bin/../lib/gcc/nios2-elf/4.7.3\libgcc.a(_umoddi3.o)
 .debug_abbrev  0x00009cc4      0x1a5 d:/eda/quartus13/nios2eds/bin/gnu/h-i686-mingw32/bin/../lib/gcc/nios2-elf/4.7.3\libgcc.a(_eq_sf.o)
 .debug_abbrev  0x00009e69      0x1a5 d:/eda/quartus13/nios2eds/bin/gnu/h-i686-mingw32/bin/../lib/gcc/nios2-elf/4.7.3\libgcc.a(_gt_sf.o)
 .debug_abbrev  0x0000a00e      0x1a5 d:/eda/quartus13/nios2eds/bin/gnu/h-i686-mingw32/bin/../lib/gcc/nios2-elf/4.7.3\libgcc.a(_lt_sf.o)
 .debug_abbrev  0x0000a1b3      0x22d d:/eda/quartus13/nios2eds/bin/gnu/h-i686-mingw32/bin/../lib/gcc/nios2-elf/4.7.3\libgcc.a(_addsub_df.o)
 .debug_abbrev  0x0000a3e0      0x240 d:/eda/quartus13/nios2eds/bin/gnu/h-i686-mingw32/bin/../lib/gcc/nios2-elf/4.7.3\libgcc.a(_mul_df.o)
 .debug_abbrev  0x0000a620      0x245 d:/eda/quartus13/nios2eds/bin/gnu/h-i686-mingw32/bin/../lib/gcc/nios2-elf/4.7.3\libgcc.a(_div_df.o)
 .debug_abbrev  0x0000a865      0x1a5 d:/eda/quartus13/nios2eds/bin/gnu/h-i686-mingw32/bin/../lib/gcc/nios2-elf/4.7.3\libgcc.a(_eq_df.o)
 .debug_abbrev  0x0000aa0a      0x1a5 d:/eda/quartus13/nios2eds/bin/gnu/h-i686-mingw32/bin/../lib/gcc/nios2-elf/4.7.3\libgcc.a(_ne_df.o)
 .debug_abbrev  0x0000abaf      0x1a5 d:/eda/quartus13/nios2eds/bin/gnu/h-i686-mingw32/bin/../lib/gcc/nios2-elf/4.7.3\libgcc.a(_gt_df.o)
 .debug_abbrev  0x0000ad54      0x1a5 d:/eda/quartus13/nios2eds/bin/gnu/h-i686-mingw32/bin/../lib/gcc/nios2-elf/4.7.3\libgcc.a(_ge_df.o)
 .debug_abbrev  0x0000aef9      0x1a5 d:/eda/quartus13/nios2eds/bin/gnu/h-i686-mingw32/bin/../lib/gcc/nios2-elf/4.7.3\libgcc.a(_lt_df.o)
 .debug_abbrev  0x0000b09e      0x1a5 d:/eda/quartus13/nios2eds/bin/gnu/h-i686-mingw32/bin/../lib/gcc/nios2-elf/4.7.3\libgcc.a(_le_df.o)
 .debug_abbrev  0x0000b243      0x19c d:/eda/quartus13/nios2eds/bin/gnu/h-i686-mingw32/bin/../lib/gcc/nios2-elf/4.7.3\libgcc.a(_si_to_df.o)
 .debug_abbrev  0x0000b3df      0x1ae d:/eda/quartus13/nios2eds/bin/gnu/h-i686-mingw32/bin/../lib/gcc/nios2-elf/4.7.3\libgcc.a(_df_to_si.o)
 .debug_abbrev  0x0000b58d      0x194 d:/eda/quartus13/nios2eds/bin/gnu/h-i686-mingw32/bin/../lib/gcc/nios2-elf/4.7.3\libgcc.a(_df_to_sf.o)
 .debug_abbrev  0x0000b721       0xb6 d:/eda/quartus13/nios2eds/bin/gnu/h-i686-mingw32/bin/../lib/gcc/nios2-elf/4.7.3\libgcc.a(_thenan_df.o)
 .debug_abbrev  0x0000b7d7      0x1bf d:/eda/quartus13/nios2eds/bin/gnu/h-i686-mingw32/bin/../lib/gcc/nios2-elf/4.7.3\libgcc.a(_usi_to_df.o)
 .debug_abbrev  0x0000b996      0x112 d:/eda/quartus13/nios2eds/bin/gnu/h-i686-mingw32/bin/../lib/gcc/nios2-elf/4.7.3\libgcc.a(lib2-divmod.o)
 .debug_abbrev  0x0000baa8       0x5d d:/eda/quartus13/nios2eds/bin/gnu/h-i686-mingw32/bin/../lib/gcc/nios2-elf/4.7.3\libgcc.a(_clz.o)
 .debug_abbrev  0x0000bb05       0xbe d:/eda/quartus13/nios2eds/bin/gnu/h-i686-mingw32/bin/../lib/gcc/nios2-elf/4.7.3\libgcc.a(_clzsi2.o)
 .debug_abbrev  0x0000bbc3      0x15f d:/eda/quartus13/nios2eds/bin/gnu/h-i686-mingw32/bin/../lib/gcc/nios2-elf/4.7.3\libgcc.a(_unpack_sf.o)
 .debug_abbrev  0x0000bd22      0x146 d:/eda/quartus13/nios2eds/bin/gnu/h-i686-mingw32/bin/../lib/gcc/nios2-elf/4.7.3\libgcc.a(_fpcmp_parts_sf.o)
 .debug_abbrev  0x0000be68      0x13f d:/eda/quartus13/nios2eds/bin/gnu/h-i686-mingw32/bin/../lib/gcc/nios2-elf/4.7.3\libgcc.a(_make_sf.o)
 .debug_abbrev  0x0000bfa7      0x1b6 d:/eda/quartus13/nios2eds/bin/gnu/h-i686-mingw32/bin/../lib/gcc/nios2-elf/4.7.3\libgcc.a(_pack_df.o)
 .debug_abbrev  0x0000c15d      0x15d d:/eda/quartus13/nios2eds/bin/gnu/h-i686-mingw32/bin/../lib/gcc/nios2-elf/4.7.3\libgcc.a(_unpack_df.o)
 .debug_abbrev  0x0000c2ba      0x146 d:/eda/quartus13/nios2eds/bin/gnu/h-i686-mingw32/bin/../lib/gcc/nios2-elf/4.7.3\libgcc.a(_fpcmp_parts_df.o)
 .debug_abbrev  0x0000c400       0xf1 d:/eda/quartus13/nios2eds/bin/gnu/h-i686-mingw32/bin/../lib/gcc/nios2-elf/4.7.3\libgcc.a(_lshrdi3.o)
 .debug_abbrev  0x0000c4f1       0xf1 d:/eda/quartus13/nios2eds/bin/gnu/h-i686-mingw32/bin/../lib/gcc/nios2-elf/4.7.3\libgcc.a(_ashldi3.o)
 .debug_abbrev  0x0000c5e2      0x1b1 d:/eda/quartus13/nios2eds/bin/gnu/h-i686-mingw32/bin/../lib/gcc/nios2-elf/4.7.3\libgcc.a(_pack_sf.o)
 .debug_abbrev  0x0000c793       0x8c F:/Qsys/qsys_webserver/qsys/software/qsys_webserver_bsp/\libucosii_bsp.a(alt_dcache_flush.o)
 .debug_abbrev  0x0000c81f      0x121 F:/Qsys/qsys_webserver/qsys/software/qsys_webserver_bsp/\libucosii_bsp.a(alt_flash_dev.o)
 .debug_abbrev  0x0000c940      0x126 F:/Qsys/qsys_webserver/qsys/software/qsys_webserver_bsp/\libucosii_bsp.a(alt_fstat.o)
 .debug_abbrev  0x0000ca66      0x126 F:/Qsys/qsys_webserver/qsys/software/qsys_webserver_bsp/\libucosii_bsp.a(alt_isatty.o)
 .debug_abbrev  0x0000cb8c      0x126 F:/Qsys/qsys_webserver/qsys/software/qsys_webserver_bsp/\libucosii_bsp.a(alt_lseek.o)
 .debug_abbrev  0x0000ccb2      0x139 F:/Qsys/qsys_webserver/qsys/software/qsys_webserver_bsp/\libucosii_bsp.a(alt_main.o)
 .debug_abbrev  0x0000cdeb      0x14f F:/Qsys/qsys_webserver/qsys/software/qsys_webserver_bsp/\libucosii_bsp.a(alt_open.o)
 .debug_abbrev  0x0000cf3a       0xe5 F:/Qsys/qsys_webserver/qsys/software/qsys_webserver_bsp/\libucosii_bsp.a(alt_release_fd.o)
 .debug_abbrev  0x0000d01f      0x112 F:/Qsys/qsys_webserver/qsys/software/qsys_webserver_bsp/\libucosii_bsp.a(alt_sbrk.o)
 .debug_abbrev  0x0000d131      0x15a F:/Qsys/qsys_webserver/qsys/software/qsys_webserver_bsp/\libucosii_bsp.a(alt_tick.o)
 .debug_abbrev  0x0000d28b      0x1b6 F:/Qsys/qsys_webserver/qsys/software/qsys_webserver_bsp/\libucosii_bsp.a(alt_env_lock.o)
 .debug_abbrev  0x0000d441      0x240 F:/Qsys/qsys_webserver/qsys/software/qsys_webserver_bsp/\libucosii_bsp.a(alt_malloc_lock.o)
 .debug_abbrev  0x0000d681      0x302 F:/Qsys/qsys_webserver/qsys/software/qsys_webserver_bsp/\libucosii_bsp.a(os_core.o)
 .debug_abbrev  0x0000d983       0xf7 F:/Qsys/qsys_webserver/qsys/software/qsys_webserver_bsp/\libucosii_bsp.a(os_dbg.o)
 .debug_abbrev  0x0000da7a      0x25a F:/Qsys/qsys_webserver/qsys/software/qsys_webserver_bsp/\libucosii_bsp.a(os_flag.o)
 .debug_abbrev  0x0000dcd4      0x21f F:/Qsys/qsys_webserver/qsys/software/qsys_webserver_bsp/\libucosii_bsp.a(os_mbox.o)
 .debug_abbrev  0x0000def3      0x228 F:/Qsys/qsys_webserver/qsys/software/qsys_webserver_bsp/\libucosii_bsp.a(os_mem.o)
 .debug_abbrev  0x0000e11b      0x248 F:/Qsys/qsys_webserver/qsys/software/qsys_webserver_bsp/\libucosii_bsp.a(os_q.o)
 .debug_abbrev  0x0000e363      0x262 F:/Qsys/qsys_webserver/qsys/software/qsys_webserver_bsp/\libucosii_bsp.a(os_sem.o)
 .debug_abbrev  0x0000e5c5      0x247 F:/Qsys/qsys_webserver/qsys/software/qsys_webserver_bsp/\libucosii_bsp.a(os_task.o)
 .debug_abbrev  0x0000e80c      0x20c F:/Qsys/qsys_webserver/qsys/software/qsys_webserver_bsp/\libucosii_bsp.a(os_time.o)
 .debug_abbrev  0x0000ea18      0x218 F:/Qsys/qsys_webserver/qsys/software/qsys_webserver_bsp/\libucosii_bsp.a(alt_sys_init.o)
 .debug_abbrev  0x0000ec30      0x1c9 F:/Qsys/qsys_webserver/qsys/software/qsys_webserver_bsp/\libucosii_bsp.a(altera_avalon_epcs_flash_controller.o)
 .debug_abbrev  0x0000edf9      0x15d F:/Qsys/qsys_webserver/qsys/software/qsys_webserver_bsp/\libucosii_bsp.a(altera_avalon_jtag_uart_fd.o)
 .debug_abbrev  0x0000ef56      0x240 F:/Qsys/qsys_webserver/qsys/software/qsys_webserver_bsp/\libucosii_bsp.a(altera_avalon_jtag_uart_init.o)
 .debug_abbrev  0x0000f196      0x147 F:/Qsys/qsys_webserver/qsys/software/qsys_webserver_bsp/\libucosii_bsp.a(altera_avalon_jtag_uart_ioctl.o)
 .debug_abbrev  0x0000f2dd      0x1e9 F:/Qsys/qsys_webserver/qsys/software/qsys_webserver_bsp/\libucosii_bsp.a(altera_avalon_jtag_uart_read.o)
 .debug_abbrev  0x0000f4c6      0x1e7 F:/Qsys/qsys_webserver/qsys/software/qsys_webserver_bsp/\libucosii_bsp.a(altera_avalon_jtag_uart_write.o)
 .debug_abbrev  0x0000f6ad      0x279 F:/Qsys/qsys_webserver/qsys/software/qsys_webserver_bsp/\libucosii_bsp.a(altera_avalon_sgdma.o)
 .debug_abbrev  0x0000f926      0x155 F:/Qsys/qsys_webserver/qsys/software/qsys_webserver_bsp/\libucosii_bsp.a(altera_avalon_timer_sc.o)
 .debug_abbrev  0x0000fa7b      0x23e F:/Qsys/qsys_webserver/qsys/software/qsys_webserver_bsp/\libucosii_bsp.a(altera_ro_zipfs.o)
 .debug_abbrev  0x0000fcb9      0x169 F:/Qsys/qsys_webserver/qsys/software/qsys_webserver_bsp/\libucosii_bsp.a(epcs_commands.o)
 .debug_abbrev  0x0000fe22      0x2d0 F:/Qsys/qsys_webserver/qsys/software/qsys_webserver_bsp/\libucosii_bsp.a(ins_tse_mac.o)
 .debug_abbrev  0x000100f2       0x7a F:/Qsys/qsys_webserver/qsys/software/qsys_webserver_bsp/\libucosii_bsp.a(alt_iniche_close.o)
 .debug_abbrev  0x0001016c      0x15e F:/Qsys/qsys_webserver/qsys/software/qsys_webserver_bsp/\libucosii_bsp.a(alt_iniche_dev.o)
 .debug_abbrev  0x000102ca       0x81 F:/Qsys/qsys_webserver/qsys/software/qsys_webserver_bsp/\libucosii_bsp.a(alt_iniche_read.o)
 .debug_abbrev  0x0001034b       0x88 F:/Qsys/qsys_webserver/qsys/software/qsys_webserver_bsp/\libucosii_bsp.a(alt_iniche_write.o)
 .debug_abbrev  0x000103d3      0x213 F:/Qsys/qsys_webserver/qsys/software/qsys_webserver_bsp/\libucosii_bsp.a(ipnet.o)
 .debug_abbrev  0x000105e6      0x1e0 F:/Qsys/qsys_webserver/qsys/software/qsys_webserver_bsp/\libucosii_bsp.a(ipstart.o)
 .debug_abbrev  0x000107c6      0x204 F:/Qsys/qsys_webserver/qsys/software/qsys_webserver_bsp/\libucosii_bsp.a(igmp_cmn.o)
 .debug_abbrev  0x000109ca      0x20a F:/Qsys/qsys_webserver/qsys/software/qsys_webserver_bsp/\libucosii_bsp.a(bsdsock.o)
 .debug_abbrev  0x00010bd4       0xd3 F:/Qsys/qsys_webserver/qsys/software/qsys_webserver_bsp/\libucosii_bsp.a(cksum.o)
 .debug_abbrev  0x00010ca7      0x223 F:/Qsys/qsys_webserver/qsys/software/qsys_webserver_bsp/\libucosii_bsp.a(in_utils.o)
 .debug_abbrev  0x00010eca      0x165 F:/Qsys/qsys_webserver/qsys/software/qsys_webserver_bsp/\libucosii_bsp.a(netmain.o)
 .debug_abbrev  0x0001102f      0x16b F:/Qsys/qsys_webserver/qsys/software/qsys_webserver_bsp/\libucosii_bsp.a(tk_crnos.o)
 .debug_abbrev  0x0001119a      0x1f6 F:/Qsys/qsys_webserver/qsys/software/qsys_webserver_bsp/\libucosii_bsp.a(pktalloc.o)
 .debug_abbrev  0x00011390       0xde F:/Qsys/qsys_webserver/qsys/software/qsys_webserver_bsp/\libucosii_bsp.a(q.o)
 .debug_abbrev  0x0001146e       0x14 F:/Qsys/qsys_webserver/qsys/software/qsys_webserver_bsp/\libucosii_bsp.a(asm_cksum.o)
 .debug_abbrev  0x00011482      0x26c F:/Qsys/qsys_webserver/qsys/software/qsys_webserver_bsp/\libucosii_bsp.a(brdutils.o)
 .debug_abbrev  0x000116ee      0x17f F:/Qsys/qsys_webserver/qsys/software/qsys_webserver_bsp/\libucosii_bsp.a(osportco.o)
 .debug_abbrev  0x0001186d      0x1c6 F:/Qsys/qsys_webserver/qsys/software/qsys_webserver_bsp/\libucosii_bsp.a(targnios.o)
 .debug_abbrev  0x00011a33      0x269 F:/Qsys/qsys_webserver/qsys/software/qsys_webserver_bsp/\libucosii_bsp.a(nptcp.o)
 .debug_abbrev  0x00011c9c      0x19e F:/Qsys/qsys_webserver/qsys/software/qsys_webserver_bsp/\libucosii_bsp.a(rawsock.o)
 .debug_abbrev  0x00011e3a      0x217 F:/Qsys/qsys_webserver/qsys/software/qsys_webserver_bsp/\libucosii_bsp.a(sockcall.o)
 .debug_abbrev  0x00012051      0x262 F:/Qsys/qsys_webserver/qsys/software/qsys_webserver_bsp/\libucosii_bsp.a(socket.o)
 .debug_abbrev  0x000122b3      0x280 F:/Qsys/qsys_webserver/qsys/software/qsys_webserver_bsp/\libucosii_bsp.a(socket2.o)
 .debug_abbrev  0x00012533      0x1fe F:/Qsys/qsys_webserver/qsys/software/qsys_webserver_bsp/\libucosii_bsp.a(soselect.o)
 .debug_abbrev  0x00012731      0x25e F:/Qsys/qsys_webserver/qsys/software/qsys_webserver_bsp/\libucosii_bsp.a(tcp_in.o)
 .debug_abbrev  0x0001298f      0x21b F:/Qsys/qsys_webserver/qsys/software/qsys_webserver_bsp/\libucosii_bsp.a(tcp_out.o)
 .debug_abbrev  0x00012baa      0x24a F:/Qsys/qsys_webserver/qsys/software/qsys_webserver_bsp/\libucosii_bsp.a(tcp_subr.o)
 .debug_abbrev  0x00012df4      0x227 F:/Qsys/qsys_webserver/qsys/software/qsys_webserver_bsp/\libucosii_bsp.a(tcp_timr.o)
 .debug_abbrev  0x0001301b      0x1c8 F:/Qsys/qsys_webserver/qsys/software/qsys_webserver_bsp/\libucosii_bsp.a(tcp_usr.o)
 .debug_abbrev  0x000131e3       0x7a F:/Qsys/qsys_webserver/qsys/software/qsys_webserver_bsp/\libucosii_bsp.a(tcpport.o)
 .debug_abbrev  0x0001325d      0x1ec F:/Qsys/qsys_webserver/qsys/software/qsys_webserver_bsp/\libucosii_bsp.a(udpsock.o)
 .debug_abbrev  0x00013449      0x162 F:/Qsys/qsys_webserver/qsys/software/qsys_webserver_bsp/\libucosii_bsp.a(alt_alarm_start.o)
 .debug_abbrev  0x000135ab      0x126 F:/Qsys/qsys_webserver/qsys/software/qsys_webserver_bsp/\libucosii_bsp.a(alt_close.o)
 .debug_abbrev  0x000136d1      0x11c F:/Qsys/qsys_webserver/qsys/software/qsys_webserver_bsp/\libucosii_bsp.a(alt_dev.o)
 .debug_abbrev  0x000137ed      0x114 F:/Qsys/qsys_webserver/qsys/software/qsys_webserver_bsp/\libucosii_bsp.a(alt_dev_llist_insert.o)
 .debug_abbrev  0x00013901       0x79 F:/Qsys/qsys_webserver/qsys/software/qsys_webserver_bsp/\libucosii_bsp.a(alt_do_ctors.o)
 .debug_abbrev  0x0001397a       0x79 F:/Qsys/qsys_webserver/qsys/software/qsys_webserver_bsp/\libucosii_bsp.a(alt_do_dtors.o)
 .debug_abbrev  0x000139f3       0x5a F:/Qsys/qsys_webserver/qsys/software/qsys_webserver_bsp/\libucosii_bsp.a(alt_errno.o)
 .debug_abbrev  0x00013a4d       0xf7 F:/Qsys/qsys_webserver/qsys/software/qsys_webserver_bsp/\libucosii_bsp.a(alt_find_dev.o)
 .debug_abbrev  0x00013b44       0xf7 F:/Qsys/qsys_webserver/qsys/software/qsys_webserver_bsp/\libucosii_bsp.a(alt_find_file.o)
 .debug_abbrev  0x00013c3b      0x10f F:/Qsys/qsys_webserver/qsys/software/qsys_webserver_bsp/\libucosii_bsp.a(alt_fs_reg.o)
 .debug_abbrev  0x00013d4a      0x19b F:/Qsys/qsys_webserver/qsys/software/qsys_webserver_bsp/\libucosii_bsp.a(alt_get_fd.o)
 .debug_abbrev  0x00013ee5      0x16a F:/Qsys/qsys_webserver/qsys/software/qsys_webserver_bsp/\libucosii_bsp.a(alt_iic.o)
 .debug_abbrev  0x0001404f      0x169 F:/Qsys/qsys_webserver/qsys/software/qsys_webserver_bsp/\libucosii_bsp.a(alt_iic_isr_register.o)
 .debug_abbrev  0x000141b8      0x11b F:/Qsys/qsys_webserver/qsys/software/qsys_webserver_bsp/\libucosii_bsp.a(alt_io_redirect.o)
 .debug_abbrev  0x000142d3       0x12 F:/Qsys/qsys_webserver/qsys/software/qsys_webserver_bsp/\libucosii_bsp.a(alt_irq_entry.o)
 .debug_abbrev  0x000142e5      0x13c F:/Qsys/qsys_webserver/qsys/software/qsys_webserver_bsp/\libucosii_bsp.a(alt_irq_handler.o)
 .debug_abbrev  0x00014421       0x40 F:/Qsys/qsys_webserver/qsys/software/qsys_webserver_bsp/\libucosii_bsp.a(alt_irq_vars.o)
 .debug_abbrev  0x00014461      0x135 F:/Qsys/qsys_webserver/qsys/software/qsys_webserver_bsp/\libucosii_bsp.a(alt_read.o)
 .debug_abbrev  0x00014596       0x77 F:/Qsys/qsys_webserver/qsys/software/qsys_webserver_bsp/\libucosii_bsp.a(alt_remap_cached.o)
 .debug_abbrev  0x0001460d       0x77 F:/Qsys/qsys_webserver/qsys/software/qsys_webserver_bsp/\libucosii_bsp.a(alt_remap_uncached.o)
 .debug_abbrev  0x00014684       0x86 F:/Qsys/qsys_webserver/qsys/software/qsys_webserver_bsp/\libucosii_bsp.a(alt_uncached_malloc.o)
 .debug_abbrev  0x0001470a      0x13a F:/Qsys/qsys_webserver/qsys/software/qsys_webserver_bsp/\libucosii_bsp.a(alt_write.o)
 .debug_abbrev  0x00014844       0x42 F:/Qsys/qsys_webserver/qsys/software/qsys_webserver_bsp/\libucosii_bsp.a(altera_nios2_qsys_irq.o)
 .debug_abbrev  0x00014886       0x14 F:/Qsys/qsys_webserver/qsys/software/qsys_webserver_bsp/\libucosii_bsp.a(os_cpu_a.o)
 .debug_abbrev  0x0001489a      0x20f F:/Qsys/qsys_webserver/qsys/software/qsys_webserver_bsp/\libucosii_bsp.a(os_cpu_c.o)
 .debug_abbrev  0x00014aa9       0x8a F:/Qsys/qsys_webserver/qsys/software/qsys_webserver_bsp/\libucosii_bsp.a(altera_avalon_spi.o)
 .debug_abbrev  0x00014b33      0x256 F:/Qsys/qsys_webserver/qsys/software/qsys_webserver_bsp/\libucosii_bsp.a(altera_avalon_tse.o)
 .debug_abbrev  0x00014d89       0xf0 F:/Qsys/qsys_webserver/qsys/software/qsys_webserver_bsp/\libucosii_bsp.a(altera_avalon_tse_system_info.o)
 .debug_abbrev  0x00014e79      0x1f3 F:/Qsys/qsys_webserver/qsys/software/qsys_webserver_bsp/\libucosii_bsp.a(allports.o)
 .debug_abbrev  0x0001506c      0x15a F:/Qsys/qsys_webserver/qsys/software/qsys_webserver_bsp/\libucosii_bsp.a(timeouts.o)
 .debug_abbrev  0x000151c6       0xaa F:/Qsys/qsys_webserver/qsys/software/qsys_webserver_bsp/\libucosii_bsp.a(tk_misc.o)
 .debug_abbrev  0x00015270       0xa6 F:/Qsys/qsys_webserver/qsys/software/qsys_webserver_bsp/\libucosii_bsp.a(alt_iniche_fcntl.o)
 .debug_abbrev  0x00015316      0x243 F:/Qsys/qsys_webserver/qsys/software/qsys_webserver_bsp/\libucosii_bsp.a(et_arp.o)
 .debug_abbrev  0x00015559      0x1b9 F:/Qsys/qsys_webserver/qsys/software/qsys_webserver_bsp/\libucosii_bsp.a(iface.o)
 .debug_abbrev  0x00015712      0x243 F:/Qsys/qsys_webserver/qsys/software/qsys_webserver_bsp/\libucosii_bsp.a(ip.o)
 .debug_abbrev  0x00015955      0x206 F:/Qsys/qsys_webserver/qsys/software/qsys_webserver_bsp/\libucosii_bsp.a(ip_reasm.o)
 .debug_abbrev  0x00015b5b      0x1b5 F:/Qsys/qsys_webserver/qsys/software/qsys_webserver_bsp/\libucosii_bsp.a(ipdemux.o)
 .debug_abbrev  0x00015d10      0x181 F:/Qsys/qsys_webserver/qsys/software/qsys_webserver_bsp/\libucosii_bsp.a(ipmc.o)
 .debug_abbrev  0x00015e91      0x101 F:/Qsys/qsys_webserver/qsys/software/qsys_webserver_bsp/\libucosii_bsp.a(ipport.o)
 .debug_abbrev  0x00015f92      0x20f F:/Qsys/qsys_webserver/qsys/software/qsys_webserver_bsp/\libucosii_bsp.a(ipraw.o)
 .debug_abbrev  0x000161a1      0x1c3 F:/Qsys/qsys_webserver/qsys/software/qsys_webserver_bsp/\libucosii_bsp.a(iproute.o)
 .debug_abbrev  0x00016364      0x24d F:/Qsys/qsys_webserver/qsys/software/qsys_webserver_bsp/\libucosii_bsp.a(udp.o)
 .debug_abbrev  0x000165b1      0x14d F:/Qsys/qsys_webserver/qsys/software/qsys_webserver_bsp/\libucosii_bsp.a(igmp.o)
 .debug_abbrev  0x000166fe      0x1b0 F:/Qsys/qsys_webserver/qsys/software/qsys_webserver_bsp/\libucosii_bsp.a(igmp2.o)
 .debug_abbrev  0x000168ae      0x1ef F:/Qsys/qsys_webserver/qsys/software/qsys_webserver_bsp/\libucosii_bsp.a(ipopt.o)
 .debug_abbrev  0x00016a9d      0x182 F:/Qsys/qsys_webserver/qsys/software/qsys_webserver_bsp/\libucosii_bsp.a(u_mctest.o)
 .debug_abbrev  0x00016c1f      0x1ac F:/Qsys/qsys_webserver/qsys/software/qsys_webserver_bsp/\libucosii_bsp.a(memdev.o)
 .debug_abbrev  0x00016dcb      0x1d1 F:/Qsys/qsys_webserver/qsys/software/qsys_webserver_bsp/\libucosii_bsp.a(parseip.o)
 .debug_abbrev  0x00016f9c       0xce F:/Qsys/qsys_webserver/qsys/software/qsys_webserver_bsp/\libucosii_bsp.a(tcpcksum.o)
 .debug_abbrev  0x0001706a      0x195 F:/Qsys/qsys_webserver/qsys/software/qsys_webserver_bsp/\libucosii_bsp.a(udp_open.o)
 .debug_abbrev  0x000171ff      0x205 F:/Qsys/qsys_webserver/qsys/software/qsys_webserver_bsp/\libucosii_bsp.a(in_pcb.o)
 .debug_abbrev  0x00017404      0x20a F:/Qsys/qsys_webserver/qsys/software/qsys_webserver_bsp/\libucosii_bsp.a(vfsfiles.o)
 .debug_abbrev  0x0001760e       0x7a F:/Qsys/qsys_webserver/qsys/software/qsys_webserver_bsp/\libucosii_bsp.a(vfsport.o)
 .debug_abbrev  0x00017688       0x12 F:/Qsys/qsys_webserver/qsys/software/qsys_webserver_bsp/\libucosii_bsp.a(alt_exception_entry.o)
 .debug_abbrev  0x0001769a      0x143 F:/Qsys/qsys_webserver/qsys/software/qsys_webserver_bsp/\libucosii_bsp.a(alt_fcntl.o)
 .debug_abbrev  0x000177dd       0xba F:/Qsys/qsys_webserver/qsys/software/qsys_webserver_bsp/\libucosii_bsp.a(alt_usleep.o)
 .debug_abbrev  0x00017897      0x1bd F:/Qsys/qsys_webserver/qsys/software/qsys_webserver_bsp/\libucosii_bsp.a(icmp.o)
 .debug_abbrev  0x00017a54       0x7e F:/Qsys/qsys_webserver/qsys/software/qsys_webserver_bsp/\libucosii_bsp.a(alt_busy_sleep.o)
 .debug_abbrev  0x00017ad2      0x106 d:/eda/quartus13/nios2eds/bin/gnu/h-i686-mingw32/bin/../lib/gcc/nios2-elf/4.7.3/../../../../../H-i686-mingw32/nios2-elf/lib\libc.a(lib_a-atexit.o)
 .debug_abbrev  0x00017bd8      0x1be d:/eda/quartus13/nios2eds/bin/gnu/h-i686-mingw32/bin/../lib/gcc/nios2-elf/4.7.3/../../../../../H-i686-mingw32/nios2-elf/lib\libc.a(lib_a-calloc.o)
 .debug_abbrev  0x00017d96      0x1c8 d:/eda/quartus13/nios2eds/bin/gnu/h-i686-mingw32/bin/../lib/gcc/nios2-elf/4.7.3/../../../../../H-i686-mingw32/nios2-elf/lib\libc.a(lib_a-exit.o)
 .debug_abbrev  0x00017f5e      0x1dc d:/eda/quartus13/nios2eds/bin/gnu/h-i686-mingw32/bin/../lib/gcc/nios2-elf/4.7.3/../../../../../H-i686-mingw32/nios2-elf/lib\libc.a(lib_a-malloc.o)
 .debug_abbrev  0x0001813a      0x1d6 d:/eda/quartus13/nios2eds/bin/gnu/h-i686-mingw32/bin/../lib/gcc/nios2-elf/4.7.3/../../../../../H-i686-mingw32/nios2-elf/lib\libc.a(lib_a-vprintf.o)
 .debug_abbrev  0x00018310      0x1f0 d:/eda/quartus13/nios2eds/bin/gnu/h-i686-mingw32/bin/../lib/gcc/nios2-elf/4.7.3/../../../../../H-i686-mingw32/nios2-elf/lib\libc.a(lib_a-vsprintf.o)
 .debug_abbrev  0x00018500      0x211 d:/eda/quartus13/nios2eds/bin/gnu/h-i686-mingw32/bin/../lib/gcc/nios2-elf/4.7.3/../../../../../H-i686-mingw32/nios2-elf/lib\libc.a(lib_a-__atexit.o)
 .debug_abbrev  0x00018711      0x203 d:/eda/quartus13/nios2eds/bin/gnu/h-i686-mingw32/bin/../lib/gcc/nios2-elf/4.7.3/../../../../../H-i686-mingw32/nios2-elf/lib\libc.a(lib_a-__call_atexit.o)
 .debug_abbrev  0x00018914       0xde F:/Qsys/qsys_webserver/qsys/software/qsys_webserver_bsp/\libucosii_bsp.a(alt_exit.o)

.debug_line     0x00000000    0x201ca
 *(.debug_line)
 .debug_line    0x00000000       0x57 F:/Qsys/qsys_webserver/qsys/software/qsys_webserver_bsp//obj/HAL/src/crt0.o
 .debug_line    0x00000057      0x297 obj/default/alt_error_handler.o
 .debug_line    0x000002ee      0x7ed obj/default/http.o
 .debug_line    0x00000adb      0x4de obj/default/network_utilities.o
 .debug_line    0x00000fb9      0x268 obj/default/srec_flash.o
 .debug_line    0x00001221      0x208 obj/default/web_server.o
 .debug_line    0x00001429      0x201 d:/eda/quartus13/nios2eds/bin/gnu/h-i686-mingw32/bin/../lib/gcc/nios2-elf/4.7.3/../../../../../H-i686-mingw32/nios2-elf/lib\libc.a(lib_a-atoi.o)
 .debug_line    0x0000162a       0xd1 d:/eda/quartus13/nios2eds/bin/gnu/h-i686-mingw32/bin/../lib/gcc/nios2-elf/4.7.3/../../../../../H-i686-mingw32/nios2-elf/lib\libc.a(lib_a-ctype_.o)
 .debug_line    0x000016fb      0x266 d:/eda/quartus13/nios2eds/bin/gnu/h-i686-mingw32/bin/../lib/gcc/nios2-elf/4.7.3/../../../../../H-i686-mingw32/nios2-elf/lib\libc.a(lib_a-fclose.o)
 .debug_line    0x00001961      0x29c d:/eda/quartus13/nios2eds/bin/gnu/h-i686-mingw32/bin/../lib/gcc/nios2-elf/4.7.3/../../../../../H-i686-mingw32/nios2-elf/lib\libc.a(lib_a-fflush.o)
 .debug_line    0x00001bfd      0x205 d:/eda/quartus13/nios2eds/bin/gnu/h-i686-mingw32/bin/../lib/gcc/nios2-elf/4.7.3/../../../../../H-i686-mingw32/nios2-elf/lib\libc.a(lib_a-fgetpos.o)
 .debug_line    0x00001e02      0x2e6 d:/eda/quartus13/nios2eds/bin/gnu/h-i686-mingw32/bin/../lib/gcc/nios2-elf/4.7.3/../../../../../H-i686-mingw32/nios2-elf/lib\libc.a(lib_a-findfp.o)
 .debug_line    0x000020e8      0x241 d:/eda/quartus13/nios2eds/bin/gnu/h-i686-mingw32/bin/../lib/gcc/nios2-elf/4.7.3/../../../../../H-i686-mingw32/nios2-elf/lib\libc.a(lib_a-fopen.o)
 .debug_line    0x00002329      0x218 d:/eda/quartus13/nios2eds/bin/gnu/h-i686-mingw32/bin/../lib/gcc/nios2-elf/4.7.3/../../../../../H-i686-mingw32/nios2-elf/lib\libc.a(lib_a-fprintf.o)
 .debug_line    0x00002541      0x2c1 d:/eda/quartus13/nios2eds/bin/gnu/h-i686-mingw32/bin/../lib/gcc/nios2-elf/4.7.3/../../../../../H-i686-mingw32/nios2-elf/lib\libc.a(lib_a-fread.o)
 .debug_line    0x00002802      0x311 d:/eda/quartus13/nios2eds/bin/gnu/h-i686-mingw32/bin/../lib/gcc/nios2-elf/4.7.3/../../../../../H-i686-mingw32/nios2-elf/lib\libc.a(lib_a-freer.o)
 .debug_line    0x00002b13      0x35c d:/eda/quartus13/nios2eds/bin/gnu/h-i686-mingw32/bin/../lib/gcc/nios2-elf/4.7.3/../../../../../H-i686-mingw32/nios2-elf/lib\libc.a(lib_a-fseek.o)
 .debug_line    0x00002e6f      0x21c d:/eda/quartus13/nios2eds/bin/gnu/h-i686-mingw32/bin/../lib/gcc/nios2-elf/4.7.3/../../../../../H-i686-mingw32/nios2-elf/lib\libc.a(lib_a-fstatr.o)
 .debug_line    0x0000308b      0x247 d:/eda/quartus13/nios2eds/bin/gnu/h-i686-mingw32/bin/../lib/gcc/nios2-elf/4.7.3/../../../../../H-i686-mingw32/nios2-elf/lib\libc.a(lib_a-ftell.o)
 .debug_line    0x000032d2      0x259 d:/eda/quartus13/nios2eds/bin/gnu/h-i686-mingw32/bin/../lib/gcc/nios2-elf/4.7.3/../../../../../H-i686-mingw32/nios2-elf/lib\libc.a(lib_a-fwalk.o)
 .debug_line    0x0000352b      0x240 d:/eda/quartus13/nios2eds/bin/gnu/h-i686-mingw32/bin/../lib/gcc/nios2-elf/4.7.3/../../../../../H-i686-mingw32/nios2-elf/lib\libc.a(lib_a-fwrite.o)
 .debug_line    0x0000376b      0x25d d:/eda/quartus13/nios2eds/bin/gnu/h-i686-mingw32/bin/../lib/gcc/nios2-elf/4.7.3/../../../../../H-i686-mingw32/nios2-elf/lib\libc.a(lib_a-getc.o)
 .debug_line    0x000039c8      0x173 d:/eda/quartus13/nios2eds/bin/gnu/h-i686-mingw32/bin/../lib/gcc/nios2-elf/4.7.3/../../../../../H-i686-mingw32/nios2-elf/lib\libc.a(lib_a-impure.o)
 .debug_line    0x00003b3b       0x5d d:/eda/quartus13/nios2eds/bin/gnu/h-i686-mingw32/bin/../lib/gcc/nios2-elf/4.7.3/../../../../../H-i686-mingw32/nios2-elf/lib\libc.a(lib_a-int_errno.o)
 .debug_line    0x00003b98      0x293 d:/eda/quartus13/nios2eds/bin/gnu/h-i686-mingw32/bin/../lib/gcc/nios2-elf/4.7.3/../../../../../H-i686-mingw32/nios2-elf/lib\libc.a(lib_a-makebuf.o)
 .debug_line    0x00003e2b      0x421 d:/eda/quartus13/nios2eds/bin/gnu/h-i686-mingw32/bin/../lib/gcc/nios2-elf/4.7.3/../../../../../H-i686-mingw32/nios2-elf/lib\libc.a(lib_a-mallocr.o)
 .debug_line    0x0000424c      0x13d d:/eda/quartus13/nios2eds/bin/gnu/h-i686-mingw32/bin/../lib/gcc/nios2-elf/4.7.3/../../../../../H-i686-mingw32/nios2-elf/lib\libc.a(lib_a-memcpy.o)
 .debug_line    0x00004389      0x1ed d:/eda/quartus13/nios2eds/bin/gnu/h-i686-mingw32/bin/../lib/gcc/nios2-elf/4.7.3/../../../../../H-i686-mingw32/nios2-elf/lib\libc.a(lib_a-memmove.o)
 .debug_line    0x00004576      0x1f1 d:/eda/quartus13/nios2eds/bin/gnu/h-i686-mingw32/bin/../lib/gcc/nios2-elf/4.7.3/../../../../../H-i686-mingw32/nios2-elf/lib\libc.a(lib_a-memset.o)
 .debug_line    0x00004767      0x21a d:/eda/quartus13/nios2eds/bin/gnu/h-i686-mingw32/bin/../lib/gcc/nios2-elf/4.7.3/../../../../../H-i686-mingw32/nios2-elf/lib\libc.a(lib_a-openr.o)
 .debug_line    0x00004981      0x221 d:/eda/quartus13/nios2eds/bin/gnu/h-i686-mingw32/bin/../lib/gcc/nios2-elf/4.7.3/../../../../../H-i686-mingw32/nios2-elf/lib\libc.a(lib_a-perror.o)
 .debug_line    0x00004ba2      0x218 d:/eda/quartus13/nios2eds/bin/gnu/h-i686-mingw32/bin/../lib/gcc/nios2-elf/4.7.3/../../../../../H-i686-mingw32/nios2-elf/lib\libc.a(lib_a-printf.o)
 .debug_line    0x00004dba      0x29c d:/eda/quartus13/nios2eds/bin/gnu/h-i686-mingw32/bin/../lib/gcc/nios2-elf/4.7.3/../../../../../H-i686-mingw32/nios2-elf/lib\libc.a(lib_a-putc.o)
 .debug_line    0x00005056      0x203 d:/eda/quartus13/nios2eds/bin/gnu/h-i686-mingw32/bin/../lib/gcc/nios2-elf/4.7.3/../../../../../H-i686-mingw32/nios2-elf/lib\libc.a(lib_a-putchar.o)
 .debug_line    0x00005259      0x235 d:/eda/quartus13/nios2eds/bin/gnu/h-i686-mingw32/bin/../lib/gcc/nios2-elf/4.7.3/../../../../../H-i686-mingw32/nios2-elf/lib\libc.a(lib_a-puts.o)
 .debug_line    0x0000548e      0x28d d:/eda/quartus13/nios2eds/bin/gnu/h-i686-mingw32/bin/../lib/gcc/nios2-elf/4.7.3/../../../../../H-i686-mingw32/nios2-elf/lib\libc.a(lib_a-refill.o)
 .debug_line    0x0000571b      0x212 d:/eda/quartus13/nios2eds/bin/gnu/h-i686-mingw32/bin/../lib/gcc/nios2-elf/4.7.3/../../../../../H-i686-mingw32/nios2-elf/lib\libc.a(lib_a-rget.o)
 .debug_line    0x0000592d      0x212 d:/eda/quartus13/nios2eds/bin/gnu/h-i686-mingw32/bin/../lib/gcc/nios2-elf/4.7.3/../../../../../H-i686-mingw32/nios2-elf/lib\libc.a(lib_a-sbrkr.o)
 .debug_line    0x00005b3f      0x23d d:/eda/quartus13/nios2eds/bin/gnu/h-i686-mingw32/bin/../lib/gcc/nios2-elf/4.7.3/../../../../../H-i686-mingw32/nios2-elf/lib\libc.a(lib_a-sprintf.o)
 .debug_line    0x00005d7c      0x255 d:/eda/quartus13/nios2eds/bin/gnu/h-i686-mingw32/bin/../lib/gcc/nios2-elf/4.7.3/../../../../../H-i686-mingw32/nios2-elf/lib\libc.a(lib_a-sscanf.o)
 .debug_line    0x00005fd1      0x245 d:/eda/quartus13/nios2eds/bin/gnu/h-i686-mingw32/bin/../lib/gcc/nios2-elf/4.7.3/../../../../../H-i686-mingw32/nios2-elf/lib\libc.a(lib_a-stdio.o)
 .debug_line    0x00006216      0x137 d:/eda/quartus13/nios2eds/bin/gnu/h-i686-mingw32/bin/../lib/gcc/nios2-elf/4.7.3/../../../../../H-i686-mingw32/nios2-elf/lib\libc.a(lib_a-strcasecmp.o)
 .debug_line    0x0000634d      0x105 d:/eda/quartus13/nios2eds/bin/gnu/h-i686-mingw32/bin/../lib/gcc/nios2-elf/4.7.3/../../../../../H-i686-mingw32/nios2-elf/lib\libc.a(lib_a-strcat.o)
 .debug_line    0x00006452      0x116 d:/eda/quartus13/nios2eds/bin/gnu/h-i686-mingw32/bin/../lib/gcc/nios2-elf/4.7.3/../../../../../H-i686-mingw32/nios2-elf/lib\libc.a(lib_a-strchr.o)
 .debug_line    0x00006568      0x110 d:/eda/quartus13/nios2eds/bin/gnu/h-i686-mingw32/bin/../lib/gcc/nios2-elf/4.7.3/../../../../../H-i686-mingw32/nios2-elf/lib\libc.a(lib_a-strcmp.o)
 .debug_line    0x00006678      0x10b d:/eda/quartus13/nios2eds/bin/gnu/h-i686-mingw32/bin/../lib/gcc/nios2-elf/4.7.3/../../../../../H-i686-mingw32/nios2-elf/lib\libc.a(lib_a-strcpy.o)
 .debug_line    0x00006783      0x252 d:/eda/quartus13/nios2eds/bin/gnu/h-i686-mingw32/bin/../lib/gcc/nios2-elf/4.7.3/../../../../../H-i686-mingw32/nios2-elf/lib\libc.a(lib_a-strerror.o)
 .debug_line    0x000069d5      0x182 d:/eda/quartus13/nios2eds/bin/gnu/h-i686-mingw32/bin/../lib/gcc/nios2-elf/4.7.3/../../../../../H-i686-mingw32/nios2-elf/lib\libc.a(lib_a-strlen.o)
 .debug_line    0x00006b57      0x1c8 d:/eda/quartus13/nios2eds/bin/gnu/h-i686-mingw32/bin/../lib/gcc/nios2-elf/4.7.3/../../../../../H-i686-mingw32/nios2-elf/lib\libc.a(lib_a-strncmp.o)
 .debug_line    0x00006d1f      0x1af d:/eda/quartus13/nios2eds/bin/gnu/h-i686-mingw32/bin/../lib/gcc/nios2-elf/4.7.3/../../../../../H-i686-mingw32/nios2-elf/lib\libc.a(lib_a-strncpy.o)
 .debug_line    0x00006ece      0x42a d:/eda/quartus13/nios2eds/bin/gnu/h-i686-mingw32/bin/../lib/gcc/nios2-elf/4.7.3/../../../../../H-i686-mingw32/nios2-elf/lib\libc.a(lib_a-strstr.o)
 .debug_line    0x000072f8      0x200 d:/eda/quartus13/nios2eds/bin/gnu/h-i686-mingw32/bin/../lib/gcc/nios2-elf/4.7.3/../../../../../H-i686-mingw32/nios2-elf/lib\libc.a(lib_a-strtok.o)
 .debug_line    0x000074f8      0x11e d:/eda/quartus13/nios2eds/bin/gnu/h-i686-mingw32/bin/../lib/gcc/nios2-elf/4.7.3/../../../../../H-i686-mingw32/nios2-elf/lib\libc.a(lib_a-strtok_r.o)
 .debug_line    0x00007616      0x2ce d:/eda/quartus13/nios2eds/bin/gnu/h-i686-mingw32/bin/../lib/gcc/nios2-elf/4.7.3/../../../../../H-i686-mingw32/nios2-elf/lib\libc.a(lib_a-strtol.o)
 .debug_line    0x000078e4       0x6b d:/eda/quartus13/nios2eds/bin/gnu/h-i686-mingw32/bin/../lib/gcc/nios2-elf/4.7.3/../../../../../H-i686-mingw32/nios2-elf/lib\libc.a(lib_a-u_strerr.o)
 .debug_line    0x0000794f      0xaf9 d:/eda/quartus13/nios2eds/bin/gnu/h-i686-mingw32/bin/../lib/gcc/nios2-elf/4.7.3/../../../../../H-i686-mingw32/nios2-elf/lib\libc.a(lib_a-vfprintf.o)
 .debug_line    0x00008448      0x750 d:/eda/quartus13/nios2eds/bin/gnu/h-i686-mingw32/bin/../lib/gcc/nios2-elf/4.7.3/../../../../../H-i686-mingw32/nios2-elf/lib\libc.a(lib_a-vfscanf.o)
 .debug_line    0x00008b98      0x272 d:/eda/quartus13/nios2eds/bin/gnu/h-i686-mingw32/bin/../lib/gcc/nios2-elf/4.7.3/../../../../../H-i686-mingw32/nios2-elf/lib\libc.a(lib_a-wbuf.o)
 .debug_line    0x00008e0a      0x213 d:/eda/quartus13/nios2eds/bin/gnu/h-i686-mingw32/bin/../lib/gcc/nios2-elf/4.7.3/../../../../../H-i686-mingw32/nios2-elf/lib\libc.a(lib_a-writer.o)
 .debug_line    0x0000901d      0x26b d:/eda/quartus13/nios2eds/bin/gnu/h-i686-mingw32/bin/../lib/gcc/nios2-elf/4.7.3/../../../../../H-i686-mingw32/nios2-elf/lib\libc.a(lib_a-wsetup.o)
 .debug_line    0x00009288      0x213 d:/eda/quartus13/nios2eds/bin/gnu/h-i686-mingw32/bin/../lib/gcc/nios2-elf/4.7.3/../../../../../H-i686-mingw32/nios2-elf/lib\libc.a(lib_a-closer.o)
 .debug_line    0x0000949b      0x876 d:/eda/quartus13/nios2eds/bin/gnu/h-i686-mingw32/bin/../lib/gcc/nios2-elf/4.7.3/../../../../../H-i686-mingw32/nios2-elf/lib\libc.a(lib_a-dtoa.o)
 .debug_line    0x00009d11      0x1ad d:/eda/quartus13/nios2eds/bin/gnu/h-i686-mingw32/bin/../lib/gcc/nios2-elf/4.7.3/../../../../../H-i686-mingw32/nios2-elf/lib\libc.a(lib_a-flags.o)
 .debug_line    0x00009ebe      0x22f d:/eda/quartus13/nios2eds/bin/gnu/h-i686-mingw32/bin/../lib/gcc/nios2-elf/4.7.3/../../../../../H-i686-mingw32/nios2-elf/lib\libc.a(lib_a-fputc.o)
 .debug_line    0x0000a0ed      0x23c d:/eda/quartus13/nios2eds/bin/gnu/h-i686-mingw32/bin/../lib/gcc/nios2-elf/4.7.3/../../../../../H-i686-mingw32/nios2-elf/lib\libc.a(lib_a-fputs.o)
 .debug_line    0x0000a329      0x360 d:/eda/quartus13/nios2eds/bin/gnu/h-i686-mingw32/bin/../lib/gcc/nios2-elf/4.7.3/../../../../../H-i686-mingw32/nios2-elf/lib\libc.a(lib_a-fvwrite.o)
 .debug_line    0x0000a689      0x214 d:/eda/quartus13/nios2eds/bin/gnu/h-i686-mingw32/bin/../lib/gcc/nios2-elf/4.7.3/../../../../../H-i686-mingw32/nios2-elf/lib\libc.a(lib_a-isattyr.o)
 .debug_line    0x0000a89d      0x190 d:/eda/quartus13/nios2eds/bin/gnu/h-i686-mingw32/bin/../lib/gcc/nios2-elf/4.7.3/../../../../../H-i686-mingw32/nios2-elf/lib\libc.a(lib_a-iswspace.o)
 .debug_line    0x0000aa2d      0x231 d:/eda/quartus13/nios2eds/bin/gnu/h-i686-mingw32/bin/../lib/gcc/nios2-elf/4.7.3/../../../../../H-i686-mingw32/nios2-elf/lib\libc.a(lib_a-locale.o)
 .debug_line    0x0000ac5e      0x21e d:/eda/quartus13/nios2eds/bin/gnu/h-i686-mingw32/bin/../lib/gcc/nios2-elf/4.7.3/../../../../../H-i686-mingw32/nios2-elf/lib\libc.a(lib_a-lseekr.o)
 .debug_line    0x0000ae7c      0x226 d:/eda/quartus13/nios2eds/bin/gnu/h-i686-mingw32/bin/../lib/gcc/nios2-elf/4.7.3/../../../../../H-i686-mingw32/nios2-elf/lib\libc.a(lib_a-mbrtowc.o)
 .debug_line    0x0000b0a2      0x225 d:/eda/quartus13/nios2eds/bin/gnu/h-i686-mingw32/bin/../lib/gcc/nios2-elf/4.7.3/../../../../../H-i686-mingw32/nios2-elf/lib\libc.a(lib_a-mbtowc_r.o)
 .debug_line    0x0000b2c7      0x1f1 d:/eda/quartus13/nios2eds/bin/gnu/h-i686-mingw32/bin/../lib/gcc/nios2-elf/4.7.3/../../../../../H-i686-mingw32/nios2-elf/lib\libc.a(lib_a-memchr.o)
 .debug_line    0x0000b4b8      0x18d d:/eda/quartus13/nios2eds/bin/gnu/h-i686-mingw32/bin/../lib/gcc/nios2-elf/4.7.3/../../../../../H-i686-mingw32/nios2-elf/lib\libc.a(lib_a-memcmp.o)
 .debug_line    0x0000b645      0x725 d:/eda/quartus13/nios2eds/bin/gnu/h-i686-mingw32/bin/../lib/gcc/nios2-elf/4.7.3/../../../../../H-i686-mingw32/nios2-elf/lib\libc.a(lib_a-mprec.o)
 .debug_line    0x0000bd6a      0x212 d:/eda/quartus13/nios2eds/bin/gnu/h-i686-mingw32/bin/../lib/gcc/nios2-elf/4.7.3/../../../../../H-i686-mingw32/nios2-elf/lib\libc.a(lib_a-readr.o)
 .debug_line    0x0000bf7c      0x330 d:/eda/quartus13/nios2eds/bin/gnu/h-i686-mingw32/bin/../lib/gcc/nios2-elf/4.7.3/../../../../../H-i686-mingw32/nios2-elf/lib\libc.a(lib_a-reallocr.o)
 .debug_line    0x0000c2ac      0x170 d:/eda/quartus13/nios2eds/bin/gnu/h-i686-mingw32/bin/../lib/gcc/nios2-elf/4.7.3/../../../../../H-i686-mingw32/nios2-elf/lib\libc.a(lib_a-s_isinfd.o)
 .debug_line    0x0000c41c      0x170 d:/eda/quartus13/nios2eds/bin/gnu/h-i686-mingw32/bin/../lib/gcc/nios2-elf/4.7.3/../../../../../H-i686-mingw32/nios2-elf/lib\libc.a(lib_a-s_isnand.o)
 .debug_line    0x0000c58c      0x14b d:/eda/quartus13/nios2eds/bin/gnu/h-i686-mingw32/bin/../lib/gcc/nios2-elf/4.7.3/../../../../../H-i686-mingw32/nios2-elf/lib\libc.a(lib_a-sccl.o)
 .debug_line    0x0000c6d7       0xdf d:/eda/quartus13/nios2eds/bin/gnu/h-i686-mingw32/bin/../lib/gcc/nios2-elf/4.7.3/../../../../../H-i686-mingw32/nios2-elf/lib\libc.a(lib_a-sf_nan.o)
 .debug_line    0x0000c7b6      0x75f d:/eda/quartus13/nios2eds/bin/gnu/h-i686-mingw32/bin/../lib/gcc/nios2-elf/4.7.3/../../../../../H-i686-mingw32/nios2-elf/lib\libc.a(lib_a-strtod.o)
 .debug_line    0x0000cf15      0x2e9 d:/eda/quartus13/nios2eds/bin/gnu/h-i686-mingw32/bin/../lib/gcc/nios2-elf/4.7.3/../../../../../H-i686-mingw32/nios2-elf/lib\libc.a(lib_a-strtoll_r.o)
 .debug_line    0x0000d1fe      0x298 d:/eda/quartus13/nios2eds/bin/gnu/h-i686-mingw32/bin/../lib/gcc/nios2-elf/4.7.3/../../../../../H-i686-mingw32/nios2-elf/lib\libc.a(lib_a-strtoul.o)
 .debug_line    0x0000d496      0x2a3 d:/eda/quartus13/nios2eds/bin/gnu/h-i686-mingw32/bin/../lib/gcc/nios2-elf/4.7.3/../../../../../H-i686-mingw32/nios2-elf/lib\libc.a(lib_a-strtoull_r.o)
 .debug_line    0x0000d739      0x2ab d:/eda/quartus13/nios2eds/bin/gnu/h-i686-mingw32/bin/../lib/gcc/nios2-elf/4.7.3/../../../../../H-i686-mingw32/nios2-elf/lib\libc.a(lib_a-ungetc.o)
 .debug_line    0x0000d9e4      0x1c9 d:/eda/quartus13/nios2eds/bin/gnu/h-i686-mingw32/bin/../lib/gcc/nios2-elf/4.7.3/../../../../../H-i686-mingw32/nios2-elf/lib\libc.a(lib_a-callocr.o)
 .debug_line    0x0000dbad      0x4a1 d:/eda/quartus13/nios2eds/bin/gnu/h-i686-mingw32/bin/../lib/gcc/nios2-elf/4.7.3/../../../../../H-i686-mingw32/nios2-elf/lib\libc.a(lib_a-gdtoa-gethex.o)
 .debug_line    0x0000e04e      0x19b d:/eda/quartus13/nios2eds/bin/gnu/h-i686-mingw32/bin/../lib/gcc/nios2-elf/4.7.3/../../../../../H-i686-mingw32/nios2-elf/lib\libc.a(lib_a-gdtoa-hexnan.o)
 .debug_line    0x0000e1e9       0x8b d:/eda/quartus13/nios2eds/bin/gnu/h-i686-mingw32/bin/../lib/gcc/nios2-elf/4.7.3\libgcc.a(_muldi3.o)
 .debug_line    0x0000e274       0x6e d:/eda/quartus13/nios2eds/bin/gnu/h-i686-mingw32/bin/../lib/gcc/nios2-elf/4.7.3\libgcc.a(_fixunsdfsi.o)
 .debug_line    0x0000e2e2      0x119 d:/eda/quartus13/nios2eds/bin/gnu/h-i686-mingw32/bin/../lib/gcc/nios2-elf/4.7.3\libgcc.a(_udivdi3.o)
 .debug_line    0x0000e3fb      0x121 d:/eda/quartus13/nios2eds/bin/gnu/h-i686-mingw32/bin/../lib/gcc/nios2-elf/4.7.3\libgcc.a(_umoddi3.o)
 .debug_line    0x0000e51c       0x6d d:/eda/quartus13/nios2eds/bin/gnu/h-i686-mingw32/bin/../lib/gcc/nios2-elf/4.7.3\libgcc.a(_eq_sf.o)
 .debug_line    0x0000e589       0x6e d:/eda/quartus13/nios2eds/bin/gnu/h-i686-mingw32/bin/../lib/gcc/nios2-elf/4.7.3\libgcc.a(_gt_sf.o)
 .debug_line    0x0000e5f7       0x6d d:/eda/quartus13/nios2eds/bin/gnu/h-i686-mingw32/bin/../lib/gcc/nios2-elf/4.7.3\libgcc.a(_lt_sf.o)
 .debug_line    0x0000e664      0x131 d:/eda/quartus13/nios2eds/bin/gnu/h-i686-mingw32/bin/../lib/gcc/nios2-elf/4.7.3\libgcc.a(_addsub_df.o)
 .debug_line    0x0000e795      0x114 d:/eda/quartus13/nios2eds/bin/gnu/h-i686-mingw32/bin/../lib/gcc/nios2-elf/4.7.3\libgcc.a(_mul_df.o)
 .debug_line    0x0000e8a9       0xce d:/eda/quartus13/nios2eds/bin/gnu/h-i686-mingw32/bin/../lib/gcc/nios2-elf/4.7.3\libgcc.a(_div_df.o)
 .debug_line    0x0000e977       0x6d d:/eda/quartus13/nios2eds/bin/gnu/h-i686-mingw32/bin/../lib/gcc/nios2-elf/4.7.3\libgcc.a(_eq_df.o)
 .debug_line    0x0000e9e4       0x6d d:/eda/quartus13/nios2eds/bin/gnu/h-i686-mingw32/bin/../lib/gcc/nios2-elf/4.7.3\libgcc.a(_ne_df.o)
 .debug_line    0x0000ea51       0x6e d:/eda/quartus13/nios2eds/bin/gnu/h-i686-mingw32/bin/../lib/gcc/nios2-elf/4.7.3\libgcc.a(_gt_df.o)
 .debug_line    0x0000eabf       0x6e d:/eda/quartus13/nios2eds/bin/gnu/h-i686-mingw32/bin/../lib/gcc/nios2-elf/4.7.3\libgcc.a(_ge_df.o)
 .debug_line    0x0000eb2d       0x6d d:/eda/quartus13/nios2eds/bin/gnu/h-i686-mingw32/bin/../lib/gcc/nios2-elf/4.7.3\libgcc.a(_lt_df.o)
 .debug_line    0x0000eb9a       0x6d d:/eda/quartus13/nios2eds/bin/gnu/h-i686-mingw32/bin/../lib/gcc/nios2-elf/4.7.3\libgcc.a(_le_df.o)
 .debug_line    0x0000ec07       0x94 d:/eda/quartus13/nios2eds/bin/gnu/h-i686-mingw32/bin/../lib/gcc/nios2-elf/4.7.3\libgcc.a(_si_to_df.o)
 .debug_line    0x0000ec9b       0x8d d:/eda/quartus13/nios2eds/bin/gnu/h-i686-mingw32/bin/../lib/gcc/nios2-elf/4.7.3\libgcc.a(_df_to_si.o)
 .debug_line    0x0000ed28       0x70 d:/eda/quartus13/nios2eds/bin/gnu/h-i686-mingw32/bin/../lib/gcc/nios2-elf/4.7.3\libgcc.a(_df_to_sf.o)
 .debug_line    0x0000ed98       0x51 d:/eda/quartus13/nios2eds/bin/gnu/h-i686-mingw32/bin/../lib/gcc/nios2-elf/4.7.3\libgcc.a(_thenan_df.o)
 .debug_line    0x0000ede9       0x9e d:/eda/quartus13/nios2eds/bin/gnu/h-i686-mingw32/bin/../lib/gcc/nios2-elf/4.7.3\libgcc.a(_usi_to_df.o)
 .debug_line    0x0000ee87       0xd3 d:/eda/quartus13/nios2eds/bin/gnu/h-i686-mingw32/bin/../lib/gcc/nios2-elf/4.7.3\libgcc.a(lib2-divmod.o)
 .debug_line    0x0000ef5a       0x53 d:/eda/quartus13/nios2eds/bin/gnu/h-i686-mingw32/bin/../lib/gcc/nios2-elf/4.7.3\libgcc.a(_clz.o)
 .debug_line    0x0000efad       0x8c d:/eda/quartus13/nios2eds/bin/gnu/h-i686-mingw32/bin/../lib/gcc/nios2-elf/4.7.3\libgcc.a(_clzsi2.o)
 .debug_line    0x0000f039       0x9a d:/eda/quartus13/nios2eds/bin/gnu/h-i686-mingw32/bin/../lib/gcc/nios2-elf/4.7.3\libgcc.a(_unpack_sf.o)
 .debug_line    0x0000f0d3       0x9a d:/eda/quartus13/nios2eds/bin/gnu/h-i686-mingw32/bin/../lib/gcc/nios2-elf/4.7.3\libgcc.a(_fpcmp_parts_sf.o)
 .debug_line    0x0000f16d       0x6b d:/eda/quartus13/nios2eds/bin/gnu/h-i686-mingw32/bin/../lib/gcc/nios2-elf/4.7.3\libgcc.a(_make_sf.o)
 .debug_line    0x0000f1d8       0xc7 d:/eda/quartus13/nios2eds/bin/gnu/h-i686-mingw32/bin/../lib/gcc/nios2-elf/4.7.3\libgcc.a(_pack_df.o)
 .debug_line    0x0000f29f       0xa2 d:/eda/quartus13/nios2eds/bin/gnu/h-i686-mingw32/bin/../lib/gcc/nios2-elf/4.7.3\libgcc.a(_unpack_df.o)
 .debug_line    0x0000f341       0x96 d:/eda/quartus13/nios2eds/bin/gnu/h-i686-mingw32/bin/../lib/gcc/nios2-elf/4.7.3\libgcc.a(_fpcmp_parts_df.o)
 .debug_line    0x0000f3d7       0x77 d:/eda/quartus13/nios2eds/bin/gnu/h-i686-mingw32/bin/../lib/gcc/nios2-elf/4.7.3\libgcc.a(_lshrdi3.o)
 .debug_line    0x0000f44e       0x75 d:/eda/quartus13/nios2eds/bin/gnu/h-i686-mingw32/bin/../lib/gcc/nios2-elf/4.7.3\libgcc.a(_ashldi3.o)
 .debug_line    0x0000f4c3       0xb2 d:/eda/quartus13/nios2eds/bin/gnu/h-i686-mingw32/bin/../lib/gcc/nios2-elf/4.7.3\libgcc.a(_pack_sf.o)
 .debug_line    0x0000f575       0x7e F:/Qsys/qsys_webserver/qsys/software/qsys_webserver_bsp/\libucosii_bsp.a(alt_dcache_flush.o)
 .debug_line    0x0000f5f3       0xed F:/Qsys/qsys_webserver/qsys/software/qsys_webserver_bsp/\libucosii_bsp.a(alt_flash_dev.o)
 .debug_line    0x0000f6e0      0x191 F:/Qsys/qsys_webserver/qsys/software/qsys_webserver_bsp/\libucosii_bsp.a(alt_fstat.o)
 .debug_line    0x0000f871      0x191 F:/Qsys/qsys_webserver/qsys/software/qsys_webserver_bsp/\libucosii_bsp.a(alt_isatty.o)
 .debug_line    0x0000fa02      0x195 F:/Qsys/qsys_webserver/qsys/software/qsys_webserver_bsp/\libucosii_bsp.a(alt_lseek.o)
 .debug_line    0x0000fb97      0x130 F:/Qsys/qsys_webserver/qsys/software/qsys_webserver_bsp/\libucosii_bsp.a(alt_main.o)
 .debug_line    0x0000fcc7      0x134 F:/Qsys/qsys_webserver/qsys/software/qsys_webserver_bsp/\libucosii_bsp.a(alt_open.o)
 .debug_line    0x0000fdfb       0xbd F:/Qsys/qsys_webserver/qsys/software/qsys_webserver_bsp/\libucosii_bsp.a(alt_release_fd.o)
 .debug_line    0x0000feb8      0x116 F:/Qsys/qsys_webserver/qsys/software/qsys_webserver_bsp/\libucosii_bsp.a(alt_sbrk.o)
 .debug_line    0x0000ffce      0x102 F:/Qsys/qsys_webserver/qsys/software/qsys_webserver_bsp/\libucosii_bsp.a(alt_tick.o)
 .debug_line    0x000100d0      0x1c2 F:/Qsys/qsys_webserver/qsys/software/qsys_webserver_bsp/\libucosii_bsp.a(alt_env_lock.o)
 .debug_line    0x00010292      0x227 F:/Qsys/qsys_webserver/qsys/software/qsys_webserver_bsp/\libucosii_bsp.a(alt_malloc_lock.o)
 .debug_line    0x000104b9      0x6ab F:/Qsys/qsys_webserver/qsys/software/qsys_webserver_bsp/\libucosii_bsp.a(os_core.o)
 .debug_line    0x00010b64       0xd2 F:/Qsys/qsys_webserver/qsys/software/qsys_webserver_bsp/\libucosii_bsp.a(os_dbg.o)
 .debug_line    0x00010c36      0x519 F:/Qsys/qsys_webserver/qsys/software/qsys_webserver_bsp/\libucosii_bsp.a(os_flag.o)
 .debug_line    0x0001114f      0x322 F:/Qsys/qsys_webserver/qsys/software/qsys_webserver_bsp/\libucosii_bsp.a(os_mbox.o)
 .debug_line    0x00011471      0x242 F:/Qsys/qsys_webserver/qsys/software/qsys_webserver_bsp/\libucosii_bsp.a(os_mem.o)
 .debug_line    0x000116b3      0x424 F:/Qsys/qsys_webserver/qsys/software/qsys_webserver_bsp/\libucosii_bsp.a(os_q.o)
 .debug_line    0x00011ad7      0x2fc F:/Qsys/qsys_webserver/qsys/software/qsys_webserver_bsp/\libucosii_bsp.a(os_sem.o)
 .debug_line    0x00011dd3      0x558 F:/Qsys/qsys_webserver/qsys/software/qsys_webserver_bsp/\libucosii_bsp.a(os_task.o)
 .debug_line    0x0001232b      0x1b5 F:/Qsys/qsys_webserver/qsys/software/qsys_webserver_bsp/\libucosii_bsp.a(os_time.o)
 .debug_line    0x000124e0      0x36c F:/Qsys/qsys_webserver/qsys/software/qsys_webserver_bsp/\libucosii_bsp.a(alt_sys_init.o)
 .debug_line    0x0001284c      0x2b1 F:/Qsys/qsys_webserver/qsys/software/qsys_webserver_bsp/\libucosii_bsp.a(altera_avalon_epcs_flash_controller.o)
 .debug_line    0x00012afd      0x157 F:/Qsys/qsys_webserver/qsys/software/qsys_webserver_bsp/\libucosii_bsp.a(altera_avalon_jtag_uart_fd.o)
 .debug_line    0x00012c54      0x23c F:/Qsys/qsys_webserver/qsys/software/qsys_webserver_bsp/\libucosii_bsp.a(altera_avalon_jtag_uart_init.o)
 .debug_line    0x00012e90      0x14f F:/Qsys/qsys_webserver/qsys/software/qsys_webserver_bsp/\libucosii_bsp.a(altera_avalon_jtag_uart_ioctl.o)
 .debug_line    0x00012fdf      0x1e0 F:/Qsys/qsys_webserver/qsys/software/qsys_webserver_bsp/\libucosii_bsp.a(altera_avalon_jtag_uart_read.o)
 .debug_line    0x000131bf      0x1e1 F:/Qsys/qsys_webserver/qsys/software/qsys_webserver_bsp/\libucosii_bsp.a(altera_avalon_jtag_uart_write.o)
 .debug_line    0x000133a0      0x2b1 F:/Qsys/qsys_webserver/qsys/software/qsys_webserver_bsp/\libucosii_bsp.a(altera_avalon_sgdma.o)
 .debug_line    0x00013651       0xfd F:/Qsys/qsys_webserver/qsys/software/qsys_webserver_bsp/\libucosii_bsp.a(altera_avalon_timer_sc.o)
 .debug_line    0x0001374e      0x333 F:/Qsys/qsys_webserver/qsys/software/qsys_webserver_bsp/\libucosii_bsp.a(altera_ro_zipfs.o)
 .debug_line    0x00013a81      0x118 F:/Qsys/qsys_webserver/qsys/software/qsys_webserver_bsp/\libucosii_bsp.a(epcs_commands.o)
 .debug_line    0x00013b99      0x51a F:/Qsys/qsys_webserver/qsys/software/qsys_webserver_bsp/\libucosii_bsp.a(ins_tse_mac.o)
 .debug_line    0x000140b3      0x115 F:/Qsys/qsys_webserver/qsys/software/qsys_webserver_bsp/\libucosii_bsp.a(alt_iniche_close.o)
 .debug_line    0x000141c8      0x197 F:/Qsys/qsys_webserver/qsys/software/qsys_webserver_bsp/\libucosii_bsp.a(alt_iniche_dev.o)
 .debug_line    0x0001435f      0x176 F:/Qsys/qsys_webserver/qsys/software/qsys_webserver_bsp/\libucosii_bsp.a(alt_iniche_read.o)
 .debug_line    0x000144d5      0x16d F:/Qsys/qsys_webserver/qsys/software/qsys_webserver_bsp/\libucosii_bsp.a(alt_iniche_write.o)
 .debug_line    0x00014642      0x26e F:/Qsys/qsys_webserver/qsys/software/qsys_webserver_bsp/\libucosii_bsp.a(ipnet.o)
 .debug_line    0x000148b0      0x170 F:/Qsys/qsys_webserver/qsys/software/qsys_webserver_bsp/\libucosii_bsp.a(ipstart.o)
 .debug_line    0x00014a20      0x2d3 F:/Qsys/qsys_webserver/qsys/software/qsys_webserver_bsp/\libucosii_bsp.a(igmp_cmn.o)
 .debug_line    0x00014cf3      0x38c F:/Qsys/qsys_webserver/qsys/software/qsys_webserver_bsp/\libucosii_bsp.a(bsdsock.o)
 .debug_line    0x0001507f       0x9f F:/Qsys/qsys_webserver/qsys/software/qsys_webserver_bsp/\libucosii_bsp.a(cksum.o)
 .debug_line    0x0001511e      0x2aa F:/Qsys/qsys_webserver/qsys/software/qsys_webserver_bsp/\libucosii_bsp.a(in_utils.o)
 .debug_line    0x000153c8      0x162 F:/Qsys/qsys_webserver/qsys/software/qsys_webserver_bsp/\libucosii_bsp.a(netmain.o)
 .debug_line    0x0001552a      0x1bd F:/Qsys/qsys_webserver/qsys/software/qsys_webserver_bsp/\libucosii_bsp.a(tk_crnos.o)
 .debug_line    0x000156e7      0x1e9 F:/Qsys/qsys_webserver/qsys/software/qsys_webserver_bsp/\libucosii_bsp.a(pktalloc.o)
 .debug_line    0x000158d0       0xe9 F:/Qsys/qsys_webserver/qsys/software/qsys_webserver_bsp/\libucosii_bsp.a(q.o)
 .debug_line    0x000159b9       0xaf F:/Qsys/qsys_webserver/qsys/software/qsys_webserver_bsp/\libucosii_bsp.a(asm_cksum.o)
 .debug_line    0x00015a68      0x20c F:/Qsys/qsys_webserver/qsys/software/qsys_webserver_bsp/\libucosii_bsp.a(brdutils.o)
 .debug_line    0x00015c74      0x151 F:/Qsys/qsys_webserver/qsys/software/qsys_webserver_bsp/\libucosii_bsp.a(osportco.o)
 .debug_line    0x00015dc5      0x17c F:/Qsys/qsys_webserver/qsys/software/qsys_webserver_bsp/\libucosii_bsp.a(targnios.o)
 .debug_line    0x00015f41      0x4fa F:/Qsys/qsys_webserver/qsys/software/qsys_webserver_bsp/\libucosii_bsp.a(nptcp.o)
 .debug_line    0x0001643b      0x28e F:/Qsys/qsys_webserver/qsys/software/qsys_webserver_bsp/\libucosii_bsp.a(rawsock.o)
 .debug_line    0x000166c9      0x527 F:/Qsys/qsys_webserver/qsys/software/qsys_webserver_bsp/\libucosii_bsp.a(sockcall.o)
 .debug_line    0x00016bf0      0x655 F:/Qsys/qsys_webserver/qsys/software/qsys_webserver_bsp/\libucosii_bsp.a(socket.o)
 .debug_line    0x00017245      0x3fb F:/Qsys/qsys_webserver/qsys/software/qsys_webserver_bsp/\libucosii_bsp.a(socket2.o)
 .debug_line    0x00017640      0x2eb F:/Qsys/qsys_webserver/qsys/software/qsys_webserver_bsp/\libucosii_bsp.a(soselect.o)
 .debug_line    0x0001792b      0x7b5 F:/Qsys/qsys_webserver/qsys/software/qsys_webserver_bsp/\libucosii_bsp.a(tcp_in.o)
 .debug_line    0x000180e0      0x458 F:/Qsys/qsys_webserver/qsys/software/qsys_webserver_bsp/\libucosii_bsp.a(tcp_out.o)
 .debug_line    0x00018538      0x2e5 F:/Qsys/qsys_webserver/qsys/software/qsys_webserver_bsp/\libucosii_bsp.a(tcp_subr.o)
 .debug_line    0x0001881d      0x2a6 F:/Qsys/qsys_webserver/qsys/software/qsys_webserver_bsp/\libucosii_bsp.a(tcp_timr.o)
 .debug_line    0x00018ac3      0x2fe F:/Qsys/qsys_webserver/qsys/software/qsys_webserver_bsp/\libucosii_bsp.a(tcp_usr.o)
 .debug_line    0x00018dc1       0x86 F:/Qsys/qsys_webserver/qsys/software/qsys_webserver_bsp/\libucosii_bsp.a(tcpport.o)
 .debug_line    0x00018e47      0x2d5 F:/Qsys/qsys_webserver/qsys/software/qsys_webserver_bsp/\libucosii_bsp.a(udpsock.o)
 .debug_line    0x0001911c       0xfa F:/Qsys/qsys_webserver/qsys/software/qsys_webserver_bsp/\libucosii_bsp.a(alt_alarm_start.o)
 .debug_line    0x00019216      0x119 F:/Qsys/qsys_webserver/qsys/software/qsys_webserver_bsp/\libucosii_bsp.a(alt_close.o)
 .debug_line    0x0001932f      0x15f F:/Qsys/qsys_webserver/qsys/software/qsys_webserver_bsp/\libucosii_bsp.a(alt_dev.o)
 .debug_line    0x0001948e       0xd0 F:/Qsys/qsys_webserver/qsys/software/qsys_webserver_bsp/\libucosii_bsp.a(alt_dev_llist_insert.o)
 .debug_line    0x0001955e       0x59 F:/Qsys/qsys_webserver/qsys/software/qsys_webserver_bsp/\libucosii_bsp.a(alt_do_ctors.o)
 .debug_line    0x000195b7       0x59 F:/Qsys/qsys_webserver/qsys/software/qsys_webserver_bsp/\libucosii_bsp.a(alt_do_dtors.o)
 .debug_line    0x00019610       0x51 F:/Qsys/qsys_webserver/qsys/software/qsys_webserver_bsp/\libucosii_bsp.a(alt_errno.o)
 .debug_line    0x00019661       0xc8 F:/Qsys/qsys_webserver/qsys/software/qsys_webserver_bsp/\libucosii_bsp.a(alt_find_dev.o)
 .debug_line    0x00019729       0xe4 F:/Qsys/qsys_webserver/qsys/software/qsys_webserver_bsp/\libucosii_bsp.a(alt_find_file.o)
 .debug_line    0x0001980d       0xc5 F:/Qsys/qsys_webserver/qsys/software/qsys_webserver_bsp/\libucosii_bsp.a(alt_fs_reg.o)
 .debug_line    0x000198d2      0x125 F:/Qsys/qsys_webserver/qsys/software/qsys_webserver_bsp/\libucosii_bsp.a(alt_get_fd.o)
 .debug_line    0x000199f7       0xed F:/Qsys/qsys_webserver/qsys/software/qsys_webserver_bsp/\libucosii_bsp.a(alt_iic.o)
 .debug_line    0x00019ae4       0xdb F:/Qsys/qsys_webserver/qsys/software/qsys_webserver_bsp/\libucosii_bsp.a(alt_iic_isr_register.o)
 .debug_line    0x00019bbf      0x165 F:/Qsys/qsys_webserver/qsys/software/qsys_webserver_bsp/\libucosii_bsp.a(alt_io_redirect.o)
 .debug_line    0x00019d24       0x6b F:/Qsys/qsys_webserver/qsys/software/qsys_webserver_bsp/\libucosii_bsp.a(alt_irq_entry.o)
 .debug_line    0x00019d8f       0xcc F:/Qsys/qsys_webserver/qsys/software/qsys_webserver_bsp/\libucosii_bsp.a(alt_irq_handler.o)
 .debug_line    0x00019e5b       0x50 F:/Qsys/qsys_webserver/qsys/software/qsys_webserver_bsp/\libucosii_bsp.a(alt_irq_vars.o)
 .debug_line    0x00019eab      0x200 F:/Qsys/qsys_webserver/qsys/software/qsys_webserver_bsp/\libucosii_bsp.a(alt_read.o)
 .debug_line    0x0001a0ab       0x66 F:/Qsys/qsys_webserver/qsys/software/qsys_webserver_bsp/\libucosii_bsp.a(alt_remap_cached.o)
 .debug_line    0x0001a111       0x69 F:/Qsys/qsys_webserver/qsys/software/qsys_webserver_bsp/\libucosii_bsp.a(alt_remap_uncached.o)
 .debug_line    0x0001a17a       0xdf F:/Qsys/qsys_webserver/qsys/software/qsys_webserver_bsp/\libucosii_bsp.a(alt_uncached_malloc.o)
 .debug_line    0x0001a259      0x1ff F:/Qsys/qsys_webserver/qsys/software/qsys_webserver_bsp/\libucosii_bsp.a(alt_write.o)
 .debug_line    0x0001a458       0x51 F:/Qsys/qsys_webserver/qsys/software/qsys_webserver_bsp/\libucosii_bsp.a(altera_nios2_qsys_irq.o)
 .debug_line    0x0001a4a9       0x86 F:/Qsys/qsys_webserver/qsys/software/qsys_webserver_bsp/\libucosii_bsp.a(os_cpu_a.o)
 .debug_line    0x0001a52f      0x1cd F:/Qsys/qsys_webserver/qsys/software/qsys_webserver_bsp/\libucosii_bsp.a(os_cpu_c.o)
 .debug_line    0x0001a6fc       0xb6 F:/Qsys/qsys_webserver/qsys/software/qsys_webserver_bsp/\libucosii_bsp.a(altera_avalon_spi.o)
 .debug_line    0x0001a7b2      0xedc F:/Qsys/qsys_webserver/qsys/software/qsys_webserver_bsp/\libucosii_bsp.a(altera_avalon_tse.o)
 .debug_line    0x0001b68e       0xeb F:/Qsys/qsys_webserver/qsys/software/qsys_webserver_bsp/\libucosii_bsp.a(altera_avalon_tse_system_info.o)
 .debug_line    0x0001b779      0x180 F:/Qsys/qsys_webserver/qsys/software/qsys_webserver_bsp/\libucosii_bsp.a(allports.o)
 .debug_line    0x0001b8f9      0x155 F:/Qsys/qsys_webserver/qsys/software/qsys_webserver_bsp/\libucosii_bsp.a(timeouts.o)
 .debug_line    0x0001ba4e       0x98 F:/Qsys/qsys_webserver/qsys/software/qsys_webserver_bsp/\libucosii_bsp.a(tk_misc.o)
 .debug_line    0x0001bae6      0x17b F:/Qsys/qsys_webserver/qsys/software/qsys_webserver_bsp/\libucosii_bsp.a(alt_iniche_fcntl.o)
 .debug_line    0x0001bc61      0x360 F:/Qsys/qsys_webserver/qsys/software/qsys_webserver_bsp/\libucosii_bsp.a(et_arp.o)
 .debug_line    0x0001bfc1      0x1e4 F:/Qsys/qsys_webserver/qsys/software/qsys_webserver_bsp/\libucosii_bsp.a(iface.o)
 .debug_line    0x0001c1a5      0x4ea F:/Qsys/qsys_webserver/qsys/software/qsys_webserver_bsp/\libucosii_bsp.a(ip.o)
 .debug_line    0x0001c68f      0x432 F:/Qsys/qsys_webserver/qsys/software/qsys_webserver_bsp/\libucosii_bsp.a(ip_reasm.o)
 .debug_line    0x0001cac1      0x297 F:/Qsys/qsys_webserver/qsys/software/qsys_webserver_bsp/\libucosii_bsp.a(ipdemux.o)
 .debug_line    0x0001cd58      0x11c F:/Qsys/qsys_webserver/qsys/software/qsys_webserver_bsp/\libucosii_bsp.a(ipmc.o)
 .debug_line    0x0001ce74       0xc5 F:/Qsys/qsys_webserver/qsys/software/qsys_webserver_bsp/\libucosii_bsp.a(ipport.o)
 .debug_line    0x0001cf39      0x170 F:/Qsys/qsys_webserver/qsys/software/qsys_webserver_bsp/\libucosii_bsp.a(ipraw.o)
 .debug_line    0x0001d0a9      0x1ae F:/Qsys/qsys_webserver/qsys/software/qsys_webserver_bsp/\libucosii_bsp.a(iproute.o)
 .debug_line    0x0001d257      0x331 F:/Qsys/qsys_webserver/qsys/software/qsys_webserver_bsp/\libucosii_bsp.a(udp.o)
 .debug_line    0x0001d588      0x109 F:/Qsys/qsys_webserver/qsys/software/qsys_webserver_bsp/\libucosii_bsp.a(igmp.o)
 .debug_line    0x0001d691      0x1bc F:/Qsys/qsys_webserver/qsys/software/qsys_webserver_bsp/\libucosii_bsp.a(igmp2.o)
 .debug_line    0x0001d84d      0x2cc F:/Qsys/qsys_webserver/qsys/software/qsys_webserver_bsp/\libucosii_bsp.a(ipopt.o)
 .debug_line    0x0001db19      0x19c F:/Qsys/qsys_webserver/qsys/software/qsys_webserver_bsp/\libucosii_bsp.a(u_mctest.o)
 .debug_line    0x0001dcb5      0x114 F:/Qsys/qsys_webserver/qsys/software/qsys_webserver_bsp/\libucosii_bsp.a(memdev.o)
 .debug_line    0x0001ddc9      0x253 F:/Qsys/qsys_webserver/qsys/software/qsys_webserver_bsp/\libucosii_bsp.a(parseip.o)
 .debug_line    0x0001e01c       0xdc F:/Qsys/qsys_webserver/qsys/software/qsys_webserver_bsp/\libucosii_bsp.a(tcpcksum.o)
 .debug_line    0x0001e0f8      0x138 F:/Qsys/qsys_webserver/qsys/software/qsys_webserver_bsp/\libucosii_bsp.a(udp_open.o)
 .debug_line    0x0001e230      0x281 F:/Qsys/qsys_webserver/qsys/software/qsys_webserver_bsp/\libucosii_bsp.a(in_pcb.o)
 .debug_line    0x0001e4b1      0x3ec F:/Qsys/qsys_webserver/qsys/software/qsys_webserver_bsp/\libucosii_bsp.a(vfsfiles.o)
 .debug_line    0x0001e89d       0x85 F:/Qsys/qsys_webserver/qsys/software/qsys_webserver_bsp/\libucosii_bsp.a(vfsport.o)
 .debug_line    0x0001e922       0xab F:/Qsys/qsys_webserver/qsys/software/qsys_webserver_bsp/\libucosii_bsp.a(alt_exception_entry.o)
 .debug_line    0x0001e9cd      0x1ff F:/Qsys/qsys_webserver/qsys/software/qsys_webserver_bsp/\libucosii_bsp.a(alt_fcntl.o)
 .debug_line    0x0001ebcc      0x169 F:/Qsys/qsys_webserver/qsys/software/qsys_webserver_bsp/\libucosii_bsp.a(alt_usleep.o)
 .debug_line    0x0001ed35      0x294 F:/Qsys/qsys_webserver/qsys/software/qsys_webserver_bsp/\libucosii_bsp.a(icmp.o)
 .debug_line    0x0001efc9       0x9f F:/Qsys/qsys_webserver/qsys/software/qsys_webserver_bsp/\libucosii_bsp.a(alt_busy_sleep.o)
 .debug_line    0x0001f068      0x16d d:/eda/quartus13/nios2eds/bin/gnu/h-i686-mingw32/bin/../lib/gcc/nios2-elf/4.7.3/../../../../../H-i686-mingw32/nios2-elf/lib\libc.a(lib_a-atexit.o)
 .debug_line    0x0001f1d5      0x200 d:/eda/quartus13/nios2eds/bin/gnu/h-i686-mingw32/bin/../lib/gcc/nios2-elf/4.7.3/../../../../../H-i686-mingw32/nios2-elf/lib\libc.a(lib_a-calloc.o)
 .debug_line    0x0001f3d5      0x219 d:/eda/quartus13/nios2eds/bin/gnu/h-i686-mingw32/bin/../lib/gcc/nios2-elf/4.7.3/../../../../../H-i686-mingw32/nios2-elf/lib\libc.a(lib_a-exit.o)
 .debug_line    0x0001f5ee      0x207 d:/eda/quartus13/nios2eds/bin/gnu/h-i686-mingw32/bin/../lib/gcc/nios2-elf/4.7.3/../../../../../H-i686-mingw32/nios2-elf/lib\libc.a(lib_a-malloc.o)
 .debug_line    0x0001f7f5      0x21f d:/eda/quartus13/nios2eds/bin/gnu/h-i686-mingw32/bin/../lib/gcc/nios2-elf/4.7.3/../../../../../H-i686-mingw32/nios2-elf/lib\libc.a(lib_a-vprintf.o)
 .debug_line    0x0001fa14      0x233 d:/eda/quartus13/nios2eds/bin/gnu/h-i686-mingw32/bin/../lib/gcc/nios2-elf/4.7.3/../../../../../H-i686-mingw32/nios2-elf/lib\libc.a(lib_a-vsprintf.o)
 .debug_line    0x0001fc47      0x250 d:/eda/quartus13/nios2eds/bin/gnu/h-i686-mingw32/bin/../lib/gcc/nios2-elf/4.7.3/../../../../../H-i686-mingw32/nios2-elf/lib\libc.a(lib_a-__atexit.o)
 .debug_line    0x0001fe97      0x264 d:/eda/quartus13/nios2eds/bin/gnu/h-i686-mingw32/bin/../lib/gcc/nios2-elf/4.7.3/../../../../../H-i686-mingw32/nios2-elf/lib\libc.a(lib_a-__call_atexit.o)
 .debug_line    0x000200fb       0xcf F:/Qsys/qsys_webserver/qsys/software/qsys_webserver_bsp/\libucosii_bsp.a(alt_exit.o)

.debug_frame    0x00000000     0x6f1c
 *(.debug_frame)
 .debug_frame   0x00000000       0x2c obj/default/alt_error_handler.o
 .debug_frame   0x0000002c      0x2a0 obj/default/http.o
 .debug_frame   0x000002cc       0xf0 obj/default/network_utilities.o
 .debug_frame   0x000003bc       0x70 obj/default/srec_flash.o
 .debug_frame   0x0000042c       0x9c obj/default/web_server.o
 .debug_frame   0x000004c8       0x30 d:/eda/quartus13/nios2eds/bin/gnu/h-i686-mingw32/bin/../lib/gcc/nios2-elf/4.7.3/../../../../../H-i686-mingw32/nios2-elf/lib\libc.a(lib_a-atoi.o)
 .debug_frame   0x000004f8       0x3c d:/eda/quartus13/nios2eds/bin/gnu/h-i686-mingw32/bin/../lib/gcc/nios2-elf/4.7.3/../../../../../H-i686-mingw32/nios2-elf/lib\libc.a(lib_a-fclose.o)
 .debug_frame   0x00000534       0x40 d:/eda/quartus13/nios2eds/bin/gnu/h-i686-mingw32/bin/../lib/gcc/nios2-elf/4.7.3/../../../../../H-i686-mingw32/nios2-elf/lib\libc.a(lib_a-fflush.o)
 .debug_frame   0x00000574       0x38 d:/eda/quartus13/nios2eds/bin/gnu/h-i686-mingw32/bin/../lib/gcc/nios2-elf/4.7.3/../../../../../H-i686-mingw32/nios2-elf/lib\libc.a(lib_a-fgetpos.o)
 .debug_frame   0x000005ac      0x100 d:/eda/quartus13/nios2eds/bin/gnu/h-i686-mingw32/bin/../lib/gcc/nios2-elf/4.7.3/../../../../../H-i686-mingw32/nios2-elf/lib\libc.a(lib_a-findfp.o)
 .debug_frame   0x000006ac       0x40 d:/eda/quartus13/nios2eds/bin/gnu/h-i686-mingw32/bin/../lib/gcc/nios2-elf/4.7.3/../../../../../H-i686-mingw32/nios2-elf/lib\libc.a(lib_a-fopen.o)
 .debug_frame   0x000006ec       0x40 d:/eda/quartus13/nios2eds/bin/gnu/h-i686-mingw32/bin/../lib/gcc/nios2-elf/4.7.3/../../../../../H-i686-mingw32/nios2-elf/lib\libc.a(lib_a-fprintf.o)
 .debug_frame   0x0000072c       0x54 d:/eda/quartus13/nios2eds/bin/gnu/h-i686-mingw32/bin/../lib/gcc/nios2-elf/4.7.3/../../../../../H-i686-mingw32/nios2-elf/lib\libc.a(lib_a-fread.o)
 .debug_frame   0x00000780       0x4c d:/eda/quartus13/nios2eds/bin/gnu/h-i686-mingw32/bin/../lib/gcc/nios2-elf/4.7.3/../../../../../H-i686-mingw32/nios2-elf/lib\libc.a(lib_a-freer.o)
 .debug_frame   0x000007cc       0x48 d:/eda/quartus13/nios2eds/bin/gnu/h-i686-mingw32/bin/../lib/gcc/nios2-elf/4.7.3/../../../../../H-i686-mingw32/nios2-elf/lib\libc.a(lib_a-fseek.o)
 .debug_frame   0x00000814       0x2c d:/eda/quartus13/nios2eds/bin/gnu/h-i686-mingw32/bin/../lib/gcc/nios2-elf/4.7.3/../../../../../H-i686-mingw32/nios2-elf/lib\libc.a(lib_a-fstatr.o)
 .debug_frame   0x00000840       0x3c d:/eda/quartus13/nios2eds/bin/gnu/h-i686-mingw32/bin/../lib/gcc/nios2-elf/4.7.3/../../../../../H-i686-mingw32/nios2-elf/lib\libc.a(lib_a-ftell.o)
 .debug_frame   0x0000087c       0x5c d:/eda/quartus13/nios2eds/bin/gnu/h-i686-mingw32/bin/../lib/gcc/nios2-elf/4.7.3/../../../../../H-i686-mingw32/nios2-elf/lib\libc.a(lib_a-fwalk.o)
 .debug_frame   0x000008d8       0x48 d:/eda/quartus13/nios2eds/bin/gnu/h-i686-mingw32/bin/../lib/gcc/nios2-elf/4.7.3/../../../../../H-i686-mingw32/nios2-elf/lib\libc.a(lib_a-fwrite.o)
 .debug_frame   0x00000920       0x44 d:/eda/quartus13/nios2eds/bin/gnu/h-i686-mingw32/bin/../lib/gcc/nios2-elf/4.7.3/../../../../../H-i686-mingw32/nios2-elf/lib\libc.a(lib_a-getc.o)
 .debug_frame   0x00000964       0x2c d:/eda/quartus13/nios2eds/bin/gnu/h-i686-mingw32/bin/../lib/gcc/nios2-elf/4.7.3/../../../../../H-i686-mingw32/nios2-elf/lib\libc.a(lib_a-makebuf.o)
 .debug_frame   0x00000990       0x38 d:/eda/quartus13/nios2eds/bin/gnu/h-i686-mingw32/bin/../lib/gcc/nios2-elf/4.7.3/../../../../../H-i686-mingw32/nios2-elf/lib\libc.a(lib_a-mallocr.o)
 .debug_frame   0x000009c8       0x20 d:/eda/quartus13/nios2eds/bin/gnu/h-i686-mingw32/bin/../lib/gcc/nios2-elf/4.7.3/../../../../../H-i686-mingw32/nios2-elf/lib\libc.a(lib_a-memcpy.o)
 .debug_frame   0x000009e8       0x20 d:/eda/quartus13/nios2eds/bin/gnu/h-i686-mingw32/bin/../lib/gcc/nios2-elf/4.7.3/../../../../../H-i686-mingw32/nios2-elf/lib\libc.a(lib_a-memmove.o)
 .debug_frame   0x00000a08       0x20 d:/eda/quartus13/nios2eds/bin/gnu/h-i686-mingw32/bin/../lib/gcc/nios2-elf/4.7.3/../../../../../H-i686-mingw32/nios2-elf/lib\libc.a(lib_a-memset.o)
 .debug_frame   0x00000a28       0x2c d:/eda/quartus13/nios2eds/bin/gnu/h-i686-mingw32/bin/../lib/gcc/nios2-elf/4.7.3/../../../../../H-i686-mingw32/nios2-elf/lib\libc.a(lib_a-openr.o)
 .debug_frame   0x00000a54       0x38 d:/eda/quartus13/nios2eds/bin/gnu/h-i686-mingw32/bin/../lib/gcc/nios2-elf/4.7.3/../../../../../H-i686-mingw32/nios2-elf/lib\libc.a(lib_a-perror.o)
 .debug_frame   0x00000a8c       0x40 d:/eda/quartus13/nios2eds/bin/gnu/h-i686-mingw32/bin/../lib/gcc/nios2-elf/4.7.3/../../../../../H-i686-mingw32/nios2-elf/lib\libc.a(lib_a-printf.o)
 .debug_frame   0x00000acc       0x48 d:/eda/quartus13/nios2eds/bin/gnu/h-i686-mingw32/bin/../lib/gcc/nios2-elf/4.7.3/../../../../../H-i686-mingw32/nios2-elf/lib\libc.a(lib_a-putc.o)
 .debug_frame   0x00000b14       0x30 d:/eda/quartus13/nios2eds/bin/gnu/h-i686-mingw32/bin/../lib/gcc/nios2-elf/4.7.3/../../../../../H-i686-mingw32/nios2-elf/lib\libc.a(lib_a-putchar.o)
 .debug_frame   0x00000b44       0x3c d:/eda/quartus13/nios2eds/bin/gnu/h-i686-mingw32/bin/../lib/gcc/nios2-elf/4.7.3/../../../../../H-i686-mingw32/nios2-elf/lib\libc.a(lib_a-puts.o)
 .debug_frame   0x00000b80       0x3c d:/eda/quartus13/nios2eds/bin/gnu/h-i686-mingw32/bin/../lib/gcc/nios2-elf/4.7.3/../../../../../H-i686-mingw32/nios2-elf/lib\libc.a(lib_a-refill.o)
 .debug_frame   0x00000bbc       0x38 d:/eda/quartus13/nios2eds/bin/gnu/h-i686-mingw32/bin/../lib/gcc/nios2-elf/4.7.3/../../../../../H-i686-mingw32/nios2-elf/lib\libc.a(lib_a-rget.o)
 .debug_frame   0x00000bf4       0x2c d:/eda/quartus13/nios2eds/bin/gnu/h-i686-mingw32/bin/../lib/gcc/nios2-elf/4.7.3/../../../../../H-i686-mingw32/nios2-elf/lib\libc.a(lib_a-sbrkr.o)
 .debug_frame   0x00000c20       0x40 d:/eda/quartus13/nios2eds/bin/gnu/h-i686-mingw32/bin/../lib/gcc/nios2-elf/4.7.3/../../../../../H-i686-mingw32/nios2-elf/lib\libc.a(lib_a-sprintf.o)
 .debug_frame   0x00000c60       0x54 d:/eda/quartus13/nios2eds/bin/gnu/h-i686-mingw32/bin/../lib/gcc/nios2-elf/4.7.3/../../../../../H-i686-mingw32/nios2-elf/lib\libc.a(lib_a-sscanf.o)
 .debug_frame   0x00000cb4       0x78 d:/eda/quartus13/nios2eds/bin/gnu/h-i686-mingw32/bin/../lib/gcc/nios2-elf/4.7.3/../../../../../H-i686-mingw32/nios2-elf/lib\libc.a(lib_a-stdio.o)
 .debug_frame   0x00000d2c       0x20 d:/eda/quartus13/nios2eds/bin/gnu/h-i686-mingw32/bin/../lib/gcc/nios2-elf/4.7.3/../../../../../H-i686-mingw32/nios2-elf/lib\libc.a(lib_a-strcasecmp.o)
 .debug_frame   0x00000d4c       0x28 d:/eda/quartus13/nios2eds/bin/gnu/h-i686-mingw32/bin/../lib/gcc/nios2-elf/4.7.3/../../../../../H-i686-mingw32/nios2-elf/lib\libc.a(lib_a-strcat.o)
 .debug_frame   0x00000d74       0x20 d:/eda/quartus13/nios2eds/bin/gnu/h-i686-mingw32/bin/../lib/gcc/nios2-elf/4.7.3/../../../../../H-i686-mingw32/nios2-elf/lib\libc.a(lib_a-strchr.o)
 .debug_frame   0x00000d94       0x20 d:/eda/quartus13/nios2eds/bin/gnu/h-i686-mingw32/bin/../lib/gcc/nios2-elf/4.7.3/../../../../../H-i686-mingw32/nios2-elf/lib\libc.a(lib_a-strcmp.o)
 .debug_frame   0x00000db4       0x20 d:/eda/quartus13/nios2eds/bin/gnu/h-i686-mingw32/bin/../lib/gcc/nios2-elf/4.7.3/../../../../../H-i686-mingw32/nios2-elf/lib\libc.a(lib_a-strcpy.o)
 .debug_frame   0x00000dd4       0x28 d:/eda/quartus13/nios2eds/bin/gnu/h-i686-mingw32/bin/../lib/gcc/nios2-elf/4.7.3/../../../../../H-i686-mingw32/nios2-elf/lib\libc.a(lib_a-strerror.o)
 .debug_frame   0x00000dfc       0x20 d:/eda/quartus13/nios2eds/bin/gnu/h-i686-mingw32/bin/../lib/gcc/nios2-elf/4.7.3/../../../../../H-i686-mingw32/nios2-elf/lib\libc.a(lib_a-strlen.o)
 .debug_frame   0x00000e1c       0x20 d:/eda/quartus13/nios2eds/bin/gnu/h-i686-mingw32/bin/../lib/gcc/nios2-elf/4.7.3/../../../../../H-i686-mingw32/nios2-elf/lib\libc.a(lib_a-strncmp.o)
 .debug_frame   0x00000e3c       0x20 d:/eda/quartus13/nios2eds/bin/gnu/h-i686-mingw32/bin/../lib/gcc/nios2-elf/4.7.3/../../../../../H-i686-mingw32/nios2-elf/lib\libc.a(lib_a-strncpy.o)
 .debug_frame   0x00000e5c       0x74 d:/eda/quartus13/nios2eds/bin/gnu/h-i686-mingw32/bin/../lib/gcc/nios2-elf/4.7.3/../../../../../H-i686-mingw32/nios2-elf/lib\libc.a(lib_a-strstr.o)
 .debug_frame   0x00000ed0       0x20 d:/eda/quartus13/nios2eds/bin/gnu/h-i686-mingw32/bin/../lib/gcc/nios2-elf/4.7.3/../../../../../H-i686-mingw32/nios2-elf/lib\libc.a(lib_a-strtok.o)
 .debug_frame   0x00000ef0       0x30 d:/eda/quartus13/nios2eds/bin/gnu/h-i686-mingw32/bin/../lib/gcc/nios2-elf/4.7.3/../../../../../H-i686-mingw32/nios2-elf/lib\libc.a(lib_a-strtok_r.o)
 .debug_frame   0x00000f20       0x4c d:/eda/quartus13/nios2eds/bin/gnu/h-i686-mingw32/bin/../lib/gcc/nios2-elf/4.7.3/../../../../../H-i686-mingw32/nios2-elf/lib\libc.a(lib_a-strtol.o)
 .debug_frame   0x00000f6c       0x20 d:/eda/quartus13/nios2eds/bin/gnu/h-i686-mingw32/bin/../lib/gcc/nios2-elf/4.7.3/../../../../../H-i686-mingw32/nios2-elf/lib\libc.a(lib_a-u_strerr.o)
 .debug_frame   0x00000f8c       0x64 d:/eda/quartus13/nios2eds/bin/gnu/h-i686-mingw32/bin/../lib/gcc/nios2-elf/4.7.3/../../../../../H-i686-mingw32/nios2-elf/lib\libc.a(lib_a-vfprintf.o)
 .debug_frame   0x00000ff0       0x84 d:/eda/quartus13/nios2eds/bin/gnu/h-i686-mingw32/bin/../lib/gcc/nios2-elf/4.7.3/../../../../../H-i686-mingw32/nios2-elf/lib\libc.a(lib_a-vfscanf.o)
 .debug_frame   0x00001074       0x3c d:/eda/quartus13/nios2eds/bin/gnu/h-i686-mingw32/bin/../lib/gcc/nios2-elf/4.7.3/../../../../../H-i686-mingw32/nios2-elf/lib\libc.a(lib_a-wbuf.o)
 .debug_frame   0x000010b0       0x2c d:/eda/quartus13/nios2eds/bin/gnu/h-i686-mingw32/bin/../lib/gcc/nios2-elf/4.7.3/../../../../../H-i686-mingw32/nios2-elf/lib\libc.a(lib_a-writer.o)
 .debug_frame   0x000010dc       0x2c d:/eda/quartus13/nios2eds/bin/gnu/h-i686-mingw32/bin/../lib/gcc/nios2-elf/4.7.3/../../../../../H-i686-mingw32/nios2-elf/lib\libc.a(lib_a-wsetup.o)
 .debug_frame   0x00001108       0x2c d:/eda/quartus13/nios2eds/bin/gnu/h-i686-mingw32/bin/../lib/gcc/nios2-elf/4.7.3/../../../../../H-i686-mingw32/nios2-elf/lib\libc.a(lib_a-closer.o)
 .debug_frame   0x00001134       0x64 d:/eda/quartus13/nios2eds/bin/gnu/h-i686-mingw32/bin/../lib/gcc/nios2-elf/4.7.3/../../../../../H-i686-mingw32/nios2-elf/lib\libc.a(lib_a-dtoa.o)
 .debug_frame   0x00001198       0x20 d:/eda/quartus13/nios2eds/bin/gnu/h-i686-mingw32/bin/../lib/gcc/nios2-elf/4.7.3/../../../../../H-i686-mingw32/nios2-elf/lib\libc.a(lib_a-flags.o)
 .debug_frame   0x000011b8       0x44 d:/eda/quartus13/nios2eds/bin/gnu/h-i686-mingw32/bin/../lib/gcc/nios2-elf/4.7.3/../../../../../H-i686-mingw32/nios2-elf/lib\libc.a(lib_a-fputc.o)
 .debug_frame   0x000011fc       0x3c d:/eda/quartus13/nios2eds/bin/gnu/h-i686-mingw32/bin/../lib/gcc/nios2-elf/4.7.3/../../../../../H-i686-mingw32/nios2-elf/lib\libc.a(lib_a-fputs.o)
 .debug_frame   0x00001238       0x38 d:/eda/quartus13/nios2eds/bin/gnu/h-i686-mingw32/bin/../lib/gcc/nios2-elf/4.7.3/../../../../../H-i686-mingw32/nios2-elf/lib\libc.a(lib_a-fvwrite.o)
 .debug_frame   0x00001270       0x2c d:/eda/quartus13/nios2eds/bin/gnu/h-i686-mingw32/bin/../lib/gcc/nios2-elf/4.7.3/../../../../../H-i686-mingw32/nios2-elf/lib\libc.a(lib_a-isattyr.o)
 .debug_frame   0x0000129c       0x20 d:/eda/quartus13/nios2eds/bin/gnu/h-i686-mingw32/bin/../lib/gcc/nios2-elf/4.7.3/../../../../../H-i686-mingw32/nios2-elf/lib\libc.a(lib_a-iswspace.o)
 .debug_frame   0x000012bc       0x6c d:/eda/quartus13/nios2eds/bin/gnu/h-i686-mingw32/bin/../lib/gcc/nios2-elf/4.7.3/../../../../../H-i686-mingw32/nios2-elf/lib\libc.a(lib_a-locale.o)
 .debug_frame   0x00001328       0x2c d:/eda/quartus13/nios2eds/bin/gnu/h-i686-mingw32/bin/../lib/gcc/nios2-elf/4.7.3/../../../../../H-i686-mingw32/nios2-elf/lib\libc.a(lib_a-lseekr.o)
 .debug_frame   0x00001354       0x44 d:/eda/quartus13/nios2eds/bin/gnu/h-i686-mingw32/bin/../lib/gcc/nios2-elf/4.7.3/../../../../../H-i686-mingw32/nios2-elf/lib\libc.a(lib_a-mbrtowc.o)
 .debug_frame   0x00001398       0x24 d:/eda/quartus13/nios2eds/bin/gnu/h-i686-mingw32/bin/../lib/gcc/nios2-elf/4.7.3/../../../../../H-i686-mingw32/nios2-elf/lib\libc.a(lib_a-mbtowc_r.o)
 .debug_frame   0x000013bc       0x20 d:/eda/quartus13/nios2eds/bin/gnu/h-i686-mingw32/bin/../lib/gcc/nios2-elf/4.7.3/../../../../../H-i686-mingw32/nios2-elf/lib\libc.a(lib_a-memchr.o)
 .debug_frame   0x000013dc       0x20 d:/eda/quartus13/nios2eds/bin/gnu/h-i686-mingw32/bin/../lib/gcc/nios2-elf/4.7.3/../../../../../H-i686-mingw32/nios2-elf/lib\libc.a(lib_a-memcmp.o)
 .debug_frame   0x000013fc      0x204 d:/eda/quartus13/nios2eds/bin/gnu/h-i686-mingw32/bin/../lib/gcc/nios2-elf/4.7.3/../../../../../H-i686-mingw32/nios2-elf/lib\libc.a(lib_a-mprec.o)
 .debug_frame   0x00001600       0x2c d:/eda/quartus13/nios2eds/bin/gnu/h-i686-mingw32/bin/../lib/gcc/nios2-elf/4.7.3/../../../../../H-i686-mingw32/nios2-elf/lib\libc.a(lib_a-readr.o)
 .debug_frame   0x0000162c       0x38 d:/eda/quartus13/nios2eds/bin/gnu/h-i686-mingw32/bin/../lib/gcc/nios2-elf/4.7.3/../../../../../H-i686-mingw32/nios2-elf/lib\libc.a(lib_a-reallocr.o)
 .debug_frame   0x00001664       0x20 d:/eda/quartus13/nios2eds/bin/gnu/h-i686-mingw32/bin/../lib/gcc/nios2-elf/4.7.3/../../../../../H-i686-mingw32/nios2-elf/lib\libc.a(lib_a-s_isinfd.o)
 .debug_frame   0x00001684       0x20 d:/eda/quartus13/nios2eds/bin/gnu/h-i686-mingw32/bin/../lib/gcc/nios2-elf/4.7.3/../../../../../H-i686-mingw32/nios2-elf/lib\libc.a(lib_a-s_isnand.o)
 .debug_frame   0x000016a4       0x20 d:/eda/quartus13/nios2eds/bin/gnu/h-i686-mingw32/bin/../lib/gcc/nios2-elf/4.7.3/../../../../../H-i686-mingw32/nios2-elf/lib\libc.a(lib_a-sccl.o)
 .debug_frame   0x000016c4       0x20 d:/eda/quartus13/nios2eds/bin/gnu/h-i686-mingw32/bin/../lib/gcc/nios2-elf/4.7.3/../../../../../H-i686-mingw32/nios2-elf/lib\libc.a(lib_a-sf_nan.o)
 .debug_frame   0x000016e4       0x6c d:/eda/quartus13/nios2eds/bin/gnu/h-i686-mingw32/bin/../lib/gcc/nios2-elf/4.7.3/../../../../../H-i686-mingw32/nios2-elf/lib\libc.a(lib_a-strtod.o)
 .debug_frame   0x00001750       0x3c d:/eda/quartus13/nios2eds/bin/gnu/h-i686-mingw32/bin/../lib/gcc/nios2-elf/4.7.3/../../../../../H-i686-mingw32/nios2-elf/lib\libc.a(lib_a-strtoll_r.o)
 .debug_frame   0x0000178c       0x48 d:/eda/quartus13/nios2eds/bin/gnu/h-i686-mingw32/bin/../lib/gcc/nios2-elf/4.7.3/../../../../../H-i686-mingw32/nios2-elf/lib\libc.a(lib_a-strtoul.o)
 .debug_frame   0x000017d4       0x3c d:/eda/quartus13/nios2eds/bin/gnu/h-i686-mingw32/bin/../lib/gcc/nios2-elf/4.7.3/../../../../../H-i686-mingw32/nios2-elf/lib\libc.a(lib_a-strtoull_r.o)
 .debug_frame   0x00001810       0x60 d:/eda/quartus13/nios2eds/bin/gnu/h-i686-mingw32/bin/../lib/gcc/nios2-elf/4.7.3/../../../../../H-i686-mingw32/nios2-elf/lib\libc.a(lib_a-ungetc.o)
 .debug_frame   0x00001870       0x28 d:/eda/quartus13/nios2eds/bin/gnu/h-i686-mingw32/bin/../lib/gcc/nios2-elf/4.7.3/../../../../../H-i686-mingw32/nios2-elf/lib\libc.a(lib_a-callocr.o)
 .debug_frame   0x00001898       0x58 d:/eda/quartus13/nios2eds/bin/gnu/h-i686-mingw32/bin/../lib/gcc/nios2-elf/4.7.3/../../../../../H-i686-mingw32/nios2-elf/lib\libc.a(lib_a-gdtoa-gethex.o)
 .debug_frame   0x000018f0       0x34 d:/eda/quartus13/nios2eds/bin/gnu/h-i686-mingw32/bin/../lib/gcc/nios2-elf/4.7.3/../../../../../H-i686-mingw32/nios2-elf/lib\libc.a(lib_a-gdtoa-hexnan.o)
 .debug_frame   0x00001924       0x20 d:/eda/quartus13/nios2eds/bin/gnu/h-i686-mingw32/bin/../lib/gcc/nios2-elf/4.7.3\libgcc.a(_muldi3.o)
 .debug_frame   0x00001944       0x2c d:/eda/quartus13/nios2eds/bin/gnu/h-i686-mingw32/bin/../lib/gcc/nios2-elf/4.7.3\libgcc.a(_fixunsdfsi.o)
 .debug_frame   0x00001970       0x38 d:/eda/quartus13/nios2eds/bin/gnu/h-i686-mingw32/bin/../lib/gcc/nios2-elf/4.7.3\libgcc.a(_udivdi3.o)
 .debug_frame   0x000019a8       0x38 d:/eda/quartus13/nios2eds/bin/gnu/h-i686-mingw32/bin/../lib/gcc/nios2-elf/4.7.3\libgcc.a(_umoddi3.o)
 .debug_frame   0x000019e0       0x28 d:/eda/quartus13/nios2eds/bin/gnu/h-i686-mingw32/bin/../lib/gcc/nios2-elf/4.7.3\libgcc.a(_eq_sf.o)
 .debug_frame   0x00001a08       0x28 d:/eda/quartus13/nios2eds/bin/gnu/h-i686-mingw32/bin/../lib/gcc/nios2-elf/4.7.3\libgcc.a(_gt_sf.o)
 .debug_frame   0x00001a30       0x28 d:/eda/quartus13/nios2eds/bin/gnu/h-i686-mingw32/bin/../lib/gcc/nios2-elf/4.7.3\libgcc.a(_lt_sf.o)
 .debug_frame   0x00001a58       0x50 d:/eda/quartus13/nios2eds/bin/gnu/h-i686-mingw32/bin/../lib/gcc/nios2-elf/4.7.3\libgcc.a(_addsub_df.o)
 .debug_frame   0x00001aa8       0x38 d:/eda/quartus13/nios2eds/bin/gnu/h-i686-mingw32/bin/../lib/gcc/nios2-elf/4.7.3\libgcc.a(_mul_df.o)
 .debug_frame   0x00001ae0       0x28 d:/eda/quartus13/nios2eds/bin/gnu/h-i686-mingw32/bin/../lib/gcc/nios2-elf/4.7.3\libgcc.a(_div_df.o)
 .debug_frame   0x00001b08       0x28 d:/eda/quartus13/nios2eds/bin/gnu/h-i686-mingw32/bin/../lib/gcc/nios2-elf/4.7.3\libgcc.a(_eq_df.o)
 .debug_frame   0x00001b30       0x28 d:/eda/quartus13/nios2eds/bin/gnu/h-i686-mingw32/bin/../lib/gcc/nios2-elf/4.7.3\libgcc.a(_ne_df.o)
 .debug_frame   0x00001b58       0x28 d:/eda/quartus13/nios2eds/bin/gnu/h-i686-mingw32/bin/../lib/gcc/nios2-elf/4.7.3\libgcc.a(_gt_df.o)
 .debug_frame   0x00001b80       0x28 d:/eda/quartus13/nios2eds/bin/gnu/h-i686-mingw32/bin/../lib/gcc/nios2-elf/4.7.3\libgcc.a(_ge_df.o)
 .debug_frame   0x00001ba8       0x28 d:/eda/quartus13/nios2eds/bin/gnu/h-i686-mingw32/bin/../lib/gcc/nios2-elf/4.7.3\libgcc.a(_lt_df.o)
 .debug_frame   0x00001bd0       0x28 d:/eda/quartus13/nios2eds/bin/gnu/h-i686-mingw32/bin/../lib/gcc/nios2-elf/4.7.3\libgcc.a(_le_df.o)
 .debug_frame   0x00001bf8       0x28 d:/eda/quartus13/nios2eds/bin/gnu/h-i686-mingw32/bin/../lib/gcc/nios2-elf/4.7.3\libgcc.a(_si_to_df.o)
 .debug_frame   0x00001c20       0x28 d:/eda/quartus13/nios2eds/bin/gnu/h-i686-mingw32/bin/../lib/gcc/nios2-elf/4.7.3\libgcc.a(_df_to_si.o)
 .debug_frame   0x00001c48       0x28 d:/eda/quartus13/nios2eds/bin/gnu/h-i686-mingw32/bin/../lib/gcc/nios2-elf/4.7.3\libgcc.a(_df_to_sf.o)
 .debug_frame   0x00001c70       0x28 d:/eda/quartus13/nios2eds/bin/gnu/h-i686-mingw32/bin/../lib/gcc/nios2-elf/4.7.3\libgcc.a(_usi_to_df.o)
 .debug_frame   0x00001c98       0x70 d:/eda/quartus13/nios2eds/bin/gnu/h-i686-mingw32/bin/../lib/gcc/nios2-elf/4.7.3\libgcc.a(lib2-divmod.o)
 .debug_frame   0x00001d08       0x20 d:/eda/quartus13/nios2eds/bin/gnu/h-i686-mingw32/bin/../lib/gcc/nios2-elf/4.7.3\libgcc.a(_clzsi2.o)
 .debug_frame   0x00001d28       0x20 d:/eda/quartus13/nios2eds/bin/gnu/h-i686-mingw32/bin/../lib/gcc/nios2-elf/4.7.3\libgcc.a(_unpack_sf.o)
 .debug_frame   0x00001d48       0x20 d:/eda/quartus13/nios2eds/bin/gnu/h-i686-mingw32/bin/../lib/gcc/nios2-elf/4.7.3\libgcc.a(_fpcmp_parts_sf.o)
 .debug_frame   0x00001d68       0x28 d:/eda/quartus13/nios2eds/bin/gnu/h-i686-mingw32/bin/../lib/gcc/nios2-elf/4.7.3\libgcc.a(_make_sf.o)
 .debug_frame   0x00001d90       0x34 d:/eda/quartus13/nios2eds/bin/gnu/h-i686-mingw32/bin/../lib/gcc/nios2-elf/4.7.3\libgcc.a(_pack_df.o)
 .debug_frame   0x00001dc4       0x20 d:/eda/quartus13/nios2eds/bin/gnu/h-i686-mingw32/bin/../lib/gcc/nios2-elf/4.7.3\libgcc.a(_unpack_df.o)
 .debug_frame   0x00001de4       0x20 d:/eda/quartus13/nios2eds/bin/gnu/h-i686-mingw32/bin/../lib/gcc/nios2-elf/4.7.3\libgcc.a(_fpcmp_parts_df.o)
 .debug_frame   0x00001e04       0x20 d:/eda/quartus13/nios2eds/bin/gnu/h-i686-mingw32/bin/../lib/gcc/nios2-elf/4.7.3\libgcc.a(_lshrdi3.o)
 .debug_frame   0x00001e24       0x20 d:/eda/quartus13/nios2eds/bin/gnu/h-i686-mingw32/bin/../lib/gcc/nios2-elf/4.7.3\libgcc.a(_ashldi3.o)
 .debug_frame   0x00001e44       0x20 d:/eda/quartus13/nios2eds/bin/gnu/h-i686-mingw32/bin/../lib/gcc/nios2-elf/4.7.3\libgcc.a(_pack_sf.o)
 .debug_frame   0x00001e64       0x2c F:/Qsys/qsys_webserver/qsys/software/qsys_webserver_bsp/\libucosii_bsp.a(alt_dcache_flush.o)
 .debug_frame   0x00001e90       0x48 F:/Qsys/qsys_webserver/qsys/software/qsys_webserver_bsp/\libucosii_bsp.a(alt_flash_dev.o)
 .debug_frame   0x00001ed8       0x48 F:/Qsys/qsys_webserver/qsys/software/qsys_webserver_bsp/\libucosii_bsp.a(alt_fstat.o)
 .debug_frame   0x00001f20       0x48 F:/Qsys/qsys_webserver/qsys/software/qsys_webserver_bsp/\libucosii_bsp.a(alt_isatty.o)
 .debug_frame   0x00001f68       0x48 F:/Qsys/qsys_webserver/qsys/software/qsys_webserver_bsp/\libucosii_bsp.a(alt_lseek.o)
 .debug_frame   0x00001fb0       0x2c F:/Qsys/qsys_webserver/qsys/software/qsys_webserver_bsp/\libucosii_bsp.a(alt_main.o)
 .debug_frame   0x00001fdc       0x64 F:/Qsys/qsys_webserver/qsys/software/qsys_webserver_bsp/\libucosii_bsp.a(alt_open.o)
 .debug_frame   0x00002040       0x2c F:/Qsys/qsys_webserver/qsys/software/qsys_webserver_bsp/\libucosii_bsp.a(alt_release_fd.o)
 .debug_frame   0x0000206c       0x2c F:/Qsys/qsys_webserver/qsys/software/qsys_webserver_bsp/\libucosii_bsp.a(alt_sbrk.o)
 .debug_frame   0x00002098       0x48 F:/Qsys/qsys_webserver/qsys/software/qsys_webserver_bsp/\libucosii_bsp.a(alt_tick.o)
 .debug_frame   0x000020e0       0x4c F:/Qsys/qsys_webserver/qsys/software/qsys_webserver_bsp/\libucosii_bsp.a(alt_env_lock.o)
 .debug_frame   0x0000212c       0x4c F:/Qsys/qsys_webserver/qsys/software/qsys_webserver_bsp/\libucosii_bsp.a(alt_malloc_lock.o)
 .debug_frame   0x00002178      0x3e4 F:/Qsys/qsys_webserver/qsys/software/qsys_webserver_bsp/\libucosii_bsp.a(os_core.o)
 .debug_frame   0x0000255c       0x2c F:/Qsys/qsys_webserver/qsys/software/qsys_webserver_bsp/\libucosii_bsp.a(os_dbg.o)
 .debug_frame   0x00002588      0x17c F:/Qsys/qsys_webserver/qsys/software/qsys_webserver_bsp/\libucosii_bsp.a(os_flag.o)
 .debug_frame   0x00002704       0xf0 F:/Qsys/qsys_webserver/qsys/software/qsys_webserver_bsp/\libucosii_bsp.a(os_mbox.o)
 .debug_frame   0x000027f4       0xd4 F:/Qsys/qsys_webserver/qsys/software/qsys_webserver_bsp/\libucosii_bsp.a(os_mem.o)
 .debug_frame   0x000028c8      0x144 F:/Qsys/qsys_webserver/qsys/software/qsys_webserver_bsp/\libucosii_bsp.a(os_q.o)
 .debug_frame   0x00002a0c       0xf0 F:/Qsys/qsys_webserver/qsys/software/qsys_webserver_bsp/\libucosii_bsp.a(os_sem.o)
 .debug_frame   0x00002afc      0x160 F:/Qsys/qsys_webserver/qsys/software/qsys_webserver_bsp/\libucosii_bsp.a(os_task.o)
 .debug_frame   0x00002c5c       0xa0 F:/Qsys/qsys_webserver/qsys/software/qsys_webserver_bsp/\libucosii_bsp.a(os_time.o)
 .debug_frame   0x00002cfc       0x64 F:/Qsys/qsys_webserver/qsys/software/qsys_webserver_bsp/\libucosii_bsp.a(alt_sys_init.o)
 .debug_frame   0x00002d60      0x128 F:/Qsys/qsys_webserver/qsys/software/qsys_webserver_bsp/\libucosii_bsp.a(altera_avalon_epcs_flash_controller.o)
 .debug_frame   0x00002e88       0x80 F:/Qsys/qsys_webserver/qsys/software/qsys_webserver_bsp/\libucosii_bsp.a(altera_avalon_jtag_uart_fd.o)
 .debug_frame   0x00002f08       0x80 F:/Qsys/qsys_webserver/qsys/software/qsys_webserver_bsp/\libucosii_bsp.a(altera_avalon_jtag_uart_init.o)
 .debug_frame   0x00002f88       0x2c F:/Qsys/qsys_webserver/qsys/software/qsys_webserver_bsp/\libucosii_bsp.a(altera_avalon_jtag_uart_ioctl.o)
 .debug_frame   0x00002fb4       0x2c F:/Qsys/qsys_webserver/qsys/software/qsys_webserver_bsp/\libucosii_bsp.a(altera_avalon_jtag_uart_read.o)
 .debug_frame   0x00002fe0       0x2c F:/Qsys/qsys_webserver/qsys/software/qsys_webserver_bsp/\libucosii_bsp.a(altera_avalon_jtag_uart_write.o)
 .debug_frame   0x0000300c      0x240 F:/Qsys/qsys_webserver/qsys/software/qsys_webserver_bsp/\libucosii_bsp.a(altera_avalon_sgdma.o)
 .debug_frame   0x0000324c       0x48 F:/Qsys/qsys_webserver/qsys/software/qsys_webserver_bsp/\libucosii_bsp.a(altera_avalon_timer_sc.o)
 .debug_frame   0x00003294      0x1b4 F:/Qsys/qsys_webserver/qsys/software/qsys_webserver_bsp/\libucosii_bsp.a(altera_ro_zipfs.o)
 .debug_frame   0x00003448      0x160 F:/Qsys/qsys_webserver/qsys/software/qsys_webserver_bsp/\libucosii_bsp.a(epcs_commands.o)
 .debug_frame   0x000035a8      0x118 F:/Qsys/qsys_webserver/qsys/software/qsys_webserver_bsp/\libucosii_bsp.a(ins_tse_mac.o)
 .debug_frame   0x000036c0       0x2c F:/Qsys/qsys_webserver/qsys/software/qsys_webserver_bsp/\libucosii_bsp.a(alt_iniche_close.o)
 .debug_frame   0x000036ec       0x2c F:/Qsys/qsys_webserver/qsys/software/qsys_webserver_bsp/\libucosii_bsp.a(alt_iniche_dev.o)
 .debug_frame   0x00003718       0x2c F:/Qsys/qsys_webserver/qsys/software/qsys_webserver_bsp/\libucosii_bsp.a(alt_iniche_read.o)
 .debug_frame   0x00003744       0x2c F:/Qsys/qsys_webserver/qsys/software/qsys_webserver_bsp/\libucosii_bsp.a(alt_iniche_write.o)
 .debug_frame   0x00003770       0xb8 F:/Qsys/qsys_webserver/qsys/software/qsys_webserver_bsp/\libucosii_bsp.a(ipnet.o)
 .debug_frame   0x00003828       0x80 F:/Qsys/qsys_webserver/qsys/software/qsys_webserver_bsp/\libucosii_bsp.a(ipstart.o)
 .debug_frame   0x000038a8       0xf8 F:/Qsys/qsys_webserver/qsys/software/qsys_webserver_bsp/\libucosii_bsp.a(igmp_cmn.o)
 .debug_frame   0x000039a0      0x12c F:/Qsys/qsys_webserver/qsys/software/qsys_webserver_bsp/\libucosii_bsp.a(bsdsock.o)
 .debug_frame   0x00003acc       0x48 F:/Qsys/qsys_webserver/qsys/software/qsys_webserver_bsp/\libucosii_bsp.a(cksum.o)
 .debug_frame   0x00003b14      0x164 F:/Qsys/qsys_webserver/qsys/software/qsys_webserver_bsp/\libucosii_bsp.a(in_utils.o)
 .debug_frame   0x00003c78       0x64 F:/Qsys/qsys_webserver/qsys/software/qsys_webserver_bsp/\libucosii_bsp.a(netmain.o)
 .debug_frame   0x00003cdc       0xd4 F:/Qsys/qsys_webserver/qsys/software/qsys_webserver_bsp/\libucosii_bsp.a(tk_crnos.o)
 .debug_frame   0x00003db0       0xb8 F:/Qsys/qsys_webserver/qsys/software/qsys_webserver_bsp/\libucosii_bsp.a(pktalloc.o)
 .debug_frame   0x00003e68       0x64 F:/Qsys/qsys_webserver/qsys/software/qsys_webserver_bsp/\libucosii_bsp.a(q.o)
 .debug_frame   0x00003ecc       0xf0 F:/Qsys/qsys_webserver/qsys/software/qsys_webserver_bsp/\libucosii_bsp.a(brdutils.o)
 .debug_frame   0x00003fbc       0x9c F:/Qsys/qsys_webserver/qsys/software/qsys_webserver_bsp/\libucosii_bsp.a(osportco.o)
 .debug_frame   0x00004058      0x10c F:/Qsys/qsys_webserver/qsys/software/qsys_webserver_bsp/\libucosii_bsp.a(targnios.o)
 .debug_frame   0x00004164      0x208 F:/Qsys/qsys_webserver/qsys/software/qsys_webserver_bsp/\libucosii_bsp.a(nptcp.o)
 .debug_frame   0x0000436c       0x68 F:/Qsys/qsys_webserver/qsys/software/qsys_webserver_bsp/\libucosii_bsp.a(rawsock.o)
 .debug_frame   0x000043d4      0x224 F:/Qsys/qsys_webserver/qsys/software/qsys_webserver_bsp/\libucosii_bsp.a(sockcall.o)
 .debug_frame   0x000045f8      0x1d4 F:/Qsys/qsys_webserver/qsys/software/qsys_webserver_bsp/\libucosii_bsp.a(socket.o)
 .debug_frame   0x000047cc      0x294 F:/Qsys/qsys_webserver/qsys/software/qsys_webserver_bsp/\libucosii_bsp.a(socket2.o)
 .debug_frame   0x00004a60      0x110 F:/Qsys/qsys_webserver/qsys/software/qsys_webserver_bsp/\libucosii_bsp.a(soselect.o)
 .debug_frame   0x00004b70       0xd8 F:/Qsys/qsys_webserver/qsys/software/qsys_webserver_bsp/\libucosii_bsp.a(tcp_in.o)
 .debug_frame   0x00004c48       0x64 F:/Qsys/qsys_webserver/qsys/software/qsys_webserver_bsp/\libucosii_bsp.a(tcp_out.o)
 .debug_frame   0x00004cac      0x10c F:/Qsys/qsys_webserver/qsys/software/qsys_webserver_bsp/\libucosii_bsp.a(tcp_subr.o)
 .debug_frame   0x00004db8       0x64 F:/Qsys/qsys_webserver/qsys/software/qsys_webserver_bsp/\libucosii_bsp.a(tcp_timr.o)
 .debug_frame   0x00004e1c       0x80 F:/Qsys/qsys_webserver/qsys/software/qsys_webserver_bsp/\libucosii_bsp.a(tcp_usr.o)
 .debug_frame   0x00004e9c       0x2c F:/Qsys/qsys_webserver/qsys/software/qsys_webserver_bsp/\libucosii_bsp.a(tcpport.o)
 .debug_frame   0x00004ec8       0xbc F:/Qsys/qsys_webserver/qsys/software/qsys_webserver_bsp/\libucosii_bsp.a(udpsock.o)
 .debug_frame   0x00004f84       0x2c F:/Qsys/qsys_webserver/qsys/software/qsys_webserver_bsp/\libucosii_bsp.a(alt_alarm_start.o)
 .debug_frame   0x00004fb0       0x48 F:/Qsys/qsys_webserver/qsys/software/qsys_webserver_bsp/\libucosii_bsp.a(alt_close.o)
 .debug_frame   0x00004ff8       0x2c F:/Qsys/qsys_webserver/qsys/software/qsys_webserver_bsp/\libucosii_bsp.a(alt_dev.o)
 .debug_frame   0x00005024       0x48 F:/Qsys/qsys_webserver/qsys/software/qsys_webserver_bsp/\libucosii_bsp.a(alt_dev_llist_insert.o)
 .debug_frame   0x0000506c       0x2c F:/Qsys/qsys_webserver/qsys/software/qsys_webserver_bsp/\libucosii_bsp.a(alt_do_ctors.o)
 .debug_frame   0x00005098       0x2c F:/Qsys/qsys_webserver/qsys/software/qsys_webserver_bsp/\libucosii_bsp.a(alt_do_dtors.o)
 .debug_frame   0x000050c4       0x2c F:/Qsys/qsys_webserver/qsys/software/qsys_webserver_bsp/\libucosii_bsp.a(alt_find_dev.o)
 .debug_frame   0x000050f0       0x2c F:/Qsys/qsys_webserver/qsys/software/qsys_webserver_bsp/\libucosii_bsp.a(alt_find_file.o)
 .debug_frame   0x0000511c       0x2c F:/Qsys/qsys_webserver/qsys/software/qsys_webserver_bsp/\libucosii_bsp.a(alt_fs_reg.o)
 .debug_frame   0x00005148       0x2c F:/Qsys/qsys_webserver/qsys/software/qsys_webserver_bsp/\libucosii_bsp.a(alt_get_fd.o)
 .debug_frame   0x00005174       0x80 F:/Qsys/qsys_webserver/qsys/software/qsys_webserver_bsp/\libucosii_bsp.a(alt_iic.o)
 .debug_frame   0x000051f4       0x2c F:/Qsys/qsys_webserver/qsys/software/qsys_webserver_bsp/\libucosii_bsp.a(alt_iic_isr_register.o)
 .debug_frame   0x00005220       0x48 F:/Qsys/qsys_webserver/qsys/software/qsys_webserver_bsp/\libucosii_bsp.a(alt_io_redirect.o)
 .debug_frame   0x00005268       0x2c F:/Qsys/qsys_webserver/qsys/software/qsys_webserver_bsp/\libucosii_bsp.a(alt_irq_handler.o)
 .debug_frame   0x00005294       0x48 F:/Qsys/qsys_webserver/qsys/software/qsys_webserver_bsp/\libucosii_bsp.a(alt_read.o)
 .debug_frame   0x000052dc       0x2c F:/Qsys/qsys_webserver/qsys/software/qsys_webserver_bsp/\libucosii_bsp.a(alt_remap_cached.o)
 .debug_frame   0x00005308       0x2c F:/Qsys/qsys_webserver/qsys/software/qsys_webserver_bsp/\libucosii_bsp.a(alt_remap_uncached.o)
 .debug_frame   0x00005334       0x2c F:/Qsys/qsys_webserver/qsys/software/qsys_webserver_bsp/\libucosii_bsp.a(alt_uncached_malloc.o)
 .debug_frame   0x00005360       0x48 F:/Qsys/qsys_webserver/qsys/software/qsys_webserver_bsp/\libucosii_bsp.a(alt_write.o)
 .debug_frame   0x000053a8       0x2c F:/Qsys/qsys_webserver/qsys/software/qsys_webserver_bsp/\libucosii_bsp.a(altera_nios2_qsys_irq.o)
 .debug_frame   0x000053d4      0x128 F:/Qsys/qsys_webserver/qsys/software/qsys_webserver_bsp/\libucosii_bsp.a(os_cpu_c.o)
 .debug_frame   0x000054fc       0x2c F:/Qsys/qsys_webserver/qsys/software/qsys_webserver_bsp/\libucosii_bsp.a(altera_avalon_spi.o)
 .debug_frame   0x00005528      0x4d4 F:/Qsys/qsys_webserver/qsys/software/qsys_webserver_bsp/\libucosii_bsp.a(altera_avalon_tse.o)
 .debug_frame   0x000059fc       0xe0 F:/Qsys/qsys_webserver/qsys/software/qsys_webserver_bsp/\libucosii_bsp.a(allports.o)
 .debug_frame   0x00005adc       0x84 F:/Qsys/qsys_webserver/qsys/software/qsys_webserver_bsp/\libucosii_bsp.a(timeouts.o)
 .debug_frame   0x00005b60       0x48 F:/Qsys/qsys_webserver/qsys/software/qsys_webserver_bsp/\libucosii_bsp.a(tk_misc.o)
 .debug_frame   0x00005ba8       0x2c F:/Qsys/qsys_webserver/qsys/software/qsys_webserver_bsp/\libucosii_bsp.a(alt_iniche_fcntl.o)
 .debug_frame   0x00005bd4      0x160 F:/Qsys/qsys_webserver/qsys/software/qsys_webserver_bsp/\libucosii_bsp.a(et_arp.o)
 .debug_frame   0x00005d34       0x80 F:/Qsys/qsys_webserver/qsys/software/qsys_webserver_bsp/\libucosii_bsp.a(iface.o)
 .debug_frame   0x00005db4      0x160 F:/Qsys/qsys_webserver/qsys/software/qsys_webserver_bsp/\libucosii_bsp.a(ip.o)
 .debug_frame   0x00005f14      0x1d4 F:/Qsys/qsys_webserver/qsys/software/qsys_webserver_bsp/\libucosii_bsp.a(ip_reasm.o)
 .debug_frame   0x000060e8       0x68 F:/Qsys/qsys_webserver/qsys/software/qsys_webserver_bsp/\libucosii_bsp.a(ipdemux.o)
 .debug_frame   0x00006150       0x64 F:/Qsys/qsys_webserver/qsys/software/qsys_webserver_bsp/\libucosii_bsp.a(ipmc.o)
 .debug_frame   0x000061b4       0x64 F:/Qsys/qsys_webserver/qsys/software/qsys_webserver_bsp/\libucosii_bsp.a(ipport.o)
 .debug_frame   0x00006218       0xb8 F:/Qsys/qsys_webserver/qsys/software/qsys_webserver_bsp/\libucosii_bsp.a(ipraw.o)
 .debug_frame   0x000062d0       0x64 F:/Qsys/qsys_webserver/qsys/software/qsys_webserver_bsp/\libucosii_bsp.a(iproute.o)
 .debug_frame   0x00006334       0xd4 F:/Qsys/qsys_webserver/qsys/software/qsys_webserver_bsp/\libucosii_bsp.a(udp.o)
 .debug_frame   0x00006408       0x2c F:/Qsys/qsys_webserver/qsys/software/qsys_webserver_bsp/\libucosii_bsp.a(igmp.o)
 .debug_frame   0x00006434       0x9c F:/Qsys/qsys_webserver/qsys/software/qsys_webserver_bsp/\libucosii_bsp.a(igmp2.o)
 .debug_frame   0x000064d0       0x84 F:/Qsys/qsys_webserver/qsys/software/qsys_webserver_bsp/\libucosii_bsp.a(ipopt.o)
 .debug_frame   0x00006554       0x4c F:/Qsys/qsys_webserver/qsys/software/qsys_webserver_bsp/\libucosii_bsp.a(u_mctest.o)
 .debug_frame   0x000065a0      0x10c F:/Qsys/qsys_webserver/qsys/software/qsys_webserver_bsp/\libucosii_bsp.a(memdev.o)
 .debug_frame   0x000066ac      0x10c F:/Qsys/qsys_webserver/qsys/software/qsys_webserver_bsp/\libucosii_bsp.a(parseip.o)
 .debug_frame   0x000067b8       0x2c F:/Qsys/qsys_webserver/qsys/software/qsys_webserver_bsp/\libucosii_bsp.a(tcpcksum.o)
 .debug_frame   0x000067e4       0x48 F:/Qsys/qsys_webserver/qsys/software/qsys_webserver_bsp/\libucosii_bsp.a(udp_open.o)
 .debug_frame   0x0000682c       0xf0 F:/Qsys/qsys_webserver/qsys/software/qsys_webserver_bsp/\libucosii_bsp.a(in_pcb.o)
 .debug_frame   0x0000691c      0x320 F:/Qsys/qsys_webserver/qsys/software/qsys_webserver_bsp/\libucosii_bsp.a(vfsfiles.o)
 .debug_frame   0x00006c3c       0x2c F:/Qsys/qsys_webserver/qsys/software/qsys_webserver_bsp/\libucosii_bsp.a(vfsport.o)
 .debug_frame   0x00006c68       0x48 F:/Qsys/qsys_webserver/qsys/software/qsys_webserver_bsp/\libucosii_bsp.a(alt_fcntl.o)
 .debug_frame   0x00006cb0       0x2c F:/Qsys/qsys_webserver/qsys/software/qsys_webserver_bsp/\libucosii_bsp.a(alt_usleep.o)
 .debug_frame   0x00006cdc       0x84 F:/Qsys/qsys_webserver/qsys/software/qsys_webserver_bsp/\libucosii_bsp.a(icmp.o)
 .debug_frame   0x00006d60       0x2c F:/Qsys/qsys_webserver/qsys/software/qsys_webserver_bsp/\libucosii_bsp.a(alt_busy_sleep.o)
 .debug_frame   0x00006d8c       0x20 d:/eda/quartus13/nios2eds/bin/gnu/h-i686-mingw32/bin/../lib/gcc/nios2-elf/4.7.3/../../../../../H-i686-mingw32/nios2-elf/lib\libc.a(lib_a-atexit.o)
 .debug_frame   0x00006dac       0x20 d:/eda/quartus13/nios2eds/bin/gnu/h-i686-mingw32/bin/../lib/gcc/nios2-elf/4.7.3/../../../../../H-i686-mingw32/nios2-elf/lib\libc.a(lib_a-calloc.o)
 .debug_frame   0x00006dcc       0x28 d:/eda/quartus13/nios2eds/bin/gnu/h-i686-mingw32/bin/../lib/gcc/nios2-elf/4.7.3/../../../../../H-i686-mingw32/nios2-elf/lib\libc.a(lib_a-exit.o)
 .debug_frame   0x00006df4       0x30 d:/eda/quartus13/nios2eds/bin/gnu/h-i686-mingw32/bin/../lib/gcc/nios2-elf/4.7.3/../../../../../H-i686-mingw32/nios2-elf/lib\libc.a(lib_a-malloc.o)
 .debug_frame   0x00006e24       0x30 d:/eda/quartus13/nios2eds/bin/gnu/h-i686-mingw32/bin/../lib/gcc/nios2-elf/4.7.3/../../../../../H-i686-mingw32/nios2-elf/lib\libc.a(lib_a-vprintf.o)
 .debug_frame   0x00006e54       0x38 d:/eda/quartus13/nios2eds/bin/gnu/h-i686-mingw32/bin/../lib/gcc/nios2-elf/4.7.3/../../../../../H-i686-mingw32/nios2-elf/lib\libc.a(lib_a-vsprintf.o)
 .debug_frame   0x00006e8c       0x2c d:/eda/quartus13/nios2eds/bin/gnu/h-i686-mingw32/bin/../lib/gcc/nios2-elf/4.7.3/../../../../../H-i686-mingw32/nios2-elf/lib\libc.a(lib_a-__atexit.o)
 .debug_frame   0x00006eb8       0x38 d:/eda/quartus13/nios2eds/bin/gnu/h-i686-mingw32/bin/../lib/gcc/nios2-elf/4.7.3/../../../../../H-i686-mingw32/nios2-elf/lib\libc.a(lib_a-__call_atexit.o)
 .debug_frame   0x00006ef0       0x2c F:/Qsys/qsys_webserver/qsys/software/qsys_webserver_bsp/\libucosii_bsp.a(alt_exit.o)

.debug_str      0x00000000     0xc25b
 *(.debug_str)
 .debug_str     0x00000000      0x45d obj/default/alt_error_handler.o
                                0x530 (size before relaxing)
 .debug_str     0x0000045d      0x5e4 obj/default/http.o
                                0xb80 (size before relaxing)
 .debug_str     0x00000a41      0x617 obj/default/network_utilities.o
                                0xb89 (size before relaxing)
 .debug_str     0x00001058      0x149 obj/default/srec_flash.o
                                0x43a (size before relaxing)
 .debug_str     0x000011a1       0xdd obj/default/web_server.o
                                0x2e2 (size before relaxing)
 .debug_str     0x0000127e       0xe6 d:/eda/quartus13/nios2eds/bin/gnu/h-i686-mingw32/bin/../lib/gcc/nios2-elf/4.7.3/../../../../../H-i686-mingw32/nios2-elf/lib\libc.a(lib_a-atoi.o)
                                0x519 (size before relaxing)
 .debug_str     0x00001364       0xd9 d:/eda/quartus13/nios2eds/bin/gnu/h-i686-mingw32/bin/../lib/gcc/nios2-elf/4.7.3/../../../../../H-i686-mingw32/nios2-elf/lib\libc.a(lib_a-ctype_.o)
                                 0xff (size before relaxing)
 .debug_str     0x0000143d      0x117 d:/eda/quartus13/nios2eds/bin/gnu/h-i686-mingw32/bin/../lib/gcc/nios2-elf/4.7.3/../../../../../H-i686-mingw32/nios2-elf/lib\libc.a(lib_a-fclose.o)
                                0x562 (size before relaxing)
 .debug_str     0x00001554       0x54 d:/eda/quartus13/nios2eds/bin/gnu/h-i686-mingw32/bin/../lib/gcc/nios2-elf/4.7.3/../../../../../H-i686-mingw32/nios2-elf/lib\libc.a(lib_a-fflush.o)
                                0x553 (size before relaxing)
 .debug_str     0x000015a8       0x57 d:/eda/quartus13/nios2eds/bin/gnu/h-i686-mingw32/bin/../lib/gcc/nios2-elf/4.7.3/../../../../../H-i686-mingw32/nios2-elf/lib\libc.a(lib_a-fgetpos.o)
                                0x529 (size before relaxing)
 .debug_str     0x000015ff       0xdf d:/eda/quartus13/nios2eds/bin/gnu/h-i686-mingw32/bin/../lib/gcc/nios2-elf/4.7.3/../../../../../H-i686-mingw32/nios2-elf/lib\libc.a(lib_a-findfp.o)
                                0x61f (size before relaxing)
 .debug_str     0x000016de       0x63 d:/eda/quartus13/nios2eds/bin/gnu/h-i686-mingw32/bin/../lib/gcc/nios2-elf/4.7.3/../../../../../H-i686-mingw32/nios2-elf/lib\libc.a(lib_a-fopen.o)
                                0x577 (size before relaxing)
 .debug_str     0x00001741       0x83 d:/eda/quartus13/nios2eds/bin/gnu/h-i686-mingw32/bin/../lib/gcc/nios2-elf/4.7.3/../../../../../H-i686-mingw32/nios2-elf/lib\libc.a(lib_a-fprintf.o)
                                0x551 (size before relaxing)
 .debug_str     0x000017c4       0x77 d:/eda/quartus13/nios2eds/bin/gnu/h-i686-mingw32/bin/../lib/gcc/nios2-elf/4.7.3/../../../../../H-i686-mingw32/nios2-elf/lib\libc.a(lib_a-fread.o)
                                0x57d (size before relaxing)
 .debug_str     0x0000183b      0x183 d:/eda/quartus13/nios2eds/bin/gnu/h-i686-mingw32/bin/../lib/gcc/nios2-elf/4.7.3/../../../../../H-i686-mingw32/nios2-elf/lib\libc.a(lib_a-freer.o)
                                0x67f (size before relaxing)
 .debug_str     0x000019be      0x132 d:/eda/quartus13/nios2eds/bin/gnu/h-i686-mingw32/bin/../lib/gcc/nios2-elf/4.7.3/../../../../../H-i686-mingw32/nios2-elf/lib\libc.a(lib_a-fseek.o)
                                0x67a (size before relaxing)
 .debug_str     0x00001af0       0xc8 d:/eda/quartus13/nios2eds/bin/gnu/h-i686-mingw32/bin/../lib/gcc/nios2-elf/4.7.3/../../../../../H-i686-mingw32/nios2-elf/lib\libc.a(lib_a-fstatr.o)
                                0x603 (size before relaxing)
 .debug_str     0x00001bb8       0x39 d:/eda/quartus13/nios2eds/bin/gnu/h-i686-mingw32/bin/../lib/gcc/nios2-elf/4.7.3/../../../../../H-i686-mingw32/nios2-elf/lib\libc.a(lib_a-ftell.o)
                                0x52c (size before relaxing)
 .debug_str     0x00001bf1       0x5e d:/eda/quartus13/nios2eds/bin/gnu/h-i686-mingw32/bin/../lib/gcc/nios2-elf/4.7.3/../../../../../H-i686-mingw32/nios2-elf/lib\libc.a(lib_a-fwalk.o)
                                0x567 (size before relaxing)
 .debug_str     0x00001c4f       0x8d d:/eda/quartus13/nios2eds/bin/gnu/h-i686-mingw32/bin/../lib/gcc/nios2-elf/4.7.3/../../../../../H-i686-mingw32/nios2-elf/lib\libc.a(lib_a-fwrite.o)
                                0x580 (size before relaxing)
 .debug_str     0x00001cdc       0x4a d:/eda/quartus13/nios2eds/bin/gnu/h-i686-mingw32/bin/../lib/gcc/nios2-elf/4.7.3/../../../../../H-i686-mingw32/nios2-elf/lib\libc.a(lib_a-getc.o)
                                0x530 (size before relaxing)
 .debug_str     0x00001d26       0x46 d:/eda/quartus13/nios2eds/bin/gnu/h-i686-mingw32/bin/../lib/gcc/nios2-elf/4.7.3/../../../../../H-i686-mingw32/nios2-elf/lib\libc.a(lib_a-impure.o)
                                0x526 (size before relaxing)
 .debug_str     0x00001d6c       0x3d d:/eda/quartus13/nios2eds/bin/gnu/h-i686-mingw32/bin/../lib/gcc/nios2-elf/4.7.3/../../../../../H-i686-mingw32/nios2-elf/lib\libc.a(lib_a-int_errno.o)
                                0x16f (size before relaxing)
 .debug_str     0x00001da9       0x50 d:/eda/quartus13/nios2eds/bin/gnu/h-i686-mingw32/bin/../lib/gcc/nios2-elf/4.7.3/../../../../../H-i686-mingw32/nios2-elf/lib\libc.a(lib_a-makebuf.o)
                                0x62f (size before relaxing)
 .debug_str     0x00001df9       0xd9 d:/eda/quartus13/nios2eds/bin/gnu/h-i686-mingw32/bin/../lib/gcc/nios2-elf/4.7.3/../../../../../H-i686-mingw32/nios2-elf/lib\libc.a(lib_a-mallocr.o)
                                0x735 (size before relaxing)
 .debug_str     0x00001ed2       0xf1 d:/eda/quartus13/nios2eds/bin/gnu/h-i686-mingw32/bin/../lib/gcc/nios2-elf/4.7.3/../../../../../H-i686-mingw32/nios2-elf/lib\libc.a(lib_a-memcpy.o)
                                0x126 (size before relaxing)
 .debug_str     0x00001fc3       0x56 d:/eda/quartus13/nios2eds/bin/gnu/h-i686-mingw32/bin/../lib/gcc/nios2-elf/4.7.3/../../../../../H-i686-mingw32/nios2-elf/lib\libc.a(lib_a-memmove.o)
                                0x1a9 (size before relaxing)
 .debug_str     0x00002019       0x48 d:/eda/quartus13/nios2eds/bin/gnu/h-i686-mingw32/bin/../lib/gcc/nios2-elf/4.7.3/../../../../../H-i686-mingw32/nios2-elf/lib\libc.a(lib_a-memset.o)
                                0x18a (size before relaxing)
 .debug_str     0x00002061       0x39 d:/eda/quartus13/nios2eds/bin/gnu/h-i686-mingw32/bin/../lib/gcc/nios2-elf/4.7.3/../../../../../H-i686-mingw32/nios2-elf/lib\libc.a(lib_a-openr.o)
                                0x51d (size before relaxing)
 .debug_str     0x0000209a       0x57 d:/eda/quartus13/nios2eds/bin/gnu/h-i686-mingw32/bin/../lib/gcc/nios2-elf/4.7.3/../../../../../H-i686-mingw32/nios2-elf/lib\libc.a(lib_a-perror.o)
                                0x538 (size before relaxing)
 .debug_str     0x000020f1       0x5b d:/eda/quartus13/nios2eds/bin/gnu/h-i686-mingw32/bin/../lib/gcc/nios2-elf/4.7.3/../../../../../H-i686-mingw32/nios2-elf/lib\libc.a(lib_a-printf.o)
                                0x571 (size before relaxing)
 .debug_str     0x0000214c       0x4a d:/eda/quartus13/nios2eds/bin/gnu/h-i686-mingw32/bin/../lib/gcc/nios2-elf/4.7.3/../../../../../H-i686-mingw32/nios2-elf/lib\libc.a(lib_a-putc.o)
                                0x530 (size before relaxing)
 .debug_str     0x00002196       0x4e d:/eda/quartus13/nios2eds/bin/gnu/h-i686-mingw32/bin/../lib/gcc/nios2-elf/4.7.3/../../../../../H-i686-mingw32/nios2-elf/lib\libc.a(lib_a-putchar.o)
                                0x528 (size before relaxing)
 .debug_str     0x000021e4       0x47 d:/eda/quartus13/nios2eds/bin/gnu/h-i686-mingw32/bin/../lib/gcc/nios2-elf/4.7.3/../../../../../H-i686-mingw32/nios2-elf/lib\libc.a(lib_a-puts.o)
                                0x56e (size before relaxing)
 .debug_str     0x0000222b       0x41 d:/eda/quartus13/nios2eds/bin/gnu/h-i686-mingw32/bin/../lib/gcc/nios2-elf/4.7.3/../../../../../H-i686-mingw32/nios2-elf/lib\libc.a(lib_a-refill.o)
                                0x55b (size before relaxing)
 .debug_str     0x0000226c       0x40 d:/eda/quartus13/nios2eds/bin/gnu/h-i686-mingw32/bin/../lib/gcc/nios2-elf/4.7.3/../../../../../H-i686-mingw32/nios2-elf/lib\libc.a(lib_a-rget.o)
                                0x528 (size before relaxing)
 .debug_str     0x000022ac       0x43 d:/eda/quartus13/nios2eds/bin/gnu/h-i686-mingw32/bin/../lib/gcc/nios2-elf/4.7.3/../../../../../H-i686-mingw32/nios2-elf/lib\libc.a(lib_a-sbrkr.o)
                                0x51c (size before relaxing)
 .debug_str     0x000022ef       0x46 d:/eda/quartus13/nios2eds/bin/gnu/h-i686-mingw32/bin/../lib/gcc/nios2-elf/4.7.3/../../../../../H-i686-mingw32/nios2-elf/lib\libc.a(lib_a-sprintf.o)
                                0x560 (size before relaxing)
 .debug_str     0x00002335       0x60 d:/eda/quartus13/nios2eds/bin/gnu/h-i686-mingw32/bin/../lib/gcc/nios2-elf/4.7.3/../../../../../H-i686-mingw32/nios2-elf/lib\libc.a(lib_a-sscanf.o)
                                0x570 (size before relaxing)
 .debug_str     0x00002395       0x87 d:/eda/quartus13/nios2eds/bin/gnu/h-i686-mingw32/bin/../lib/gcc/nios2-elf/4.7.3/../../../../../H-i686-mingw32/nios2-elf/lib\libc.a(lib_a-stdio.o)
                                0x570 (size before relaxing)
 .debug_str     0x0000241c       0x4a d:/eda/quartus13/nios2eds/bin/gnu/h-i686-mingw32/bin/../lib/gcc/nios2-elf/4.7.3/../../../../../H-i686-mingw32/nios2-elf/lib\libc.a(lib_a-strcasecmp.o)
                                0x183 (size before relaxing)
 .debug_str     0x00002466       0x54 d:/eda/quartus13/nios2eds/bin/gnu/h-i686-mingw32/bin/../lib/gcc/nios2-elf/4.7.3/../../../../../H-i686-mingw32/nios2-elf/lib\libc.a(lib_a-strcat.o)
                                0x181 (size before relaxing)
 .debug_str     0x000024ba       0x42 d:/eda/quartus13/nios2eds/bin/gnu/h-i686-mingw32/bin/../lib/gcc/nios2-elf/4.7.3/../../../../../H-i686-mingw32/nios2-elf/lib\libc.a(lib_a-strchr.o)
                                0x181 (size before relaxing)
 .debug_str     0x000024fc       0x42 d:/eda/quartus13/nios2eds/bin/gnu/h-i686-mingw32/bin/../lib/gcc/nios2-elf/4.7.3/../../../../../H-i686-mingw32/nios2-elf/lib\libc.a(lib_a-strcmp.o)
                                0x16f (size before relaxing)
 .debug_str     0x0000253e       0x3b d:/eda/quartus13/nios2eds/bin/gnu/h-i686-mingw32/bin/../lib/gcc/nios2-elf/4.7.3/../../../../../H-i686-mingw32/nios2-elf/lib\libc.a(lib_a-strcpy.o)
                                0x191 (size before relaxing)
 .debug_str     0x00002579       0x53 d:/eda/quartus13/nios2eds/bin/gnu/h-i686-mingw32/bin/../lib/gcc/nios2-elf/4.7.3/../../../../../H-i686-mingw32/nios2-elf/lib\libc.a(lib_a-strerror.o)
                                0x18f (size before relaxing)
 .debug_str     0x000025cc       0x3b d:/eda/quartus13/nios2eds/bin/gnu/h-i686-mingw32/bin/../lib/gcc/nios2-elf/4.7.3/../../../../../H-i686-mingw32/nios2-elf/lib\libc.a(lib_a-strlen.o)
                                0x189 (size before relaxing)
 .debug_str     0x00002607       0x44 d:/eda/quartus13/nios2eds/bin/gnu/h-i686-mingw32/bin/../lib/gcc/nios2-elf/4.7.3/../../../../../H-i686-mingw32/nios2-elf/lib\libc.a(lib_a-strncmp.o)
                                0x178 (size before relaxing)
 .debug_str     0x0000264b       0x44 d:/eda/quartus13/nios2eds/bin/gnu/h-i686-mingw32/bin/../lib/gcc/nios2-elf/4.7.3/../../../../../H-i686-mingw32/nios2-elf/lib\libc.a(lib_a-strncpy.o)
                                0x1a0 (size before relaxing)
 .debug_str     0x0000268f       0xef d:/eda/quartus13/nios2eds/bin/gnu/h-i686-mingw32/bin/../lib/gcc/nios2-elf/4.7.3/../../../../../H-i686-mingw32/nios2-elf/lib\libc.a(lib_a-strstr.o)
                                0x245 (size before relaxing)
 .debug_str     0x0000277e       0x4d d:/eda/quartus13/nios2eds/bin/gnu/h-i686-mingw32/bin/../lib/gcc/nios2-elf/4.7.3/../../../../../H-i686-mingw32/nios2-elf/lib\libc.a(lib_a-strtok.o)
                                0x521 (size before relaxing)
 .debug_str     0x000027cb       0x61 d:/eda/quartus13/nios2eds/bin/gnu/h-i686-mingw32/bin/../lib/gcc/nios2-elf/4.7.3/../../../../../H-i686-mingw32/nios2-elf/lib\libc.a(lib_a-strtok_r.o)
                                0x1a8 (size before relaxing)
 .debug_str     0x0000282c       0x50 d:/eda/quartus13/nios2eds/bin/gnu/h-i686-mingw32/bin/../lib/gcc/nios2-elf/4.7.3/../../../../../H-i686-mingw32/nios2-elf/lib\libc.a(lib_a-strtol.o)
                                0x54a (size before relaxing)
 .debug_str     0x0000287c       0x3d d:/eda/quartus13/nios2eds/bin/gnu/h-i686-mingw32/bin/../lib/gcc/nios2-elf/4.7.3/../../../../../H-i686-mingw32/nios2-elf/lib\libc.a(lib_a-u_strerr.o)
                                 0xf3 (size before relaxing)
 .debug_str     0x000028b9      0x257 d:/eda/quartus13/nios2eds/bin/gnu/h-i686-mingw32/bin/../lib/gcc/nios2-elf/4.7.3/../../../../../H-i686-mingw32/nios2-elf/lib\libc.a(lib_a-vfprintf.o)
                                0x888 (size before relaxing)
 .debug_str     0x00002b10      0x182 d:/eda/quartus13/nios2eds/bin/gnu/h-i686-mingw32/bin/../lib/gcc/nios2-elf/4.7.3/../../../../../H-i686-mingw32/nios2-elf/lib\libc.a(lib_a-vfscanf.o)
                                0x740 (size before relaxing)
 .debug_str     0x00002c92       0x40 d:/eda/quartus13/nios2eds/bin/gnu/h-i686-mingw32/bin/../lib/gcc/nios2-elf/4.7.3/../../../../../H-i686-mingw32/nios2-elf/lib\libc.a(lib_a-wbuf.o)
                                0x53a (size before relaxing)
 .debug_str     0x00002cd2       0x3a d:/eda/quartus13/nios2eds/bin/gnu/h-i686-mingw32/bin/../lib/gcc/nios2-elf/4.7.3/../../../../../H-i686-mingw32/nios2-elf/lib\libc.a(lib_a-writer.o)
                                0x520 (size before relaxing)
 .debug_str     0x00002d0c       0x3a d:/eda/quartus13/nios2eds/bin/gnu/h-i686-mingw32/bin/../lib/gcc/nios2-elf/4.7.3/../../../../../H-i686-mingw32/nios2-elf/lib\libc.a(lib_a-wsetup.o)
                                0x535 (size before relaxing)
 .debug_str     0x00002d46       0x3a d:/eda/quartus13/nios2eds/bin/gnu/h-i686-mingw32/bin/../lib/gcc/nios2-elf/4.7.3/../../../../../H-i686-mingw32/nios2-elf/lib\libc.a(lib_a-closer.o)
                                0x510 (size before relaxing)
 .debug_str     0x00002d80      0x151 d:/eda/quartus13/nios2eds/bin/gnu/h-i686-mingw32/bin/../lib/gcc/nios2-elf/4.7.3/../../../../../H-i686-mingw32/nios2-elf/lib\libc.a(lib_a-dtoa.o)
                                0x678 (size before relaxing)
 .debug_str     0x00002ed1       0x39 d:/eda/quartus13/nios2eds/bin/gnu/h-i686-mingw32/bin/../lib/gcc/nios2-elf/4.7.3/../../../../../H-i686-mingw32/nios2-elf/lib\libc.a(lib_a-flags.o)
                                0x50d (size before relaxing)
 .debug_str     0x00002f0a       0x42 d:/eda/quartus13/nios2eds/bin/gnu/h-i686-mingw32/bin/../lib/gcc/nios2-elf/4.7.3/../../../../../H-i686-mingw32/nios2-elf/lib\libc.a(lib_a-fputc.o)
                                0x536 (size before relaxing)
 .debug_str     0x00002f4c       0x42 d:/eda/quartus13/nios2eds/bin/gnu/h-i686-mingw32/bin/../lib/gcc/nios2-elf/4.7.3/../../../../../H-i686-mingw32/nios2-elf/lib\libc.a(lib_a-fputs.o)
                                0x580 (size before relaxing)
 .debug_str     0x00002f8e       0x64 d:/eda/quartus13/nios2eds/bin/gnu/h-i686-mingw32/bin/../lib/gcc/nios2-elf/4.7.3/../../../../../H-i686-mingw32/nios2-elf/lib\libc.a(lib_a-fvwrite.o)
                                0x5b8 (size before relaxing)
 .debug_str     0x00002ff2       0x42 d:/eda/quartus13/nios2eds/bin/gnu/h-i686-mingw32/bin/../lib/gcc/nios2-elf/4.7.3/../../../../../H-i686-mingw32/nios2-elf/lib\libc.a(lib_a-isattyr.o)
                                0x513 (size before relaxing)
 .debug_str     0x00003034       0x4f d:/eda/quartus13/nios2eds/bin/gnu/h-i686-mingw32/bin/../lib/gcc/nios2-elf/4.7.3/../../../../../H-i686-mingw32/nios2-elf/lib\libc.a(lib_a-iswspace.o)
                                0x197 (size before relaxing)
 .debug_str     0x00003083      0x12d d:/eda/quartus13/nios2eds/bin/gnu/h-i686-mingw32/bin/../lib/gcc/nios2-elf/4.7.3/../../../../../H-i686-mingw32/nios2-elf/lib\libc.a(lib_a-locale.o)
                                0x6bc (size before relaxing)
 .debug_str     0x000031b0       0x40 d:/eda/quartus13/nios2eds/bin/gnu/h-i686-mingw32/bin/../lib/gcc/nios2-elf/4.7.3/../../../../../H-i686-mingw32/nios2-elf/lib\libc.a(lib_a-lseekr.o)
                                0x524 (size before relaxing)
 .debug_str     0x000031f0       0x55 d:/eda/quartus13/nios2eds/bin/gnu/h-i686-mingw32/bin/../lib/gcc/nios2-elf/4.7.3/../../../../../H-i686-mingw32/nios2-elf/lib\libc.a(lib_a-mbrtowc.o)
                                0x547 (size before relaxing)
 .debug_str     0x00003245       0x43 d:/eda/quartus13/nios2eds/bin/gnu/h-i686-mingw32/bin/../lib/gcc/nios2-elf/4.7.3/../../../../../H-i686-mingw32/nios2-elf/lib\libc.a(lib_a-mbtowc_r.o)
                                0x52e (size before relaxing)
 .debug_str     0x00003288       0x40 d:/eda/quartus13/nios2eds/bin/gnu/h-i686-mingw32/bin/../lib/gcc/nios2-elf/4.7.3/../../../../../H-i686-mingw32/nios2-elf/lib\libc.a(lib_a-memchr.o)
                                0x197 (size before relaxing)
 .debug_str     0x000032c8       0x3b d:/eda/quartus13/nios2eds/bin/gnu/h-i686-mingw32/bin/../lib/gcc/nios2-elf/4.7.3/../../../../../H-i686-mingw32/nios2-elf/lib\libc.a(lib_a-memcmp.o)
                                0x176 (size before relaxing)
 .debug_str     0x00003303       0xa5 d:/eda/quartus13/nios2eds/bin/gnu/h-i686-mingw32/bin/../lib/gcc/nios2-elf/4.7.3/../../../../../H-i686-mingw32/nios2-elf/lib\libc.a(lib_a-mprec.o)
                                0x632 (size before relaxing)
 .debug_str     0x000033a8       0x39 d:/eda/quartus13/nios2eds/bin/gnu/h-i686-mingw32/bin/../lib/gcc/nios2-elf/4.7.3/../../../../../H-i686-mingw32/nios2-elf/lib\libc.a(lib_a-readr.o)
                                0x51d (size before relaxing)
 .debug_str     0x000033e1       0x49 d:/eda/quartus13/nios2eds/bin/gnu/h-i686-mingw32/bin/../lib/gcc/nios2-elf/4.7.3/../../../../../H-i686-mingw32/nios2-elf/lib\libc.a(lib_a-reallocr.o)
                                0x607 (size before relaxing)
 .debug_str     0x0000342a       0xd6 d:/eda/quartus13/nios2eds/bin/gnu/h-i686-mingw32/bin/../lib/gcc/nios2-elf/4.7.3/../../../../../H-i686-mingw32/nios2-elf/lib\libc.a(lib_a-s_isinfd.o)
                                0x1a1 (size before relaxing)
 .debug_str     0x00003500       0x3d d:/eda/quartus13/nios2eds/bin/gnu/h-i686-mingw32/bin/../lib/gcc/nios2-elf/4.7.3/../../../../../H-i686-mingw32/nios2-elf/lib\libc.a(lib_a-s_isnand.o)
                                0x1a1 (size before relaxing)
 .debug_str     0x0000353d       0x48 d:/eda/quartus13/nios2eds/bin/gnu/h-i686-mingw32/bin/../lib/gcc/nios2-elf/4.7.3/../../../../../H-i686-mingw32/nios2-elf/lib\libc.a(lib_a-sccl.o)
                                0x17b (size before relaxing)
 .debug_str     0x00003585       0x3b d:/eda/quartus13/nios2eds/bin/gnu/h-i686-mingw32/bin/../lib/gcc/nios2-elf/4.7.3/../../../../../H-i686-mingw32/nios2-elf/lib\libc.a(lib_a-sf_nan.o)
                                0x18d (size before relaxing)
 .debug_str     0x000035c0      0x1b5 d:/eda/quartus13/nios2eds/bin/gnu/h-i686-mingw32/bin/../lib/gcc/nios2-elf/4.7.3/../../../../../H-i686-mingw32/nios2-elf/lib\libc.a(lib_a-strtod.o)
                                0x78a (size before relaxing)
 .debug_str     0x00003775       0x3e d:/eda/quartus13/nios2eds/bin/gnu/h-i686-mingw32/bin/../lib/gcc/nios2-elf/4.7.3/../../../../../H-i686-mingw32/nios2-elf/lib\libc.a(lib_a-strtoll_r.o)
                                0x53b (size before relaxing)
 .debug_str     0x000037b3       0x4f d:/eda/quartus13/nios2eds/bin/gnu/h-i686-mingw32/bin/../lib/gcc/nios2-elf/4.7.3/../../../../../H-i686-mingw32/nios2-elf/lib\libc.a(lib_a-strtoul.o)
                                0x54d (size before relaxing)
 .debug_str     0x00003802       0x3f d:/eda/quartus13/nios2eds/bin/gnu/h-i686-mingw32/bin/../lib/gcc/nios2-elf/4.7.3/../../../../../H-i686-mingw32/nios2-elf/lib\libc.a(lib_a-strtoull_r.o)
                                0x53d (size before relaxing)
 .debug_str     0x00003841       0x4b d:/eda/quartus13/nios2eds/bin/gnu/h-i686-mingw32/bin/../lib/gcc/nios2-elf/4.7.3/../../../../../H-i686-mingw32/nios2-elf/lib\libc.a(lib_a-ungetc.o)
                                0x561 (size before relaxing)
 .debug_str     0x0000388c        0xf d:/eda/quartus13/nios2eds/bin/gnu/h-i686-mingw32/bin/../lib/gcc/nios2-elf/4.7.3/../../../../../H-i686-mingw32/nios2-elf/lib\libc.a(lib_a-callocr.o)
                                0x55f (size before relaxing)
 .debug_str     0x0000389b       0xcf d:/eda/quartus13/nios2eds/bin/gnu/h-i686-mingw32/bin/../lib/gcc/nios2-elf/4.7.3/../../../../../H-i686-mingw32/nios2-elf/lib\libc.a(lib_a-gdtoa-gethex.o)
                                0x705 (size before relaxing)
 .debug_str     0x0000396a       0x49 d:/eda/quartus13/nios2eds/bin/gnu/h-i686-mingw32/bin/../lib/gcc/nios2-elf/4.7.3/../../../../../H-i686-mingw32/nios2-elf/lib\libc.a(lib_a-gdtoa-hexnan.o)
                                0x2b3 (size before relaxing)
 .debug_str     0x000039b3      0x112 d:/eda/quartus13/nios2eds/bin/gnu/h-i686-mingw32/bin/../lib/gcc/nios2-elf/4.7.3\libgcc.a(_muldi3.o)
                                0x1a2 (size before relaxing)
 .debug_str     0x00003ac5       0x14 d:/eda/quartus13/nios2eds/bin/gnu/h-i686-mingw32/bin/../lib/gcc/nios2-elf/4.7.3\libgcc.a(_fixunsdfsi.o)
                                0x168 (size before relaxing)
 .debug_str     0x00003ad9       0x54 d:/eda/quartus13/nios2eds/bin/gnu/h-i686-mingw32/bin/../lib/gcc/nios2-elf/4.7.3\libgcc.a(_udivdi3.o)
                                0x1f6 (size before relaxing)
 .debug_str     0x00003b2d        0xa d:/eda/quartus13/nios2eds/bin/gnu/h-i686-mingw32/bin/../lib/gcc/nios2-elf/4.7.3\libgcc.a(_umoddi3.o)
                                0x1f6 (size before relaxing)
 .debug_str     0x00003b37      0x10c d:/eda/quartus13/nios2eds/bin/gnu/h-i686-mingw32/bin/../lib/gcc/nios2-elf/4.7.3\libgcc.a(_eq_sf.o)
                                0x232 (size before relaxing)
 .debug_str     0x00003c43        0x8 d:/eda/quartus13/nios2eds/bin/gnu/h-i686-mingw32/bin/../lib/gcc/nios2-elf/4.7.3\libgcc.a(_gt_sf.o)
                                0x232 (size before relaxing)
 .debug_str     0x00003c4b        0x8 d:/eda/quartus13/nios2eds/bin/gnu/h-i686-mingw32/bin/../lib/gcc/nios2-elf/4.7.3\libgcc.a(_lt_sf.o)
                                0x232 (size before relaxing)
 .debug_str     0x00003c53       0xa2 d:/eda/quartus13/nios2eds/bin/gnu/h-i686-mingw32/bin/../lib/gcc/nios2-elf/4.7.3\libgcc.a(_addsub_df.o)
                                0x2a9 (size before relaxing)
 .debug_str     0x00003cf5       0x40 d:/eda/quartus13/nios2eds/bin/gnu/h-i686-mingw32/bin/../lib/gcc/nios2-elf/4.7.3\libgcc.a(_mul_df.o)
                                0x27b (size before relaxing)
 .debug_str     0x00003d35       0x35 d:/eda/quartus13/nios2eds/bin/gnu/h-i686-mingw32/bin/../lib/gcc/nios2-elf/4.7.3\libgcc.a(_div_df.o)
                                0x26b (size before relaxing)
 .debug_str     0x00003d6a       0x18 d:/eda/quartus13/nios2eds/bin/gnu/h-i686-mingw32/bin/../lib/gcc/nios2-elf/4.7.3\libgcc.a(_eq_df.o)
                                0x238 (size before relaxing)
 .debug_str     0x00003d82        0x8 d:/eda/quartus13/nios2eds/bin/gnu/h-i686-mingw32/bin/../lib/gcc/nios2-elf/4.7.3\libgcc.a(_ne_df.o)
                                0x238 (size before relaxing)
 .debug_str     0x00003d8a        0x8 d:/eda/quartus13/nios2eds/bin/gnu/h-i686-mingw32/bin/../lib/gcc/nios2-elf/4.7.3\libgcc.a(_gt_df.o)
                                0x238 (size before relaxing)
 .debug_str     0x00003d92        0x8 d:/eda/quartus13/nios2eds/bin/gnu/h-i686-mingw32/bin/../lib/gcc/nios2-elf/4.7.3\libgcc.a(_ge_df.o)
                                0x238 (size before relaxing)
 .debug_str     0x00003d9a        0x8 d:/eda/quartus13/nios2eds/bin/gnu/h-i686-mingw32/bin/../lib/gcc/nios2-elf/4.7.3\libgcc.a(_lt_df.o)
                                0x238 (size before relaxing)
 .debug_str     0x00003da2        0x8 d:/eda/quartus13/nios2eds/bin/gnu/h-i686-mingw32/bin/../lib/gcc/nios2-elf/4.7.3\libgcc.a(_le_df.o)
                                0x238 (size before relaxing)
 .debug_str     0x00003daa       0x21 d:/eda/quartus13/nios2eds/bin/gnu/h-i686-mingw32/bin/../lib/gcc/nios2-elf/4.7.3\libgcc.a(_si_to_df.o)
                                0x20e (size before relaxing)
 .debug_str     0x00003dcb        0xa d:/eda/quartus13/nios2eds/bin/gnu/h-i686-mingw32/bin/../lib/gcc/nios2-elf/4.7.3\libgcc.a(_df_to_si.o)
                                0x230 (size before relaxing)
 .debug_str     0x00003dd5       0x1e d:/eda/quartus13/nios2eds/bin/gnu/h-i686-mingw32/bin/../lib/gcc/nios2-elf/4.7.3\libgcc.a(_df_to_sf.o)
                                0x231 (size before relaxing)
 .debug_str     0x00000000      0x1c1 d:/eda/quartus13/nios2eds/bin/gnu/h-i686-mingw32/bin/../lib/gcc/nios2-elf/4.7.3\libgcc.a(_thenan_df.o)
 .debug_str     0x00003df3       0x14 d:/eda/quartus13/nios2eds/bin/gnu/h-i686-mingw32/bin/../lib/gcc/nios2-elf/4.7.3\libgcc.a(_usi_to_df.o)
                                0x20a (size before relaxing)
 .debug_str     0x00003e07       0x7c d:/eda/quartus13/nios2eds/bin/gnu/h-i686-mingw32/bin/../lib/gcc/nios2-elf/4.7.3\libgcc.a(lib2-divmod.o)
                                0x15b (size before relaxing)
 .debug_str     0x00000000      0x160 d:/eda/quartus13/nios2eds/bin/gnu/h-i686-mingw32/bin/../lib/gcc/nios2-elf/4.7.3\libgcc.a(_clz.o)
 .debug_str     0x00000000      0x17d d:/eda/quartus13/nios2eds/bin/gnu/h-i686-mingw32/bin/../lib/gcc/nios2-elf/4.7.3\libgcc.a(_clzsi2.o)
 .debug_str     0x00000000      0x200 d:/eda/quartus13/nios2eds/bin/gnu/h-i686-mingw32/bin/../lib/gcc/nios2-elf/4.7.3\libgcc.a(_unpack_sf.o)
 .debug_str     0x00000000      0x1e4 d:/eda/quartus13/nios2eds/bin/gnu/h-i686-mingw32/bin/../lib/gcc/nios2-elf/4.7.3\libgcc.a(_fpcmp_parts_sf.o)
 .debug_str     0x00003e83        0x9 d:/eda/quartus13/nios2eds/bin/gnu/h-i686-mingw32/bin/../lib/gcc/nios2-elf/4.7.3\libgcc.a(_make_sf.o)
                                0x1e9 (size before relaxing)
 .debug_str     0x00003e8c        0x7 d:/eda/quartus13/nios2eds/bin/gnu/h-i686-mingw32/bin/../lib/gcc/nios2-elf/4.7.3\libgcc.a(_pack_df.o)
                                0x224 (size before relaxing)
 .debug_str     0x00000000      0x206 d:/eda/quartus13/nios2eds/bin/gnu/h-i686-mingw32/bin/../lib/gcc/nios2-elf/4.7.3\libgcc.a(_unpack_df.o)
 .debug_str     0x00000000      0x1e4 d:/eda/quartus13/nios2eds/bin/gnu/h-i686-mingw32/bin/../lib/gcc/nios2-elf/4.7.3\libgcc.a(_fpcmp_parts_df.o)
 .debug_str     0x00003e93       0x23 d:/eda/quartus13/nios2eds/bin/gnu/h-i686-mingw32/bin/../lib/gcc/nios2-elf/4.7.3\libgcc.a(_lshrdi3.o)
                                0x194 (size before relaxing)
 .debug_str     0x00003eb6        0xa d:/eda/quartus13/nios2eds/bin/gnu/h-i686-mingw32/bin/../lib/gcc/nios2-elf/4.7.3\libgcc.a(_ashldi3.o)
                                0x194 (size before relaxing)
 .debug_str     0x00000000      0x21e d:/eda/quartus13/nios2eds/bin/gnu/h-i686-mingw32/bin/../lib/gcc/nios2-elf/4.7.3\libgcc.a(_pack_sf.o)
 .debug_str     0x00003ec0       0x64 F:/Qsys/qsys_webserver/qsys/software/qsys_webserver_bsp/\libucosii_bsp.a(alt_dcache_flush.o)
                                0x110 (size before relaxing)
 .debug_str     0x00003f24       0x4c F:/Qsys/qsys_webserver/qsys/software/qsys_webserver_bsp/\libucosii_bsp.a(alt_flash_dev.o)
                                0x2d4 (size before relaxing)
 .debug_str     0x00003f70       0x68 F:/Qsys/qsys_webserver/qsys/software/qsys_webserver_bsp/\libucosii_bsp.a(alt_fstat.o)
                                0x2d1 (size before relaxing)
 .debug_str     0x00003fd8       0x15 F:/Qsys/qsys_webserver/qsys/software/qsys_webserver_bsp/\libucosii_bsp.a(alt_isatty.o)
                                0x2d9 (size before relaxing)
 .debug_str     0x00003fed       0x14 F:/Qsys/qsys_webserver/qsys/software/qsys_webserver_bsp/\libucosii_bsp.a(alt_lseek.o)
                                0x1f6 (size before relaxing)
 .debug_str     0x00004001       0x6e F:/Qsys/qsys_webserver/qsys/software/qsys_webserver_bsp/\libucosii_bsp.a(alt_main.o)
                                0x215 (size before relaxing)
 .debug_str     0x0000406f       0x3b F:/Qsys/qsys_webserver/qsys/software/qsys_webserver_bsp/\libucosii_bsp.a(alt_open.o)
                                0x228 (size before relaxing)
 .debug_str     0x000040aa       0x28 F:/Qsys/qsys_webserver/qsys/software/qsys_webserver_bsp/\libucosii_bsp.a(alt_release_fd.o)
                                0x1da (size before relaxing)
 .debug_str     0x000040d2       0x98 F:/Qsys/qsys_webserver/qsys/software/qsys_webserver_bsp/\libucosii_bsp.a(alt_sbrk.o)
                                0x189 (size before relaxing)
 .debug_str     0x0000416a       0x78 F:/Qsys/qsys_webserver/qsys/software/qsys_webserver_bsp/\libucosii_bsp.a(alt_tick.o)
                                0x214 (size before relaxing)
 .debug_str     0x000041e2      0x246 F:/Qsys/qsys_webserver/qsys/software/qsys_webserver_bsp/\libucosii_bsp.a(alt_env_lock.o)
                                0x75c (size before relaxing)
 .debug_str     0x00004428       0x36 F:/Qsys/qsys_webserver/qsys/software/qsys_webserver_bsp/\libucosii_bsp.a(alt_malloc_lock.o)
                                0x7be (size before relaxing)
 .debug_str     0x0000445e      0x536 F:/Qsys/qsys_webserver/qsys/software/qsys_webserver_bsp/\libucosii_bsp.a(os_core.o)
                                0x90b (size before relaxing)
 .debug_str     0x00004994      0x2e5 F:/Qsys/qsys_webserver/qsys/software/qsys_webserver_bsp/\libucosii_bsp.a(os_dbg.o)
                                0x87a (size before relaxing)
 .debug_str     0x00004c79      0x136 F:/Qsys/qsys_webserver/qsys/software/qsys_webserver_bsp/\libucosii_bsp.a(os_flag.o)
                                0x5a7 (size before relaxing)
 .debug_str     0x00004daf       0xbd F:/Qsys/qsys_webserver/qsys/software/qsys_webserver_bsp/\libucosii_bsp.a(os_mbox.o)
                                0x4c8 (size before relaxing)
 .debug_str     0x00004e6c       0xcf F:/Qsys/qsys_webserver/qsys/software/qsys_webserver_bsp/\libucosii_bsp.a(os_mem.o)
                                0x2b0 (size before relaxing)
 .debug_str     0x00004f3b       0xa2 F:/Qsys/qsys_webserver/qsys/software/qsys_webserver_bsp/\libucosii_bsp.a(os_q.o)
                                0x52a (size before relaxing)
 .debug_str     0x00004fdd       0x77 F:/Qsys/qsys_webserver/qsys/software/qsys_webserver_bsp/\libucosii_bsp.a(os_sem.o)
                                0x4b3 (size before relaxing)
 .debug_str     0x00005054       0xfa F:/Qsys/qsys_webserver/qsys/software/qsys_webserver_bsp/\libucosii_bsp.a(os_task.o)
                                0x5b6 (size before relaxing)
 .debug_str     0x0000514e       0x5d F:/Qsys/qsys_webserver/qsys/software/qsys_webserver_bsp/\libucosii_bsp.a(os_time.o)
                                0x456 (size before relaxing)
 .debug_str     0x000051ab      0x409 F:/Qsys/qsys_webserver/qsys/software/qsys_webserver_bsp/\libucosii_bsp.a(alt_sys_init.o)
                                0xbfb (size before relaxing)
 .debug_str     0x000055b4      0x1db F:/Qsys/qsys_webserver/qsys/software/qsys_webserver_bsp/\libucosii_bsp.a(altera_avalon_epcs_flash_controller.o)
                                0x4fc (size before relaxing)
 .debug_str     0x0000578f       0xac F:/Qsys/qsys_webserver/qsys/software/qsys_webserver_bsp/\libucosii_bsp.a(altera_avalon_jtag_uart_fd.o)
                                0x449 (size before relaxing)
 .debug_str     0x0000583b       0xee F:/Qsys/qsys_webserver/qsys/software/qsys_webserver_bsp/\libucosii_bsp.a(altera_avalon_jtag_uart_init.o)
                                0x410 (size before relaxing)
 .debug_str     0x00005929       0x4a F:/Qsys/qsys_webserver/qsys/software/qsys_webserver_bsp/\libucosii_bsp.a(altera_avalon_jtag_uart_ioctl.o)
                                0x338 (size before relaxing)
 .debug_str     0x00005973       0x63 F:/Qsys/qsys_webserver/qsys/software/qsys_webserver_bsp/\libucosii_bsp.a(altera_avalon_jtag_uart_read.o)
                                0x3ab (size before relaxing)
 .debug_str     0x000059d6       0x4a F:/Qsys/qsys_webserver/qsys/software/qsys_webserver_bsp/\libucosii_bsp.a(altera_avalon_jtag_uart_write.o)
                                0x3ac (size before relaxing)
 .debug_str     0x00005a20      0x35a F:/Qsys/qsys_webserver/qsys/software/qsys_webserver_bsp/\libucosii_bsp.a(altera_avalon_sgdma.o)
                                0x645 (size before relaxing)
 .debug_str     0x00005d7a       0x66 F:/Qsys/qsys_webserver/qsys/software/qsys_webserver_bsp/\libucosii_bsp.a(altera_avalon_timer_sc.o)
                                0x200 (size before relaxing)
 .debug_str     0x00005de0      0x1ca F:/Qsys/qsys_webserver/qsys/software/qsys_webserver_bsp/\libucosii_bsp.a(altera_ro_zipfs.o)
                                0x674 (size before relaxing)
 .debug_str     0x00005faa      0x16a F:/Qsys/qsys_webserver/qsys/software/qsys_webserver_bsp/\libucosii_bsp.a(epcs_commands.o)
                                0x294 (size before relaxing)
 .debug_str     0x00006114     0x10f0 F:/Qsys/qsys_webserver/qsys/software/qsys_webserver_bsp/\libucosii_bsp.a(ins_tse_mac.o)
                               0x1922 (size before relaxing)
 .debug_str     0x00007204       0x1e F:/Qsys/qsys_webserver/qsys/software/qsys_webserver_bsp/\libucosii_bsp.a(alt_iniche_close.o)
                                0x12a (size before relaxing)
 .debug_str     0x00007222       0x48 F:/Qsys/qsys_webserver/qsys/software/qsys_webserver_bsp/\libucosii_bsp.a(alt_iniche_dev.o)
                                0x555 (size before relaxing)
 .debug_str     0x0000726a       0x1d F:/Qsys/qsys_webserver/qsys/software/qsys_webserver_bsp/\libucosii_bsp.a(alt_iniche_read.o)
                                0x12f (size before relaxing)
 .debug_str     0x00007287       0x1e F:/Qsys/qsys_webserver/qsys/software/qsys_webserver_bsp/\libucosii_bsp.a(alt_iniche_write.o)
                                0x131 (size before relaxing)
 .debug_str     0x000072a5       0x92 F:/Qsys/qsys_webserver/qsys/software/qsys_webserver_bsp/\libucosii_bsp.a(ipnet.o)
                                0x539 (size before relaxing)
 .debug_str     0x00007337       0x77 F:/Qsys/qsys_webserver/qsys/software/qsys_webserver_bsp/\libucosii_bsp.a(ipstart.o)
                                0x519 (size before relaxing)
 .debug_str     0x000073ae      0x580 F:/Qsys/qsys_webserver/qsys/software/qsys_webserver_bsp/\libucosii_bsp.a(igmp_cmn.o)
                                0xa4f (size before relaxing)
 .debug_str     0x0000792e      0x230 F:/Qsys/qsys_webserver/qsys/software/qsys_webserver_bsp/\libucosii_bsp.a(bsdsock.o)
                                0x7c4 (size before relaxing)
 .debug_str     0x00007b5e       0x2f F:/Qsys/qsys_webserver/qsys/software/qsys_webserver_bsp/\libucosii_bsp.a(cksum.o)
                                0x14c (size before relaxing)
 .debug_str     0x00007b8d      0x121 F:/Qsys/qsys_webserver/qsys/software/qsys_webserver_bsp/\libucosii_bsp.a(in_utils.o)
                                0x297 (size before relaxing)
 .debug_str     0x00007cae       0x81 F:/Qsys/qsys_webserver/qsys/software/qsys_webserver_bsp/\libucosii_bsp.a(netmain.o)
                                0x288 (size before relaxing)
 .debug_str     0x00007d2f      0x102 F:/Qsys/qsys_webserver/qsys/software/qsys_webserver_bsp/\libucosii_bsp.a(tk_crnos.o)
                                0x497 (size before relaxing)
 .debug_str     0x00007e31       0xcd F:/Qsys/qsys_webserver/qsys/software/qsys_webserver_bsp/\libucosii_bsp.a(pktalloc.o)
                                0x565 (size before relaxing)
 .debug_str     0x00007efe       0x2d F:/Qsys/qsys_webserver/qsys/software/qsys_webserver_bsp/\libucosii_bsp.a(q.o)
                                0x16c (size before relaxing)
 .debug_str     0x00007f2b       0xb2 F:/Qsys/qsys_webserver/qsys/software/qsys_webserver_bsp/\libucosii_bsp.a(brdutils.o)
                                0x5b3 (size before relaxing)
 .debug_str     0x00007fdd       0xca F:/Qsys/qsys_webserver/qsys/software/qsys_webserver_bsp/\libucosii_bsp.a(osportco.o)
                                0x31f (size before relaxing)
 .debug_str     0x000080a7       0xb2 F:/Qsys/qsys_webserver/qsys/software/qsys_webserver_bsp/\libucosii_bsp.a(targnios.o)
                                0x2cb (size before relaxing)
 .debug_str     0x00008159      0x862 F:/Qsys/qsys_webserver/qsys/software/qsys_webserver_bsp/\libucosii_bsp.a(nptcp.o)
                                0xf60 (size before relaxing)
 .debug_str     0x000089bb       0x92 F:/Qsys/qsys_webserver/qsys/software/qsys_webserver_bsp/\libucosii_bsp.a(rawsock.o)
                                0x783 (size before relaxing)
 .debug_str     0x00008a4d      0x115 F:/Qsys/qsys_webserver/qsys/software/qsys_webserver_bsp/\libucosii_bsp.a(sockcall.o)
                                0x968 (size before relaxing)
 .debug_str     0x00008b62      0x161 F:/Qsys/qsys_webserver/qsys/software/qsys_webserver_bsp/\libucosii_bsp.a(socket.o)
                                0x9a7 (size before relaxing)
 .debug_str     0x00008cc3      0x150 F:/Qsys/qsys_webserver/qsys/software/qsys_webserver_bsp/\libucosii_bsp.a(socket2.o)
                                0x7d1 (size before relaxing)
 .debug_str     0x00008e13       0x95 F:/Qsys/qsys_webserver/qsys/software/qsys_webserver_bsp/\libucosii_bsp.a(soselect.o)
                                0x75f (size before relaxing)
 .debug_str     0x00008ea8      0x143 F:/Qsys/qsys_webserver/qsys/software/qsys_webserver_bsp/\libucosii_bsp.a(tcp_in.o)
                                0xe40 (size before relaxing)
 .debug_str     0x00008feb       0x93 F:/Qsys/qsys_webserver/qsys/software/qsys_webserver_bsp/\libucosii_bsp.a(tcp_out.o)
                                0xd88 (size before relaxing)
 .debug_str     0x0000907e       0x8b F:/Qsys/qsys_webserver/qsys/software/qsys_webserver_bsp/\libucosii_bsp.a(tcp_subr.o)
                                0xd7b (size before relaxing)
 .debug_str     0x00009109       0x72 F:/Qsys/qsys_webserver/qsys/software/qsys_webserver_bsp/\libucosii_bsp.a(tcp_timr.o)
                                0xd54 (size before relaxing)
 .debug_str     0x0000917b       0x51 F:/Qsys/qsys_webserver/qsys/software/qsys_webserver_bsp/\libucosii_bsp.a(tcp_usr.o)
                                0xd1c (size before relaxing)
 .debug_str     0x000091cc       0x21 F:/Qsys/qsys_webserver/qsys/software/qsys_webserver_bsp/\libucosii_bsp.a(tcpport.o)
                                0x127 (size before relaxing)
 .debug_str     0x000091ed       0x99 F:/Qsys/qsys_webserver/qsys/software/qsys_webserver_bsp/\libucosii_bsp.a(udpsock.o)
                                0x7a8 (size before relaxing)
 .debug_str     0x00009286       0x39 F:/Qsys/qsys_webserver/qsys/software/qsys_webserver_bsp/\libucosii_bsp.a(alt_alarm_start.o)
                                0x233 (size before relaxing)
 .debug_str     0x000092bf       0x25 F:/Qsys/qsys_webserver/qsys/software/qsys_webserver_bsp/\libucosii_bsp.a(alt_close.o)
                                0x1fa (size before relaxing)
 .debug_str     0x000092e4       0x3e F:/Qsys/qsys_webserver/qsys/software/qsys_webserver_bsp/\libucosii_bsp.a(alt_dev.o)
                                0x35e (size before relaxing)
 .debug_str     0x00009322       0x34 F:/Qsys/qsys_webserver/qsys/software/qsys_webserver_bsp/\libucosii_bsp.a(alt_dev_llist_insert.o)
                                0x181 (size before relaxing)
 .debug_str     0x00009356       0x48 F:/Qsys/qsys_webserver/qsys/software/qsys_webserver_bsp/\libucosii_bsp.a(alt_do_ctors.o)
                                 0x91 (size before relaxing)
 .debug_str     0x0000939e       0x4c F:/Qsys/qsys_webserver/qsys/software/qsys_webserver_bsp/\libucosii_bsp.a(alt_do_dtors.o)
                                 0x90 (size before relaxing)
 .debug_str     0x000093ea       0x14 F:/Qsys/qsys_webserver/qsys/software/qsys_webserver_bsp/\libucosii_bsp.a(alt_errno.o)
                                 0xfa (size before relaxing)
 .debug_str     0x000093fe       0x24 F:/Qsys/qsys_webserver/qsys/software/qsys_webserver_bsp/\libucosii_bsp.a(alt_find_dev.o)
                                0x1d1 (size before relaxing)
 .debug_str     0x00009422       0x26 F:/Qsys/qsys_webserver/qsys/software/qsys_webserver_bsp/\libucosii_bsp.a(alt_find_file.o)
                                0x1df (size before relaxing)
 .debug_str     0x00009448       0x20 F:/Qsys/qsys_webserver/qsys/software/qsys_webserver_bsp/\libucosii_bsp.a(alt_fs_reg.o)
                                0x1ee (size before relaxing)
 .debug_str     0x00009468       0x30 F:/Qsys/qsys_webserver/qsys/software/qsys_webserver_bsp/\libucosii_bsp.a(alt_get_fd.o)
                                0x27d (size before relaxing)
 .debug_str     0x00009498       0xb7 F:/Qsys/qsys_webserver/qsys/software/qsys_webserver_bsp/\libucosii_bsp.a(alt_iic.o)
                                0x1f3 (size before relaxing)
 .debug_str     0x0000954f       0x4c F:/Qsys/qsys_webserver/qsys/software/qsys_webserver_bsp/\libucosii_bsp.a(alt_iic_isr_register.o)
                                0x19d (size before relaxing)
 .debug_str     0x0000959b       0x56 F:/Qsys/qsys_webserver/qsys/software/qsys_webserver_bsp/\libucosii_bsp.a(alt_io_redirect.o)
                                0x2fb (size before relaxing)
 .debug_str     0x000095f1       0x3a F:/Qsys/qsys_webserver/qsys/software/qsys_webserver_bsp/\libucosii_bsp.a(alt_irq_handler.o)
                                0x174 (size before relaxing)
 .debug_str     0x0000962b       0x17 F:/Qsys/qsys_webserver/qsys/software/qsys_webserver_bsp/\libucosii_bsp.a(alt_irq_vars.o)
                                 0xfb (size before relaxing)
 .debug_str     0x00009642       0x1c F:/Qsys/qsys_webserver/qsys/software/qsys_webserver_bsp/\libucosii_bsp.a(alt_read.o)
                                0x2e5 (size before relaxing)
 .debug_str     0x0000965e       0x2c F:/Qsys/qsys_webserver/qsys/software/qsys_webserver_bsp/\libucosii_bsp.a(alt_remap_cached.o)
                                0x10a (size before relaxing)
 .debug_str     0x0000968a       0x30 F:/Qsys/qsys_webserver/qsys/software/qsys_webserver_bsp/\libucosii_bsp.a(alt_remap_uncached.o)
                                0x10e (size before relaxing)
 .debug_str     0x000096ba       0x32 F:/Qsys/qsys_webserver/qsys/software/qsys_webserver_bsp/\libucosii_bsp.a(alt_uncached_malloc.o)
                                0x11c (size before relaxing)
 .debug_str     0x000096ec       0x1e F:/Qsys/qsys_webserver/qsys/software/qsys_webserver_bsp/\libucosii_bsp.a(alt_write.o)
                                0x2e7 (size before relaxing)
 .debug_str     0x0000970a       0x3b F:/Qsys/qsys_webserver/qsys/software/qsys_webserver_bsp/\libucosii_bsp.a(altera_nios2_qsys_irq.o)
                                0x111 (size before relaxing)
 .debug_str     0x00009745       0xd5 F:/Qsys/qsys_webserver/qsys/software/qsys_webserver_bsp/\libucosii_bsp.a(os_cpu_c.o)
                                0x7d1 (size before relaxing)
 .debug_str     0x0000981a       0xa5 F:/Qsys/qsys_webserver/qsys/software/qsys_webserver_bsp/\libucosii_bsp.a(altera_avalon_spi.o)
                                0x195 (size before relaxing)
 .debug_str     0x000098bf      0xeb2 F:/Qsys/qsys_webserver/qsys/software/qsys_webserver_bsp/\libucosii_bsp.a(altera_avalon_tse.o)
                               0x1ca8 (size before relaxing)
 .debug_str     0x0000a771       0x2c F:/Qsys/qsys_webserver/qsys/software/qsys_webserver_bsp/\libucosii_bsp.a(altera_avalon_tse_system_info.o)
                                0x8e9 (size before relaxing)
 .debug_str     0x0000a79d       0xb8 F:/Qsys/qsys_webserver/qsys/software/qsys_webserver_bsp/\libucosii_bsp.a(allports.o)
                                0x5d2 (size before relaxing)
 .debug_str     0x0000a855       0xa6 F:/Qsys/qsys_webserver/qsys/software/qsys_webserver_bsp/\libucosii_bsp.a(timeouts.o)
                                0x1df (size before relaxing)
 .debug_str     0x0000a8fb       0x39 F:/Qsys/qsys_webserver/qsys/software/qsys_webserver_bsp/\libucosii_bsp.a(tk_misc.o)
                                0x15b (size before relaxing)
 .debug_str     0x0000a934       0x1e F:/Qsys/qsys_webserver/qsys/software/qsys_webserver_bsp/\libucosii_bsp.a(alt_iniche_fcntl.o)
                                0x163 (size before relaxing)
 .debug_str     0x0000a952      0x1e8 F:/Qsys/qsys_webserver/qsys/software/qsys_webserver_bsp/\libucosii_bsp.a(et_arp.o)
                                0x6c5 (size before relaxing)
 .debug_str     0x0000ab3a       0x44 F:/Qsys/qsys_webserver/qsys/software/qsys_webserver_bsp/\libucosii_bsp.a(iface.o)
                                0x6be (size before relaxing)
 .debug_str     0x0000ab7e      0x28d F:/Qsys/qsys_webserver/qsys/software/qsys_webserver_bsp/\libucosii_bsp.a(ip.o)
                                0x959 (size before relaxing)
 .debug_str     0x0000ae0b      0x416 F:/Qsys/qsys_webserver/qsys/software/qsys_webserver_bsp/\libucosii_bsp.a(ip_reasm.o)
                                0xa3c (size before relaxing)
 .debug_str     0x0000b221       0x65 F:/Qsys/qsys_webserver/qsys/software/qsys_webserver_bsp/\libucosii_bsp.a(ipdemux.o)
                                0x634 (size before relaxing)
 .debug_str     0x0000b286       0x43 F:/Qsys/qsys_webserver/qsys/software/qsys_webserver_bsp/\libucosii_bsp.a(ipmc.o)
                                0x499 (size before relaxing)
 .debug_str     0x0000b2c9       0x48 F:/Qsys/qsys_webserver/qsys/software/qsys_webserver_bsp/\libucosii_bsp.a(ipport.o)
                                0x1a1 (size before relaxing)
 .debug_str     0x0000b311       0xa1 F:/Qsys/qsys_webserver/qsys/software/qsys_webserver_bsp/\libucosii_bsp.a(ipraw.o)
                                0x6db (size before relaxing)
 .debug_str     0x0000b3b2       0xa4 F:/Qsys/qsys_webserver/qsys/software/qsys_webserver_bsp/\libucosii_bsp.a(iproute.o)
                                0x717 (size before relaxing)
 .debug_str     0x0000b456       0xe0 F:/Qsys/qsys_webserver/qsys/software/qsys_webserver_bsp/\libucosii_bsp.a(udp.o)
                                0x7ab (size before relaxing)
 .debug_str     0x0000b536       0x24 F:/Qsys/qsys_webserver/qsys/software/qsys_webserver_bsp/\libucosii_bsp.a(igmp.o)
                                0x93a (size before relaxing)
 .debug_str     0x0000b55a       0xbc F:/Qsys/qsys_webserver/qsys/software/qsys_webserver_bsp/\libucosii_bsp.a(igmp2.o)
                                0x9f8 (size before relaxing)
 .debug_str     0x0000b616       0x79 F:/Qsys/qsys_webserver/qsys/software/qsys_webserver_bsp/\libucosii_bsp.a(ipopt.o)
                                0x722 (size before relaxing)
 .debug_str     0x0000b68f       0x87 F:/Qsys/qsys_webserver/qsys/software/qsys_webserver_bsp/\libucosii_bsp.a(u_mctest.o)
                                0x566 (size before relaxing)
 .debug_str     0x0000b716      0x138 F:/Qsys/qsys_webserver/qsys/software/qsys_webserver_bsp/\libucosii_bsp.a(memdev.o)
                                0x296 (size before relaxing)
 .debug_str     0x0000b84e       0xba F:/Qsys/qsys_webserver/qsys/software/qsys_webserver_bsp/\libucosii_bsp.a(parseip.o)
                                0x25c (size before relaxing)
 .debug_str     0x0000b908       0x4d F:/Qsys/qsys_webserver/qsys/software/qsys_webserver_bsp/\libucosii_bsp.a(tcpcksum.o)
                                0x214 (size before relaxing)
 .debug_str     0x0000b955       0x48 F:/Qsys/qsys_webserver/qsys/software/qsys_webserver_bsp/\libucosii_bsp.a(udp_open.o)
                                0x507 (size before relaxing)
 .debug_str     0x0000b99d       0xdb F:/Qsys/qsys_webserver/qsys/software/qsys_webserver_bsp/\libucosii_bsp.a(in_pcb.o)
                                0x7ae (size before relaxing)
 .debug_str     0x0000ba78      0x22c F:/Qsys/qsys_webserver/qsys/software/qsys_webserver_bsp/\libucosii_bsp.a(vfsfiles.o)
                                0x44a (size before relaxing)
 .debug_str     0x0000bca4       0x22 F:/Qsys/qsys_webserver/qsys/software/qsys_webserver_bsp/\libucosii_bsp.a(vfsport.o)
                                0x128 (size before relaxing)
 .debug_str     0x0000bcc6       0x1e F:/Qsys/qsys_webserver/qsys/software/qsys_webserver_bsp/\libucosii_bsp.a(alt_fcntl.o)
                                0x30f (size before relaxing)
 .debug_str     0x0000bce4       0x1c F:/Qsys/qsys_webserver/qsys/software/qsys_webserver_bsp/\libucosii_bsp.a(alt_usleep.o)
                                0x16b (size before relaxing)
 .debug_str     0x0000bd00      0x274 F:/Qsys/qsys_webserver/qsys/software/qsys_webserver_bsp/\libucosii_bsp.a(icmp.o)
                                0x790 (size before relaxing)
 .debug_str     0x0000bf74       0x42 F:/Qsys/qsys_webserver/qsys/software/qsys_webserver_bsp/\libucosii_bsp.a(alt_busy_sleep.o)
                                0x120 (size before relaxing)
 .debug_str     0x0000bfb6       0x7f d:/eda/quartus13/nios2eds/bin/gnu/h-i686-mingw32/bin/../lib/gcc/nios2-elf/4.7.3/../../../../../H-i686-mingw32/nios2-elf/lib\libc.a(lib_a-atexit.o)
                                0x20f (size before relaxing)
 .debug_str     0x0000c035       0x42 d:/eda/quartus13/nios2eds/bin/gnu/h-i686-mingw32/bin/../lib/gcc/nios2-elf/4.7.3/../../../../../H-i686-mingw32/nios2-elf/lib\libc.a(lib_a-calloc.o)
                                0x526 (size before relaxing)
 .debug_str     0x0000c077       0x4a d:/eda/quartus13/nios2eds/bin/gnu/h-i686-mingw32/bin/../lib/gcc/nios2-elf/4.7.3/../../../../../H-i686-mingw32/nios2-elf/lib\libc.a(lib_a-exit.o)
                                0x52f (size before relaxing)
 .debug_str     0x0000c0c1       0x40 d:/eda/quartus13/nios2eds/bin/gnu/h-i686-mingw32/bin/../lib/gcc/nios2-elf/4.7.3/../../../../../H-i686-mingw32/nios2-elf/lib\libc.a(lib_a-malloc.o)
                                0x53a (size before relaxing)
 .debug_str     0x0000c101       0x4e d:/eda/quartus13/nios2eds/bin/gnu/h-i686-mingw32/bin/../lib/gcc/nios2-elf/4.7.3/../../../../../H-i686-mingw32/nios2-elf/lib\libc.a(lib_a-vprintf.o)
                                0x560 (size before relaxing)
 .debug_str     0x0000c14f       0x51 d:/eda/quartus13/nios2eds/bin/gnu/h-i686-mingw32/bin/../lib/gcc/nios2-elf/4.7.3/../../../../../H-i686-mingw32/nios2-elf/lib\libc.a(lib_a-vsprintf.o)
                                0x563 (size before relaxing)
 .debug_str     0x0000c1a0       0x3d d:/eda/quartus13/nios2eds/bin/gnu/h-i686-mingw32/bin/../lib/gcc/nios2-elf/4.7.3/../../../../../H-i686-mingw32/nios2-elf/lib\libc.a(lib_a-__atexit.o)
                                0x573 (size before relaxing)
 .debug_str     0x0000c1dd       0x54 d:/eda/quartus13/nios2eds/bin/gnu/h-i686-mingw32/bin/../lib/gcc/nios2-elf/4.7.3/../../../../../H-i686-mingw32/nios2-elf/lib\libc.a(lib_a-__call_atexit.o)
                                0x551 (size before relaxing)
 .debug_str     0x0000c231       0x2a F:/Qsys/qsys_webserver/qsys/software/qsys_webserver_bsp/\libucosii_bsp.a(alt_exit.o)
                                0x148 (size before relaxing)

.debug_loc      0x00000000    0x21812
 *(.debug_loc)
 .debug_loc     0x00000000       0x2c obj/default/alt_error_handler.o
 .debug_loc     0x0000002c      0x3f7 obj/default/http.o
 .debug_loc     0x00000423      0x161 obj/default/network_utilities.o
 .debug_loc     0x00000584       0x87 obj/default/srec_flash.o
 .debug_loc     0x0000060b       0xdc obj/default/web_server.o
 .debug_loc     0x000006e7       0x63 d:/eda/quartus13/nios2eds/bin/gnu/h-i686-mingw32/bin/../lib/gcc/nios2-elf/4.7.3/../../../../../H-i686-mingw32/nios2-elf/lib\libc.a(lib_a-atoi.o)
 .debug_loc     0x0000074a      0x136 d:/eda/quartus13/nios2eds/bin/gnu/h-i686-mingw32/bin/../lib/gcc/nios2-elf/4.7.3/../../../../../H-i686-mingw32/nios2-elf/lib\libc.a(lib_a-fclose.o)
 .debug_loc     0x00000880      0x259 d:/eda/quartus13/nios2eds/bin/gnu/h-i686-mingw32/bin/../lib/gcc/nios2-elf/4.7.3/../../../../../H-i686-mingw32/nios2-elf/lib\libc.a(lib_a-fflush.o)
 .debug_loc     0x00000ad9       0xe6 d:/eda/quartus13/nios2eds/bin/gnu/h-i686-mingw32/bin/../lib/gcc/nios2-elf/4.7.3/../../../../../H-i686-mingw32/nios2-elf/lib\libc.a(lib_a-fgetpos.o)
 .debug_loc     0x00000bbf      0x29c d:/eda/quartus13/nios2eds/bin/gnu/h-i686-mingw32/bin/../lib/gcc/nios2-elf/4.7.3/../../../../../H-i686-mingw32/nios2-elf/lib\libc.a(lib_a-findfp.o)
 .debug_loc     0x00000e5b      0x1fc d:/eda/quartus13/nios2eds/bin/gnu/h-i686-mingw32/bin/../lib/gcc/nios2-elf/4.7.3/../../../../../H-i686-mingw32/nios2-elf/lib\libc.a(lib_a-fopen.o)
 .debug_loc     0x00001057      0x155 d:/eda/quartus13/nios2eds/bin/gnu/h-i686-mingw32/bin/../lib/gcc/nios2-elf/4.7.3/../../../../../H-i686-mingw32/nios2-elf/lib\libc.a(lib_a-fprintf.o)
 .debug_loc     0x000011ac      0x425 d:/eda/quartus13/nios2eds/bin/gnu/h-i686-mingw32/bin/../lib/gcc/nios2-elf/4.7.3/../../../../../H-i686-mingw32/nios2-elf/lib\libc.a(lib_a-fread.o)
 .debug_loc     0x000015d1      0x668 d:/eda/quartus13/nios2eds/bin/gnu/h-i686-mingw32/bin/../lib/gcc/nios2-elf/4.7.3/../../../../../H-i686-mingw32/nios2-elf/lib\libc.a(lib_a-freer.o)
 .debug_loc     0x00001c39      0x3ac d:/eda/quartus13/nios2eds/bin/gnu/h-i686-mingw32/bin/../lib/gcc/nios2-elf/4.7.3/../../../../../H-i686-mingw32/nios2-elf/lib\libc.a(lib_a-fseek.o)
 .debug_loc     0x00001fe5       0xb2 d:/eda/quartus13/nios2eds/bin/gnu/h-i686-mingw32/bin/../lib/gcc/nios2-elf/4.7.3/../../../../../H-i686-mingw32/nios2-elf/lib\libc.a(lib_a-fstatr.o)
 .debug_loc     0x00002097      0x141 d:/eda/quartus13/nios2eds/bin/gnu/h-i686-mingw32/bin/../lib/gcc/nios2-elf/4.7.3/../../../../../H-i686-mingw32/nios2-elf/lib\libc.a(lib_a-ftell.o)
 .debug_loc     0x000021d8      0x2ae d:/eda/quartus13/nios2eds/bin/gnu/h-i686-mingw32/bin/../lib/gcc/nios2-elf/4.7.3/../../../../../H-i686-mingw32/nios2-elf/lib\libc.a(lib_a-fwalk.o)
 .debug_loc     0x00002486      0x221 d:/eda/quartus13/nios2eds/bin/gnu/h-i686-mingw32/bin/../lib/gcc/nios2-elf/4.7.3/../../../../../H-i686-mingw32/nios2-elf/lib\libc.a(lib_a-fwrite.o)
 .debug_loc     0x000026a7      0x156 d:/eda/quartus13/nios2eds/bin/gnu/h-i686-mingw32/bin/../lib/gcc/nios2-elf/4.7.3/../../../../../H-i686-mingw32/nios2-elf/lib\libc.a(lib_a-getc.o)
 .debug_loc     0x000027fd      0x16a d:/eda/quartus13/nios2eds/bin/gnu/h-i686-mingw32/bin/../lib/gcc/nios2-elf/4.7.3/../../../../../H-i686-mingw32/nios2-elf/lib\libc.a(lib_a-makebuf.o)
 .debug_loc     0x00002967      0xb50 d:/eda/quartus13/nios2eds/bin/gnu/h-i686-mingw32/bin/../lib/gcc/nios2-elf/4.7.3/../../../../../H-i686-mingw32/nios2-elf/lib\libc.a(lib_a-mallocr.o)
 .debug_loc     0x000034b7      0x1f2 d:/eda/quartus13/nios2eds/bin/gnu/h-i686-mingw32/bin/../lib/gcc/nios2-elf/4.7.3/../../../../../H-i686-mingw32/nios2-elf/lib\libc.a(lib_a-memcpy.o)
 .debug_loc     0x000036a9      0x240 d:/eda/quartus13/nios2eds/bin/gnu/h-i686-mingw32/bin/../lib/gcc/nios2-elf/4.7.3/../../../../../H-i686-mingw32/nios2-elf/lib\libc.a(lib_a-memmove.o)
 .debug_loc     0x000038e9      0x1b7 d:/eda/quartus13/nios2eds/bin/gnu/h-i686-mingw32/bin/../lib/gcc/nios2-elf/4.7.3/../../../../../H-i686-mingw32/nios2-elf/lib\libc.a(lib_a-memset.o)
 .debug_loc     0x00003aa0       0xde d:/eda/quartus13/nios2eds/bin/gnu/h-i686-mingw32/bin/../lib/gcc/nios2-elf/4.7.3/../../../../../H-i686-mingw32/nios2-elf/lib\libc.a(lib_a-openr.o)
 .debug_loc     0x00003b7e       0xdb d:/eda/quartus13/nios2eds/bin/gnu/h-i686-mingw32/bin/../lib/gcc/nios2-elf/4.7.3/../../../../../H-i686-mingw32/nios2-elf/lib\libc.a(lib_a-perror.o)
 .debug_loc     0x00003c59      0x132 d:/eda/quartus13/nios2eds/bin/gnu/h-i686-mingw32/bin/../lib/gcc/nios2-elf/4.7.3/../../../../../H-i686-mingw32/nios2-elf/lib\libc.a(lib_a-printf.o)
 .debug_loc     0x00003d8b      0x257 d:/eda/quartus13/nios2eds/bin/gnu/h-i686-mingw32/bin/../lib/gcc/nios2-elf/4.7.3/../../../../../H-i686-mingw32/nios2-elf/lib\libc.a(lib_a-putc.o)
 .debug_loc     0x00003fe2       0x6e d:/eda/quartus13/nios2eds/bin/gnu/h-i686-mingw32/bin/../lib/gcc/nios2-elf/4.7.3/../../../../../H-i686-mingw32/nios2-elf/lib\libc.a(lib_a-putchar.o)
 .debug_loc     0x00004050       0xd9 d:/eda/quartus13/nios2eds/bin/gnu/h-i686-mingw32/bin/../lib/gcc/nios2-elf/4.7.3/../../../../../H-i686-mingw32/nios2-elf/lib\libc.a(lib_a-puts.o)
 .debug_loc     0x00004129      0x15b d:/eda/quartus13/nios2eds/bin/gnu/h-i686-mingw32/bin/../lib/gcc/nios2-elf/4.7.3/../../../../../H-i686-mingw32/nios2-elf/lib\libc.a(lib_a-refill.o)
 .debug_loc     0x00004284       0xa4 d:/eda/quartus13/nios2eds/bin/gnu/h-i686-mingw32/bin/../lib/gcc/nios2-elf/4.7.3/../../../../../H-i686-mingw32/nios2-elf/lib\libc.a(lib_a-rget.o)
 .debug_loc     0x00004328       0x86 d:/eda/quartus13/nios2eds/bin/gnu/h-i686-mingw32/bin/../lib/gcc/nios2-elf/4.7.3/../../../../../H-i686-mingw32/nios2-elf/lib\libc.a(lib_a-sbrkr.o)
 .debug_loc     0x000043ae      0x148 d:/eda/quartus13/nios2eds/bin/gnu/h-i686-mingw32/bin/../lib/gcc/nios2-elf/4.7.3/../../../../../H-i686-mingw32/nios2-elf/lib\libc.a(lib_a-sprintf.o)
 .debug_loc     0x000044f6      0x13d d:/eda/quartus13/nios2eds/bin/gnu/h-i686-mingw32/bin/../lib/gcc/nios2-elf/4.7.3/../../../../../H-i686-mingw32/nios2-elf/lib\libc.a(lib_a-sscanf.o)
 .debug_loc     0x00004633      0x379 d:/eda/quartus13/nios2eds/bin/gnu/h-i686-mingw32/bin/../lib/gcc/nios2-elf/4.7.3/../../../../../H-i686-mingw32/nios2-elf/lib\libc.a(lib_a-stdio.o)
 .debug_loc     0x000049ac       0xd3 d:/eda/quartus13/nios2eds/bin/gnu/h-i686-mingw32/bin/../lib/gcc/nios2-elf/4.7.3/../../../../../H-i686-mingw32/nios2-elf/lib\libc.a(lib_a-strcasecmp.o)
 .debug_loc     0x00004a7f       0xc7 d:/eda/quartus13/nios2eds/bin/gnu/h-i686-mingw32/bin/../lib/gcc/nios2-elf/4.7.3/../../../../../H-i686-mingw32/nios2-elf/lib\libc.a(lib_a-strcat.o)
 .debug_loc     0x00004b46      0x1a8 d:/eda/quartus13/nios2eds/bin/gnu/h-i686-mingw32/bin/../lib/gcc/nios2-elf/4.7.3/../../../../../H-i686-mingw32/nios2-elf/lib\libc.a(lib_a-strchr.o)
 .debug_loc     0x00004cee       0xb0 d:/eda/quartus13/nios2eds/bin/gnu/h-i686-mingw32/bin/../lib/gcc/nios2-elf/4.7.3/../../../../../H-i686-mingw32/nios2-elf/lib\libc.a(lib_a-strcmp.o)
 .debug_loc     0x00004d9e      0x191 d:/eda/quartus13/nios2eds/bin/gnu/h-i686-mingw32/bin/../lib/gcc/nios2-elf/4.7.3/../../../../../H-i686-mingw32/nios2-elf/lib\libc.a(lib_a-strcpy.o)
 .debug_loc     0x00004f2f      0x5a8 d:/eda/quartus13/nios2eds/bin/gnu/h-i686-mingw32/bin/../lib/gcc/nios2-elf/4.7.3/../../../../../H-i686-mingw32/nios2-elf/lib\libc.a(lib_a-strerror.o)
 .debug_loc     0x000054d7       0x52 d:/eda/quartus13/nios2eds/bin/gnu/h-i686-mingw32/bin/../lib/gcc/nios2-elf/4.7.3/../../../../../H-i686-mingw32/nios2-elf/lib\libc.a(lib_a-strlen.o)
 .debug_loc     0x00005529      0x122 d:/eda/quartus13/nios2eds/bin/gnu/h-i686-mingw32/bin/../lib/gcc/nios2-elf/4.7.3/../../../../../H-i686-mingw32/nios2-elf/lib\libc.a(lib_a-strncmp.o)
 .debug_loc     0x0000564b      0x15a d:/eda/quartus13/nios2eds/bin/gnu/h-i686-mingw32/bin/../lib/gcc/nios2-elf/4.7.3/../../../../../H-i686-mingw32/nios2-elf/lib\libc.a(lib_a-strncpy.o)
 .debug_loc     0x000057a5      0xb18 d:/eda/quartus13/nios2eds/bin/gnu/h-i686-mingw32/bin/../lib/gcc/nios2-elf/4.7.3/../../../../../H-i686-mingw32/nios2-elf/lib\libc.a(lib_a-strstr.o)
 .debug_loc     0x000062bd       0x42 d:/eda/quartus13/nios2eds/bin/gnu/h-i686-mingw32/bin/../lib/gcc/nios2-elf/4.7.3/../../../../../H-i686-mingw32/nios2-elf/lib\libc.a(lib_a-strtok.o)
 .debug_loc     0x000062ff      0x196 d:/eda/quartus13/nios2eds/bin/gnu/h-i686-mingw32/bin/../lib/gcc/nios2-elf/4.7.3/../../../../../H-i686-mingw32/nios2-elf/lib\libc.a(lib_a-strtok_r.o)
 .debug_loc     0x00006495      0x46a d:/eda/quartus13/nios2eds/bin/gnu/h-i686-mingw32/bin/../lib/gcc/nios2-elf/4.7.3/../../../../../H-i686-mingw32/nios2-elf/lib\libc.a(lib_a-strtol.o)
 .debug_loc     0x000068ff     0x2b6b d:/eda/quartus13/nios2eds/bin/gnu/h-i686-mingw32/bin/../lib/gcc/nios2-elf/4.7.3/../../../../../H-i686-mingw32/nios2-elf/lib\libc.a(lib_a-vfprintf.o)
 .debug_loc     0x0000946a     0x16ba d:/eda/quartus13/nios2eds/bin/gnu/h-i686-mingw32/bin/../lib/gcc/nios2-elf/4.7.3/../../../../../H-i686-mingw32/nios2-elf/lib\libc.a(lib_a-vfscanf.o)
 .debug_loc     0x0000ab24      0x193 d:/eda/quartus13/nios2eds/bin/gnu/h-i686-mingw32/bin/../lib/gcc/nios2-elf/4.7.3/../../../../../H-i686-mingw32/nios2-elf/lib\libc.a(lib_a-wbuf.o)
 .debug_loc     0x0000acb7       0xde d:/eda/quartus13/nios2eds/bin/gnu/h-i686-mingw32/bin/../lib/gcc/nios2-elf/4.7.3/../../../../../H-i686-mingw32/nios2-elf/lib\libc.a(lib_a-writer.o)
 .debug_loc     0x0000ad95       0xba d:/eda/quartus13/nios2eds/bin/gnu/h-i686-mingw32/bin/../lib/gcc/nios2-elf/4.7.3/../../../../../H-i686-mingw32/nios2-elf/lib\libc.a(lib_a-wsetup.o)
 .debug_loc     0x0000ae4f       0x86 d:/eda/quartus13/nios2eds/bin/gnu/h-i686-mingw32/bin/../lib/gcc/nios2-elf/4.7.3/../../../../../H-i686-mingw32/nios2-elf/lib\libc.a(lib_a-closer.o)
 .debug_loc     0x0000aed5     0x2286 d:/eda/quartus13/nios2eds/bin/gnu/h-i686-mingw32/bin/../lib/gcc/nios2-elf/4.7.3/../../../../../H-i686-mingw32/nios2-elf/lib\libc.a(lib_a-dtoa.o)
 .debug_loc     0x0000d15b       0xe0 d:/eda/quartus13/nios2eds/bin/gnu/h-i686-mingw32/bin/../lib/gcc/nios2-elf/4.7.3/../../../../../H-i686-mingw32/nios2-elf/lib\libc.a(lib_a-flags.o)
 .debug_loc     0x0000d23b      0x111 d:/eda/quartus13/nios2eds/bin/gnu/h-i686-mingw32/bin/../lib/gcc/nios2-elf/4.7.3/../../../../../H-i686-mingw32/nios2-elf/lib\libc.a(lib_a-fputc.o)
 .debug_loc     0x0000d34c       0xf1 d:/eda/quartus13/nios2eds/bin/gnu/h-i686-mingw32/bin/../lib/gcc/nios2-elf/4.7.3/../../../../../H-i686-mingw32/nios2-elf/lib\libc.a(lib_a-fputs.o)
 .debug_loc     0x0000d43d      0x50c d:/eda/quartus13/nios2eds/bin/gnu/h-i686-mingw32/bin/../lib/gcc/nios2-elf/4.7.3/../../../../../H-i686-mingw32/nios2-elf/lib\libc.a(lib_a-fvwrite.o)
 .debug_loc     0x0000d949       0x86 d:/eda/quartus13/nios2eds/bin/gnu/h-i686-mingw32/bin/../lib/gcc/nios2-elf/4.7.3/../../../../../H-i686-mingw32/nios2-elf/lib\libc.a(lib_a-isattyr.o)
 .debug_loc     0x0000d9cf       0x2c d:/eda/quartus13/nios2eds/bin/gnu/h-i686-mingw32/bin/../lib/gcc/nios2-elf/4.7.3/../../../../../H-i686-mingw32/nios2-elf/lib\libc.a(lib_a-iswspace.o)
 .debug_loc     0x0000d9fb      0x13e d:/eda/quartus13/nios2eds/bin/gnu/h-i686-mingw32/bin/../lib/gcc/nios2-elf/4.7.3/../../../../../H-i686-mingw32/nios2-elf/lib\libc.a(lib_a-locale.o)
 .debug_loc     0x0000db39       0xde d:/eda/quartus13/nios2eds/bin/gnu/h-i686-mingw32/bin/../lib/gcc/nios2-elf/4.7.3/../../../../../H-i686-mingw32/nios2-elf/lib\libc.a(lib_a-lseekr.o)
 .debug_loc     0x0000dc17      0x236 d:/eda/quartus13/nios2eds/bin/gnu/h-i686-mingw32/bin/../lib/gcc/nios2-elf/4.7.3/../../../../../H-i686-mingw32/nios2-elf/lib\libc.a(lib_a-mbrtowc.o)
 .debug_loc     0x0000de4d       0x3e d:/eda/quartus13/nios2eds/bin/gnu/h-i686-mingw32/bin/../lib/gcc/nios2-elf/4.7.3/../../../../../H-i686-mingw32/nios2-elf/lib\libc.a(lib_a-mbtowc_r.o)
 .debug_loc     0x0000de8b      0x239 d:/eda/quartus13/nios2eds/bin/gnu/h-i686-mingw32/bin/../lib/gcc/nios2-elf/4.7.3/../../../../../H-i686-mingw32/nios2-elf/lib\libc.a(lib_a-memchr.o)
 .debug_loc     0x0000e0c4      0x103 d:/eda/quartus13/nios2eds/bin/gnu/h-i686-mingw32/bin/../lib/gcc/nios2-elf/4.7.3/../../../../../H-i686-mingw32/nios2-elf/lib\libc.a(lib_a-memcmp.o)
 .debug_loc     0x0000e1c7     0x1b23 d:/eda/quartus13/nios2eds/bin/gnu/h-i686-mingw32/bin/../lib/gcc/nios2-elf/4.7.3/../../../../../H-i686-mingw32/nios2-elf/lib\libc.a(lib_a-mprec.o)
 .debug_loc     0x0000fcea       0xde d:/eda/quartus13/nios2eds/bin/gnu/h-i686-mingw32/bin/../lib/gcc/nios2-elf/4.7.3/../../../../../H-i686-mingw32/nios2-elf/lib\libc.a(lib_a-readr.o)
 .debug_loc     0x0000fdc8     0x1136 d:/eda/quartus13/nios2eds/bin/gnu/h-i686-mingw32/bin/../lib/gcc/nios2-elf/4.7.3/../../../../../H-i686-mingw32/nios2-elf/lib\libc.a(lib_a-reallocr.o)
 .debug_loc     0x00010efe       0x88 d:/eda/quartus13/nios2eds/bin/gnu/h-i686-mingw32/bin/../lib/gcc/nios2-elf/4.7.3/../../../../../H-i686-mingw32/nios2-elf/lib\libc.a(lib_a-s_isinfd.o)
 .debug_loc     0x00010f86       0xa5 d:/eda/quartus13/nios2eds/bin/gnu/h-i686-mingw32/bin/../lib/gcc/nios2-elf/4.7.3/../../../../../H-i686-mingw32/nios2-elf/lib\libc.a(lib_a-s_isnand.o)
 .debug_loc     0x0001102b      0x146 d:/eda/quartus13/nios2eds/bin/gnu/h-i686-mingw32/bin/../lib/gcc/nios2-elf/4.7.3/../../../../../H-i686-mingw32/nios2-elf/lib\libc.a(lib_a-sccl.o)
 .debug_loc     0x00011171     0x2152 d:/eda/quartus13/nios2eds/bin/gnu/h-i686-mingw32/bin/../lib/gcc/nios2-elf/4.7.3/../../../../../H-i686-mingw32/nios2-elf/lib\libc.a(lib_a-strtod.o)
 .debug_loc     0x000132c3      0x58b d:/eda/quartus13/nios2eds/bin/gnu/h-i686-mingw32/bin/../lib/gcc/nios2-elf/4.7.3/../../../../../H-i686-mingw32/nios2-elf/lib\libc.a(lib_a-strtoll_r.o)
 .debug_loc     0x0001384e      0x437 d:/eda/quartus13/nios2eds/bin/gnu/h-i686-mingw32/bin/../lib/gcc/nios2-elf/4.7.3/../../../../../H-i686-mingw32/nios2-elf/lib\libc.a(lib_a-strtoul.o)
 .debug_loc     0x00013c85      0x3e7 d:/eda/quartus13/nios2eds/bin/gnu/h-i686-mingw32/bin/../lib/gcc/nios2-elf/4.7.3/../../../../../H-i686-mingw32/nios2-elf/lib\libc.a(lib_a-strtoull_r.o)
 .debug_loc     0x0001406c      0x2df d:/eda/quartus13/nios2eds/bin/gnu/h-i686-mingw32/bin/../lib/gcc/nios2-elf/4.7.3/../../../../../H-i686-mingw32/nios2-elf/lib\libc.a(lib_a-ungetc.o)
 .debug_loc     0x0001434b      0x283 d:/eda/quartus13/nios2eds/bin/gnu/h-i686-mingw32/bin/../lib/gcc/nios2-elf/4.7.3/../../../../../H-i686-mingw32/nios2-elf/lib\libc.a(lib_a-callocr.o)
 .debug_loc     0x000145ce      0xe95 d:/eda/quartus13/nios2eds/bin/gnu/h-i686-mingw32/bin/../lib/gcc/nios2-elf/4.7.3/../../../../../H-i686-mingw32/nios2-elf/lib\libc.a(lib_a-gdtoa-gethex.o)
 .debug_loc     0x00015463      0x4bc d:/eda/quartus13/nios2eds/bin/gnu/h-i686-mingw32/bin/../lib/gcc/nios2-elf/4.7.3/../../../../../H-i686-mingw32/nios2-elf/lib\libc.a(lib_a-gdtoa-hexnan.o)
 .debug_loc     0x0001591f      0x15d d:/eda/quartus13/nios2eds/bin/gnu/h-i686-mingw32/bin/../lib/gcc/nios2-elf/4.7.3\libgcc.a(_muldi3.o)
 .debug_loc     0x00015a7c       0x48 d:/eda/quartus13/nios2eds/bin/gnu/h-i686-mingw32/bin/../lib/gcc/nios2-elf/4.7.3\libgcc.a(_fixunsdfsi.o)
 .debug_loc     0x00015ac4     0x10da d:/eda/quartus13/nios2eds/bin/gnu/h-i686-mingw32/bin/../lib/gcc/nios2-elf/4.7.3\libgcc.a(_udivdi3.o)
 .debug_loc     0x00016b9e     0x104d d:/eda/quartus13/nios2eds/bin/gnu/h-i686-mingw32/bin/../lib/gcc/nios2-elf/4.7.3\libgcc.a(_umoddi3.o)
 .debug_loc     0x00017beb       0x66 d:/eda/quartus13/nios2eds/bin/gnu/h-i686-mingw32/bin/../lib/gcc/nios2-elf/4.7.3\libgcc.a(_eq_sf.o)
 .debug_loc     0x00017c51       0x66 d:/eda/quartus13/nios2eds/bin/gnu/h-i686-mingw32/bin/../lib/gcc/nios2-elf/4.7.3\libgcc.a(_gt_sf.o)
 .debug_loc     0x00017cb7       0x66 d:/eda/quartus13/nios2eds/bin/gnu/h-i686-mingw32/bin/../lib/gcc/nios2-elf/4.7.3\libgcc.a(_lt_sf.o)
 .debug_loc     0x00017d1d      0x7a1 d:/eda/quartus13/nios2eds/bin/gnu/h-i686-mingw32/bin/../lib/gcc/nios2-elf/4.7.3\libgcc.a(_addsub_df.o)
 .debug_loc     0x000184be      0x3ba d:/eda/quartus13/nios2eds/bin/gnu/h-i686-mingw32/bin/../lib/gcc/nios2-elf/4.7.3\libgcc.a(_mul_df.o)
 .debug_loc     0x00018878      0x25e d:/eda/quartus13/nios2eds/bin/gnu/h-i686-mingw32/bin/../lib/gcc/nios2-elf/4.7.3\libgcc.a(_div_df.o)
 .debug_loc     0x00018ad6       0x70 d:/eda/quartus13/nios2eds/bin/gnu/h-i686-mingw32/bin/../lib/gcc/nios2-elf/4.7.3\libgcc.a(_eq_df.o)
 .debug_loc     0x00018b46       0x70 d:/eda/quartus13/nios2eds/bin/gnu/h-i686-mingw32/bin/../lib/gcc/nios2-elf/4.7.3\libgcc.a(_ne_df.o)
 .debug_loc     0x00018bb6       0x70 d:/eda/quartus13/nios2eds/bin/gnu/h-i686-mingw32/bin/../lib/gcc/nios2-elf/4.7.3\libgcc.a(_gt_df.o)
 .debug_loc     0x00018c26       0x70 d:/eda/quartus13/nios2eds/bin/gnu/h-i686-mingw32/bin/../lib/gcc/nios2-elf/4.7.3\libgcc.a(_ge_df.o)
 .debug_loc     0x00018c96       0x70 d:/eda/quartus13/nios2eds/bin/gnu/h-i686-mingw32/bin/../lib/gcc/nios2-elf/4.7.3\libgcc.a(_lt_df.o)
 .debug_loc     0x00018d06       0x70 d:/eda/quartus13/nios2eds/bin/gnu/h-i686-mingw32/bin/../lib/gcc/nios2-elf/4.7.3\libgcc.a(_le_df.o)
 .debug_loc     0x00018d76       0xd3 d:/eda/quartus13/nios2eds/bin/gnu/h-i686-mingw32/bin/../lib/gcc/nios2-elf/4.7.3\libgcc.a(_si_to_df.o)
 .debug_loc     0x00018e49       0xce d:/eda/quartus13/nios2eds/bin/gnu/h-i686-mingw32/bin/../lib/gcc/nios2-elf/4.7.3\libgcc.a(_df_to_si.o)
 .debug_loc     0x00018f17       0x5b d:/eda/quartus13/nios2eds/bin/gnu/h-i686-mingw32/bin/../lib/gcc/nios2-elf/4.7.3\libgcc.a(_df_to_sf.o)
 .debug_loc     0x00018f72      0x168 d:/eda/quartus13/nios2eds/bin/gnu/h-i686-mingw32/bin/../lib/gcc/nios2-elf/4.7.3\libgcc.a(_usi_to_df.o)
 .debug_loc     0x000190da      0x338 d:/eda/quartus13/nios2eds/bin/gnu/h-i686-mingw32/bin/../lib/gcc/nios2-elf/4.7.3\libgcc.a(lib2-divmod.o)
 .debug_loc     0x00019412      0x19a d:/eda/quartus13/nios2eds/bin/gnu/h-i686-mingw32/bin/../lib/gcc/nios2-elf/4.7.3\libgcc.a(_clzsi2.o)
 .debug_loc     0x000195ac      0x102 d:/eda/quartus13/nios2eds/bin/gnu/h-i686-mingw32/bin/../lib/gcc/nios2-elf/4.7.3\libgcc.a(_unpack_sf.o)
 .debug_loc     0x000196ae       0x7c d:/eda/quartus13/nios2eds/bin/gnu/h-i686-mingw32/bin/../lib/gcc/nios2-elf/4.7.3\libgcc.a(_fpcmp_parts_sf.o)
 .debug_loc     0x0001972a       0xb0 d:/eda/quartus13/nios2eds/bin/gnu/h-i686-mingw32/bin/../lib/gcc/nios2-elf/4.7.3\libgcc.a(_make_sf.o)
 .debug_loc     0x000197da      0x2ae d:/eda/quartus13/nios2eds/bin/gnu/h-i686-mingw32/bin/../lib/gcc/nios2-elf/4.7.3\libgcc.a(_pack_df.o)
 .debug_loc     0x00019a88      0x179 d:/eda/quartus13/nios2eds/bin/gnu/h-i686-mingw32/bin/../lib/gcc/nios2-elf/4.7.3\libgcc.a(_unpack_df.o)
 .debug_loc     0x00019c01       0x7c d:/eda/quartus13/nios2eds/bin/gnu/h-i686-mingw32/bin/../lib/gcc/nios2-elf/4.7.3\libgcc.a(_fpcmp_parts_df.o)
 .debug_loc     0x00019c7d       0xc4 d:/eda/quartus13/nios2eds/bin/gnu/h-i686-mingw32/bin/../lib/gcc/nios2-elf/4.7.3\libgcc.a(_lshrdi3.o)
 .debug_loc     0x00019d41       0xc4 d:/eda/quartus13/nios2eds/bin/gnu/h-i686-mingw32/bin/../lib/gcc/nios2-elf/4.7.3\libgcc.a(_ashldi3.o)
 .debug_loc     0x00019e05      0x2c4 d:/eda/quartus13/nios2eds/bin/gnu/h-i686-mingw32/bin/../lib/gcc/nios2-elf/4.7.3\libgcc.a(_pack_sf.o)
 .debug_loc     0x0001a0c9       0x2c F:/Qsys/qsys_webserver/qsys/software/qsys_webserver_bsp/\libucosii_bsp.a(alt_dcache_flush.o)
 .debug_loc     0x0001a0f5       0x58 F:/Qsys/qsys_webserver/qsys/software/qsys_webserver_bsp/\libucosii_bsp.a(alt_flash_dev.o)
 .debug_loc     0x0001a14d       0x58 F:/Qsys/qsys_webserver/qsys/software/qsys_webserver_bsp/\libucosii_bsp.a(alt_fstat.o)
 .debug_loc     0x0001a1a5       0x59 F:/Qsys/qsys_webserver/qsys/software/qsys_webserver_bsp/\libucosii_bsp.a(alt_isatty.o)
 .debug_loc     0x0001a1fe       0x58 F:/Qsys/qsys_webserver/qsys/software/qsys_webserver_bsp/\libucosii_bsp.a(alt_lseek.o)
 .debug_loc     0x0001a256       0x2c F:/Qsys/qsys_webserver/qsys/software/qsys_webserver_bsp/\libucosii_bsp.a(alt_main.o)
 .debug_loc     0x0001a282       0x84 F:/Qsys/qsys_webserver/qsys/software/qsys_webserver_bsp/\libucosii_bsp.a(alt_open.o)
 .debug_loc     0x0001a306       0x2c F:/Qsys/qsys_webserver/qsys/software/qsys_webserver_bsp/\libucosii_bsp.a(alt_release_fd.o)
 .debug_loc     0x0001a332       0x2c F:/Qsys/qsys_webserver/qsys/software/qsys_webserver_bsp/\libucosii_bsp.a(alt_sbrk.o)
 .debug_loc     0x0001a35e       0x58 F:/Qsys/qsys_webserver/qsys/software/qsys_webserver_bsp/\libucosii_bsp.a(alt_tick.o)
 .debug_loc     0x0001a3b6       0x59 F:/Qsys/qsys_webserver/qsys/software/qsys_webserver_bsp/\libucosii_bsp.a(alt_env_lock.o)
 .debug_loc     0x0001a40f       0x59 F:/Qsys/qsys_webserver/qsys/software/qsys_webserver_bsp/\libucosii_bsp.a(alt_malloc_lock.o)
 .debug_loc     0x0001a468      0x605 F:/Qsys/qsys_webserver/qsys/software/qsys_webserver_bsp/\libucosii_bsp.a(os_core.o)
 .debug_loc     0x0001aa6d       0x2c F:/Qsys/qsys_webserver/qsys/software/qsys_webserver_bsp/\libucosii_bsp.a(os_dbg.o)
 .debug_loc     0x0001aa99      0x23e F:/Qsys/qsys_webserver/qsys/software/qsys_webserver_bsp/\libucosii_bsp.a(os_flag.o)
 .debug_loc     0x0001acd7      0x160 F:/Qsys/qsys_webserver/qsys/software/qsys_webserver_bsp/\libucosii_bsp.a(os_mbox.o)
 .debug_loc     0x0001ae37      0x134 F:/Qsys/qsys_webserver/qsys/software/qsys_webserver_bsp/\libucosii_bsp.a(os_mem.o)
 .debug_loc     0x0001af6b      0x1e4 F:/Qsys/qsys_webserver/qsys/software/qsys_webserver_bsp/\libucosii_bsp.a(os_q.o)
 .debug_loc     0x0001b14f      0x160 F:/Qsys/qsys_webserver/qsys/software/qsys_webserver_bsp/\libucosii_bsp.a(os_sem.o)
 .debug_loc     0x0001b2af      0x212 F:/Qsys/qsys_webserver/qsys/software/qsys_webserver_bsp/\libucosii_bsp.a(os_task.o)
 .debug_loc     0x0001b4c1       0xdc F:/Qsys/qsys_webserver/qsys/software/qsys_webserver_bsp/\libucosii_bsp.a(os_time.o)
 .debug_loc     0x0001b59d       0x84 F:/Qsys/qsys_webserver/qsys/software/qsys_webserver_bsp/\libucosii_bsp.a(alt_sys_init.o)
 .debug_loc     0x0001b621      0x1b9 F:/Qsys/qsys_webserver/qsys/software/qsys_webserver_bsp/\libucosii_bsp.a(altera_avalon_epcs_flash_controller.o)
 .debug_loc     0x0001b7da       0xb0 F:/Qsys/qsys_webserver/qsys/software/qsys_webserver_bsp/\libucosii_bsp.a(altera_avalon_jtag_uart_fd.o)
 .debug_loc     0x0001b88a       0xb0 F:/Qsys/qsys_webserver/qsys/software/qsys_webserver_bsp/\libucosii_bsp.a(altera_avalon_jtag_uart_init.o)
 .debug_loc     0x0001b93a       0x2c F:/Qsys/qsys_webserver/qsys/software/qsys_webserver_bsp/\libucosii_bsp.a(altera_avalon_jtag_uart_ioctl.o)
 .debug_loc     0x0001b966       0x2d F:/Qsys/qsys_webserver/qsys/software/qsys_webserver_bsp/\libucosii_bsp.a(altera_avalon_jtag_uart_read.o)
 .debug_loc     0x0001b993       0x2d F:/Qsys/qsys_webserver/qsys/software/qsys_webserver_bsp/\libucosii_bsp.a(altera_avalon_jtag_uart_write.o)
 .debug_loc     0x0001b9c0      0x370 F:/Qsys/qsys_webserver/qsys/software/qsys_webserver_bsp/\libucosii_bsp.a(altera_avalon_sgdma.o)
 .debug_loc     0x0001bd30       0x58 F:/Qsys/qsys_webserver/qsys/software/qsys_webserver_bsp/\libucosii_bsp.a(altera_avalon_timer_sc.o)
 .debug_loc     0x0001bd88      0x295 F:/Qsys/qsys_webserver/qsys/software/qsys_webserver_bsp/\libucosii_bsp.a(altera_ro_zipfs.o)
 .debug_loc     0x0001c01d      0x210 F:/Qsys/qsys_webserver/qsys/software/qsys_webserver_bsp/\libucosii_bsp.a(epcs_commands.o)
 .debug_loc     0x0001c22d      0x18e F:/Qsys/qsys_webserver/qsys/software/qsys_webserver_bsp/\libucosii_bsp.a(ins_tse_mac.o)
 .debug_loc     0x0001c3bb       0x2c F:/Qsys/qsys_webserver/qsys/software/qsys_webserver_bsp/\libucosii_bsp.a(alt_iniche_close.o)
 .debug_loc     0x0001c3e7       0x2c F:/Qsys/qsys_webserver/qsys/software/qsys_webserver_bsp/\libucosii_bsp.a(alt_iniche_dev.o)
 .debug_loc     0x0001c413       0x2c F:/Qsys/qsys_webserver/qsys/software/qsys_webserver_bsp/\libucosii_bsp.a(alt_iniche_read.o)
 .debug_loc     0x0001c43f       0x2c F:/Qsys/qsys_webserver/qsys/software/qsys_webserver_bsp/\libucosii_bsp.a(alt_iniche_write.o)
 .debug_loc     0x0001c46b      0x108 F:/Qsys/qsys_webserver/qsys/software/qsys_webserver_bsp/\libucosii_bsp.a(ipnet.o)
 .debug_loc     0x0001c573       0xb0 F:/Qsys/qsys_webserver/qsys/software/qsys_webserver_bsp/\libucosii_bsp.a(ipstart.o)
 .debug_loc     0x0001c623      0x161 F:/Qsys/qsys_webserver/qsys/software/qsys_webserver_bsp/\libucosii_bsp.a(igmp_cmn.o)
 .debug_loc     0x0001c784      0x1b9 F:/Qsys/qsys_webserver/qsys/software/qsys_webserver_bsp/\libucosii_bsp.a(bsdsock.o)
 .debug_loc     0x0001c93d       0x58 F:/Qsys/qsys_webserver/qsys/software/qsys_webserver_bsp/\libucosii_bsp.a(cksum.o)
 .debug_loc     0x0001c995      0x210 F:/Qsys/qsys_webserver/qsys/software/qsys_webserver_bsp/\libucosii_bsp.a(in_utils.o)
 .debug_loc     0x0001cba5       0x84 F:/Qsys/qsys_webserver/qsys/software/qsys_webserver_bsp/\libucosii_bsp.a(netmain.o)
 .debug_loc     0x0001cc29      0x136 F:/Qsys/qsys_webserver/qsys/software/qsys_webserver_bsp/\libucosii_bsp.a(tk_crnos.o)
 .debug_loc     0x0001cd5f      0x108 F:/Qsys/qsys_webserver/qsys/software/qsys_webserver_bsp/\libucosii_bsp.a(pktalloc.o)
 .debug_loc     0x0001ce67       0x84 F:/Qsys/qsys_webserver/qsys/software/qsys_webserver_bsp/\libucosii_bsp.a(q.o)
 .debug_loc     0x0001ceeb      0x160 F:/Qsys/qsys_webserver/qsys/software/qsys_webserver_bsp/\libucosii_bsp.a(brdutils.o)
 .debug_loc     0x0001d04b       0xdd F:/Qsys/qsys_webserver/qsys/software/qsys_webserver_bsp/\libucosii_bsp.a(osportco.o)
 .debug_loc     0x0001d128      0x18c F:/Qsys/qsys_webserver/qsys/software/qsys_webserver_bsp/\libucosii_bsp.a(targnios.o)
 .debug_loc     0x0001d2b4      0x318 F:/Qsys/qsys_webserver/qsys/software/qsys_webserver_bsp/\libucosii_bsp.a(nptcp.o)
 .debug_loc     0x0001d5cc       0x85 F:/Qsys/qsys_webserver/qsys/software/qsys_webserver_bsp/\libucosii_bsp.a(rawsock.o)
 .debug_loc     0x0001d651      0x344 F:/Qsys/qsys_webserver/qsys/software/qsys_webserver_bsp/\libucosii_bsp.a(sockcall.o)
 .debug_loc     0x0001d995      0x2c0 F:/Qsys/qsys_webserver/qsys/software/qsys_webserver_bsp/\libucosii_bsp.a(socket.o)
 .debug_loc     0x0001dc55      0x3f4 F:/Qsys/qsys_webserver/qsys/software/qsys_webserver_bsp/\libucosii_bsp.a(socket2.o)
 .debug_loc     0x0001e049      0x18d F:/Qsys/qsys_webserver/qsys/software/qsys_webserver_bsp/\libucosii_bsp.a(soselect.o)
 .debug_loc     0x0001e1d6      0x135 F:/Qsys/qsys_webserver/qsys/software/qsys_webserver_bsp/\libucosii_bsp.a(tcp_in.o)
 .debug_loc     0x0001e30b       0x85 F:/Qsys/qsys_webserver/qsys/software/qsys_webserver_bsp/\libucosii_bsp.a(tcp_out.o)
 .debug_loc     0x0001e390      0x18c F:/Qsys/qsys_webserver/qsys/software/qsys_webserver_bsp/\libucosii_bsp.a(tcp_subr.o)
 .debug_loc     0x0001e51c       0x84 F:/Qsys/qsys_webserver/qsys/software/qsys_webserver_bsp/\libucosii_bsp.a(tcp_timr.o)
 .debug_loc     0x0001e5a0       0xb0 F:/Qsys/qsys_webserver/qsys/software/qsys_webserver_bsp/\libucosii_bsp.a(tcp_usr.o)
 .debug_loc     0x0001e650       0x2c F:/Qsys/qsys_webserver/qsys/software/qsys_webserver_bsp/\libucosii_bsp.a(tcpport.o)
 .debug_loc     0x0001e67c      0x108 F:/Qsys/qsys_webserver/qsys/software/qsys_webserver_bsp/\libucosii_bsp.a(udpsock.o)
 .debug_loc     0x0001e784       0x2c F:/Qsys/qsys_webserver/qsys/software/qsys_webserver_bsp/\libucosii_bsp.a(alt_alarm_start.o)
 .debug_loc     0x0001e7b0       0x58 F:/Qsys/qsys_webserver/qsys/software/qsys_webserver_bsp/\libucosii_bsp.a(alt_close.o)
 .debug_loc     0x0001e808       0x2c F:/Qsys/qsys_webserver/qsys/software/qsys_webserver_bsp/\libucosii_bsp.a(alt_dev.o)
 .debug_loc     0x0001e834       0x58 F:/Qsys/qsys_webserver/qsys/software/qsys_webserver_bsp/\libucosii_bsp.a(alt_dev_llist_insert.o)
 .debug_loc     0x0001e88c       0x2c F:/Qsys/qsys_webserver/qsys/software/qsys_webserver_bsp/\libucosii_bsp.a(alt_do_ctors.o)
 .debug_loc     0x0001e8b8       0x2c F:/Qsys/qsys_webserver/qsys/software/qsys_webserver_bsp/\libucosii_bsp.a(alt_do_dtors.o)
 .debug_loc     0x0001e8e4       0x2c F:/Qsys/qsys_webserver/qsys/software/qsys_webserver_bsp/\libucosii_bsp.a(alt_find_dev.o)
 .debug_loc     0x0001e910       0x2c F:/Qsys/qsys_webserver/qsys/software/qsys_webserver_bsp/\libucosii_bsp.a(alt_find_file.o)
 .debug_loc     0x0001e93c       0x2c F:/Qsys/qsys_webserver/qsys/software/qsys_webserver_bsp/\libucosii_bsp.a(alt_fs_reg.o)
 .debug_loc     0x0001e968       0x2c F:/Qsys/qsys_webserver/qsys/software/qsys_webserver_bsp/\libucosii_bsp.a(alt_get_fd.o)
 .debug_loc     0x0001e994       0xb0 F:/Qsys/qsys_webserver/qsys/software/qsys_webserver_bsp/\libucosii_bsp.a(alt_iic.o)
 .debug_loc     0x0001ea44       0x2c F:/Qsys/qsys_webserver/qsys/software/qsys_webserver_bsp/\libucosii_bsp.a(alt_iic_isr_register.o)
 .debug_loc     0x0001ea70       0x58 F:/Qsys/qsys_webserver/qsys/software/qsys_webserver_bsp/\libucosii_bsp.a(alt_io_redirect.o)
 .debug_loc     0x0001eac8       0x2c F:/Qsys/qsys_webserver/qsys/software/qsys_webserver_bsp/\libucosii_bsp.a(alt_irq_handler.o)
 .debug_loc     0x0001eaf4       0x58 F:/Qsys/qsys_webserver/qsys/software/qsys_webserver_bsp/\libucosii_bsp.a(alt_read.o)
 .debug_loc     0x0001eb4c       0x2c F:/Qsys/qsys_webserver/qsys/software/qsys_webserver_bsp/\libucosii_bsp.a(alt_remap_cached.o)
 .debug_loc     0x0001eb78       0x2c F:/Qsys/qsys_webserver/qsys/software/qsys_webserver_bsp/\libucosii_bsp.a(alt_remap_uncached.o)
 .debug_loc     0x0001eba4       0x2c F:/Qsys/qsys_webserver/qsys/software/qsys_webserver_bsp/\libucosii_bsp.a(alt_uncached_malloc.o)
 .debug_loc     0x0001ebd0       0x58 F:/Qsys/qsys_webserver/qsys/software/qsys_webserver_bsp/\libucosii_bsp.a(alt_write.o)
 .debug_loc     0x0001ec28       0x2c F:/Qsys/qsys_webserver/qsys/software/qsys_webserver_bsp/\libucosii_bsp.a(altera_nios2_qsys_irq.o)
 .debug_loc     0x0001ec54      0x1b8 F:/Qsys/qsys_webserver/qsys/software/qsys_webserver_bsp/\libucosii_bsp.a(os_cpu_c.o)
 .debug_loc     0x0001ee0c       0x2c F:/Qsys/qsys_webserver/qsys/software/qsys_webserver_bsp/\libucosii_bsp.a(altera_avalon_spi.o)
 .debug_loc     0x0001ee38      0x767 F:/Qsys/qsys_webserver/qsys/software/qsys_webserver_bsp/\libucosii_bsp.a(altera_avalon_tse.o)
 .debug_loc     0x0001f59f      0x134 F:/Qsys/qsys_webserver/qsys/software/qsys_webserver_bsp/\libucosii_bsp.a(allports.o)
 .debug_loc     0x0001f6d3       0xb0 F:/Qsys/qsys_webserver/qsys/software/qsys_webserver_bsp/\libucosii_bsp.a(timeouts.o)
 .debug_loc     0x0001f783       0x58 F:/Qsys/qsys_webserver/qsys/software/qsys_webserver_bsp/\libucosii_bsp.a(tk_misc.o)
 .debug_loc     0x0001f7db       0x2c F:/Qsys/qsys_webserver/qsys/software/qsys_webserver_bsp/\libucosii_bsp.a(alt_iniche_fcntl.o)
 .debug_loc     0x0001f807      0x210 F:/Qsys/qsys_webserver/qsys/software/qsys_webserver_bsp/\libucosii_bsp.a(et_arp.o)
 .debug_loc     0x0001fa17       0xb0 F:/Qsys/qsys_webserver/qsys/software/qsys_webserver_bsp/\libucosii_bsp.a(iface.o)
 .debug_loc     0x0001fac7      0x212 F:/Qsys/qsys_webserver/qsys/software/qsys_webserver_bsp/\libucosii_bsp.a(ip.o)
 .debug_loc     0x0001fcd9      0x2c1 F:/Qsys/qsys_webserver/qsys/software/qsys_webserver_bsp/\libucosii_bsp.a(ip_reasm.o)
 .debug_loc     0x0001ff9a       0x84 F:/Qsys/qsys_webserver/qsys/software/qsys_webserver_bsp/\libucosii_bsp.a(ipdemux.o)
 .debug_loc     0x0002001e       0x84 F:/Qsys/qsys_webserver/qsys/software/qsys_webserver_bsp/\libucosii_bsp.a(ipmc.o)
 .debug_loc     0x000200a2       0x84 F:/Qsys/qsys_webserver/qsys/software/qsys_webserver_bsp/\libucosii_bsp.a(ipport.o)
 .debug_loc     0x00020126      0x108 F:/Qsys/qsys_webserver/qsys/software/qsys_webserver_bsp/\libucosii_bsp.a(ipraw.o)
 .debug_loc     0x0002022e       0x84 F:/Qsys/qsys_webserver/qsys/software/qsys_webserver_bsp/\libucosii_bsp.a(iproute.o)
 .debug_loc     0x000202b2      0x136 F:/Qsys/qsys_webserver/qsys/software/qsys_webserver_bsp/\libucosii_bsp.a(udp.o)
 .debug_loc     0x000203e8       0x2c F:/Qsys/qsys_webserver/qsys/software/qsys_webserver_bsp/\libucosii_bsp.a(igmp.o)
 .debug_loc     0x00020414       0xdc F:/Qsys/qsys_webserver/qsys/software/qsys_webserver_bsp/\libucosii_bsp.a(igmp2.o)
 .debug_loc     0x000204f0       0xb0 F:/Qsys/qsys_webserver/qsys/software/qsys_webserver_bsp/\libucosii_bsp.a(ipopt.o)
 .debug_loc     0x000205a0       0x59 F:/Qsys/qsys_webserver/qsys/software/qsys_webserver_bsp/\libucosii_bsp.a(u_mctest.o)
 .debug_loc     0x000205f9      0x18c F:/Qsys/qsys_webserver/qsys/software/qsys_webserver_bsp/\libucosii_bsp.a(memdev.o)
 .debug_loc     0x00020785      0x18c F:/Qsys/qsys_webserver/qsys/software/qsys_webserver_bsp/\libucosii_bsp.a(parseip.o)
 .debug_loc     0x00020911       0x2c F:/Qsys/qsys_webserver/qsys/software/qsys_webserver_bsp/\libucosii_bsp.a(tcpcksum.o)
 .debug_loc     0x0002093d       0x58 F:/Qsys/qsys_webserver/qsys/software/qsys_webserver_bsp/\libucosii_bsp.a(udp_open.o)
 .debug_loc     0x00020995      0x160 F:/Qsys/qsys_webserver/qsys/software/qsys_webserver_bsp/\libucosii_bsp.a(in_pcb.o)
 .debug_loc     0x00020af5      0x4d0 F:/Qsys/qsys_webserver/qsys/software/qsys_webserver_bsp/\libucosii_bsp.a(vfsfiles.o)
 .debug_loc     0x00020fc5       0x2c F:/Qsys/qsys_webserver/qsys/software/qsys_webserver_bsp/\libucosii_bsp.a(vfsport.o)
 .debug_loc     0x00020ff1       0x58 F:/Qsys/qsys_webserver/qsys/software/qsys_webserver_bsp/\libucosii_bsp.a(alt_fcntl.o)
 .debug_loc     0x00021049       0x2c F:/Qsys/qsys_webserver/qsys/software/qsys_webserver_bsp/\libucosii_bsp.a(alt_usleep.o)
 .debug_loc     0x00021075       0xb1 F:/Qsys/qsys_webserver/qsys/software/qsys_webserver_bsp/\libucosii_bsp.a(icmp.o)
 .debug_loc     0x00021126       0x2c F:/Qsys/qsys_webserver/qsys/software/qsys_webserver_bsp/\libucosii_bsp.a(alt_busy_sleep.o)
 .debug_loc     0x00021152       0x2c d:/eda/quartus13/nios2eds/bin/gnu/h-i686-mingw32/bin/../lib/gcc/nios2-elf/4.7.3/../../../../../H-i686-mingw32/nios2-elf/lib\libc.a(lib_a-atexit.o)
 .debug_loc     0x0002117e       0x58 d:/eda/quartus13/nios2eds/bin/gnu/h-i686-mingw32/bin/../lib/gcc/nios2-elf/4.7.3/../../../../../H-i686-mingw32/nios2-elf/lib\libc.a(lib_a-calloc.o)
 .debug_loc     0x000211d6       0x3e d:/eda/quartus13/nios2eds/bin/gnu/h-i686-mingw32/bin/../lib/gcc/nios2-elf/4.7.3/../../../../../H-i686-mingw32/nios2-elf/lib\libc.a(lib_a-exit.o)
 .debug_loc     0x00021214       0x58 d:/eda/quartus13/nios2eds/bin/gnu/h-i686-mingw32/bin/../lib/gcc/nios2-elf/4.7.3/../../../../../H-i686-mingw32/nios2-elf/lib\libc.a(lib_a-malloc.o)
 .debug_loc     0x0002126c       0xd1 d:/eda/quartus13/nios2eds/bin/gnu/h-i686-mingw32/bin/../lib/gcc/nios2-elf/4.7.3/../../../../../H-i686-mingw32/nios2-elf/lib\libc.a(lib_a-vprintf.o)
 .debug_loc     0x0002133d      0x134 d:/eda/quartus13/nios2eds/bin/gnu/h-i686-mingw32/bin/../lib/gcc/nios2-elf/4.7.3/../../../../../H-i686-mingw32/nios2-elf/lib\libc.a(lib_a-vsprintf.o)
 .debug_loc     0x00021471      0x194 d:/eda/quartus13/nios2eds/bin/gnu/h-i686-mingw32/bin/../lib/gcc/nios2-elf/4.7.3/../../../../../H-i686-mingw32/nios2-elf/lib\libc.a(lib_a-__atexit.o)
 .debug_loc     0x00021605      0x1e1 d:/eda/quartus13/nios2eds/bin/gnu/h-i686-mingw32/bin/../lib/gcc/nios2-elf/4.7.3/../../../../../H-i686-mingw32/nios2-elf/lib\libc.a(lib_a-__call_atexit.o)
 .debug_loc     0x000217e6       0x2c F:/Qsys/qsys_webserver/qsys/software/qsys_webserver_bsp/\libucosii_bsp.a(alt_exit.o)

.debug_macinfo
 *(.debug_macinfo)

.debug_weaknames
 *(.debug_weaknames)

.debug_funcnames
 *(.debug_funcnames)

.debug_typenames
 *(.debug_typenames)

.debug_varnames
 *(.debug_varnames)

.debug_alt_sim_info
                0x00000000       0x50
 *(.debug_alt_sim_info)
 .debug_alt_sim_info
                0x00000000       0x20 F:/Qsys/qsys_webserver/qsys/software/qsys_webserver_bsp//obj/HAL/src/crt0.o
 .debug_alt_sim_info
                0x00000020       0x30 F:/Qsys/qsys_webserver/qsys/software/qsys_webserver_bsp/\libucosii_bsp.a(alt_busy_sleep.o)
                0x04000000                __alt_data_end = 0x4000000
                0x04000000                PROVIDE (__alt_stack_pointer, __alt_data_end)
                0x0263e1bc                PROVIDE (__alt_stack_limit, __alt_stack_base)
                0x0263e1bc                PROVIDE (__alt_heap_start, end)
                0x04000000                PROVIDE (__alt_heap_limit, 0x4000000)
OUTPUT(qsys_webserver.elf elf32-littlenios2)

.debug_ranges   0x00000000      0xef8
 .debug_ranges  0x00000000       0x20 d:/eda/quartus13/nios2eds/bin/gnu/h-i686-mingw32/bin/../lib/gcc/nios2-elf/4.7.3/../../../../../H-i686-mingw32/nios2-elf/lib\libc.a(lib_a-fflush.o)
 .debug_ranges  0x00000020       0x18 d:/eda/quartus13/nios2eds/bin/gnu/h-i686-mingw32/bin/../lib/gcc/nios2-elf/4.7.3/../../../../../H-i686-mingw32/nios2-elf/lib\libc.a(lib_a-fread.o)
 .debug_ranges  0x00000038       0x80 d:/eda/quartus13/nios2eds/bin/gnu/h-i686-mingw32/bin/../lib/gcc/nios2-elf/4.7.3/../../../../../H-i686-mingw32/nios2-elf/lib\libc.a(lib_a-fwalk.o)
 .debug_ranges  0x000000b8       0x70 d:/eda/quartus13/nios2eds/bin/gnu/h-i686-mingw32/bin/../lib/gcc/nios2-elf/4.7.3/../../../../../H-i686-mingw32/nios2-elf/lib\libc.a(lib_a-mallocr.o)
 .debug_ranges  0x00000128       0x18 d:/eda/quartus13/nios2eds/bin/gnu/h-i686-mingw32/bin/../lib/gcc/nios2-elf/4.7.3/../../../../../H-i686-mingw32/nios2-elf/lib\libc.a(lib_a-strcasecmp.o)
 .debug_ranges  0x00000140       0xb8 d:/eda/quartus13/nios2eds/bin/gnu/h-i686-mingw32/bin/../lib/gcc/nios2-elf/4.7.3/../../../../../H-i686-mingw32/nios2-elf/lib\libc.a(lib_a-strstr.o)
 .debug_ranges  0x000001f8      0x150 d:/eda/quartus13/nios2eds/bin/gnu/h-i686-mingw32/bin/../lib/gcc/nios2-elf/4.7.3/../../../../../H-i686-mingw32/nios2-elf/lib\libc.a(lib_a-vfprintf.o)
 .debug_ranges  0x00000348      0x1d0 d:/eda/quartus13/nios2eds/bin/gnu/h-i686-mingw32/bin/../lib/gcc/nios2-elf/4.7.3/../../../../../H-i686-mingw32/nios2-elf/lib\libc.a(lib_a-vfscanf.o)
 .debug_ranges  0x00000518       0x18 d:/eda/quartus13/nios2eds/bin/gnu/h-i686-mingw32/bin/../lib/gcc/nios2-elf/4.7.3/../../../../../H-i686-mingw32/nios2-elf/lib\libc.a(lib_a-fvwrite.o)
 .debug_ranges  0x00000530       0x40 d:/eda/quartus13/nios2eds/bin/gnu/h-i686-mingw32/bin/../lib/gcc/nios2-elf/4.7.3/../../../../../H-i686-mingw32/nios2-elf/lib\libc.a(lib_a-mprec.o)
 .debug_ranges  0x00000570      0x158 d:/eda/quartus13/nios2eds/bin/gnu/h-i686-mingw32/bin/../lib/gcc/nios2-elf/4.7.3/../../../../../H-i686-mingw32/nios2-elf/lib\libc.a(lib_a-reallocr.o)
 .debug_ranges  0x000006c8      0x108 d:/eda/quartus13/nios2eds/bin/gnu/h-i686-mingw32/bin/../lib/gcc/nios2-elf/4.7.3/../../../../../H-i686-mingw32/nios2-elf/lib\libc.a(lib_a-strtod.o)
 .debug_ranges  0x000007d0       0x48 d:/eda/quartus13/nios2eds/bin/gnu/h-i686-mingw32/bin/../lib/gcc/nios2-elf/4.7.3/../../../../../H-i686-mingw32/nios2-elf/lib\libc.a(lib_a-callocr.o)
 .debug_ranges  0x00000818       0x40 d:/eda/quartus13/nios2eds/bin/gnu/h-i686-mingw32/bin/../lib/gcc/nios2-elf/4.7.3/../../../../../H-i686-mingw32/nios2-elf/lib\libc.a(lib_a-gdtoa-gethex.o)
 .debug_ranges  0x00000858       0x30 d:/eda/quartus13/nios2eds/bin/gnu/h-i686-mingw32/bin/../lib/gcc/nios2-elf/4.7.3\libgcc.a(_muldi3.o)
 .debug_ranges  0x00000888      0x1a0 d:/eda/quartus13/nios2eds/bin/gnu/h-i686-mingw32/bin/../lib/gcc/nios2-elf/4.7.3\libgcc.a(_udivdi3.o)
 .debug_ranges  0x00000a28      0x160 d:/eda/quartus13/nios2eds/bin/gnu/h-i686-mingw32/bin/../lib/gcc/nios2-elf/4.7.3\libgcc.a(_umoddi3.o)
 .debug_ranges  0x00000b88       0x38 d:/eda/quartus13/nios2eds/bin/gnu/h-i686-mingw32/bin/../lib/gcc/nios2-elf/4.7.3\libgcc.a(_addsub_df.o)
 .debug_ranges  0x00000bc0       0x78 d:/eda/quartus13/nios2eds/bin/gnu/h-i686-mingw32/bin/../lib/gcc/nios2-elf/4.7.3\libgcc.a(_mul_df.o)
 .debug_ranges  0x00000c38       0x50 d:/eda/quartus13/nios2eds/bin/gnu/h-i686-mingw32/bin/../lib/gcc/nios2-elf/4.7.3\libgcc.a(_div_df.o)
 .debug_ranges  0x00000c88       0x30 d:/eda/quartus13/nios2eds/bin/gnu/h-i686-mingw32/bin/../lib/gcc/nios2-elf/4.7.3\libgcc.a(_si_to_df.o)
 .debug_ranges  0x00000cb8       0x48 d:/eda/quartus13/nios2eds/bin/gnu/h-i686-mingw32/bin/../lib/gcc/nios2-elf/4.7.3\libgcc.a(_usi_to_df.o)
 .debug_ranges  0x00000d00       0x28 d:/eda/quartus13/nios2eds/bin/gnu/h-i686-mingw32/bin/../lib/gcc/nios2-elf/4.7.3\libgcc.a(_clzsi2.o)
 .debug_ranges  0x00000d28       0x18 d:/eda/quartus13/nios2eds/bin/gnu/h-i686-mingw32/bin/../lib/gcc/nios2-elf/4.7.3\libgcc.a(_pack_df.o)
 .debug_ranges  0x00000d40       0x30 F:/Qsys/qsys_webserver/qsys/software/qsys_webserver_bsp/\libucosii_bsp.a(altera_avalon_jtag_uart_init.o)
 .debug_ranges  0x00000d70       0x18 F:/Qsys/qsys_webserver/qsys/software/qsys_webserver_bsp/\libucosii_bsp.a(altera_avalon_jtag_uart_read.o)
 .debug_ranges  0x00000d88       0x30 F:/Qsys/qsys_webserver/qsys/software/qsys_webserver_bsp/\libucosii_bsp.a(pktalloc.o)
 .debug_ranges  0x00000db8       0x18 F:/Qsys/qsys_webserver/qsys/software/qsys_webserver_bsp/\libucosii_bsp.a(nptcp.o)
 .debug_ranges  0x00000dd0       0x48 F:/Qsys/qsys_webserver/qsys/software/qsys_webserver_bsp/\libucosii_bsp.a(tcp_in.o)
 .debug_ranges  0x00000e18       0x18 F:/Qsys/qsys_webserver/qsys/software/qsys_webserver_bsp/\libucosii_bsp.a(tcp_out.o)
 .debug_ranges  0x00000e30       0x30 F:/Qsys/qsys_webserver/qsys/software/qsys_webserver_bsp/\libucosii_bsp.a(alt_iic.o)
 .debug_ranges  0x00000e60       0x28 F:/Qsys/qsys_webserver/qsys/software/qsys_webserver_bsp/\libucosii_bsp.a(alt_irq_entry.o)
 .debug_ranges  0x00000e88       0x10 F:/Qsys/qsys_webserver/qsys/software/qsys_webserver_bsp/\libucosii_bsp.a(alt_irq_handler.o)
 .debug_ranges  0x00000e98       0x18 F:/Qsys/qsys_webserver/qsys/software/qsys_webserver_bsp/\libucosii_bsp.a(ipdemux.o)
 .debug_ranges  0x00000eb0       0x30 F:/Qsys/qsys_webserver/qsys/software/qsys_webserver_bsp/\libucosii_bsp.a(alt_exception_entry.o)
 .debug_ranges  0x00000ee0       0x18 d:/eda/quartus13/nios2eds/bin/gnu/h-i686-mingw32/bin/../lib/gcc/nios2-elf/4.7.3/../../../../../H-i686-mingw32/nios2-elf/lib\libc.a(lib_a-__call_atexit.o)
