
colorbar.elf:     file format elf32-littlenios2
colorbar.elf
architecture: nios2, flags 0x00000112:
EXEC_P, HAS_SYMS, D_PAGED
start address 0x020001b8

Program Header:
    LOAD off    0x00001020 vaddr 0x02000020 paddr 0x02000020 align 2**12
         filesz 0x0000b0f4 memsz 0x0000b3c4 flags rwx
    LOAD off    0x0000d000 vaddr 0x04001000 paddr 0x04001000 align 2**12
         filesz 0x00000000 memsz 0x00000000 flags r-x

Sections:
Idx Name          Size      VMA       LMA       File off  Algn
  0 .entry        00000000  04001000  04001000  0000d000  2**5
                  CONTENTS, ALLOC, LOAD, READONLY, CODE
  1 .exceptions   00000198  02000020  02000020  00001020  2**2
                  CONTENTS, ALLOC, LOAD, READONLY, CODE
  2 .text         000096f8  020001b8  020001b8  000011b8  2**2
                  CONTENTS, ALLOC, LOAD, READONLY, CODE
  3 .rodata       00000154  020098b0  020098b0  0000a8b0  2**2
                  CONTENTS, ALLOC, LOAD, READONLY, DATA
  4 .rwdata       00001710  02009a04  02009a04  0000aa04  2**2
                  CONTENTS, ALLOC, LOAD, DATA, SMALL_DATA
  5 .bss          000002d0  0200b114  0200b114  0000c114  2**2
                  ALLOC, SMALL_DATA
  6 .comment      00000023  00000000  00000000  0000d000  2**0
                  CONTENTS, READONLY
  7 .debug_aranges 00000838  00000000  00000000  0000d028  2**3
                  CONTENTS, READONLY, DEBUGGING
  8 .debug_info   0000c0cb  00000000  00000000  0000d860  2**0
                  CONTENTS, READONLY, DEBUGGING
  9 .debug_abbrev 00004386  00000000  00000000  0001992b  2**0
                  CONTENTS, READONLY, DEBUGGING
 10 .debug_line   000043c2  00000000  00000000  0001dcb1  2**0
                  CONTENTS, READONLY, DEBUGGING
 11 .debug_frame  0000110c  00000000  00000000  00022074  2**2
                  CONTENTS, READONLY, DEBUGGING
 12 .debug_str    000020b8  00000000  00000000  00023180  2**0
                  CONTENTS, READONLY, DEBUGGING
 13 .debug_loc    000032be  00000000  00000000  00025238  2**0
                  CONTENTS, READONLY, DEBUGGING
 14 .debug_alt_sim_info 00000050  00000000  00000000  000284f8  2**2
                  CONTENTS, READONLY, DEBUGGING
 15 .debug_ranges 00000248  00000000  00000000  00028548  2**3
                  CONTENTS, READONLY, DEBUGGING
 16 .thread_model 00000003  00000000  00000000  0002acc5  2**0
                  CONTENTS, READONLY
 17 .cpu          0000000a  00000000  00000000  0002acc8  2**0
                  CONTENTS, READONLY
 18 .qsys         00000001  00000000  00000000  0002acd2  2**0
                  CONTENTS, READONLY
 19 .simulation_enabled 00000001  00000000  00000000  0002acd3  2**0
                  CONTENTS, READONLY
 20 .sysid_hash   00000004  00000000  00000000  0002acd4  2**0
                  CONTENTS, READONLY
 21 .sysid_base   00000004  00000000  00000000  0002acd8  2**0
                  CONTENTS, READONLY
 22 .sysid_time   00000004  00000000  00000000  0002acdc  2**0
                  CONTENTS, READONLY
 23 .stderr_dev   00000009  00000000  00000000  0002ace0  2**0
                  CONTENTS, READONLY
 24 .stdin_dev    00000009  00000000  00000000  0002ace9  2**0
                  CONTENTS, READONLY
 25 .stdout_dev   00000009  00000000  00000000  0002acf2  2**0
                  CONTENTS, READONLY
 26 .sopc_system_name 00000004  00000000  00000000  0002acfb  2**0
                  CONTENTS, READONLY
 27 .quartus_project_dir 00000037  00000000  00000000  0002acff  2**0
                  CONTENTS, READONLY
 28 .sopcinfo     0007b568  00000000  00000000  0002ad36  2**0
                  CONTENTS, READONLY
SYMBOL TABLE:
04001000 l    d  .entry	00000000 .entry
02000020 l    d  .exceptions	00000000 .exceptions
020001b8 l    d  .text	00000000 .text
020098b0 l    d  .rodata	00000000 .rodata
02009a04 l    d  .rwdata	00000000 .rwdata
0200b114 l    d  .bss	00000000 .bss
00000000 l    d  .comment	00000000 .comment
00000000 l    d  .debug_aranges	00000000 .debug_aranges
00000000 l    d  .debug_info	00000000 .debug_info
00000000 l    d  .debug_abbrev	00000000 .debug_abbrev
00000000 l    d  .debug_line	00000000 .debug_line
00000000 l    d  .debug_frame	00000000 .debug_frame
00000000 l    d  .debug_str	00000000 .debug_str
00000000 l    d  .debug_loc	00000000 .debug_loc
00000000 l    d  .debug_alt_sim_info	00000000 .debug_alt_sim_info
00000000 l    d  .debug_ranges	00000000 .debug_ranges
00000000 l    df *ABS*	00000000 D:/project/qsys_Nios_II_colorbar/qsys/software/colorbar_bsp//obj/HAL/src/crt0.o
020001fc l       .text	00000000 alt_after_alt_main
00000000 l    df *ABS*	00000000 alt_exception_entry.o
02000094 l       .exceptions	00000000 alt_exception_unknown
00000000 l    df *ABS*	00000000 alt_irq_handler.c
00000000 l    df *ABS*	00000000 delay.c
00000000 l    df *ABS*	00000000 mculcd.c
00000000 l    df *ABS*	00000000 rgblcd.c
00000000 l    df *ABS*	00000000 main.c
00000000 l    df *ABS*	00000000 libgcc2.c
00000000 l    df *ABS*	00000000 fp-bit.c
020054bc l     F .text	00000354 _fpadd_parts
00000000 l    df *ABS*	00000000 fp-bit.c
00000000 l    df *ABS*	00000000 fp-bit.c
00000000 l    df *ABS*	00000000 fp-bit.c
00000000 l    df *ABS*	00000000 fp-bit.c
00000000 l    df *ABS*	00000000 fp-bit.c
00000000 l    df *ABS*	00000000 lib2-divmod.c
02005db4 l     F .text	00000074 udivmodsi4
00000000 l    df *ABS*	00000000 libgcc2.c
00000000 l    df *ABS*	00000000 libgcc2.c
00000000 l    df *ABS*	00000000 fp-bit.c
00000000 l    df *ABS*	00000000 fp-bit.c
00000000 l    df *ABS*	00000000 fp-bit.c
00000000 l    df *ABS*	00000000 libgcc2.c
00000000 l    df *ABS*	00000000 libgcc2.c
00000000 l    df *ABS*	00000000 libgcc2.c
00000000 l    df *ABS*	00000000 alt_dcache_flush_all.c
00000000 l    df *ABS*	00000000 alt_main.c
00000000 l    df *ABS*	00000000 alt_usleep.c
00000000 l    df *ABS*	00000000 alt_sys_init.c
0200655c l     F .text	00000038 alt_dev_reg
02009a04 l     O .rwdata	000000c8 epcs_flash
02009acc l     O .rwdata	00001060 jtag_uart
00000000 l    df *ABS*	00000000 altera_avalon_epcs_flash_controller.c
0200661c l     F .text	00000038 alt_flash_device_register
020066a8 l     F .text	0000028c alt_epcs_flash_query
02006934 l     F .text	000000e8 alt_epcs_flash_memcmp
02006d08 l     F .text	00000094 alt_epcs_test_address
00000000 l    df *ABS*	00000000 altera_avalon_jtag_uart_fd.c
00000000 l    df *ABS*	00000000 altera_avalon_jtag_uart_init.c
020071d0 l     F .text	00000204 altera_avalon_jtag_uart_irq
020073d4 l     F .text	000000a4 altera_avalon_jtag_uart_timeout
00000000 l    df *ABS*	00000000 altera_avalon_jtag_uart_ioctl.c
00000000 l    df *ABS*	00000000 altera_avalon_jtag_uart_read.c
00000000 l    df *ABS*	00000000 altera_avalon_jtag_uart_write.c
00000000 l    df *ABS*	00000000 epcs_commands.c
02007a6c l     F .text	00000038 epcs_test_wip
02007aa4 l     F .text	00000038 epcs_await_wip_released
00000000 l    df *ABS*	00000000 alt_alarm_start.c
00000000 l    df *ABS*	00000000 alt_busy_sleep.c
00000000 l    df *ABS*	00000000 alt_close.c
020082c8 l     F .text	00000050 alt_get_errno
00000000 l    df *ABS*	00000000 alt_dev.c
020083e0 l     F .text	0000002c alt_dev_null_write
00000000 l    df *ABS*	00000000 alt_dev_llist_insert.c
0200840c l     F .text	00000050 alt_get_errno
00000000 l    df *ABS*	00000000 alt_do_ctors.c
00000000 l    df *ABS*	00000000 alt_do_dtors.c
00000000 l    df *ABS*	00000000 alt_errno.c
00000000 l    df *ABS*	00000000 alt_flash_dev.c
00000000 l    df *ABS*	00000000 alt_iic.c
00000000 l    df *ABS*	00000000 alt_iic_isr_register.c
00000000 l    df *ABS*	00000000 alt_io_redirect.c
02008934 l     F .text	000000c0 alt_open_fd
00000000 l    df *ABS*	00000000 alt_irq_vars.c
00000000 l    df *ABS*	00000000 alt_open.c
02008a6c l     F .text	00000050 alt_get_errno
02008abc l     F .text	000000cc alt_file_locked
00000000 l    df *ABS*	00000000 alt_release_fd.c
00000000 l    df *ABS*	00000000 alt_tick.c
00000000 l    df *ABS*	00000000 altera_nios2_qsys_irq.c
00000000 l    df *ABS*	00000000 altera_avalon_spi.c
00000000 l    df *ABS*	00000000 alt_find_dev.c
00000000 l    df *ABS*	00000000 alt_find_file.c
00000000 l    df *ABS*	00000000 alt_get_fd.c
00000000 l    df *ABS*	00000000 atexit.c
00000000 l    df *ABS*	00000000 exit.c
00000000 l    df *ABS*	00000000 impure.c
0200acd4 l     O .rwdata	00000400 impure_data
00000000 l    df *ABS*	00000000 int_errno.c
00000000 l    df *ABS*	00000000 memcmp.c
00000000 l    df *ABS*	00000000 memcpy.c
00000000 l    df *ABS*	00000000 strlen.c
00000000 l    df *ABS*	00000000 __atexit.c
00000000 l    df *ABS*	00000000 __call_atexit.c
00000000 l    df *ABS*	00000000 alt_exit.c
00000000 l    df *ABS*	00000000 
02006c7c g     F .text	0000008c alt_epcs_flash_get_info
02000fe0 g     F .text	00000048 LCD_DrawPoint
020064b4 g     F .text	00000078 alt_main
0200642c g     F .text	00000044 __ashldi3
0200b154 g     O .bss	00000100 alt_irq
0200b0d8 g     O .rwdata	00000004 BACK_COLOR
0200b0dc g     O .rwdata	00000004 ram_disp
04001000 g       *ABS*	00000000 __alt_mem_epcs_flash
02000678 g     F .text	00000088 LCD_DisplayOn
00000000  w      *UND*	00000000 __errno
02007adc g     F .text	000000f8 epcs_sector_erase
04001000 g     F .entry	00000000 __reset
020048f0 g     F .text	0000008c LCD_Clear
0200b134 g     O .bss	00000004 errno
0200b0d4 g     O .rwdata	00000004 POINT_COLOR
0200b120 g     O .bss	00000004 alt_argv
020130d4 g       *ABS*	00000000 _gp
0200652c g     F .text	00000030 usleep
02000a5c g     F .text	00000584 LCD_Scan_Dir
0200ab54 g     O .rwdata	00000180 alt_fd_list
020012a4 g     F .text	000000b0 LCD_SSD_BackLightSet
02007d18 g     F .text	00000068 epcs_write_status_register
02009100 g     F .text	00000090 alt_find_dev
02009420 g     F .text	000000f8 memcpy
02005c0c g     F .text	000000d4 __floatsidf
020089f4 g     F .text	00000078 alt_io_redirect
02000454 g     F .text	00000038 LCD_WriteRAM_Prepare
020098b0 g       *ABS*	00000000 __DTOR_END__
02006e10 g     F .text	00000104 alt_epcs_flash_write_block
020075d4 g     F .text	00000218 altera_avalon_jtag_uart_read
02004b0c g     F .text	000001b0 LCD_DrawLine
00000000  w      *UND*	00000000 malloc
02005ed4 g     F .text	00000008 __udivsi3
02005438 g     F .text	00000084 __fixunsdfsi
02000700 g     F .text	00000088 LCD_DisplayOff
02000268 g     F .text	00000070 LCD_WR_CMD
02001a7c g     F .text	00002e74 MY_LCD_Init
0200b0f0 g     O .rwdata	00000004 alt_max_fd
02006214 g     F .text	00000104 __unpack_d
020016c8 g     F .text	000003b4 LCD_Set_Window
02005810 g     F .text	00000054 __adddf3
02006d9c g     F .text	00000074 alt_epcs_flash_erase_block
0200b10c g     O .rwdata	00000004 _global_impure_ptr
02007fdc g     F .text	00000058 epcs_exit_4_bytes_mode
0200b3e4 g       *ABS*	00000000 __bss_end
02008844 g     F .text	000000f0 alt_iic_isr_register
02008dd4 g     F .text	00000104 alt_tick
020087f8 g     F .text	0000004c alt_ic_irq_enabled
02008d3c g     F .text	00000098 alt_alarm_stop
0200b128 g     O .bss	00000004 alt_irq_active
020000ec g     F .exceptions	000000cc alt_irq_handler
0200ab2c g     O .rwdata	00000028 alt_dev_null
02006470 g     F .text	00000044 alt_dcache_flush_all
02005ce0 g     F .text	000000d4 __fixdfsi
0200052c g     F .text	0000014c LCD_ReadPoint
020002d8 g     F .text	00000070 LCD_WR_DATA
0200b0e8 g     O .rwdata	00000008 alt_dev_list
020063e8 g     F .text	00000044 __lshrdi3
02005edc g     F .text	00000008 __umodsi3
02007e9c g     F .text	00000068 epcs_read_electronic_signature
0200b3e4 g       *ABS*	00000000 end
02007110 g     F .text	000000c0 altera_avalon_jtag_uart_init
020098b0 g       *ABS*	00000000 __CTOR_LIST__
04000000 g       *ABS*	00000000 __alt_stack_pointer
02005f44 g     F .text	000000ac __clzsi2
020077ec g     F .text	00000224 altera_avalon_jtag_uart_write
02001354 g     F .text	00000374 LCD_Display_Dir
02000788 g     F .text	000002d4 LCD_SetCursor
020096d4 g     F .text	000001a0 __call_exitprocs
020001b8 g     F .text	00000048 _start
0200b12c g     O .bss	00000004 _alt_tick_rate
02008ef8 g     F .text	00000208 alt_avalon_spi_command
0200b130 g     O .bss	00000004 _alt_nticks
020065c8 g     F .text	00000054 alt_sys_init
020095a4 g     F .text	00000130 __register_exitproc
02007478 g     F .text	00000068 altera_avalon_jtag_uart_close
02007a10 g     F .text	0000005c epcs_read_status_register
02006fac g     F .text	00000060 altera_avalon_jtag_uart_read_fd
020092a4 g     F .text	000000b4 alt_get_fd
02008174 g     F .text	00000154 alt_busy_sleep
02006318 g     F .text	000000d0 __fpcmp_parts_d
02007f04 g     F .text	00000080 epcs_read_device_id
020093a4 g     F .text	0000007c memcmp
0200706c g     F .text	00000050 altera_avalon_jtag_uart_close_fd
0200b3e4 g       *ABS*	00000000 __alt_stack_base
020070bc g     F .text	00000054 altera_avalon_jtag_uart_ioctl_fd
020058c4 g     F .text	000002e4 __muldf3
02000238 g     F .text	00000030 delay_us
02009190 g     F .text	00000114 alt_find_file
0200845c g     F .text	000000a0 alt_dev_llist_insert
0200b0f8 g     O .rwdata	00000008 alt_flash_dev_list
0200b114 g       *ABS*	00000000 __bss_start
02005284 g     F .text	000001b4 main
02000200 g     F .text	00000038 delay_ms
0200b124 g     O .bss	00000004 alt_envp
02005038 g     F .text	00000100 LTDC_PanelID_Read
0200700c g     F .text	00000060 altera_avalon_jtag_uart_write_fd
02004a24 g     F .text	000000e8 LCD_Color_Fill
0200048c g     F .text	00000030 LCD_WriteRAM
0200b254 g     O .bss	00000190 _atexit0
0200b0f4 g     O .rwdata	00000004 alt_errno
02001028 g     F .text	0000027c LCD_Fast_DrawPoint
02005e28 g     F .text	00000050 __divsi3
020098b0 g     O .rodata	00000014 __thenan_df
020098b0 g       *ABS*	00000000 __CTOR_END__
02006a1c g     F .text	00000260 alt_epcs_flash_write
020098b0 g       *ABS*	00000000 __DTOR_LIST__
0200497c g     F .text	000000a8 LCD_Fill
02006594 g     F .text	00000034 alt_irq_init
02008cdc g     F .text	00000060 alt_release_fd
020098c4 g     O .rodata	00000100 __clz_tab
0200b138 g     O .bss	0000001c lcddev
02009358 g     F .text	00000014 atexit
020003dc g     F .text	0000003c LCD_WriteReg
0200b110 g     O .rwdata	00000004 _impure_ptr
0200b11c g     O .bss	00000004 alt_argc
02008558 g     F .text	0000005c _do_dtors
02004d40 g     F .text	000001e8 LCD_Draw_Circle
02000020 g       .exceptions	00000000 alt_irq_entry
0200b0e0 g     O .rwdata	00000008 alt_fs_list
02004f90 g     F .text	000000a8 LCD_DisplayPic
02007bd4 g     F .text	000000f4 epcs_read_buffer
02004f28 g     F .text	00000068 LCD_Pow
02006654 g     F .text	00000054 alt_epcs_flash_init
0200866c g     F .text	00000050 alt_ic_isr_register
02005138 g     F .text	0000014c LTDC_Init
0200b114 g       *ABS*	00000000 _edata
0200b3e4 g       *ABS*	00000000 _end
020085b4 g     F .text	00000068 alt_flash_open_dev
020074e0 g     F .text	000000f4 altera_avalon_jtag_uart_ioctl
02008758 g     F .text	000000a0 alt_ic_irq_disable
02007f84 g     F .text	00000058 epcs_enter_4_bytes_mode
02008ed8 g     F .text	00000020 altera_nios2_qsys_irq_init
0200936c g     F .text	00000038 exit
0200861c g     F .text	00000050 alt_flash_close_dev
02005e78 g     F .text	0000005c __modsi3
04000000 g       *ABS*	00000000 __alt_data_end
02000020 g     F .exceptions	00000000 alt_exception
02000000 g       *ABS*	00000000 __alt_mem_sdram
0200b114 g     O .bss	00000008 lcdgui
02009874 g     F .text	0000003c _exit
02008034 g     F .text	00000140 alt_alarm_start
02005ee4 g     F .text	00000060 __muldi3
02009518 g     F .text	0000008c strlen
02007cc8 g     F .text	00000050 epcs_write_enable
02008b88 g     F .text	00000154 open
02005ba8 g     F .text	00000064 __gedf2
0200b100 g     O .rwdata	00000004 alt_priority_mask
020086bc g     F .text	0000009c alt_ic_irq_enable
02005864 g     F .text	00000060 __subdf3
02006f14 g     F .text	00000098 alt_epcs_flash_read
0200b104 g     O .rwdata	00000008 alt_alarm_list
02000348 g     F .text	00000094 LCD_RD_DATA
020084fc g     F .text	0000005c _do_ctors
02008318 g     F .text	000000c8 close
02000418 g     F .text	0000003c LCD_ReadReg
02005ff0 g     F .text	00000224 __pack_d
020004bc g     F .text	00000070 LCD_BGR2RGB
02004cbc g     F .text	00000084 LCD_DrawRectangle
00000000  w      *UND*	00000000 free
02007d80 g     F .text	0000011c epcs_write_buffer



Disassembly of section .exceptions:

02000020 <alt_exception>:

#else /* ALT_EXCEPTION_STACK disabled */
        /* 
         * Reserve space on normal stack for registers about to be pushed.
         */
        addi  sp, sp, -76
 2000020:	deffed04 	addi	sp,sp,-76
         * documentation for details).
         *
         * Leave a gap in the stack frame at 4(sp) for the muldiv handler to
         * store zero into.
         */
        stw   ra,  0(sp)
 2000024:	dfc00015 	stw	ra,0(sp)
        stw   r1,   8(sp)
 2000028:	d8400215 	stw	at,8(sp)
        stw   r2,  12(sp)
 200002c:	d8800315 	stw	r2,12(sp)
        stw   r3,  16(sp)
 2000030:	d8c00415 	stw	r3,16(sp)
        stw   r4,  20(sp)
 2000034:	d9000515 	stw	r4,20(sp)
        stw   r5,  24(sp)
 2000038:	d9400615 	stw	r5,24(sp)
        stw   r6,  28(sp)
 200003c:	d9800715 	stw	r6,28(sp)
        stw   r7,  32(sp)
 2000040:	d9c00815 	stw	r7,32(sp)
        rdctl r5, estatus   /* Read early to avoid usage stall */
 2000044:	000b307a 	rdctl	r5,estatus
        stw   r8,  36(sp)
 2000048:	da000915 	stw	r8,36(sp)
        stw   r9,  40(sp)
 200004c:	da400a15 	stw	r9,40(sp)
        stw   r10, 44(sp)
 2000050:	da800b15 	stw	r10,44(sp)
        stw   r11, 48(sp)
 2000054:	dac00c15 	stw	r11,48(sp)
        stw   r12, 52(sp)
 2000058:	db000d15 	stw	r12,52(sp)
        stw   r13, 56(sp)
 200005c:	db400e15 	stw	r13,56(sp)
        stw   r14, 60(sp)
 2000060:	db800f15 	stw	r14,60(sp)
        stw   r15, 64(sp)
 2000064:	dbc01015 	stw	r15,64(sp)
        /*
         * ea-4 contains the address of the instruction being executed
         * when the exception occured. For interrupt exceptions, we will
         * will be re-issue the isntruction. Store it in 72(sp)
         */
        stw   r5,  68(sp)  /* estatus */
 2000068:	d9401115 	stw	r5,68(sp)
        addi  r15, ea, -4  /* instruction that caused exception */
 200006c:	ebffff04 	addi	r15,ea,-4
        stw   r15,  72(sp)
 2000070:	dbc01215 	stw	r15,72(sp)
#else
        /*
         * Test to see if the exception was a software exception or caused 
         * by an external interrupt, and vector accordingly.
         */
        rdctl r4, ipending
 2000074:	0009313a 	rdctl	r4,ipending
        andi  r2, r5, 1
 2000078:	2880004c 	andi	r2,r5,1
        beq   r2, zero, .Lnot_irq
 200007c:	10000326 	beq	r2,zero,200008c <alt_exception+0x6c>
        beq   r4, zero, .Lnot_irq
 2000080:	20000226 	beq	r4,zero,200008c <alt_exception+0x6c>
        /*
         * Now that all necessary registers have been preserved, call 
         * alt_irq_handler() to process the interrupts.
         */

        call alt_irq_handler
 2000084:	20000ec0 	call	20000ec <alt_irq_handler>

        .section .exceptions.irqreturn, "xa"

        br    .Lexception_exit
 2000088:	00000306 	br	2000098 <alt_exception_unknown+0x4>
         * upon completion, so we write ea (address of instruction *after*
         * the one where the exception occured) into 72(sp). The actual
         * instruction that caused the exception is written in r2, which these
         * handlers will utilize.
         */
        stw   ea,  72(sp)  /* Don't re-issue */
 200008c:	df401215 	stw	ea,72(sp)
        ldw   r2, -4(ea)   /* Instruction that caused exception */
 2000090:	e8bfff17 	ldw	r2,-4(ea)

02000094 <alt_exception_unknown>:
#ifdef NIOS2_HAS_DEBUG_STUB
       /*
        *  Either tell the user now (if there is a debugger attached) or go into
        *  the debug monitor which will loop until a debugger is attached.
        */
        break
 2000094:	003da03a 	break	0
        /* 
         * Restore the saved registers, so that all general purpose registers 
         * have been restored to their state at the time the interrupt occured.
         */

        ldw   r5,  68(sp)
 2000098:	d9401117 	ldw	r5,68(sp)
        ldw   ea,  72(sp)  /* This becomes the PC once eret is executed */
 200009c:	df401217 	ldw	ea,72(sp)
        ldw   ra,   0(sp)
 20000a0:	dfc00017 	ldw	ra,0(sp)

        wrctl estatus, r5
 20000a4:	2801707a 	wrctl	estatus,r5

        ldw   r1,   8(sp)
 20000a8:	d8400217 	ldw	at,8(sp)
        ldw   r2,  12(sp)
 20000ac:	d8800317 	ldw	r2,12(sp)
        ldw   r3,  16(sp)
 20000b0:	d8c00417 	ldw	r3,16(sp)
        ldw   r4,  20(sp)
 20000b4:	d9000517 	ldw	r4,20(sp)
        ldw   r5,  24(sp)
 20000b8:	d9400617 	ldw	r5,24(sp)
        ldw   r6,  28(sp)
 20000bc:	d9800717 	ldw	r6,28(sp)
        ldw   r7,  32(sp)
 20000c0:	d9c00817 	ldw	r7,32(sp)

#if defined(ALT_EXCEPTION_STACK) && defined(ALT_STACK_CHECK)
        ldw   et, %gprel(alt_exception_old_stack_limit)(gp)
#endif

        ldw   r8,  36(sp)
 20000c4:	da000917 	ldw	r8,36(sp)
        ldw   r9,  40(sp)
 20000c8:	da400a17 	ldw	r9,40(sp)
        ldw   r10, 44(sp)
 20000cc:	da800b17 	ldw	r10,44(sp)
        ldw   r11, 48(sp)
 20000d0:	dac00c17 	ldw	r11,48(sp)
        ldw   r12, 52(sp)
 20000d4:	db000d17 	ldw	r12,52(sp)
        ldw   r13, 56(sp)
 20000d8:	db400e17 	ldw	r13,56(sp)
        ldw   r14, 60(sp)
 20000dc:	db800f17 	ldw	r14,60(sp)
        ldw   r15, 64(sp)
 20000e0:	dbc01017 	ldw	r15,64(sp)
        stw   et, %gprel(alt_stack_limit_value)(gp)
        stw   zero, %gprel(alt_exception_old_stack_limit)(gp)
#endif /* ALT_STACK_CHECK */
        ldw   sp,  76(sp)
#else /* ALT_EXCEPTION_STACK disabled */
        addi  sp, sp, 76
 20000e4:	dec01304 	addi	sp,sp,76

        /*
         * Return to the interrupted instruction.
         */

        eret
 20000e8:	ef80083a 	eret

020000ec <alt_irq_handler>:
 * instruction is present if the macro ALT_CI_INTERRUPT_VECTOR defined.
 */

void alt_irq_handler (void) __attribute__ ((section (".exceptions")));
void alt_irq_handler (void)
{
 20000ec:	defff904 	addi	sp,sp,-28
 20000f0:	dfc00615 	stw	ra,24(sp)
 20000f4:	df000515 	stw	fp,20(sp)
 20000f8:	df000504 	addi	fp,sp,20
  
  /*
   * Notify the operating system that we are at interrupt level.
   */ 
  
  ALT_OS_INT_ENTER();
 20000fc:	0001883a 	nop
#ifndef NIOS2_EIC_PRESENT
static ALT_INLINE alt_u32 ALT_ALWAYS_INLINE alt_irq_pending (void)
{
  alt_u32 active;

  NIOS2_READ_IPENDING (active);
 2000100:	0005313a 	rdctl	r2,ipending
 2000104:	e0bffe15 	stw	r2,-8(fp)

  return active;
 2000108:	e0bffe17 	ldw	r2,-8(fp)
   * Consider the case where the high priority interupt is asserted during
   * the interrupt entry sequence for a lower priority interrupt to see why
   * this is the case.
   */

  active = alt_irq_pending ();
 200010c:	e0bffb15 	stw	r2,-20(fp)

  do
  {
    i = 0;
 2000110:	e03ffd15 	stw	zero,-12(fp)
    mask = 1;
 2000114:	00800044 	movi	r2,1
 2000118:	e0bffc15 	stw	r2,-16(fp)
     * called to clear the interrupt condition.
     */

    do
    {
      if (active & mask)
 200011c:	e0fffb17 	ldw	r3,-20(fp)
 2000120:	e0bffc17 	ldw	r2,-16(fp)
 2000124:	1884703a 	and	r2,r3,r2
 2000128:	10001726 	beq	r2,zero,2000188 <alt_irq_handler+0x9c>
      { 
#ifdef ALT_ENHANCED_INTERRUPT_API_PRESENT
        alt_irq[i].handler(alt_irq[i].context); 
 200012c:	00c08074 	movhi	r3,513
 2000130:	18ec5504 	addi	r3,r3,-20140
 2000134:	e0bffd17 	ldw	r2,-12(fp)
 2000138:	100490fa 	slli	r2,r2,3
 200013c:	1885883a 	add	r2,r3,r2
 2000140:	10c00017 	ldw	r3,0(r2)
 2000144:	01008074 	movhi	r4,513
 2000148:	212c5504 	addi	r4,r4,-20140
 200014c:	e0bffd17 	ldw	r2,-12(fp)
 2000150:	100490fa 	slli	r2,r2,3
 2000154:	2085883a 	add	r2,r4,r2
 2000158:	10800104 	addi	r2,r2,4
 200015c:	10800017 	ldw	r2,0(r2)
 2000160:	1009883a 	mov	r4,r2
 2000164:	183ee83a 	callr	r3
#else
        alt_irq[i].handler(alt_irq[i].context, i); 
#endif
        break;
 2000168:	0001883a 	nop
#ifndef NIOS2_EIC_PRESENT
static ALT_INLINE alt_u32 ALT_ALWAYS_INLINE alt_irq_pending (void)
{
  alt_u32 active;

  NIOS2_READ_IPENDING (active);
 200016c:	0005313a 	rdctl	r2,ipending
 2000170:	e0bfff15 	stw	r2,-4(fp)

  return active;
 2000174:	e0bfff17 	ldw	r2,-4(fp)
      mask <<= 1;
      i++;

    } while (1);

    active = alt_irq_pending ();
 2000178:	e0bffb15 	stw	r2,-20(fp)
    
  } while (active);
 200017c:	e0bffb17 	ldw	r2,-20(fp)
 2000180:	103fe31e 	bne	r2,zero,2000110 <alt_irq_handler+0x24>

  /*
   * Notify the operating system that interrupt processing is complete.
   */ 

  ALT_OS_INT_EXIT();
 2000184:	00000706 	br	20001a4 <alt_irq_handler+0xb8>
#else
        alt_irq[i].handler(alt_irq[i].context, i); 
#endif
        break;
      }
      mask <<= 1;
 2000188:	e0bffc17 	ldw	r2,-16(fp)
 200018c:	1085883a 	add	r2,r2,r2
 2000190:	e0bffc15 	stw	r2,-16(fp)
      i++;
 2000194:	e0bffd17 	ldw	r2,-12(fp)
 2000198:	10800044 	addi	r2,r2,1
 200019c:	e0bffd15 	stw	r2,-12(fp)

    } while (1);
 20001a0:	003fde06 	br	200011c <alt_irq_handler+0x30>
  /*
   * Notify the operating system that interrupt processing is complete.
   */ 

  ALT_OS_INT_EXIT();
}
 20001a4:	e037883a 	mov	sp,fp
 20001a8:	dfc00117 	ldw	ra,4(sp)
 20001ac:	df000017 	ldw	fp,0(sp)
 20001b0:	dec00204 	addi	sp,sp,8
 20001b4:	f800283a 	ret

Disassembly of section .text:

020001b8 <_start>:

    /* Assume the data cache size is always a power of two. */
#if NIOS2_DCACHE_SIZE > 0x8000
    movhi r2, %hi(NIOS2_DCACHE_SIZE)
#else
    movui r2, NIOS2_DCACHE_SIZE
 20001b8:	00820014 	movui	r2,2048
#endif

0:
    initd 0(r2)
 20001bc:	10000033 	initd	0(r2)
#ifdef NIOS2_ECC_PRESENT
    addi r2, r2, -4
#else
    addi r2, r2, -NIOS2_DCACHE_LINE_SIZE
 20001c0:	10bff804 	addi	r2,r2,-32
#endif
    bgt r2, zero, 0b
 20001c4:	00bffd16 	blt	zero,r2,20001bc <_start+0x4>

    /*
     * Now that the caches are initialized, set up the stack pointer and global pointer.
     * The values provided by the linker are assumed to be correctly aligned.
     */
    movhi sp, %hi(__alt_stack_pointer)
 20001c8:	06c10034 	movhi	sp,1024
    ori sp, sp, %lo(__alt_stack_pointer)
 20001cc:	dec00014 	ori	sp,sp,0
    movhi gp, %hi(_gp)
 20001d0:	06808074 	movhi	gp,513
    ori gp, gp, %lo(_gp)
 20001d4:	d68c3514 	ori	gp,gp,12500
 */
#ifndef ALT_SIM_OPTIMIZE
    /* Log that the BSS is about to be cleared. */
    ALT_LOG_PUTS(alt_log_msg_bss)

    movhi r2, %hi(__bss_start)
 20001d8:	00808034 	movhi	r2,512
    ori r2, r2, %lo(__bss_start)
 20001dc:	10ac4514 	ori	r2,r2,45332

    movhi r3, %hi(__bss_end)
 20001e0:	00c08034 	movhi	r3,512
    ori r3, r3, %lo(__bss_end)
 20001e4:	18ecf914 	ori	r3,r3,46052

    beq r2, r3, 1f
 20001e8:	10c00326 	beq	r2,r3,20001f8 <_start+0x40>

0:
    stw zero, (r2)
 20001ec:	10000015 	stw	zero,0(r2)
    addi r2, r2, 4
 20001f0:	10800104 	addi	r2,r2,4
    bltu r2, r3, 0b
 20001f4:	10fffd36 	bltu	r2,r3,20001ec <_start+0x34>

    /* Log that alt_main is about to be called. */
    ALT_LOG_PUTS(alt_log_msg_alt_main)

    /* Call the C entry point. It should never return. */
    call alt_main
 20001f8:	20064b40 	call	20064b4 <alt_main>

020001fc <alt_after_alt_main>:

    /* Wait in infinite loop in case alt_main does return. */
alt_after_alt_main:
    br alt_after_alt_main
 20001fc:	003fff06 	br	20001fc <alt_after_alt_main>

02000200 <delay_ms>:
 2000200:	defffd04 	addi	sp,sp,-12
 2000204:	dfc00215 	stw	ra,8(sp)
 2000208:	df000115 	stw	fp,4(sp)
 200020c:	df000104 	addi	fp,sp,4
 2000210:	e13fff15 	stw	r4,-4(fp)
 2000214:	e0bfff17 	ldw	r2,-4(fp)
 2000218:	1080fa24 	muli	r2,r2,1000
 200021c:	1009883a 	mov	r4,r2
 2000220:	200652c0 	call	200652c <usleep>
 2000224:	e037883a 	mov	sp,fp
 2000228:	dfc00117 	ldw	ra,4(sp)
 200022c:	df000017 	ldw	fp,0(sp)
 2000230:	dec00204 	addi	sp,sp,8
 2000234:	f800283a 	ret

02000238 <delay_us>:
 2000238:	defffd04 	addi	sp,sp,-12
 200023c:	dfc00215 	stw	ra,8(sp)
 2000240:	df000115 	stw	fp,4(sp)
 2000244:	df000104 	addi	fp,sp,4
 2000248:	e13fff15 	stw	r4,-4(fp)
 200024c:	e13fff17 	ldw	r4,-4(fp)
 2000250:	200652c0 	call	200652c <usleep>
 2000254:	e037883a 	mov	sp,fp
 2000258:	dfc00117 	ldw	ra,4(sp)
 200025c:	df000017 	ldw	fp,0(sp)
 2000260:	dec00204 	addi	sp,sp,8
 2000264:	f800283a 	ret

02000268 <LCD_WR_CMD>:
_lcd_dev lcddev; //管理LCD重要参数
//extern _lcd_gui lcdgui;

//LCD写命令
void LCD_WR_CMD(u16 Cmd)
{
 2000268:	defffe04 	addi	sp,sp,-8
 200026c:	df000115 	stw	fp,4(sp)
 2000270:	df000104 	addi	fp,sp,4
 2000274:	e13fff15 	stw	r4,-4(fp)
     IOWR_ALTERA_AVALON_PIO_DATA(PIO_MLCD_RS_BASE,0);              		// 拉低RS
 2000278:	0007883a 	mov	r3,zero
 200027c:	00810034 	movhi	r2,1024
 2000280:	10881804 	addi	r2,r2,8288
 2000284:	10c00035 	stwio	r3,0(r2)
     IOWR_ALTERA_AVALON_PIO_DATA(PIO_MLCD_RD_N_BASE,1);            		// RD设为高电平
 2000288:	00c00044 	movi	r3,1
 200028c:	00810034 	movhi	r2,1024
 2000290:	10882004 	addi	r2,r2,8320
 2000294:	10c00035 	stwio	r3,0(r2)
     IOWR_ALTERA_AVALON_PIO_DATA(PIO_MLCD_WR_N_BASE,0);            		// 拉低WR
 2000298:	0007883a 	mov	r3,zero
 200029c:	00810034 	movhi	r2,1024
 20002a0:	10882404 	addi	r2,r2,8336
 20002a4:	10c00035 	stwio	r3,0(r2)
     IOWR_ALTERA_AVALON_PIO_DATA(PIO_LCD_DATA_OUT_BASE,Cmd);      		// 往DATA端口写命令
 20002a8:	e0ffff17 	ldw	r3,-4(fp)
 20002ac:	00810034 	movhi	r2,1024
 20002b0:	10880c04 	addi	r2,r2,8240
 20002b4:	10c00035 	stwio	r3,0(r2)
     IOWR_ALTERA_AVALON_PIO_DATA(PIO_MLCD_WR_N_BASE,1);            		// 拉高WR
 20002b8:	00c00044 	movi	r3,1
 20002bc:	00810034 	movhi	r2,1024
 20002c0:	10882404 	addi	r2,r2,8336
 20002c4:	10c00035 	stwio	r3,0(r2)
}
 20002c8:	e037883a 	mov	sp,fp
 20002cc:	df000017 	ldw	fp,0(sp)
 20002d0:	dec00104 	addi	sp,sp,4
 20002d4:	f800283a 	ret

020002d8 <LCD_WR_DATA>:

//LCD写数据
void LCD_WR_DATA(u16 Data)
{
 20002d8:	defffe04 	addi	sp,sp,-8
 20002dc:	df000115 	stw	fp,4(sp)
 20002e0:	df000104 	addi	fp,sp,4
 20002e4:	e13fff15 	stw	r4,-4(fp)
     IOWR_ALTERA_AVALON_PIO_DATA(PIO_MLCD_RS_BASE,1);
 20002e8:	00c00044 	movi	r3,1
 20002ec:	00810034 	movhi	r2,1024
 20002f0:	10881804 	addi	r2,r2,8288
 20002f4:	10c00035 	stwio	r3,0(r2)
     IOWR_ALTERA_AVALON_PIO_DATA(PIO_MLCD_RD_N_BASE,1);
 20002f8:	00c00044 	movi	r3,1
 20002fc:	00810034 	movhi	r2,1024
 2000300:	10882004 	addi	r2,r2,8320
 2000304:	10c00035 	stwio	r3,0(r2)
     IOWR_ALTERA_AVALON_PIO_DATA(PIO_MLCD_WR_N_BASE,0);
 2000308:	0007883a 	mov	r3,zero
 200030c:	00810034 	movhi	r2,1024
 2000310:	10882404 	addi	r2,r2,8336
 2000314:	10c00035 	stwio	r3,0(r2)
     IOWR_ALTERA_AVALON_PIO_DATA(PIO_LCD_DATA_OUT_BASE,Data);
 2000318:	e0ffff17 	ldw	r3,-4(fp)
 200031c:	00810034 	movhi	r2,1024
 2000320:	10880c04 	addi	r2,r2,8240
 2000324:	10c00035 	stwio	r3,0(r2)
     IOWR_ALTERA_AVALON_PIO_DATA(PIO_MLCD_WR_N_BASE,1);
 2000328:	00c00044 	movi	r3,1
 200032c:	00810034 	movhi	r2,1024
 2000330:	10882404 	addi	r2,r2,8336
 2000334:	10c00035 	stwio	r3,0(r2)
}
 2000338:	e037883a 	mov	sp,fp
 200033c:	df000017 	ldw	fp,0(sp)
 2000340:	dec00104 	addi	sp,sp,4
 2000344:	f800283a 	ret

02000348 <LCD_RD_DATA>:

//LCD读数据
u16 LCD_RD_DATA()
{
 2000348:	defffe04 	addi	sp,sp,-8
 200034c:	df000115 	stw	fp,4(sp)
 2000350:	df000104 	addi	fp,sp,4
     u16 read_data = 0;
 2000354:	e03fff15 	stw	zero,-4(fp)
     IOWR_ALTERA_AVALON_PIO_DATA(PIO_LCD_DATA_DIR_BASE,0);          // mlcd_data_dir=0 为输入
 2000358:	0007883a 	mov	r3,zero
 200035c:	00810034 	movhi	r2,1024
 2000360:	10880804 	addi	r2,r2,8224
 2000364:	10c00035 	stwio	r3,0(r2)

     IOWR_ALTERA_AVALON_PIO_DATA(PIO_MLCD_RS_BASE,1);
 2000368:	00c00044 	movi	r3,1
 200036c:	00810034 	movhi	r2,1024
 2000370:	10881804 	addi	r2,r2,8288
 2000374:	10c00035 	stwio	r3,0(r2)
     IOWR_ALTERA_AVALON_PIO_DATA(PIO_MLCD_RD_N_BASE,0);
 2000378:	0007883a 	mov	r3,zero
 200037c:	00810034 	movhi	r2,1024
 2000380:	10882004 	addi	r2,r2,8320
 2000384:	10c00035 	stwio	r3,0(r2)
     IOWR_ALTERA_AVALON_PIO_DATA(PIO_MLCD_WR_N_BASE,1);
 2000388:	00c00044 	movi	r3,1
 200038c:	00810034 	movhi	r2,1024
 2000390:	10882404 	addi	r2,r2,8336
 2000394:	10c00035 	stwio	r3,0(r2)
     read_data = IORD_ALTERA_AVALON_PIO_DATA(PIO_LCD_DATA_IN_BASE);
 2000398:	00810034 	movhi	r2,1024
 200039c:	10881004 	addi	r2,r2,8256
 20003a0:	10800037 	ldwio	r2,0(r2)
 20003a4:	e0bfff15 	stw	r2,-4(fp)
     IOWR_ALTERA_AVALON_PIO_DATA(PIO_MLCD_RD_N_BASE,1);
 20003a8:	00c00044 	movi	r3,1
 20003ac:	00810034 	movhi	r2,1024
 20003b0:	10882004 	addi	r2,r2,8320
 20003b4:	10c00035 	stwio	r3,0(r2)

     IOWR_ALTERA_AVALON_PIO_DATA(PIO_LCD_DATA_DIR_BASE,1);          // mlcd_data_dir=1 为输出
 20003b8:	00c00044 	movi	r3,1
 20003bc:	00810034 	movhi	r2,1024
 20003c0:	10880804 	addi	r2,r2,8224
 20003c4:	10c00035 	stwio	r3,0(r2)
     return read_data;
 20003c8:	e0bfff17 	ldw	r2,-4(fp)
}
 20003cc:	e037883a 	mov	sp,fp
 20003d0:	df000017 	ldw	fp,0(sp)
 20003d4:	dec00104 	addi	sp,sp,4
 20003d8:	f800283a 	ret

020003dc <LCD_WriteReg>:

//LCD写寄存器数据
void LCD_WriteReg(u16 LCD_Reg,u16 LCD_RegValue)
{
 20003dc:	defffc04 	addi	sp,sp,-16
 20003e0:	dfc00315 	stw	ra,12(sp)
 20003e4:	df000215 	stw	fp,8(sp)
 20003e8:	df000204 	addi	fp,sp,8
 20003ec:	e13ffe15 	stw	r4,-8(fp)
 20003f0:	e17fff15 	stw	r5,-4(fp)
     LCD_WR_CMD(LCD_Reg);                                      // 写入的寄存器
 20003f4:	e13ffe17 	ldw	r4,-8(fp)
 20003f8:	20002680 	call	2000268 <LCD_WR_CMD>
     LCD_WR_DATA(LCD_RegValue);                                // 写入的数据
 20003fc:	e13fff17 	ldw	r4,-4(fp)
 2000400:	20002d80 	call	20002d8 <LCD_WR_DATA>
}
 2000404:	e037883a 	mov	sp,fp
 2000408:	dfc00117 	ldw	ra,4(sp)
 200040c:	df000017 	ldw	fp,0(sp)
 2000410:	dec00204 	addi	sp,sp,8
 2000414:	f800283a 	ret

02000418 <LCD_ReadReg>:

//LCD读寄存器
u16 LCD_ReadReg(u16 LCD_Reg)
{
 2000418:	defffd04 	addi	sp,sp,-12
 200041c:	dfc00215 	stw	ra,8(sp)
 2000420:	df000115 	stw	fp,4(sp)
 2000424:	df000104 	addi	fp,sp,4
 2000428:	e13fff15 	stw	r4,-4(fp)
     LCD_WR_CMD(LCD_Reg);                                      // 要读取的寄存器
 200042c:	e13fff17 	ldw	r4,-4(fp)
 2000430:	20002680 	call	2000268 <LCD_WR_CMD>
     usleep(5);                                                // 延时5us
 2000434:	01000144 	movi	r4,5
 2000438:	200652c0 	call	200652c <usleep>
     return LCD_RD_DATA();                                     // 返回读取的数据
 200043c:	20003480 	call	2000348 <LCD_RD_DATA>
}
 2000440:	e037883a 	mov	sp,fp
 2000444:	dfc00117 	ldw	ra,4(sp)
 2000448:	df000017 	ldw	fp,0(sp)
 200044c:	dec00204 	addi	sp,sp,8
 2000450:	f800283a 	ret

02000454 <LCD_WriteRAM_Prepare>:

//开始写GRAM
void LCD_WriteRAM_Prepare(void)
{
 2000454:	defffe04 	addi	sp,sp,-8
 2000458:	dfc00115 	stw	ra,4(sp)
 200045c:	df000015 	stw	fp,0(sp)
 2000460:	d839883a 	mov	fp,sp
     LCD_WR_CMD(lcddev.wramcmd);
 2000464:	00808074 	movhi	r2,513
 2000468:	10ac4e04 	addi	r2,r2,-20168
 200046c:	10800417 	ldw	r2,16(r2)
 2000470:	1009883a 	mov	r4,r2
 2000474:	20002680 	call	2000268 <LCD_WR_CMD>
}
 2000478:	e037883a 	mov	sp,fp
 200047c:	dfc00117 	ldw	ra,4(sp)
 2000480:	df000017 	ldw	fp,0(sp)
 2000484:	dec00204 	addi	sp,sp,8
 2000488:	f800283a 	ret

0200048c <LCD_WriteRAM>:

//LCD写GRAM
//RGB_Code:颜色值
void LCD_WriteRAM(u16 RGB_Code)
{
 200048c:	defffd04 	addi	sp,sp,-12
 2000490:	dfc00215 	stw	ra,8(sp)
 2000494:	df000115 	stw	fp,4(sp)
 2000498:	df000104 	addi	fp,sp,4
 200049c:	e13fff15 	stw	r4,-4(fp)
     LCD_WR_DATA(RGB_Code);                                    //写十六位GRAM
 20004a0:	e13fff17 	ldw	r4,-4(fp)
 20004a4:	20002d80 	call	20002d8 <LCD_WR_DATA>
}
 20004a8:	e037883a 	mov	sp,fp
 20004ac:	dfc00117 	ldw	ra,4(sp)
 20004b0:	df000017 	ldw	fp,0(sp)
 20004b4:	dec00204 	addi	sp,sp,8
 20004b8:	f800283a 	ret

020004bc <LCD_BGR2RGB>:
//从ILI93xx读出的数据为GBR格式，而我们写入的时候为RGB格式。
//通过该函数转换
//c:GBR格式的颜色值
//返回值：RGB格式的颜色值
u16 LCD_BGR2RGB(u16 c)
{
 20004bc:	defffa04 	addi	sp,sp,-24
 20004c0:	df000515 	stw	fp,20(sp)
 20004c4:	df000504 	addi	fp,sp,20
 20004c8:	e13fff15 	stw	r4,-4(fp)
     u16  r,g,b,rgb;
     b=(c>>0)&0x1f;
 20004cc:	e0bfff17 	ldw	r2,-4(fp)
 20004d0:	108007cc 	andi	r2,r2,31
 20004d4:	e0bffb15 	stw	r2,-20(fp)
     g=(c>>5)&0x3f;
 20004d8:	e0bfff17 	ldw	r2,-4(fp)
 20004dc:	1004d17a 	srli	r2,r2,5
 20004e0:	10800fcc 	andi	r2,r2,63
 20004e4:	e0bffc15 	stw	r2,-16(fp)
     r=(c>>11)&0x1f;
 20004e8:	e0bfff17 	ldw	r2,-4(fp)
 20004ec:	1004d2fa 	srli	r2,r2,11
 20004f0:	108007cc 	andi	r2,r2,31
 20004f4:	e0bffd15 	stw	r2,-12(fp)
     rgb=(b<<11)+(g<<5)+(r<<0);
 20004f8:	e0bffb17 	ldw	r2,-20(fp)
 20004fc:	100692fa 	slli	r3,r2,11
 2000500:	e0bffc17 	ldw	r2,-16(fp)
 2000504:	1004917a 	slli	r2,r2,5
 2000508:	1887883a 	add	r3,r3,r2
 200050c:	e0bffd17 	ldw	r2,-12(fp)
 2000510:	1885883a 	add	r2,r3,r2
 2000514:	e0bffe15 	stw	r2,-8(fp)
     return(rgb);
 2000518:	e0bffe17 	ldw	r2,-8(fp)
}
 200051c:	e037883a 	mov	sp,fp
 2000520:	df000017 	ldw	fp,0(sp)
 2000524:	dec00104 	addi	sp,sp,4
 2000528:	f800283a 	ret

0200052c <LCD_ReadPoint>:

//读取个某点的颜色值
//x,y:坐标
//返回值:此点的颜色
u32 LCD_ReadPoint(u16 x,u16 y)
{
 200052c:	defff904 	addi	sp,sp,-28
 2000530:	dfc00615 	stw	ra,24(sp)
 2000534:	df000515 	stw	fp,20(sp)
 2000538:	df000504 	addi	fp,sp,20
 200053c:	e13ffe15 	stw	r4,-8(fp)
 2000540:	e17fff15 	stw	r5,-4(fp)
     u16 r=0,g=0,b=0;
 2000544:	e03ffb15 	stw	zero,-20(fp)
 2000548:	e03ffc15 	stw	zero,-16(fp)
 200054c:	e03ffd15 	stw	zero,-12(fp)
     if(x>=lcddev.width||y>=lcddev.height)return 0; //超过了范围,直接返回
 2000550:	00808074 	movhi	r2,513
 2000554:	10ac4e04 	addi	r2,r2,-20168
 2000558:	10800017 	ldw	r2,0(r2)
 200055c:	e0fffe17 	ldw	r3,-8(fp)
 2000560:	1880052e 	bgeu	r3,r2,2000578 <LCD_ReadPoint+0x4c>
 2000564:	00808074 	movhi	r2,513
 2000568:	10ac4e04 	addi	r2,r2,-20168
 200056c:	10800117 	ldw	r2,4(r2)
 2000570:	e0ffff17 	ldw	r3,-4(fp)
 2000574:	18800236 	bltu	r3,r2,2000580 <LCD_ReadPoint+0x54>
 2000578:	0005883a 	mov	r2,zero
 200057c:	00003906 	br	2000664 <LCD_ReadPoint+0x138>
     LCD_SetCursor(x,y);
 2000580:	e13ffe17 	ldw	r4,-8(fp)
 2000584:	e17fff17 	ldw	r5,-4(fp)
 2000588:	20007880 	call	2000788 <LCD_SetCursor>
     if(lcddev.id==0X9341||lcddev.id==0X5310||lcddev.id==0X1963)
 200058c:	00808074 	movhi	r2,513
 2000590:	10ac4e04 	addi	r2,r2,-20168
 2000594:	10c00217 	ldw	r3,8(r2)
 2000598:	00a4d054 	movui	r2,37697
 200059c:	18800a26 	beq	r3,r2,20005c8 <LCD_ReadPoint+0x9c>
 20005a0:	00808074 	movhi	r2,513
 20005a4:	10ac4e04 	addi	r2,r2,-20168
 20005a8:	10800217 	ldw	r2,8(r2)
 20005ac:	1094c420 	cmpeqi	r2,r2,21264
 20005b0:	1000051e 	bne	r2,zero,20005c8 <LCD_ReadPoint+0x9c>
 20005b4:	00808074 	movhi	r2,513
 20005b8:	10ac4e04 	addi	r2,r2,-20168
 20005bc:	10800217 	ldw	r2,8(r2)
 20005c0:	108658d8 	cmpnei	r2,r2,6499
 20005c4:	1000031e 	bne	r2,zero,20005d4 <LCD_ReadPoint+0xa8>
          LCD_WR_CMD(0X2E);       //9341/3510/1963 发送读GRAM指令
 20005c8:	01000b84 	movi	r4,46
 20005cc:	20002680 	call	2000268 <LCD_WR_CMD>
 20005d0:	00000706 	br	20005f0 <LCD_ReadPoint+0xc4>
     else if(lcddev.id==0X5510)
 20005d4:	00808074 	movhi	r2,513
 20005d8:	10ac4e04 	addi	r2,r2,-20168
 20005dc:	10800217 	ldw	r2,8(r2)
 20005e0:	10954418 	cmpnei	r2,r2,21776
 20005e4:	1000021e 	bne	r2,zero,20005f0 <LCD_ReadPoint+0xc4>
          LCD_WR_CMD(0X2E00);     //5510 发送读GRAM指令
 20005e8:	010b8004 	movi	r4,11776
 20005ec:	20002680 	call	2000268 <LCD_WR_CMD>
     r=LCD_RD_DATA();             //dummy Read
 20005f0:	20003480 	call	2000348 <LCD_RD_DATA>
 20005f4:	e0bffb15 	stw	r2,-20(fp)
     if(lcddev.id==0X1963)
 20005f8:	00808074 	movhi	r2,513
 20005fc:	10ac4e04 	addi	r2,r2,-20168
 2000600:	10800217 	ldw	r2,8(r2)
 2000604:	108658d8 	cmpnei	r2,r2,6499
 2000608:	1000021e 	bne	r2,zero,2000614 <LCD_ReadPoint+0xe8>
          return r;               //1963直接读就可以
 200060c:	e0bffb17 	ldw	r2,-20(fp)
 2000610:	00001406 	br	2000664 <LCD_ReadPoint+0x138>
     r=LCD_RD_DATA();             //实际坐标颜色
 2000614:	20003480 	call	2000348 <LCD_RD_DATA>
 2000618:	e0bffb15 	stw	r2,-20(fp)
     b=LCD_RD_DATA();             //9341/NT35310/NT35510要分2次读出
 200061c:	20003480 	call	2000348 <LCD_RD_DATA>
 2000620:	e0bffd15 	stw	r2,-12(fp)
     g=r&0XFF;      //对于9341/5310/5510,第一次读取的是RG的值,R在前,G在后,各占8位
 2000624:	e0bffb17 	ldw	r2,-20(fp)
 2000628:	10803fcc 	andi	r2,r2,255
 200062c:	e0bffc15 	stw	r2,-16(fp)
     g<<=8;
 2000630:	e0bffc17 	ldw	r2,-16(fp)
 2000634:	1004923a 	slli	r2,r2,8
 2000638:	e0bffc15 	stw	r2,-16(fp)
     return (((r>>11)<<11)|((g>>10)<<5)|(b>>11));   //ILI9341/NT35310/NT35510需要公式转换一下
 200063c:	e0fffb17 	ldw	r3,-20(fp)
 2000640:	00be0004 	movi	r2,-2048
 2000644:	1886703a 	and	r3,r3,r2
 2000648:	e0bffc17 	ldw	r2,-16(fp)
 200064c:	1004d2ba 	srli	r2,r2,10
 2000650:	1004917a 	slli	r2,r2,5
 2000654:	1886b03a 	or	r3,r3,r2
 2000658:	e0bffd17 	ldw	r2,-12(fp)
 200065c:	1004d2fa 	srli	r2,r2,11
 2000660:	1884b03a 	or	r2,r3,r2
}
 2000664:	e037883a 	mov	sp,fp
 2000668:	dfc00117 	ldw	ra,4(sp)
 200066c:	df000017 	ldw	fp,0(sp)
 2000670:	dec00204 	addi	sp,sp,8
 2000674:	f800283a 	ret

02000678 <LCD_DisplayOn>:

//LCD开启显示
void LCD_DisplayOn(void)
{
 2000678:	defffe04 	addi	sp,sp,-8
 200067c:	dfc00115 	stw	ra,4(sp)
 2000680:	df000015 	stw	fp,0(sp)
 2000684:	d839883a 	mov	fp,sp
     if(lcddev.id==0X9341||lcddev.id==0X5310||lcddev.id==0X1963)
 2000688:	00808074 	movhi	r2,513
 200068c:	10ac4e04 	addi	r2,r2,-20168
 2000690:	10c00217 	ldw	r3,8(r2)
 2000694:	00a4d054 	movui	r2,37697
 2000698:	18800a26 	beq	r3,r2,20006c4 <LCD_DisplayOn+0x4c>
 200069c:	00808074 	movhi	r2,513
 20006a0:	10ac4e04 	addi	r2,r2,-20168
 20006a4:	10800217 	ldw	r2,8(r2)
 20006a8:	1094c420 	cmpeqi	r2,r2,21264
 20006ac:	1000051e 	bne	r2,zero,20006c4 <LCD_DisplayOn+0x4c>
 20006b0:	00808074 	movhi	r2,513
 20006b4:	10ac4e04 	addi	r2,r2,-20168
 20006b8:	10800217 	ldw	r2,8(r2)
 20006bc:	108658d8 	cmpnei	r2,r2,6499
 20006c0:	1000031e 	bne	r2,zero,20006d0 <LCD_DisplayOn+0x58>
          LCD_WR_CMD(0X29);     //开启显示
 20006c4:	01000a44 	movi	r4,41
 20006c8:	20002680 	call	2000268 <LCD_WR_CMD>
 20006cc:	00000706 	br	20006ec <LCD_DisplayOn+0x74>
     else if(lcddev.id==0X5510)
 20006d0:	00808074 	movhi	r2,513
 20006d4:	10ac4e04 	addi	r2,r2,-20168
 20006d8:	10800217 	ldw	r2,8(r2)
 20006dc:	10954418 	cmpnei	r2,r2,21776
 20006e0:	1000021e 	bne	r2,zero,20006ec <LCD_DisplayOn+0x74>
          LCD_WR_CMD(0X2900);   //开启显示
 20006e4:	010a4004 	movi	r4,10496
 20006e8:	20002680 	call	2000268 <LCD_WR_CMD>
}
 20006ec:	e037883a 	mov	sp,fp
 20006f0:	dfc00117 	ldw	ra,4(sp)
 20006f4:	df000017 	ldw	fp,0(sp)
 20006f8:	dec00204 	addi	sp,sp,8
 20006fc:	f800283a 	ret

02000700 <LCD_DisplayOff>:

//LCD关闭显示
void LCD_DisplayOff(void)
{
 2000700:	defffe04 	addi	sp,sp,-8
 2000704:	dfc00115 	stw	ra,4(sp)
 2000708:	df000015 	stw	fp,0(sp)
 200070c:	d839883a 	mov	fp,sp
     if(lcddev.id==0X9341||lcddev.id==0X5310||lcddev.id==0X1963)
 2000710:	00808074 	movhi	r2,513
 2000714:	10ac4e04 	addi	r2,r2,-20168
 2000718:	10c00217 	ldw	r3,8(r2)
 200071c:	00a4d054 	movui	r2,37697
 2000720:	18800a26 	beq	r3,r2,200074c <LCD_DisplayOff+0x4c>
 2000724:	00808074 	movhi	r2,513
 2000728:	10ac4e04 	addi	r2,r2,-20168
 200072c:	10800217 	ldw	r2,8(r2)
 2000730:	1094c420 	cmpeqi	r2,r2,21264
 2000734:	1000051e 	bne	r2,zero,200074c <LCD_DisplayOff+0x4c>
 2000738:	00808074 	movhi	r2,513
 200073c:	10ac4e04 	addi	r2,r2,-20168
 2000740:	10800217 	ldw	r2,8(r2)
 2000744:	108658d8 	cmpnei	r2,r2,6499
 2000748:	1000031e 	bne	r2,zero,2000758 <LCD_DisplayOff+0x58>
          LCD_WR_CMD(0X28);     //关闭显示
 200074c:	01000a04 	movi	r4,40
 2000750:	20002680 	call	2000268 <LCD_WR_CMD>
 2000754:	00000706 	br	2000774 <LCD_DisplayOff+0x74>
     else if(lcddev.id==0X5510)
 2000758:	00808074 	movhi	r2,513
 200075c:	10ac4e04 	addi	r2,r2,-20168
 2000760:	10800217 	ldw	r2,8(r2)
 2000764:	10954418 	cmpnei	r2,r2,21776
 2000768:	1000021e 	bne	r2,zero,2000774 <LCD_DisplayOff+0x74>
          LCD_WR_CMD(0X2800);   //关闭显示
 200076c:	010a0004 	movi	r4,10240
 2000770:	20002680 	call	2000268 <LCD_WR_CMD>
}
 2000774:	e037883a 	mov	sp,fp
 2000778:	dfc00117 	ldw	ra,4(sp)
 200077c:	df000017 	ldw	fp,0(sp)
 2000780:	dec00204 	addi	sp,sp,8
 2000784:	f800283a 	ret

02000788 <LCD_SetCursor>:

//设置光标位置(对RGB屏无效)
//Xpos:横坐标
//Ypos:纵坐标
void LCD_SetCursor(u16 Xpos, u16 Ypos)
{
 2000788:	defffc04 	addi	sp,sp,-16
 200078c:	dfc00315 	stw	ra,12(sp)
 2000790:	df000215 	stw	fp,8(sp)
 2000794:	df000204 	addi	fp,sp,8
 2000798:	e13ffe15 	stw	r4,-8(fp)
 200079c:	e17fff15 	stw	r5,-4(fp)
     if(lcddev.id==0X9341||lcddev.id==0X5310){
 20007a0:	00808074 	movhi	r2,513
 20007a4:	10ac4e04 	addi	r2,r2,-20168
 20007a8:	10c00217 	ldw	r3,8(r2)
 20007ac:	00a4d054 	movui	r2,37697
 20007b0:	18800526 	beq	r3,r2,20007c8 <LCD_SetCursor+0x40>
 20007b4:	00808074 	movhi	r2,513
 20007b8:	10ac4e04 	addi	r2,r2,-20168
 20007bc:	10800217 	ldw	r2,8(r2)
 20007c0:	1094c418 	cmpnei	r2,r2,21264
 20007c4:	10001b1e 	bne	r2,zero,2000834 <LCD_SetCursor+0xac>
          LCD_WR_CMD(lcddev.setxcmd);
 20007c8:	00808074 	movhi	r2,513
 20007cc:	10ac4e04 	addi	r2,r2,-20168
 20007d0:	10800517 	ldw	r2,20(r2)
 20007d4:	1009883a 	mov	r4,r2
 20007d8:	20002680 	call	2000268 <LCD_WR_CMD>
          LCD_WR_DATA(Xpos>>8);LCD_WR_DATA(Xpos&0XFF);
 20007dc:	e0bffe17 	ldw	r2,-8(fp)
 20007e0:	1004d23a 	srli	r2,r2,8
 20007e4:	1009883a 	mov	r4,r2
 20007e8:	20002d80 	call	20002d8 <LCD_WR_DATA>
 20007ec:	e0bffe17 	ldw	r2,-8(fp)
 20007f0:	10803fcc 	andi	r2,r2,255
 20007f4:	1009883a 	mov	r4,r2
 20007f8:	20002d80 	call	20002d8 <LCD_WR_DATA>
          LCD_WR_CMD(lcddev.setycmd);
 20007fc:	00808074 	movhi	r2,513
 2000800:	10ac4e04 	addi	r2,r2,-20168
 2000804:	10800617 	ldw	r2,24(r2)
 2000808:	1009883a 	mov	r4,r2
 200080c:	20002680 	call	2000268 <LCD_WR_CMD>
          LCD_WR_DATA(Ypos>>8);LCD_WR_DATA(Ypos&0XFF);
 2000810:	e0bfff17 	ldw	r2,-4(fp)
 2000814:	1004d23a 	srli	r2,r2,8
 2000818:	1009883a 	mov	r4,r2
 200081c:	20002d80 	call	20002d8 <LCD_WR_DATA>
 2000820:	e0bfff17 	ldw	r2,-4(fp)
 2000824:	10803fcc 	andi	r2,r2,255
 2000828:	1009883a 	mov	r4,r2
 200082c:	20002d80 	call	20002d8 <LCD_WR_DATA>
 2000830:	00008506 	br	2000a48 <LCD_SetCursor+0x2c0>
     }else if(lcddev.id==0X1963){
 2000834:	00808074 	movhi	r2,513
 2000838:	10ac4e04 	addi	r2,r2,-20168
 200083c:	10800217 	ldw	r2,8(r2)
 2000840:	108658d8 	cmpnei	r2,r2,6499
 2000844:	1000551e 	bne	r2,zero,200099c <LCD_SetCursor+0x214>
          if(lcddev.dir==0)//x坐标需要变换
 2000848:	00808074 	movhi	r2,513
 200084c:	10ac4e04 	addi	r2,r2,-20168
 2000850:	10800303 	ldbu	r2,12(r2)
 2000854:	10803fcc 	andi	r2,r2,255
 2000858:	1000191e 	bne	r2,zero,20008c0 <LCD_SetCursor+0x138>
          {
               Xpos=lcddev.width-1-Xpos;
 200085c:	00808074 	movhi	r2,513
 2000860:	10ac4e04 	addi	r2,r2,-20168
 2000864:	10c00017 	ldw	r3,0(r2)
 2000868:	e0bffe17 	ldw	r2,-8(fp)
 200086c:	1885c83a 	sub	r2,r3,r2
 2000870:	10bfffc4 	addi	r2,r2,-1
 2000874:	e0bffe15 	stw	r2,-8(fp)
               LCD_WR_CMD(lcddev.setxcmd);
 2000878:	00808074 	movhi	r2,513
 200087c:	10ac4e04 	addi	r2,r2,-20168
 2000880:	10800517 	ldw	r2,20(r2)
 2000884:	1009883a 	mov	r4,r2
 2000888:	20002680 	call	2000268 <LCD_WR_CMD>
               LCD_WR_DATA(0);LCD_WR_DATA(0);
 200088c:	0009883a 	mov	r4,zero
 2000890:	20002d80 	call	20002d8 <LCD_WR_DATA>
 2000894:	0009883a 	mov	r4,zero
 2000898:	20002d80 	call	20002d8 <LCD_WR_DATA>
               LCD_WR_DATA(Xpos>>8);LCD_WR_DATA(Xpos&0XFF);
 200089c:	e0bffe17 	ldw	r2,-8(fp)
 20008a0:	1004d23a 	srli	r2,r2,8
 20008a4:	1009883a 	mov	r4,r2
 20008a8:	20002d80 	call	20002d8 <LCD_WR_DATA>
 20008ac:	e0bffe17 	ldw	r2,-8(fp)
 20008b0:	10803fcc 	andi	r2,r2,255
 20008b4:	1009883a 	mov	r4,r2
 20008b8:	20002d80 	call	20002d8 <LCD_WR_DATA>
 20008bc:	00001b06 	br	200092c <LCD_SetCursor+0x1a4>
          }else{
               LCD_WR_CMD(lcddev.setxcmd);
 20008c0:	00808074 	movhi	r2,513
 20008c4:	10ac4e04 	addi	r2,r2,-20168
 20008c8:	10800517 	ldw	r2,20(r2)
 20008cc:	1009883a 	mov	r4,r2
 20008d0:	20002680 	call	2000268 <LCD_WR_CMD>
               LCD_WR_DATA(Xpos>>8);LCD_WR_DATA(Xpos&0XFF);
 20008d4:	e0bffe17 	ldw	r2,-8(fp)
 20008d8:	1004d23a 	srli	r2,r2,8
 20008dc:	1009883a 	mov	r4,r2
 20008e0:	20002d80 	call	20002d8 <LCD_WR_DATA>
 20008e4:	e0bffe17 	ldw	r2,-8(fp)
 20008e8:	10803fcc 	andi	r2,r2,255
 20008ec:	1009883a 	mov	r4,r2
 20008f0:	20002d80 	call	20002d8 <LCD_WR_DATA>
               LCD_WR_DATA((lcddev.width-1)>>8);LCD_WR_DATA((lcddev.width-1)&0XFF);
 20008f4:	00808074 	movhi	r2,513
 20008f8:	10ac4e04 	addi	r2,r2,-20168
 20008fc:	10800017 	ldw	r2,0(r2)
 2000900:	10bfffc4 	addi	r2,r2,-1
 2000904:	1004d23a 	srli	r2,r2,8
 2000908:	1009883a 	mov	r4,r2
 200090c:	20002d80 	call	20002d8 <LCD_WR_DATA>
 2000910:	00808074 	movhi	r2,513
 2000914:	10ac4e04 	addi	r2,r2,-20168
 2000918:	10800017 	ldw	r2,0(r2)
 200091c:	10bfffc4 	addi	r2,r2,-1
 2000920:	10803fcc 	andi	r2,r2,255
 2000924:	1009883a 	mov	r4,r2
 2000928:	20002d80 	call	20002d8 <LCD_WR_DATA>
          }
          LCD_WR_CMD(lcddev.setycmd);
 200092c:	00808074 	movhi	r2,513
 2000930:	10ac4e04 	addi	r2,r2,-20168
 2000934:	10800617 	ldw	r2,24(r2)
 2000938:	1009883a 	mov	r4,r2
 200093c:	20002680 	call	2000268 <LCD_WR_CMD>
          LCD_WR_DATA(Ypos>>8);LCD_WR_DATA(Ypos&0XFF);
 2000940:	e0bfff17 	ldw	r2,-4(fp)
 2000944:	1004d23a 	srli	r2,r2,8
 2000948:	1009883a 	mov	r4,r2
 200094c:	20002d80 	call	20002d8 <LCD_WR_DATA>
 2000950:	e0bfff17 	ldw	r2,-4(fp)
 2000954:	10803fcc 	andi	r2,r2,255
 2000958:	1009883a 	mov	r4,r2
 200095c:	20002d80 	call	20002d8 <LCD_WR_DATA>
          LCD_WR_DATA((lcddev.height-1)>>8);LCD_WR_DATA((lcddev.height-1)&0XFF);
 2000960:	00808074 	movhi	r2,513
 2000964:	10ac4e04 	addi	r2,r2,-20168
 2000968:	10800117 	ldw	r2,4(r2)
 200096c:	10bfffc4 	addi	r2,r2,-1
 2000970:	1004d23a 	srli	r2,r2,8
 2000974:	1009883a 	mov	r4,r2
 2000978:	20002d80 	call	20002d8 <LCD_WR_DATA>
 200097c:	00808074 	movhi	r2,513
 2000980:	10ac4e04 	addi	r2,r2,-20168
 2000984:	10800117 	ldw	r2,4(r2)
 2000988:	10bfffc4 	addi	r2,r2,-1
 200098c:	10803fcc 	andi	r2,r2,255
 2000990:	1009883a 	mov	r4,r2
 2000994:	20002d80 	call	20002d8 <LCD_WR_DATA>
 2000998:	00002b06 	br	2000a48 <LCD_SetCursor+0x2c0>

     }else if(lcddev.id==0X5510) {
 200099c:	00808074 	movhi	r2,513
 20009a0:	10ac4e04 	addi	r2,r2,-20168
 20009a4:	10800217 	ldw	r2,8(r2)
 20009a8:	10954418 	cmpnei	r2,r2,21776
 20009ac:	1000261e 	bne	r2,zero,2000a48 <LCD_SetCursor+0x2c0>
          LCD_WR_CMD(lcddev.setxcmd);LCD_WR_DATA(Xpos>>8);
 20009b0:	00808074 	movhi	r2,513
 20009b4:	10ac4e04 	addi	r2,r2,-20168
 20009b8:	10800517 	ldw	r2,20(r2)
 20009bc:	1009883a 	mov	r4,r2
 20009c0:	20002680 	call	2000268 <LCD_WR_CMD>
 20009c4:	e0bffe17 	ldw	r2,-8(fp)
 20009c8:	1004d23a 	srli	r2,r2,8
 20009cc:	1009883a 	mov	r4,r2
 20009d0:	20002d80 	call	20002d8 <LCD_WR_DATA>
          LCD_WR_CMD(lcddev.setxcmd+1);LCD_WR_DATA(Xpos&0XFF);
 20009d4:	00808074 	movhi	r2,513
 20009d8:	10ac4e04 	addi	r2,r2,-20168
 20009dc:	10800517 	ldw	r2,20(r2)
 20009e0:	10800044 	addi	r2,r2,1
 20009e4:	1009883a 	mov	r4,r2
 20009e8:	20002680 	call	2000268 <LCD_WR_CMD>
 20009ec:	e0bffe17 	ldw	r2,-8(fp)
 20009f0:	10803fcc 	andi	r2,r2,255
 20009f4:	1009883a 	mov	r4,r2
 20009f8:	20002d80 	call	20002d8 <LCD_WR_DATA>
          LCD_WR_CMD(lcddev.setycmd);LCD_WR_DATA(Ypos>>8);
 20009fc:	00808074 	movhi	r2,513
 2000a00:	10ac4e04 	addi	r2,r2,-20168
 2000a04:	10800617 	ldw	r2,24(r2)
 2000a08:	1009883a 	mov	r4,r2
 2000a0c:	20002680 	call	2000268 <LCD_WR_CMD>
 2000a10:	e0bfff17 	ldw	r2,-4(fp)
 2000a14:	1004d23a 	srli	r2,r2,8
 2000a18:	1009883a 	mov	r4,r2
 2000a1c:	20002d80 	call	20002d8 <LCD_WR_DATA>
          LCD_WR_CMD(lcddev.setycmd+1);LCD_WR_DATA(Ypos&0XFF);
 2000a20:	00808074 	movhi	r2,513
 2000a24:	10ac4e04 	addi	r2,r2,-20168
 2000a28:	10800617 	ldw	r2,24(r2)
 2000a2c:	10800044 	addi	r2,r2,1
 2000a30:	1009883a 	mov	r4,r2
 2000a34:	20002680 	call	2000268 <LCD_WR_CMD>
 2000a38:	e0bfff17 	ldw	r2,-4(fp)
 2000a3c:	10803fcc 	andi	r2,r2,255
 2000a40:	1009883a 	mov	r4,r2
 2000a44:	20002d80 	call	20002d8 <LCD_WR_DATA>
     }
}
 2000a48:	e037883a 	mov	sp,fp
 2000a4c:	dfc00117 	ldw	ra,4(sp)
 2000a50:	df000017 	ldw	fp,0(sp)
 2000a54:	dec00204 	addi	sp,sp,8
 2000a58:	f800283a 	ret

02000a5c <LCD_Scan_Dir>:
//注意:其他函数可能会受到此函数设置的影响(尤其是9341),
//所以,一般设置为L2R_U2D即可,如果设置为其他扫描方式,可能导致显示不正常.
//dir:0~7,代表8个方向(具体定义见lcd.h)
//9341/5310/5510/1963等IC已经实际测试
void LCD_Scan_Dir(u8 dir)
{
 2000a5c:	defffa04 	addi	sp,sp,-24
 2000a60:	dfc00515 	stw	ra,20(sp)
 2000a64:	df000415 	stw	fp,16(sp)
 2000a68:	df000404 	addi	fp,sp,16
 2000a6c:	2005883a 	mov	r2,r4
 2000a70:	e0bfff05 	stb	r2,-4(fp)
    u16 regval=0;
 2000a74:	e03ffc15 	stw	zero,-16(fp)
    u16 dirreg=0;
 2000a78:	e03ffd15 	stw	zero,-12(fp)
    u16 temp;
    if((lcddev.dir==1)||(lcddev.dir==0&&lcddev.id==0X1963))//横屏时，对1963不改变扫描方向！竖屏时1963改变方向
 2000a7c:	00808074 	movhi	r2,513
 2000a80:	10ac4e04 	addi	r2,r2,-20168
 2000a84:	10800303 	ldbu	r2,12(r2)
 2000a88:	10803fcc 	andi	r2,r2,255
 2000a8c:	10800060 	cmpeqi	r2,r2,1
 2000a90:	10000a1e 	bne	r2,zero,2000abc <LCD_Scan_Dir+0x60>
 2000a94:	00808074 	movhi	r2,513
 2000a98:	10ac4e04 	addi	r2,r2,-20168
 2000a9c:	10800303 	ldbu	r2,12(r2)
 2000aa0:	10803fcc 	andi	r2,r2,255
 2000aa4:	10002e1e 	bne	r2,zero,2000b60 <LCD_Scan_Dir+0x104>
 2000aa8:	00808074 	movhi	r2,513
 2000aac:	10ac4e04 	addi	r2,r2,-20168
 2000ab0:	10800217 	ldw	r2,8(r2)
 2000ab4:	108658d8 	cmpnei	r2,r2,6499
 2000ab8:	1000291e 	bne	r2,zero,2000b60 <LCD_Scan_Dir+0x104>
    {
         switch(dir) {     //方向转换
 2000abc:	e0bfff03 	ldbu	r2,-4(fp)
 2000ac0:	10c00228 	cmpgeui	r3,r2,8
 2000ac4:	1800261e 	bne	r3,zero,2000b60 <LCD_Scan_Dir+0x104>
 2000ac8:	1085883a 	add	r2,r2,r2
 2000acc:	1087883a 	add	r3,r2,r2
 2000ad0:	00808034 	movhi	r2,512
 2000ad4:	1082b904 	addi	r2,r2,2788
 2000ad8:	1885883a 	add	r2,r3,r2
 2000adc:	10800017 	ldw	r2,0(r2)
 2000ae0:	1000683a 	jmp	r2
 2000ae4:	02000b04 	movi	r8,44
 2000ae8:	02000b10 	cmplti	r8,zero,44
 2000aec:	02000b1c 	xori	r8,zero,44
 2000af0:	02000b28 	cmpgeui	r8,zero,44
 2000af4:	02000b34 	movhi	r8,44
 2000af8:	02000b40 	call	2000b4 <__alt_mem_sdram-0x1dfff4c>
 2000afc:	02000b48 	cmpgei	r8,zero,45
 2000b00:	02000b54 	movui	r8,45
         case 0:dir=6;break;
 2000b04:	00800184 	movi	r2,6
 2000b08:	e0bfff05 	stb	r2,-4(fp)
 2000b0c:	00001406 	br	2000b60 <LCD_Scan_Dir+0x104>
         case 1:dir=7;break;
 2000b10:	008001c4 	movi	r2,7
 2000b14:	e0bfff05 	stb	r2,-4(fp)
 2000b18:	00001106 	br	2000b60 <LCD_Scan_Dir+0x104>
         case 2:dir=4;break;
 2000b1c:	00800104 	movi	r2,4
 2000b20:	e0bfff05 	stb	r2,-4(fp)
 2000b24:	00000e06 	br	2000b60 <LCD_Scan_Dir+0x104>
         case 3:dir=5;break;
 2000b28:	00800144 	movi	r2,5
 2000b2c:	e0bfff05 	stb	r2,-4(fp)
 2000b30:	00000b06 	br	2000b60 <LCD_Scan_Dir+0x104>
         case 4:dir=1;break;
 2000b34:	00800044 	movi	r2,1
 2000b38:	e0bfff05 	stb	r2,-4(fp)
 2000b3c:	00000806 	br	2000b60 <LCD_Scan_Dir+0x104>
         case 5:dir=0;break;
 2000b40:	e03fff05 	stb	zero,-4(fp)
 2000b44:	00000606 	br	2000b60 <LCD_Scan_Dir+0x104>
         case 6:dir=3;break;
 2000b48:	008000c4 	movi	r2,3
 2000b4c:	e0bfff05 	stb	r2,-4(fp)
 2000b50:	00000306 	br	2000b60 <LCD_Scan_Dir+0x104>
         case 7:dir=2;break;
 2000b54:	00800084 	movi	r2,2
 2000b58:	e0bfff05 	stb	r2,-4(fp)
 2000b5c:	0001883a 	nop
         }
    }
    if(lcddev.id==0x9341||lcddev.id==0X5310||lcddev.id==0X5510||lcddev.id==0X1963)//9341/5310/5510/1963,特殊处理
 2000b60:	00808074 	movhi	r2,513
 2000b64:	10ac4e04 	addi	r2,r2,-20168
 2000b68:	10c00217 	ldw	r3,8(r2)
 2000b6c:	00a4d054 	movui	r2,37697
 2000b70:	18800f26 	beq	r3,r2,2000bb0 <LCD_Scan_Dir+0x154>
 2000b74:	00808074 	movhi	r2,513
 2000b78:	10ac4e04 	addi	r2,r2,-20168
 2000b7c:	10800217 	ldw	r2,8(r2)
 2000b80:	1094c420 	cmpeqi	r2,r2,21264
 2000b84:	10000a1e 	bne	r2,zero,2000bb0 <LCD_Scan_Dir+0x154>
 2000b88:	00808074 	movhi	r2,513
 2000b8c:	10ac4e04 	addi	r2,r2,-20168
 2000b90:	10800217 	ldw	r2,8(r2)
 2000b94:	10954420 	cmpeqi	r2,r2,21776
 2000b98:	1000051e 	bne	r2,zero,2000bb0 <LCD_Scan_Dir+0x154>
 2000b9c:	00808074 	movhi	r2,513
 2000ba0:	10ac4e04 	addi	r2,r2,-20168
 2000ba4:	10800217 	ldw	r2,8(r2)
 2000ba8:	108658d8 	cmpnei	r2,r2,6499
 2000bac:	1001071e 	bne	r2,zero,2000fcc <LCD_Scan_Dir+0x570>
    {
        switch(dir) {
 2000bb0:	e0bfff03 	ldbu	r2,-4(fp)
 2000bb4:	10c00228 	cmpgeui	r3,r2,8
 2000bb8:	18002c1e 	bne	r3,zero,2000c6c <LCD_Scan_Dir+0x210>
 2000bbc:	1085883a 	add	r2,r2,r2
 2000bc0:	1087883a 	add	r3,r2,r2
 2000bc4:	00808034 	movhi	r2,512
 2000bc8:	1082f604 	addi	r2,r2,3032
 2000bcc:	1885883a 	add	r2,r3,r2
 2000bd0:	10800017 	ldw	r2,0(r2)
 2000bd4:	1000683a 	jmp	r2
 2000bd8:	02000c68 	cmpgeui	r8,zero,49
 2000bdc:	02000bf8 	rdprs	r8,zero,47
 2000be0:	02000c08 	cmpgei	r8,zero,48
 2000be4:	02000c18 	cmpnei	r8,zero,48
 2000be8:	02000c28 	cmpgeui	r8,zero,48
 2000bec:	02000c38 	rdprs	r8,zero,48
 2000bf0:	02000c48 	cmpgei	r8,zero,49
 2000bf4:	02000c58 	cmpnei	r8,zero,49
        case L2R_U2D://从左到右,从上到下
             regval|=(0<<7)|(0<<6)|(0<<5);
             break;
        case L2R_D2U://从左到右,从下到上
             regval|=(1<<7)|(0<<6)|(0<<5);
 2000bf8:	e0bffc17 	ldw	r2,-16(fp)
 2000bfc:	10802014 	ori	r2,r2,128
 2000c00:	e0bffc15 	stw	r2,-16(fp)
             break;
 2000c04:	00001906 	br	2000c6c <LCD_Scan_Dir+0x210>
        case R2L_U2D://从右到左,从上到下
             regval|=(0<<7)|(1<<6)|(0<<5);
 2000c08:	e0bffc17 	ldw	r2,-16(fp)
 2000c0c:	10801014 	ori	r2,r2,64
 2000c10:	e0bffc15 	stw	r2,-16(fp)
             break;
 2000c14:	00001506 	br	2000c6c <LCD_Scan_Dir+0x210>
        case R2L_D2U://从右到左,从下到上
             regval|=(1<<7)|(1<<6)|(0<<5);
 2000c18:	e0bffc17 	ldw	r2,-16(fp)
 2000c1c:	10803014 	ori	r2,r2,192
 2000c20:	e0bffc15 	stw	r2,-16(fp)
             break;
 2000c24:	00001106 	br	2000c6c <LCD_Scan_Dir+0x210>
        case U2D_L2R://从上到下,从左到右
             regval|=(0<<7)|(0<<6)|(1<<5);
 2000c28:	e0bffc17 	ldw	r2,-16(fp)
 2000c2c:	10800814 	ori	r2,r2,32
 2000c30:	e0bffc15 	stw	r2,-16(fp)
             break;
 2000c34:	00000d06 	br	2000c6c <LCD_Scan_Dir+0x210>
        case U2D_R2L://从上到下,从右到左
             regval|=(0<<7)|(1<<6)|(1<<5);
 2000c38:	e0bffc17 	ldw	r2,-16(fp)
 2000c3c:	10801814 	ori	r2,r2,96
 2000c40:	e0bffc15 	stw	r2,-16(fp)
             break;
 2000c44:	00000906 	br	2000c6c <LCD_Scan_Dir+0x210>
        case D2U_L2R://从下到上,从左到右
             regval|=(1<<7)|(0<<6)|(1<<5);
 2000c48:	e0bffc17 	ldw	r2,-16(fp)
 2000c4c:	10802814 	ori	r2,r2,160
 2000c50:	e0bffc15 	stw	r2,-16(fp)
             break;
 2000c54:	00000506 	br	2000c6c <LCD_Scan_Dir+0x210>
        case D2U_R2L://从下到上,从右到左
             regval|=(1<<7)|(1<<6)|(1<<5);
 2000c58:	e0bffc17 	ldw	r2,-16(fp)
 2000c5c:	10803814 	ori	r2,r2,224
 2000c60:	e0bffc15 	stw	r2,-16(fp)
             break;
 2000c64:	00000106 	br	2000c6c <LCD_Scan_Dir+0x210>
    if(lcddev.id==0x9341||lcddev.id==0X5310||lcddev.id==0X5510||lcddev.id==0X1963)//9341/5310/5510/1963,特殊处理
    {
        switch(dir) {
        case L2R_U2D://从左到右,从上到下
             regval|=(0<<7)|(0<<6)|(0<<5);
             break;
 2000c68:	0001883a 	nop
             break;
        case D2U_R2L://从下到上,从右到左
             regval|=(1<<7)|(1<<6)|(1<<5);
             break;
        }
        if(lcddev.id==0X5510)
 2000c6c:	00808074 	movhi	r2,513
 2000c70:	10ac4e04 	addi	r2,r2,-20168
 2000c74:	10800217 	ldw	r2,8(r2)
 2000c78:	10954418 	cmpnei	r2,r2,21776
 2000c7c:	1000031e 	bne	r2,zero,2000c8c <LCD_Scan_Dir+0x230>
            dirreg=0X3600;
 2000c80:	008d8004 	movi	r2,13824
 2000c84:	e0bffd15 	stw	r2,-12(fp)
 2000c88:	00000206 	br	2000c94 <LCD_Scan_Dir+0x238>
        else dirreg=0X36;
 2000c8c:	00800d84 	movi	r2,54
 2000c90:	e0bffd15 	stw	r2,-12(fp)
        if((lcddev.id!=0X5310)&&(lcddev.id!=0X5510)&&(lcddev.id!=0X1963))
 2000c94:	00808074 	movhi	r2,513
 2000c98:	10ac4e04 	addi	r2,r2,-20168
 2000c9c:	10800217 	ldw	r2,8(r2)
 2000ca0:	1094c420 	cmpeqi	r2,r2,21264
 2000ca4:	10000d1e 	bne	r2,zero,2000cdc <LCD_Scan_Dir+0x280>
 2000ca8:	00808074 	movhi	r2,513
 2000cac:	10ac4e04 	addi	r2,r2,-20168
 2000cb0:	10800217 	ldw	r2,8(r2)
 2000cb4:	10954420 	cmpeqi	r2,r2,21776
 2000cb8:	1000081e 	bne	r2,zero,2000cdc <LCD_Scan_Dir+0x280>
 2000cbc:	00808074 	movhi	r2,513
 2000cc0:	10ac4e04 	addi	r2,r2,-20168
 2000cc4:	10800217 	ldw	r2,8(r2)
 2000cc8:	108658e0 	cmpeqi	r2,r2,6499
 2000ccc:	1000031e 	bne	r2,zero,2000cdc <LCD_Scan_Dir+0x280>
             regval|=0X08;//5310/5510/1963不需要BGR
 2000cd0:	e0bffc17 	ldw	r2,-16(fp)
 2000cd4:	10800214 	ori	r2,r2,8
 2000cd8:	e0bffc15 	stw	r2,-16(fp)
        LCD_WriteReg(dirreg,regval);
 2000cdc:	e13ffd17 	ldw	r4,-12(fp)
 2000ce0:	e17ffc17 	ldw	r5,-16(fp)
 2000ce4:	20003dc0 	call	20003dc <LCD_WriteReg>
        if(lcddev.id!=0X1963)//1963不做坐标处理
 2000ce8:	00808074 	movhi	r2,513
 2000cec:	10ac4e04 	addi	r2,r2,-20168
 2000cf0:	10800217 	ldw	r2,8(r2)
 2000cf4:	108658e0 	cmpeqi	r2,r2,6499
 2000cf8:	10002e1e 	bne	r2,zero,2000db4 <LCD_Scan_Dir+0x358>
        {
            if(regval&0X20) {
 2000cfc:	e0bffc17 	ldw	r2,-16(fp)
 2000d00:	1080080c 	andi	r2,r2,32
 2000d04:	10001626 	beq	r2,zero,2000d60 <LCD_Scan_Dir+0x304>
                 if(lcddev.width<lcddev.height) {    //交换X,Y
 2000d08:	00808074 	movhi	r2,513
 2000d0c:	10ac4e04 	addi	r2,r2,-20168
 2000d10:	10c00017 	ldw	r3,0(r2)
 2000d14:	00808074 	movhi	r2,513
 2000d18:	10ac4e04 	addi	r2,r2,-20168
 2000d1c:	10800117 	ldw	r2,4(r2)
 2000d20:	1880242e 	bgeu	r3,r2,2000db4 <LCD_Scan_Dir+0x358>
                      temp=lcddev.width;
 2000d24:	00808074 	movhi	r2,513
 2000d28:	10ac4e04 	addi	r2,r2,-20168
 2000d2c:	10800017 	ldw	r2,0(r2)
 2000d30:	e0bffe15 	stw	r2,-8(fp)
                      lcddev.width=lcddev.height;
 2000d34:	00808074 	movhi	r2,513
 2000d38:	10ac4e04 	addi	r2,r2,-20168
 2000d3c:	10c00117 	ldw	r3,4(r2)
 2000d40:	00808074 	movhi	r2,513
 2000d44:	10ac4e04 	addi	r2,r2,-20168
 2000d48:	10c00015 	stw	r3,0(r2)
                      lcddev.height=temp;
 2000d4c:	00808074 	movhi	r2,513
 2000d50:	10ac4e04 	addi	r2,r2,-20168
 2000d54:	e0fffe17 	ldw	r3,-8(fp)
 2000d58:	10c00115 	stw	r3,4(r2)
 2000d5c:	00001506 	br	2000db4 <LCD_Scan_Dir+0x358>
                 }
            }else {
                 if(lcddev.width>lcddev.height) {    //交换X,Y
 2000d60:	00808074 	movhi	r2,513
 2000d64:	10ac4e04 	addi	r2,r2,-20168
 2000d68:	10800017 	ldw	r2,0(r2)
 2000d6c:	00c08074 	movhi	r3,513
 2000d70:	18ec4e04 	addi	r3,r3,-20168
 2000d74:	18c00117 	ldw	r3,4(r3)
 2000d78:	18800e2e 	bgeu	r3,r2,2000db4 <LCD_Scan_Dir+0x358>
                      temp=lcddev.width;
 2000d7c:	00808074 	movhi	r2,513
 2000d80:	10ac4e04 	addi	r2,r2,-20168
 2000d84:	10800017 	ldw	r2,0(r2)
 2000d88:	e0bffe15 	stw	r2,-8(fp)
                      lcddev.width=lcddev.height;
 2000d8c:	00808074 	movhi	r2,513
 2000d90:	10ac4e04 	addi	r2,r2,-20168
 2000d94:	10c00117 	ldw	r3,4(r2)
 2000d98:	00808074 	movhi	r2,513
 2000d9c:	10ac4e04 	addi	r2,r2,-20168
 2000da0:	10c00015 	stw	r3,0(r2)
                      lcddev.height=temp;
 2000da4:	00808074 	movhi	r2,513
 2000da8:	10ac4e04 	addi	r2,r2,-20168
 2000dac:	e0fffe17 	ldw	r3,-8(fp)
 2000db0:	10c00115 	stw	r3,4(r2)
                 }
            }
          }
        if(lcddev.id==0X5510)
 2000db4:	00808074 	movhi	r2,513
 2000db8:	10ac4e04 	addi	r2,r2,-20168
 2000dbc:	10800217 	ldw	r2,8(r2)
 2000dc0:	10954418 	cmpnei	r2,r2,21776
 2000dc4:	1000531e 	bne	r2,zero,2000f14 <LCD_Scan_Dir+0x4b8>
        {
             LCD_WR_CMD(lcddev.setxcmd);LCD_WR_DATA(0);
 2000dc8:	00808074 	movhi	r2,513
 2000dcc:	10ac4e04 	addi	r2,r2,-20168
 2000dd0:	10800517 	ldw	r2,20(r2)
 2000dd4:	1009883a 	mov	r4,r2
 2000dd8:	20002680 	call	2000268 <LCD_WR_CMD>
 2000ddc:	0009883a 	mov	r4,zero
 2000de0:	20002d80 	call	20002d8 <LCD_WR_DATA>
             LCD_WR_CMD(lcddev.setxcmd+1);LCD_WR_DATA(0);
 2000de4:	00808074 	movhi	r2,513
 2000de8:	10ac4e04 	addi	r2,r2,-20168
 2000dec:	10800517 	ldw	r2,20(r2)
 2000df0:	10800044 	addi	r2,r2,1
 2000df4:	1009883a 	mov	r4,r2
 2000df8:	20002680 	call	2000268 <LCD_WR_CMD>
 2000dfc:	0009883a 	mov	r4,zero
 2000e00:	20002d80 	call	20002d8 <LCD_WR_DATA>
             LCD_WR_CMD(lcddev.setxcmd+2);LCD_WR_DATA((lcddev.width-1)>>8);
 2000e04:	00808074 	movhi	r2,513
 2000e08:	10ac4e04 	addi	r2,r2,-20168
 2000e0c:	10800517 	ldw	r2,20(r2)
 2000e10:	10800084 	addi	r2,r2,2
 2000e14:	1009883a 	mov	r4,r2
 2000e18:	20002680 	call	2000268 <LCD_WR_CMD>
 2000e1c:	00808074 	movhi	r2,513
 2000e20:	10ac4e04 	addi	r2,r2,-20168
 2000e24:	10800017 	ldw	r2,0(r2)
 2000e28:	10bfffc4 	addi	r2,r2,-1
 2000e2c:	1004d23a 	srli	r2,r2,8
 2000e30:	1009883a 	mov	r4,r2
 2000e34:	20002d80 	call	20002d8 <LCD_WR_DATA>
             LCD_WR_CMD(lcddev.setxcmd+3);LCD_WR_DATA((lcddev.width-1)&0XFF);
 2000e38:	00808074 	movhi	r2,513
 2000e3c:	10ac4e04 	addi	r2,r2,-20168
 2000e40:	10800517 	ldw	r2,20(r2)
 2000e44:	108000c4 	addi	r2,r2,3
 2000e48:	1009883a 	mov	r4,r2
 2000e4c:	20002680 	call	2000268 <LCD_WR_CMD>
 2000e50:	00808074 	movhi	r2,513
 2000e54:	10ac4e04 	addi	r2,r2,-20168
 2000e58:	10800017 	ldw	r2,0(r2)
 2000e5c:	10bfffc4 	addi	r2,r2,-1
 2000e60:	10803fcc 	andi	r2,r2,255
 2000e64:	1009883a 	mov	r4,r2
 2000e68:	20002d80 	call	20002d8 <LCD_WR_DATA>
             LCD_WR_CMD(lcddev.setycmd);LCD_WR_DATA(0);
 2000e6c:	00808074 	movhi	r2,513
 2000e70:	10ac4e04 	addi	r2,r2,-20168
 2000e74:	10800617 	ldw	r2,24(r2)
 2000e78:	1009883a 	mov	r4,r2
 2000e7c:	20002680 	call	2000268 <LCD_WR_CMD>
 2000e80:	0009883a 	mov	r4,zero
 2000e84:	20002d80 	call	20002d8 <LCD_WR_DATA>
             LCD_WR_CMD(lcddev.setycmd+1);LCD_WR_DATA(0);
 2000e88:	00808074 	movhi	r2,513
 2000e8c:	10ac4e04 	addi	r2,r2,-20168
 2000e90:	10800617 	ldw	r2,24(r2)
 2000e94:	10800044 	addi	r2,r2,1
 2000e98:	1009883a 	mov	r4,r2
 2000e9c:	20002680 	call	2000268 <LCD_WR_CMD>
 2000ea0:	0009883a 	mov	r4,zero
 2000ea4:	20002d80 	call	20002d8 <LCD_WR_DATA>
             LCD_WR_CMD(lcddev.setycmd+2);LCD_WR_DATA((lcddev.height-1)>>8);
 2000ea8:	00808074 	movhi	r2,513
 2000eac:	10ac4e04 	addi	r2,r2,-20168
 2000eb0:	10800617 	ldw	r2,24(r2)
 2000eb4:	10800084 	addi	r2,r2,2
 2000eb8:	1009883a 	mov	r4,r2
 2000ebc:	20002680 	call	2000268 <LCD_WR_CMD>
 2000ec0:	00808074 	movhi	r2,513
 2000ec4:	10ac4e04 	addi	r2,r2,-20168
 2000ec8:	10800117 	ldw	r2,4(r2)
 2000ecc:	10bfffc4 	addi	r2,r2,-1
 2000ed0:	1004d23a 	srli	r2,r2,8
 2000ed4:	1009883a 	mov	r4,r2
 2000ed8:	20002d80 	call	20002d8 <LCD_WR_DATA>
             LCD_WR_CMD(lcddev.setycmd+3);LCD_WR_DATA((lcddev.height-1)&0XFF);
 2000edc:	00808074 	movhi	r2,513
 2000ee0:	10ac4e04 	addi	r2,r2,-20168
 2000ee4:	10800617 	ldw	r2,24(r2)
 2000ee8:	108000c4 	addi	r2,r2,3
 2000eec:	1009883a 	mov	r4,r2
 2000ef0:	20002680 	call	2000268 <LCD_WR_CMD>
 2000ef4:	00808074 	movhi	r2,513
 2000ef8:	10ac4e04 	addi	r2,r2,-20168
 2000efc:	10800117 	ldw	r2,4(r2)
 2000f00:	10bfffc4 	addi	r2,r2,-1
 2000f04:	10803fcc 	andi	r2,r2,255
 2000f08:	1009883a 	mov	r4,r2
 2000f0c:	20002d80 	call	20002d8 <LCD_WR_DATA>
 2000f10:	00002e06 	br	2000fcc <LCD_Scan_Dir+0x570>
        }else {
             LCD_WR_CMD(lcddev.setxcmd);
 2000f14:	00808074 	movhi	r2,513
 2000f18:	10ac4e04 	addi	r2,r2,-20168
 2000f1c:	10800517 	ldw	r2,20(r2)
 2000f20:	1009883a 	mov	r4,r2
 2000f24:	20002680 	call	2000268 <LCD_WR_CMD>
             LCD_WR_DATA(0);LCD_WR_DATA(0);
 2000f28:	0009883a 	mov	r4,zero
 2000f2c:	20002d80 	call	20002d8 <LCD_WR_DATA>
 2000f30:	0009883a 	mov	r4,zero
 2000f34:	20002d80 	call	20002d8 <LCD_WR_DATA>
             LCD_WR_DATA((lcddev.width-1)>>8);LCD_WR_DATA((lcddev.width-1)&0XFF);
 2000f38:	00808074 	movhi	r2,513
 2000f3c:	10ac4e04 	addi	r2,r2,-20168
 2000f40:	10800017 	ldw	r2,0(r2)
 2000f44:	10bfffc4 	addi	r2,r2,-1
 2000f48:	1004d23a 	srli	r2,r2,8
 2000f4c:	1009883a 	mov	r4,r2
 2000f50:	20002d80 	call	20002d8 <LCD_WR_DATA>
 2000f54:	00808074 	movhi	r2,513
 2000f58:	10ac4e04 	addi	r2,r2,-20168
 2000f5c:	10800017 	ldw	r2,0(r2)
 2000f60:	10bfffc4 	addi	r2,r2,-1
 2000f64:	10803fcc 	andi	r2,r2,255
 2000f68:	1009883a 	mov	r4,r2
 2000f6c:	20002d80 	call	20002d8 <LCD_WR_DATA>
             LCD_WR_CMD(lcddev.setycmd);
 2000f70:	00808074 	movhi	r2,513
 2000f74:	10ac4e04 	addi	r2,r2,-20168
 2000f78:	10800617 	ldw	r2,24(r2)
 2000f7c:	1009883a 	mov	r4,r2
 2000f80:	20002680 	call	2000268 <LCD_WR_CMD>
             LCD_WR_DATA(0);LCD_WR_DATA(0);
 2000f84:	0009883a 	mov	r4,zero
 2000f88:	20002d80 	call	20002d8 <LCD_WR_DATA>
 2000f8c:	0009883a 	mov	r4,zero
 2000f90:	20002d80 	call	20002d8 <LCD_WR_DATA>
             LCD_WR_DATA((lcddev.height-1)>>8);LCD_WR_DATA((lcddev.height-1)&0XFF);
 2000f94:	00808074 	movhi	r2,513
 2000f98:	10ac4e04 	addi	r2,r2,-20168
 2000f9c:	10800117 	ldw	r2,4(r2)
 2000fa0:	10bfffc4 	addi	r2,r2,-1
 2000fa4:	1004d23a 	srli	r2,r2,8
 2000fa8:	1009883a 	mov	r4,r2
 2000fac:	20002d80 	call	20002d8 <LCD_WR_DATA>
 2000fb0:	00808074 	movhi	r2,513
 2000fb4:	10ac4e04 	addi	r2,r2,-20168
 2000fb8:	10800117 	ldw	r2,4(r2)
 2000fbc:	10bfffc4 	addi	r2,r2,-1
 2000fc0:	10803fcc 	andi	r2,r2,255
 2000fc4:	1009883a 	mov	r4,r2
 2000fc8:	20002d80 	call	20002d8 <LCD_WR_DATA>
        }
    }
}
 2000fcc:	e037883a 	mov	sp,fp
 2000fd0:	dfc00117 	ldw	ra,4(sp)
 2000fd4:	df000017 	ldw	fp,0(sp)
 2000fd8:	dec00204 	addi	sp,sp,8
 2000fdc:	f800283a 	ret

02000fe0 <LCD_DrawPoint>:

//画点
//x,y:坐标
//POINT_COLOR:此点的颜色
void LCD_DrawPoint(u16 x,u16 y)
{
 2000fe0:	defffc04 	addi	sp,sp,-16
 2000fe4:	dfc00315 	stw	ra,12(sp)
 2000fe8:	df000215 	stw	fp,8(sp)
 2000fec:	df000204 	addi	fp,sp,8
 2000ff0:	e13ffe15 	stw	r4,-8(fp)
 2000ff4:	e17fff15 	stw	r5,-4(fp)
    LCD_SetCursor(x,y);        //设置光标位置
 2000ff8:	e13ffe17 	ldw	r4,-8(fp)
 2000ffc:	e17fff17 	ldw	r5,-4(fp)
 2001000:	20007880 	call	2000788 <LCD_SetCursor>
    LCD_WriteRAM_Prepare();    //开始写入GRAM
 2001004:	20004540 	call	2000454 <LCD_WriteRAM_Prepare>
    LCD_WR_DATA(POINT_COLOR);
 2001008:	d0a00017 	ldw	r2,-32768(gp)
 200100c:	1009883a 	mov	r4,r2
 2001010:	20002d80 	call	20002d8 <LCD_WR_DATA>
}
 2001014:	e037883a 	mov	sp,fp
 2001018:	dfc00117 	ldw	ra,4(sp)
 200101c:	df000017 	ldw	fp,0(sp)
 2001020:	dec00204 	addi	sp,sp,8
 2001024:	f800283a 	ret

02001028 <LCD_Fast_DrawPoint>:

//快速画点
//x,y:坐标
//color:颜色
void LCD_Fast_DrawPoint(u16 x,u16 y,u32 color)
{
 2001028:	defffb04 	addi	sp,sp,-20
 200102c:	dfc00415 	stw	ra,16(sp)
 2001030:	df000315 	stw	fp,12(sp)
 2001034:	df000304 	addi	fp,sp,12
 2001038:	e13ffd15 	stw	r4,-12(fp)
 200103c:	e17ffe15 	stw	r5,-8(fp)
 2001040:	e1bfff15 	stw	r6,-4(fp)
    if(lcddev.id==0X9341||lcddev.id==0X5310)
 2001044:	00808074 	movhi	r2,513
 2001048:	10ac4e04 	addi	r2,r2,-20168
 200104c:	10c00217 	ldw	r3,8(r2)
 2001050:	00a4d054 	movui	r2,37697
 2001054:	18800526 	beq	r3,r2,200106c <LCD_Fast_DrawPoint+0x44>
 2001058:	00808074 	movhi	r2,513
 200105c:	10ac4e04 	addi	r2,r2,-20168
 2001060:	10800217 	ldw	r2,8(r2)
 2001064:	1094c418 	cmpnei	r2,r2,21264
 2001068:	10001b1e 	bne	r2,zero,20010d8 <LCD_Fast_DrawPoint+0xb0>
    {
         LCD_WR_CMD(lcddev.setxcmd);
 200106c:	00808074 	movhi	r2,513
 2001070:	10ac4e04 	addi	r2,r2,-20168
 2001074:	10800517 	ldw	r2,20(r2)
 2001078:	1009883a 	mov	r4,r2
 200107c:	20002680 	call	2000268 <LCD_WR_CMD>
         LCD_WR_DATA(x>>8);LCD_WR_DATA(x&0XFF);
 2001080:	e0bffd17 	ldw	r2,-12(fp)
 2001084:	1004d23a 	srli	r2,r2,8
 2001088:	1009883a 	mov	r4,r2
 200108c:	20002d80 	call	20002d8 <LCD_WR_DATA>
 2001090:	e0bffd17 	ldw	r2,-12(fp)
 2001094:	10803fcc 	andi	r2,r2,255
 2001098:	1009883a 	mov	r4,r2
 200109c:	20002d80 	call	20002d8 <LCD_WR_DATA>
         LCD_WR_CMD(lcddev.setycmd);
 20010a0:	00808074 	movhi	r2,513
 20010a4:	10ac4e04 	addi	r2,r2,-20168
 20010a8:	10800617 	ldw	r2,24(r2)
 20010ac:	1009883a 	mov	r4,r2
 20010b0:	20002680 	call	2000268 <LCD_WR_CMD>
         LCD_WR_DATA(y>>8);LCD_WR_DATA(y&0XFF);
 20010b4:	e0bffe17 	ldw	r2,-8(fp)
 20010b8:	1004d23a 	srli	r2,r2,8
 20010bc:	1009883a 	mov	r4,r2
 20010c0:	20002d80 	call	20002d8 <LCD_WR_DATA>
 20010c4:	e0bffe17 	ldw	r2,-8(fp)
 20010c8:	10803fcc 	andi	r2,r2,255
 20010cc:	1009883a 	mov	r4,r2
 20010d0:	20002d80 	call	20002d8 <LCD_WR_DATA>
 20010d4:	00006706 	br	2001274 <LCD_Fast_DrawPoint+0x24c>
    }else if(lcddev.id==0X5510)
 20010d8:	00808074 	movhi	r2,513
 20010dc:	10ac4e04 	addi	r2,r2,-20168
 20010e0:	10800217 	ldw	r2,8(r2)
 20010e4:	10954418 	cmpnei	r2,r2,21776
 20010e8:	1000271e 	bne	r2,zero,2001188 <LCD_Fast_DrawPoint+0x160>
    {
         LCD_WR_CMD(lcddev.setxcmd);LCD_WR_DATA(x>>8);
 20010ec:	00808074 	movhi	r2,513
 20010f0:	10ac4e04 	addi	r2,r2,-20168
 20010f4:	10800517 	ldw	r2,20(r2)
 20010f8:	1009883a 	mov	r4,r2
 20010fc:	20002680 	call	2000268 <LCD_WR_CMD>
 2001100:	e0bffd17 	ldw	r2,-12(fp)
 2001104:	1004d23a 	srli	r2,r2,8
 2001108:	1009883a 	mov	r4,r2
 200110c:	20002d80 	call	20002d8 <LCD_WR_DATA>
         LCD_WR_CMD(lcddev.setxcmd+1);LCD_WR_DATA(x&0XFF);
 2001110:	00808074 	movhi	r2,513
 2001114:	10ac4e04 	addi	r2,r2,-20168
 2001118:	10800517 	ldw	r2,20(r2)
 200111c:	10800044 	addi	r2,r2,1
 2001120:	1009883a 	mov	r4,r2
 2001124:	20002680 	call	2000268 <LCD_WR_CMD>
 2001128:	e0bffd17 	ldw	r2,-12(fp)
 200112c:	10803fcc 	andi	r2,r2,255
 2001130:	1009883a 	mov	r4,r2
 2001134:	20002d80 	call	20002d8 <LCD_WR_DATA>
         LCD_WR_CMD(lcddev.setycmd);LCD_WR_DATA(y>>8);
 2001138:	00808074 	movhi	r2,513
 200113c:	10ac4e04 	addi	r2,r2,-20168
 2001140:	10800617 	ldw	r2,24(r2)
 2001144:	1009883a 	mov	r4,r2
 2001148:	20002680 	call	2000268 <LCD_WR_CMD>
 200114c:	e0bffe17 	ldw	r2,-8(fp)
 2001150:	1004d23a 	srli	r2,r2,8
 2001154:	1009883a 	mov	r4,r2
 2001158:	20002d80 	call	20002d8 <LCD_WR_DATA>
         LCD_WR_CMD(lcddev.setycmd+1);LCD_WR_DATA(y&0XFF);
 200115c:	00808074 	movhi	r2,513
 2001160:	10ac4e04 	addi	r2,r2,-20168
 2001164:	10800617 	ldw	r2,24(r2)
 2001168:	10800044 	addi	r2,r2,1
 200116c:	1009883a 	mov	r4,r2
 2001170:	20002680 	call	2000268 <LCD_WR_CMD>
 2001174:	e0bffe17 	ldw	r2,-8(fp)
 2001178:	10803fcc 	andi	r2,r2,255
 200117c:	1009883a 	mov	r4,r2
 2001180:	20002d80 	call	20002d8 <LCD_WR_DATA>
 2001184:	00003b06 	br	2001274 <LCD_Fast_DrawPoint+0x24c>
    }else if(lcddev.id==0X1963)
 2001188:	00808074 	movhi	r2,513
 200118c:	10ac4e04 	addi	r2,r2,-20168
 2001190:	10800217 	ldw	r2,8(r2)
 2001194:	108658d8 	cmpnei	r2,r2,6499
 2001198:	1000361e 	bne	r2,zero,2001274 <LCD_Fast_DrawPoint+0x24c>
    {
         if(lcddev.dir==0)x=lcddev.width-1-x;
 200119c:	00808074 	movhi	r2,513
 20011a0:	10ac4e04 	addi	r2,r2,-20168
 20011a4:	10800303 	ldbu	r2,12(r2)
 20011a8:	10803fcc 	andi	r2,r2,255
 20011ac:	1000071e 	bne	r2,zero,20011cc <LCD_Fast_DrawPoint+0x1a4>
 20011b0:	00808074 	movhi	r2,513
 20011b4:	10ac4e04 	addi	r2,r2,-20168
 20011b8:	10c00017 	ldw	r3,0(r2)
 20011bc:	e0bffd17 	ldw	r2,-12(fp)
 20011c0:	1885c83a 	sub	r2,r3,r2
 20011c4:	10bfffc4 	addi	r2,r2,-1
 20011c8:	e0bffd15 	stw	r2,-12(fp)
         LCD_WR_CMD(lcddev.setxcmd);
 20011cc:	00808074 	movhi	r2,513
 20011d0:	10ac4e04 	addi	r2,r2,-20168
 20011d4:	10800517 	ldw	r2,20(r2)
 20011d8:	1009883a 	mov	r4,r2
 20011dc:	20002680 	call	2000268 <LCD_WR_CMD>
         LCD_WR_DATA(x>>8);LCD_WR_DATA(x&0XFF);
 20011e0:	e0bffd17 	ldw	r2,-12(fp)
 20011e4:	1004d23a 	srli	r2,r2,8
 20011e8:	1009883a 	mov	r4,r2
 20011ec:	20002d80 	call	20002d8 <LCD_WR_DATA>
 20011f0:	e0bffd17 	ldw	r2,-12(fp)
 20011f4:	10803fcc 	andi	r2,r2,255
 20011f8:	1009883a 	mov	r4,r2
 20011fc:	20002d80 	call	20002d8 <LCD_WR_DATA>
         LCD_WR_DATA(x>>8);LCD_WR_DATA(x&0XFF);
 2001200:	e0bffd17 	ldw	r2,-12(fp)
 2001204:	1004d23a 	srli	r2,r2,8
 2001208:	1009883a 	mov	r4,r2
 200120c:	20002d80 	call	20002d8 <LCD_WR_DATA>
 2001210:	e0bffd17 	ldw	r2,-12(fp)
 2001214:	10803fcc 	andi	r2,r2,255
 2001218:	1009883a 	mov	r4,r2
 200121c:	20002d80 	call	20002d8 <LCD_WR_DATA>
         LCD_WR_CMD(lcddev.setycmd);
 2001220:	00808074 	movhi	r2,513
 2001224:	10ac4e04 	addi	r2,r2,-20168
 2001228:	10800617 	ldw	r2,24(r2)
 200122c:	1009883a 	mov	r4,r2
 2001230:	20002680 	call	2000268 <LCD_WR_CMD>
         LCD_WR_DATA(y>>8);LCD_WR_DATA(y&0XFF);
 2001234:	e0bffe17 	ldw	r2,-8(fp)
 2001238:	1004d23a 	srli	r2,r2,8
 200123c:	1009883a 	mov	r4,r2
 2001240:	20002d80 	call	20002d8 <LCD_WR_DATA>
 2001244:	e0bffe17 	ldw	r2,-8(fp)
 2001248:	10803fcc 	andi	r2,r2,255
 200124c:	1009883a 	mov	r4,r2
 2001250:	20002d80 	call	20002d8 <LCD_WR_DATA>
         LCD_WR_DATA(y>>8);LCD_WR_DATA(y&0XFF);
 2001254:	e0bffe17 	ldw	r2,-8(fp)
 2001258:	1004d23a 	srli	r2,r2,8
 200125c:	1009883a 	mov	r4,r2
 2001260:	20002d80 	call	20002d8 <LCD_WR_DATA>
 2001264:	e0bffe17 	ldw	r2,-8(fp)
 2001268:	10803fcc 	andi	r2,r2,255
 200126c:	1009883a 	mov	r4,r2
 2001270:	20002d80 	call	20002d8 <LCD_WR_DATA>
    }
    LCD_WR_CMD(lcddev.wramcmd);
 2001274:	00808074 	movhi	r2,513
 2001278:	10ac4e04 	addi	r2,r2,-20168
 200127c:	10800417 	ldw	r2,16(r2)
 2001280:	1009883a 	mov	r4,r2
 2001284:	20002680 	call	2000268 <LCD_WR_CMD>
    LCD_WR_DATA(color);
 2001288:	e13fff17 	ldw	r4,-4(fp)
 200128c:	20002d80 	call	20002d8 <LCD_WR_DATA>
}
 2001290:	e037883a 	mov	sp,fp
 2001294:	dfc00117 	ldw	ra,4(sp)
 2001298:	df000017 	ldw	fp,0(sp)
 200129c:	dec00204 	addi	sp,sp,8
 20012a0:	f800283a 	ret

020012a4 <LCD_SSD_BackLightSet>:

//SSD1963 背光设置
//pwm:背光等级,0~100.越大越亮.
void LCD_SSD_BackLightSet(u8 pwm)
{
 20012a4:	defffd04 	addi	sp,sp,-12
 20012a8:	dfc00215 	stw	ra,8(sp)
 20012ac:	df000115 	stw	fp,4(sp)
 20012b0:	df000104 	addi	fp,sp,4
 20012b4:	2005883a 	mov	r2,r4
 20012b8:	e0bfff05 	stb	r2,-4(fp)
    LCD_WR_CMD(0xBE);  //配置PWM输出
 20012bc:	01002f84 	movi	r4,190
 20012c0:	20002680 	call	2000268 <LCD_WR_CMD>
    LCD_WR_DATA(0x05); //1设置PWM频率
 20012c4:	01000144 	movi	r4,5
 20012c8:	20002d80 	call	20002d8 <LCD_WR_DATA>
    LCD_WR_DATA(pwm*2.55);//2设置PWM占空比
 20012cc:	e0bfff03 	ldbu	r2,-4(fp)
 20012d0:	1009883a 	mov	r4,r2
 20012d4:	2005c0c0 	call	2005c0c <__floatsidf>
 20012d8:	100b883a 	mov	r5,r2
 20012dc:	180d883a 	mov	r6,r3
 20012e0:	2809883a 	mov	r4,r5
 20012e4:	300b883a 	mov	r5,r6
 20012e8:	019999b4 	movhi	r6,26214
 20012ec:	31999984 	addi	r6,r6,26214
 20012f0:	01d00134 	movhi	r7,16388
 20012f4:	39d99984 	addi	r7,r7,26214
 20012f8:	20058c40 	call	20058c4 <__muldf3>
 20012fc:	1009883a 	mov	r4,r2
 2001300:	180b883a 	mov	r5,r3
 2001304:	2005883a 	mov	r2,r4
 2001308:	2807883a 	mov	r3,r5
 200130c:	1009883a 	mov	r4,r2
 2001310:	180b883a 	mov	r5,r3
 2001314:	20054380 	call	2005438 <__fixunsdfsi>
 2001318:	1009883a 	mov	r4,r2
 200131c:	20002d80 	call	20002d8 <LCD_WR_DATA>
    LCD_WR_DATA(0x01); //3设置C
 2001320:	01000044 	movi	r4,1
 2001324:	20002d80 	call	20002d8 <LCD_WR_DATA>
    LCD_WR_DATA(0xFF); //4设置D
 2001328:	01003fc4 	movi	r4,255
 200132c:	20002d80 	call	20002d8 <LCD_WR_DATA>
    LCD_WR_DATA(0x00); //5设置E
 2001330:	0009883a 	mov	r4,zero
 2001334:	20002d80 	call	20002d8 <LCD_WR_DATA>
    LCD_WR_DATA(0x00); //6设置F
 2001338:	0009883a 	mov	r4,zero
 200133c:	20002d80 	call	20002d8 <LCD_WR_DATA>
}
 2001340:	e037883a 	mov	sp,fp
 2001344:	dfc00117 	ldw	ra,4(sp)
 2001348:	df000017 	ldw	fp,0(sp)
 200134c:	dec00204 	addi	sp,sp,8
 2001350:	f800283a 	ret

02001354 <LCD_Display_Dir>:

//设置LCD显示方向
//dir:0,竖屏；1,横屏
void LCD_Display_Dir(u8 dir)
{
 2001354:	defffd04 	addi	sp,sp,-12
 2001358:	dfc00215 	stw	ra,8(sp)
 200135c:	df000115 	stw	fp,4(sp)
 2001360:	df000104 	addi	fp,sp,4
 2001364:	2005883a 	mov	r2,r4
 2001368:	e0bfff05 	stb	r2,-4(fp)
    lcddev.dir=dir;        //横屏/竖屏
 200136c:	00808074 	movhi	r2,513
 2001370:	10ac4e04 	addi	r2,r2,-20168
 2001374:	e0ffff03 	ldbu	r3,-4(fp)
 2001378:	10c00305 	stb	r3,12(r2)
    if(dir==0) {           //竖屏
 200137c:	e0bfff03 	ldbu	r2,-4(fp)
 2001380:	1000611e 	bne	r2,zero,2001508 <LCD_Display_Dir+0x1b4>
        lcddev.width=240;
 2001384:	00808074 	movhi	r2,513
 2001388:	10ac4e04 	addi	r2,r2,-20168
 200138c:	00c03c04 	movi	r3,240
 2001390:	10c00015 	stw	r3,0(r2)
        lcddev.height=320;
 2001394:	00808074 	movhi	r2,513
 2001398:	10ac4e04 	addi	r2,r2,-20168
 200139c:	00c05004 	movi	r3,320
 20013a0:	10c00115 	stw	r3,4(r2)
        if(lcddev.id==0X9341||lcddev.id==0X5310) {
 20013a4:	00808074 	movhi	r2,513
 20013a8:	10ac4e04 	addi	r2,r2,-20168
 20013ac:	10c00217 	ldw	r3,8(r2)
 20013b0:	00a4d054 	movui	r2,37697
 20013b4:	18800526 	beq	r3,r2,20013cc <LCD_Display_Dir+0x78>
 20013b8:	00808074 	movhi	r2,513
 20013bc:	10ac4e04 	addi	r2,r2,-20168
 20013c0:	10800217 	ldw	r2,8(r2)
 20013c4:	1094c418 	cmpnei	r2,r2,21264
 20013c8:	10001b1e 	bne	r2,zero,2001438 <LCD_Display_Dir+0xe4>
             lcddev.wramcmd=0X2C;
 20013cc:	00808074 	movhi	r2,513
 20013d0:	10ac4e04 	addi	r2,r2,-20168
 20013d4:	00c00b04 	movi	r3,44
 20013d8:	10c00415 	stw	r3,16(r2)
             lcddev.setxcmd=0X2A;
 20013dc:	00808074 	movhi	r2,513
 20013e0:	10ac4e04 	addi	r2,r2,-20168
 20013e4:	00c00a84 	movi	r3,42
 20013e8:	10c00515 	stw	r3,20(r2)
             lcddev.setycmd=0X2B;
 20013ec:	00808074 	movhi	r2,513
 20013f0:	10ac4e04 	addi	r2,r2,-20168
 20013f4:	00c00ac4 	movi	r3,43
 20013f8:	10c00615 	stw	r3,24(r2)
             if(lcddev.id==0X5310) {
 20013fc:	00808074 	movhi	r2,513
 2001400:	10ac4e04 	addi	r2,r2,-20168
 2001404:	10800217 	ldw	r2,8(r2)
 2001408:	1094c418 	cmpnei	r2,r2,21264
 200140c:	10009f1e 	bne	r2,zero,200168c <LCD_Display_Dir+0x338>
                  lcddev.width=320;
 2001410:	00808074 	movhi	r2,513
 2001414:	10ac4e04 	addi	r2,r2,-20168
 2001418:	00c05004 	movi	r3,320
 200141c:	10c00015 	stw	r3,0(r2)
                  lcddev.height=480;
 2001420:	00808074 	movhi	r2,513
 2001424:	10ac4e04 	addi	r2,r2,-20168
 2001428:	00c07804 	movi	r3,480
 200142c:	10c00115 	stw	r3,4(r2)
        lcddev.height=320;
        if(lcddev.id==0X9341||lcddev.id==0X5310) {
             lcddev.wramcmd=0X2C;
             lcddev.setxcmd=0X2A;
             lcddev.setycmd=0X2B;
             if(lcddev.id==0X5310) {
 2001430:	0001883a 	nop
 2001434:	00009506 	br	200168c <LCD_Display_Dir+0x338>
                  lcddev.width=320;
                  lcddev.height=480;
             }
        }else if(lcddev.id==0x5510) {
 2001438:	00808074 	movhi	r2,513
 200143c:	10ac4e04 	addi	r2,r2,-20168
 2001440:	10800217 	ldw	r2,8(r2)
 2001444:	10954418 	cmpnei	r2,r2,21776
 2001448:	1000151e 	bne	r2,zero,20014a0 <LCD_Display_Dir+0x14c>
             lcddev.wramcmd=0X2C00;
 200144c:	00808074 	movhi	r2,513
 2001450:	10ac4e04 	addi	r2,r2,-20168
 2001454:	00cb0004 	movi	r3,11264
 2001458:	10c00415 	stw	r3,16(r2)
             lcddev.setxcmd=0X2A00;
 200145c:	00808074 	movhi	r2,513
 2001460:	10ac4e04 	addi	r2,r2,-20168
 2001464:	00ca8004 	movi	r3,10752
 2001468:	10c00515 	stw	r3,20(r2)
             lcddev.setycmd=0X2B00;
 200146c:	00808074 	movhi	r2,513
 2001470:	10ac4e04 	addi	r2,r2,-20168
 2001474:	00cac004 	movi	r3,11008
 2001478:	10c00615 	stw	r3,24(r2)
             lcddev.width=480;
 200147c:	00808074 	movhi	r2,513
 2001480:	10ac4e04 	addi	r2,r2,-20168
 2001484:	00c07804 	movi	r3,480
 2001488:	10c00015 	stw	r3,0(r2)
             lcddev.height=800;
 200148c:	00808074 	movhi	r2,513
 2001490:	10ac4e04 	addi	r2,r2,-20168
 2001494:	00c0c804 	movi	r3,800
 2001498:	10c00115 	stw	r3,4(r2)
        }else if(lcddev.id==0X1963) {
             lcddev.wramcmd=0X2C;     //设置写入GRAM的指令
             lcddev.setxcmd=0X2B;     //设置写X坐标指令
             lcddev.setycmd=0X2A;     //设置写Y坐标指令
             lcddev.width=480;        //设置宽度480
             lcddev.height=800;       //设置高度800
 200149c:	00007a06 	br	2001688 <LCD_Display_Dir+0x334>
             lcddev.wramcmd=0X2C00;
             lcddev.setxcmd=0X2A00;
             lcddev.setycmd=0X2B00;
             lcddev.width=480;
             lcddev.height=800;
        }else if(lcddev.id==0X1963) {
 20014a0:	00808074 	movhi	r2,513
 20014a4:	10ac4e04 	addi	r2,r2,-20168
 20014a8:	10800217 	ldw	r2,8(r2)
 20014ac:	108658d8 	cmpnei	r2,r2,6499
 20014b0:	1000751e 	bne	r2,zero,2001688 <LCD_Display_Dir+0x334>
             lcddev.wramcmd=0X2C;     //设置写入GRAM的指令
 20014b4:	00808074 	movhi	r2,513
 20014b8:	10ac4e04 	addi	r2,r2,-20168
 20014bc:	00c00b04 	movi	r3,44
 20014c0:	10c00415 	stw	r3,16(r2)
             lcddev.setxcmd=0X2B;     //设置写X坐标指令
 20014c4:	00808074 	movhi	r2,513
 20014c8:	10ac4e04 	addi	r2,r2,-20168
 20014cc:	00c00ac4 	movi	r3,43
 20014d0:	10c00515 	stw	r3,20(r2)
             lcddev.setycmd=0X2A;     //设置写Y坐标指令
 20014d4:	00808074 	movhi	r2,513
 20014d8:	10ac4e04 	addi	r2,r2,-20168
 20014dc:	00c00a84 	movi	r3,42
 20014e0:	10c00615 	stw	r3,24(r2)
             lcddev.width=480;        //设置宽度480
 20014e4:	00808074 	movhi	r2,513
 20014e8:	10ac4e04 	addi	r2,r2,-20168
 20014ec:	00c07804 	movi	r3,480
 20014f0:	10c00015 	stw	r3,0(r2)
             lcddev.height=800;       //设置高度800
 20014f4:	00808074 	movhi	r2,513
 20014f8:	10ac4e04 	addi	r2,r2,-20168
 20014fc:	00c0c804 	movi	r3,800
 2001500:	10c00115 	stw	r3,4(r2)
 2001504:	00006006 	br	2001688 <LCD_Display_Dir+0x334>
        }
    }else {                //横屏
        lcddev.width=320;
 2001508:	00808074 	movhi	r2,513
 200150c:	10ac4e04 	addi	r2,r2,-20168
 2001510:	00c05004 	movi	r3,320
 2001514:	10c00015 	stw	r3,0(r2)
        lcddev.height=240;
 2001518:	00808074 	movhi	r2,513
 200151c:	10ac4e04 	addi	r2,r2,-20168
 2001520:	00c03c04 	movi	r3,240
 2001524:	10c00115 	stw	r3,4(r2)
        if(lcddev.id==0X9341||lcddev.id==0X5310)
 2001528:	00808074 	movhi	r2,513
 200152c:	10ac4e04 	addi	r2,r2,-20168
 2001530:	10c00217 	ldw	r3,8(r2)
 2001534:	00a4d054 	movui	r2,37697
 2001538:	18800526 	beq	r3,r2,2001550 <LCD_Display_Dir+0x1fc>
 200153c:	00808074 	movhi	r2,513
 2001540:	10ac4e04 	addi	r2,r2,-20168
 2001544:	10800217 	ldw	r2,8(r2)
 2001548:	1094c418 	cmpnei	r2,r2,21264
 200154c:	10000d1e 	bne	r2,zero,2001584 <LCD_Display_Dir+0x230>
        {
             lcddev.wramcmd=0X2C;
 2001550:	00808074 	movhi	r2,513
 2001554:	10ac4e04 	addi	r2,r2,-20168
 2001558:	00c00b04 	movi	r3,44
 200155c:	10c00415 	stw	r3,16(r2)
             lcddev.setxcmd=0X2A;
 2001560:	00808074 	movhi	r2,513
 2001564:	10ac4e04 	addi	r2,r2,-20168
 2001568:	00c00a84 	movi	r3,42
 200156c:	10c00515 	stw	r3,20(r2)
             lcddev.setycmd=0X2B;
 2001570:	00808074 	movhi	r2,513
 2001574:	10ac4e04 	addi	r2,r2,-20168
 2001578:	00c00ac4 	movi	r3,43
 200157c:	10c00615 	stw	r3,24(r2)
 2001580:	00003306 	br	2001650 <LCD_Display_Dir+0x2fc>
        }else if(lcddev.id==0x5510)
 2001584:	00808074 	movhi	r2,513
 2001588:	10ac4e04 	addi	r2,r2,-20168
 200158c:	10800217 	ldw	r2,8(r2)
 2001590:	10954418 	cmpnei	r2,r2,21776
 2001594:	1000151e 	bne	r2,zero,20015ec <LCD_Display_Dir+0x298>
        {
             lcddev.wramcmd=0X2C00;
 2001598:	00808074 	movhi	r2,513
 200159c:	10ac4e04 	addi	r2,r2,-20168
 20015a0:	00cb0004 	movi	r3,11264
 20015a4:	10c00415 	stw	r3,16(r2)
             lcddev.setxcmd=0X2A00;
 20015a8:	00808074 	movhi	r2,513
 20015ac:	10ac4e04 	addi	r2,r2,-20168
 20015b0:	00ca8004 	movi	r3,10752
 20015b4:	10c00515 	stw	r3,20(r2)
             lcddev.setycmd=0X2B00;
 20015b8:	00808074 	movhi	r2,513
 20015bc:	10ac4e04 	addi	r2,r2,-20168
 20015c0:	00cac004 	movi	r3,11008
 20015c4:	10c00615 	stw	r3,24(r2)
             lcddev.width=800;
 20015c8:	00808074 	movhi	r2,513
 20015cc:	10ac4e04 	addi	r2,r2,-20168
 20015d0:	00c0c804 	movi	r3,800
 20015d4:	10c00015 	stw	r3,0(r2)
             lcddev.height=480;
 20015d8:	00808074 	movhi	r2,513
 20015dc:	10ac4e04 	addi	r2,r2,-20168
 20015e0:	00c07804 	movi	r3,480
 20015e4:	10c00115 	stw	r3,4(r2)
 20015e8:	00001906 	br	2001650 <LCD_Display_Dir+0x2fc>
        }else if(lcddev.id==0X1963)
 20015ec:	00808074 	movhi	r2,513
 20015f0:	10ac4e04 	addi	r2,r2,-20168
 20015f4:	10800217 	ldw	r2,8(r2)
 20015f8:	108658d8 	cmpnei	r2,r2,6499
 20015fc:	1000141e 	bne	r2,zero,2001650 <LCD_Display_Dir+0x2fc>
        {
             lcddev.wramcmd=0X2C;     //设置写入GRAM的指令
 2001600:	00808074 	movhi	r2,513
 2001604:	10ac4e04 	addi	r2,r2,-20168
 2001608:	00c00b04 	movi	r3,44
 200160c:	10c00415 	stw	r3,16(r2)
             lcddev.setxcmd=0X2A;     //设置写X坐标指令
 2001610:	00808074 	movhi	r2,513
 2001614:	10ac4e04 	addi	r2,r2,-20168
 2001618:	00c00a84 	movi	r3,42
 200161c:	10c00515 	stw	r3,20(r2)
             lcddev.setycmd=0X2B;     //设置写Y坐标指令
 2001620:	00808074 	movhi	r2,513
 2001624:	10ac4e04 	addi	r2,r2,-20168
 2001628:	00c00ac4 	movi	r3,43
 200162c:	10c00615 	stw	r3,24(r2)
             lcddev.width=800;        //设置宽度800
 2001630:	00808074 	movhi	r2,513
 2001634:	10ac4e04 	addi	r2,r2,-20168
 2001638:	00c0c804 	movi	r3,800
 200163c:	10c00015 	stw	r3,0(r2)
             lcddev.height=480;       //设置高度480
 2001640:	00808074 	movhi	r2,513
 2001644:	10ac4e04 	addi	r2,r2,-20168
 2001648:	00c07804 	movi	r3,480
 200164c:	10c00115 	stw	r3,4(r2)
        }
        if(lcddev.id==0X5310)
 2001650:	00808074 	movhi	r2,513
 2001654:	10ac4e04 	addi	r2,r2,-20168
 2001658:	10800217 	ldw	r2,8(r2)
 200165c:	1094c418 	cmpnei	r2,r2,21264
 2001660:	10000a1e 	bne	r2,zero,200168c <LCD_Display_Dir+0x338>
        {
             lcddev.width=480;
 2001664:	00808074 	movhi	r2,513
 2001668:	10ac4e04 	addi	r2,r2,-20168
 200166c:	00c07804 	movi	r3,480
 2001670:	10c00015 	stw	r3,0(r2)
             lcddev.height=320;
 2001674:	00808074 	movhi	r2,513
 2001678:	10ac4e04 	addi	r2,r2,-20168
 200167c:	00c05004 	movi	r3,320
 2001680:	10c00115 	stw	r3,4(r2)
 2001684:	00000106 	br	200168c <LCD_Display_Dir+0x338>
        }else if(lcddev.id==0X1963) {
             lcddev.wramcmd=0X2C;     //设置写入GRAM的指令
             lcddev.setxcmd=0X2B;     //设置写X坐标指令
             lcddev.setycmd=0X2A;     //设置写Y坐标指令
             lcddev.width=480;        //设置宽度480
             lcddev.height=800;       //设置高度800
 2001688:	0001883a 	nop
        {
             lcddev.width=480;
             lcddev.height=320;
        }
    }
    if(lcddev.id==0X1963)
 200168c:	00808074 	movhi	r2,513
 2001690:	10ac4e04 	addi	r2,r2,-20168
 2001694:	10800217 	ldw	r2,8(r2)
 2001698:	108658d8 	cmpnei	r2,r2,6499
 200169c:	1000031e 	bne	r2,zero,20016ac <LCD_Display_Dir+0x358>
    	LCD_Scan_Dir(U2D_R2L);
 20016a0:	01000144 	movi	r4,5
 20016a4:	2000a5c0 	call	2000a5c <LCD_Scan_Dir>
 20016a8:	00000206 	br	20016b4 <LCD_Display_Dir+0x360>
    else
    	LCD_Scan_Dir(R2L_D2U);
 20016ac:	010000c4 	movi	r4,3
 20016b0:	2000a5c0 	call	2000a5c <LCD_Scan_Dir>
}
 20016b4:	e037883a 	mov	sp,fp
 20016b8:	dfc00117 	ldw	ra,4(sp)
 20016bc:	df000017 	ldw	fp,0(sp)
 20016c0:	dec00204 	addi	sp,sp,8
 20016c4:	f800283a 	ret

020016c8 <LCD_Set_Window>:
//设置窗口(对RGB屏无效),并自动设置画点坐标到窗口左上角(sx,sy).
//sx,sy:窗口起始坐标(左上角)
//width,height:窗口宽度和高度,必须大于0!!
//窗体大小:width*height.
void LCD_Set_Window(u16 sx,u16 sy,u16 width,u16 height)
{
 20016c8:	defff804 	addi	sp,sp,-32
 20016cc:	dfc00715 	stw	ra,28(sp)
 20016d0:	df000615 	stw	fp,24(sp)
 20016d4:	df000604 	addi	fp,sp,24
 20016d8:	e13ffc15 	stw	r4,-16(fp)
 20016dc:	e17ffd15 	stw	r5,-12(fp)
 20016e0:	e1bffe15 	stw	r6,-8(fp)
 20016e4:	e1ffff15 	stw	r7,-4(fp)
    u16 twidth,theight;
    twidth=sx+width-1;
 20016e8:	e0fffc17 	ldw	r3,-16(fp)
 20016ec:	e0bffe17 	ldw	r2,-8(fp)
 20016f0:	1885883a 	add	r2,r3,r2
 20016f4:	10bfffc4 	addi	r2,r2,-1
 20016f8:	e0bffa15 	stw	r2,-24(fp)
    theight=sy+height-1;
 20016fc:	e0fffd17 	ldw	r3,-12(fp)
 2001700:	e0bfff17 	ldw	r2,-4(fp)
 2001704:	1885883a 	add	r2,r3,r2
 2001708:	10bfffc4 	addi	r2,r2,-1
 200170c:	e0bffb15 	stw	r2,-20(fp)
    if(lcddev.id==0X9341||lcddev.id==0X5310||(lcddev.dir==1&&lcddev.id==0X1963)) {
 2001710:	00808074 	movhi	r2,513
 2001714:	10ac4e04 	addi	r2,r2,-20168
 2001718:	10c00217 	ldw	r3,8(r2)
 200171c:	00a4d054 	movui	r2,37697
 2001720:	18801026 	beq	r3,r2,2001764 <LCD_Set_Window+0x9c>
 2001724:	00808074 	movhi	r2,513
 2001728:	10ac4e04 	addi	r2,r2,-20168
 200172c:	10800217 	ldw	r2,8(r2)
 2001730:	1094c420 	cmpeqi	r2,r2,21264
 2001734:	10000b1e 	bne	r2,zero,2001764 <LCD_Set_Window+0x9c>
 2001738:	00808074 	movhi	r2,513
 200173c:	10ac4e04 	addi	r2,r2,-20168
 2001740:	10800303 	ldbu	r2,12(r2)
 2001744:	10803fcc 	andi	r2,r2,255
 2001748:	10800058 	cmpnei	r2,r2,1
 200174c:	1000301e 	bne	r2,zero,2001810 <LCD_Set_Window+0x148>
 2001750:	00808074 	movhi	r2,513
 2001754:	10ac4e04 	addi	r2,r2,-20168
 2001758:	10800217 	ldw	r2,8(r2)
 200175c:	108658d8 	cmpnei	r2,r2,6499
 2001760:	10002b1e 	bne	r2,zero,2001810 <LCD_Set_Window+0x148>
        LCD_WR_CMD(lcddev.setxcmd);
 2001764:	00808074 	movhi	r2,513
 2001768:	10ac4e04 	addi	r2,r2,-20168
 200176c:	10800517 	ldw	r2,20(r2)
 2001770:	1009883a 	mov	r4,r2
 2001774:	20002680 	call	2000268 <LCD_WR_CMD>
        LCD_WR_DATA(sx>>8);
 2001778:	e0bffc17 	ldw	r2,-16(fp)
 200177c:	1004d23a 	srli	r2,r2,8
 2001780:	1009883a 	mov	r4,r2
 2001784:	20002d80 	call	20002d8 <LCD_WR_DATA>
        LCD_WR_DATA(sx&0XFF);
 2001788:	e0bffc17 	ldw	r2,-16(fp)
 200178c:	10803fcc 	andi	r2,r2,255
 2001790:	1009883a 	mov	r4,r2
 2001794:	20002d80 	call	20002d8 <LCD_WR_DATA>
        LCD_WR_DATA(twidth>>8);
 2001798:	e0bffa17 	ldw	r2,-24(fp)
 200179c:	1004d23a 	srli	r2,r2,8
 20017a0:	1009883a 	mov	r4,r2
 20017a4:	20002d80 	call	20002d8 <LCD_WR_DATA>
        LCD_WR_DATA(twidth&0XFF);
 20017a8:	e0bffa17 	ldw	r2,-24(fp)
 20017ac:	10803fcc 	andi	r2,r2,255
 20017b0:	1009883a 	mov	r4,r2
 20017b4:	20002d80 	call	20002d8 <LCD_WR_DATA>
        LCD_WR_CMD(lcddev.setycmd);
 20017b8:	00808074 	movhi	r2,513
 20017bc:	10ac4e04 	addi	r2,r2,-20168
 20017c0:	10800617 	ldw	r2,24(r2)
 20017c4:	1009883a 	mov	r4,r2
 20017c8:	20002680 	call	2000268 <LCD_WR_CMD>
        LCD_WR_DATA(sy>>8);
 20017cc:	e0bffd17 	ldw	r2,-12(fp)
 20017d0:	1004d23a 	srli	r2,r2,8
 20017d4:	1009883a 	mov	r4,r2
 20017d8:	20002d80 	call	20002d8 <LCD_WR_DATA>
        LCD_WR_DATA(sy&0XFF);
 20017dc:	e0bffd17 	ldw	r2,-12(fp)
 20017e0:	10803fcc 	andi	r2,r2,255
 20017e4:	1009883a 	mov	r4,r2
 20017e8:	20002d80 	call	20002d8 <LCD_WR_DATA>
        LCD_WR_DATA(theight>>8);
 20017ec:	e0bffb17 	ldw	r2,-20(fp)
 20017f0:	1004d23a 	srli	r2,r2,8
 20017f4:	1009883a 	mov	r4,r2
 20017f8:	20002d80 	call	20002d8 <LCD_WR_DATA>
        LCD_WR_DATA(theight&0XFF);
 20017fc:	e0bffb17 	ldw	r2,-20(fp)
 2001800:	10803fcc 	andi	r2,r2,255
 2001804:	1009883a 	mov	r4,r2
 2001808:	20002d80 	call	20002d8 <LCD_WR_DATA>
 200180c:	00009606 	br	2001a68 <LCD_Set_Window+0x3a0>
    }else if(lcddev.id==0X1963)//1963竖屏特殊处理
 2001810:	00808074 	movhi	r2,513
 2001814:	10ac4e04 	addi	r2,r2,-20168
 2001818:	10800217 	ldw	r2,8(r2)
 200181c:	108658d8 	cmpnei	r2,r2,6499
 2001820:	10003e1e 	bne	r2,zero,200191c <LCD_Set_Window+0x254>
    {
        sx=lcddev.width-width-sx;
 2001824:	00808074 	movhi	r2,513
 2001828:	10ac4e04 	addi	r2,r2,-20168
 200182c:	10c00017 	ldw	r3,0(r2)
 2001830:	e0bffe17 	ldw	r2,-8(fp)
 2001834:	1887c83a 	sub	r3,r3,r2
 2001838:	e0bffc17 	ldw	r2,-16(fp)
 200183c:	1885c83a 	sub	r2,r3,r2
 2001840:	e0bffc15 	stw	r2,-16(fp)
        height=sy+height-1;
 2001844:	e0fffd17 	ldw	r3,-12(fp)
 2001848:	e0bfff17 	ldw	r2,-4(fp)
 200184c:	1885883a 	add	r2,r3,r2
 2001850:	10bfffc4 	addi	r2,r2,-1
 2001854:	e0bfff15 	stw	r2,-4(fp)
        LCD_WR_CMD(lcddev.setxcmd);
 2001858:	00808074 	movhi	r2,513
 200185c:	10ac4e04 	addi	r2,r2,-20168
 2001860:	10800517 	ldw	r2,20(r2)
 2001864:	1009883a 	mov	r4,r2
 2001868:	20002680 	call	2000268 <LCD_WR_CMD>
        LCD_WR_DATA(sx>>8);
 200186c:	e0bffc17 	ldw	r2,-16(fp)
 2001870:	1004d23a 	srli	r2,r2,8
 2001874:	1009883a 	mov	r4,r2
 2001878:	20002d80 	call	20002d8 <LCD_WR_DATA>
        LCD_WR_DATA(sx&0XFF);
 200187c:	e0bffc17 	ldw	r2,-16(fp)
 2001880:	10803fcc 	andi	r2,r2,255
 2001884:	1009883a 	mov	r4,r2
 2001888:	20002d80 	call	20002d8 <LCD_WR_DATA>
        LCD_WR_DATA((sx+width-1)>>8);
 200188c:	e0fffc17 	ldw	r3,-16(fp)
 2001890:	e0bffe17 	ldw	r2,-8(fp)
 2001894:	1885883a 	add	r2,r3,r2
 2001898:	10bfffc4 	addi	r2,r2,-1
 200189c:	1004d23a 	srli	r2,r2,8
 20018a0:	1009883a 	mov	r4,r2
 20018a4:	20002d80 	call	20002d8 <LCD_WR_DATA>
        LCD_WR_DATA((sx+width-1)&0XFF);
 20018a8:	e0fffc17 	ldw	r3,-16(fp)
 20018ac:	e0bffe17 	ldw	r2,-8(fp)
 20018b0:	1885883a 	add	r2,r3,r2
 20018b4:	10bfffc4 	addi	r2,r2,-1
 20018b8:	10803fcc 	andi	r2,r2,255
 20018bc:	1009883a 	mov	r4,r2
 20018c0:	20002d80 	call	20002d8 <LCD_WR_DATA>
        LCD_WR_CMD(lcddev.setycmd);
 20018c4:	00808074 	movhi	r2,513
 20018c8:	10ac4e04 	addi	r2,r2,-20168
 20018cc:	10800617 	ldw	r2,24(r2)
 20018d0:	1009883a 	mov	r4,r2
 20018d4:	20002680 	call	2000268 <LCD_WR_CMD>
        LCD_WR_DATA(sy>>8);
 20018d8:	e0bffd17 	ldw	r2,-12(fp)
 20018dc:	1004d23a 	srli	r2,r2,8
 20018e0:	1009883a 	mov	r4,r2
 20018e4:	20002d80 	call	20002d8 <LCD_WR_DATA>
        LCD_WR_DATA(sy&0XFF);
 20018e8:	e0bffd17 	ldw	r2,-12(fp)
 20018ec:	10803fcc 	andi	r2,r2,255
 20018f0:	1009883a 	mov	r4,r2
 20018f4:	20002d80 	call	20002d8 <LCD_WR_DATA>
        LCD_WR_DATA(height>>8);
 20018f8:	e0bfff17 	ldw	r2,-4(fp)
 20018fc:	1004d23a 	srli	r2,r2,8
 2001900:	1009883a 	mov	r4,r2
 2001904:	20002d80 	call	20002d8 <LCD_WR_DATA>
        LCD_WR_DATA(height&0XFF);
 2001908:	e0bfff17 	ldw	r2,-4(fp)
 200190c:	10803fcc 	andi	r2,r2,255
 2001910:	1009883a 	mov	r4,r2
 2001914:	20002d80 	call	20002d8 <LCD_WR_DATA>
 2001918:	00005306 	br	2001a68 <LCD_Set_Window+0x3a0>
    }else if(lcddev.id==0X5510)
 200191c:	00808074 	movhi	r2,513
 2001920:	10ac4e04 	addi	r2,r2,-20168
 2001924:	10800217 	ldw	r2,8(r2)
 2001928:	10954418 	cmpnei	r2,r2,21776
 200192c:	10004e1e 	bne	r2,zero,2001a68 <LCD_Set_Window+0x3a0>
    {
        LCD_WR_CMD(lcddev.setxcmd);LCD_WR_DATA(sx>>8);
 2001930:	00808074 	movhi	r2,513
 2001934:	10ac4e04 	addi	r2,r2,-20168
 2001938:	10800517 	ldw	r2,20(r2)
 200193c:	1009883a 	mov	r4,r2
 2001940:	20002680 	call	2000268 <LCD_WR_CMD>
 2001944:	e0bffc17 	ldw	r2,-16(fp)
 2001948:	1004d23a 	srli	r2,r2,8
 200194c:	1009883a 	mov	r4,r2
 2001950:	20002d80 	call	20002d8 <LCD_WR_DATA>
        LCD_WR_CMD(lcddev.setxcmd+1);LCD_WR_DATA(sx&0XFF);
 2001954:	00808074 	movhi	r2,513
 2001958:	10ac4e04 	addi	r2,r2,-20168
 200195c:	10800517 	ldw	r2,20(r2)
 2001960:	10800044 	addi	r2,r2,1
 2001964:	1009883a 	mov	r4,r2
 2001968:	20002680 	call	2000268 <LCD_WR_CMD>
 200196c:	e0bffc17 	ldw	r2,-16(fp)
 2001970:	10803fcc 	andi	r2,r2,255
 2001974:	1009883a 	mov	r4,r2
 2001978:	20002d80 	call	20002d8 <LCD_WR_DATA>
        LCD_WR_CMD(lcddev.setxcmd+2);LCD_WR_DATA(twidth>>8);
 200197c:	00808074 	movhi	r2,513
 2001980:	10ac4e04 	addi	r2,r2,-20168
 2001984:	10800517 	ldw	r2,20(r2)
 2001988:	10800084 	addi	r2,r2,2
 200198c:	1009883a 	mov	r4,r2
 2001990:	20002680 	call	2000268 <LCD_WR_CMD>
 2001994:	e0bffa17 	ldw	r2,-24(fp)
 2001998:	1004d23a 	srli	r2,r2,8
 200199c:	1009883a 	mov	r4,r2
 20019a0:	20002d80 	call	20002d8 <LCD_WR_DATA>
        LCD_WR_CMD(lcddev.setxcmd+3);LCD_WR_DATA(twidth&0XFF);
 20019a4:	00808074 	movhi	r2,513
 20019a8:	10ac4e04 	addi	r2,r2,-20168
 20019ac:	10800517 	ldw	r2,20(r2)
 20019b0:	108000c4 	addi	r2,r2,3
 20019b4:	1009883a 	mov	r4,r2
 20019b8:	20002680 	call	2000268 <LCD_WR_CMD>
 20019bc:	e0bffa17 	ldw	r2,-24(fp)
 20019c0:	10803fcc 	andi	r2,r2,255
 20019c4:	1009883a 	mov	r4,r2
 20019c8:	20002d80 	call	20002d8 <LCD_WR_DATA>
        LCD_WR_CMD(lcddev.setycmd);LCD_WR_DATA(sy>>8);
 20019cc:	00808074 	movhi	r2,513
 20019d0:	10ac4e04 	addi	r2,r2,-20168
 20019d4:	10800617 	ldw	r2,24(r2)
 20019d8:	1009883a 	mov	r4,r2
 20019dc:	20002680 	call	2000268 <LCD_WR_CMD>
 20019e0:	e0bffd17 	ldw	r2,-12(fp)
 20019e4:	1004d23a 	srli	r2,r2,8
 20019e8:	1009883a 	mov	r4,r2
 20019ec:	20002d80 	call	20002d8 <LCD_WR_DATA>
        LCD_WR_CMD(lcddev.setycmd+1);LCD_WR_DATA(sy&0XFF);
 20019f0:	00808074 	movhi	r2,513
 20019f4:	10ac4e04 	addi	r2,r2,-20168
 20019f8:	10800617 	ldw	r2,24(r2)
 20019fc:	10800044 	addi	r2,r2,1
 2001a00:	1009883a 	mov	r4,r2
 2001a04:	20002680 	call	2000268 <LCD_WR_CMD>
 2001a08:	e0bffd17 	ldw	r2,-12(fp)
 2001a0c:	10803fcc 	andi	r2,r2,255
 2001a10:	1009883a 	mov	r4,r2
 2001a14:	20002d80 	call	20002d8 <LCD_WR_DATA>
        LCD_WR_CMD(lcddev.setycmd+2);LCD_WR_DATA(theight>>8);
 2001a18:	00808074 	movhi	r2,513
 2001a1c:	10ac4e04 	addi	r2,r2,-20168
 2001a20:	10800617 	ldw	r2,24(r2)
 2001a24:	10800084 	addi	r2,r2,2
 2001a28:	1009883a 	mov	r4,r2
 2001a2c:	20002680 	call	2000268 <LCD_WR_CMD>
 2001a30:	e0bffb17 	ldw	r2,-20(fp)
 2001a34:	1004d23a 	srli	r2,r2,8
 2001a38:	1009883a 	mov	r4,r2
 2001a3c:	20002d80 	call	20002d8 <LCD_WR_DATA>
        LCD_WR_CMD(lcddev.setycmd+3);LCD_WR_DATA(theight&0XFF);
 2001a40:	00808074 	movhi	r2,513
 2001a44:	10ac4e04 	addi	r2,r2,-20168
 2001a48:	10800617 	ldw	r2,24(r2)
 2001a4c:	108000c4 	addi	r2,r2,3
 2001a50:	1009883a 	mov	r4,r2
 2001a54:	20002680 	call	2000268 <LCD_WR_CMD>
 2001a58:	e0bffb17 	ldw	r2,-20(fp)
 2001a5c:	10803fcc 	andi	r2,r2,255
 2001a60:	1009883a 	mov	r4,r2
 2001a64:	20002d80 	call	20002d8 <LCD_WR_DATA>
    }
}
 2001a68:	e037883a 	mov	sp,fp
 2001a6c:	dfc00117 	ldw	ra,4(sp)
 2001a70:	df000017 	ldw	fp,0(sp)
 2001a74:	dec00204 	addi	sp,sp,8
 2001a78:	f800283a 	ret

02001a7c <MY_LCD_Init>:

//TFTLCD初始化
void MY_LCD_Init(void)
{
 2001a7c:	defffd04 	addi	sp,sp,-12
 2001a80:	dfc00215 	stw	ra,8(sp)
 2001a84:	df000115 	stw	fp,4(sp)
 2001a88:	dc000015 	stw	r16,0(sp)
 2001a8c:	d839883a 	mov	fp,sp
	IOWR_ALTERA_AVALON_PIO_DATA(PIO_LCD_INIT_DONE_BASE,0);    //拉低初始化完成引脚
 2001a90:	0007883a 	mov	r3,zero
 2001a94:	00810034 	movhi	r2,1024
 2001a98:	10880404 	addi	r2,r2,8208
 2001a9c:	10c00035 	stwio	r3,0(r2)
	delay_ms(50);
 2001aa0:	01000c84 	movi	r4,50
 2001aa4:	20002000 	call	2000200 <delay_ms>
	//TFTLCD 复位
	IOWR_ALTERA_AVALON_PIO_DATA(PIO_MLCD_RST_N_BASE,0);
 2001aa8:	0007883a 	mov	r3,zero
 2001aac:	00810034 	movhi	r2,1024
 2001ab0:	10881c04 	addi	r2,r2,8304
 2001ab4:	10c00035 	stwio	r3,0(r2)
	IOWR_ALTERA_AVALON_PIO_DATA(PIO_MLCD_RST_N_BASE,1);
 2001ab8:	00c00044 	movi	r3,1
 2001abc:	00810034 	movhi	r2,1024
 2001ac0:	10881c04 	addi	r2,r2,8304
 2001ac4:	10c00035 	stwio	r3,0(r2)
	IOWR_ALTERA_AVALON_PIO_DATA(PIO_MLCD_CS_N_BASE,1);
 2001ac8:	00c00044 	movi	r3,1
 2001acc:	00810034 	movhi	r2,1024
 2001ad0:	10882804 	addi	r2,r2,8352
 2001ad4:	10c00035 	stwio	r3,0(r2)
	IOWR_ALTERA_AVALON_PIO_DATA(PIO_LCD_DATA_DIR_BASE,0);          // mlcd_data_dir=0 为输入
 2001ad8:	0007883a 	mov	r3,zero
 2001adc:	00810034 	movhi	r2,1024
 2001ae0:	10880804 	addi	r2,r2,8224
 2001ae4:	10c00035 	stwio	r3,0(r2)
	delay_ms(120);
 2001ae8:	01001e04 	movi	r4,120
 2001aec:	20002000 	call	2000200 <delay_ms>

	lcddev.id=LTDC_PanelID_Read();	//检查是否有RGB屏接入
 2001af0:	20050380 	call	2005038 <LTDC_PanelID_Read>
 2001af4:	00c08074 	movhi	r3,513
 2001af8:	18ec4e04 	addi	r3,r3,-20168
 2001afc:	18800215 	stw	r2,8(r3)
	if(lcddev.id!=0)                //ID非零,说明有RGB屏接入
 2001b00:	00808074 	movhi	r2,513
 2001b04:	10ac4e04 	addi	r2,r2,-20168
 2001b08:	10800217 	ldw	r2,8(r2)
 2001b0c:	10000226 	beq	r2,zero,2001b18 <MY_LCD_Init+0x9c>
	{
		LTDC_Init();				//ID非零,说明有RGB屏接入
 2001b10:	20051380 	call	2005138 <LTDC_Init>
 2001b14:	000b6306 	br	20048a4 <MY_LCD_Init+0x2e28>
	}else
	{
		IOWR_ALTERA_AVALON_PIO_DATA(PIO_MLCD_RD_N_BASE,1);
 2001b18:	00c00044 	movi	r3,1
 2001b1c:	00810034 	movhi	r2,1024
 2001b20:	10882004 	addi	r2,r2,8320
 2001b24:	10c00035 	stwio	r3,0(r2)
		IOWR_ALTERA_AVALON_PIO_DATA(PIO_MLCD_WR_N_BASE,1);
 2001b28:	00c00044 	movi	r3,1
 2001b2c:	00810034 	movhi	r2,1024
 2001b30:	10882404 	addi	r2,r2,8336
 2001b34:	10c00035 	stwio	r3,0(r2)
		IOWR_ALTERA_AVALON_PIO_DATA(PIO_MLCD_CS_N_BASE,0);
 2001b38:	0007883a 	mov	r3,zero
 2001b3c:	00810034 	movhi	r2,1024
 2001b40:	10882804 	addi	r2,r2,8352
 2001b44:	10c00035 	stwio	r3,0(r2)
		delay_ms(50);
 2001b48:	01000c84 	movi	r4,50
 2001b4c:	20002000 	call	2000200 <delay_ms>

		//尝试9341 ID的读取
		LCD_WR_CMD(0XD3);
 2001b50:	010034c4 	movi	r4,211
 2001b54:	20002680 	call	2000268 <LCD_WR_CMD>
		lcddev.id=LCD_RD_DATA();            //dummy read
 2001b58:	20003480 	call	2000348 <LCD_RD_DATA>
 2001b5c:	00c08074 	movhi	r3,513
 2001b60:	18ec4e04 	addi	r3,r3,-20168
 2001b64:	18800215 	stw	r2,8(r3)
		lcddev.id=LCD_RD_DATA();            //读到0X00
 2001b68:	20003480 	call	2000348 <LCD_RD_DATA>
 2001b6c:	00c08074 	movhi	r3,513
 2001b70:	18ec4e04 	addi	r3,r3,-20168
 2001b74:	18800215 	stw	r2,8(r3)
		lcddev.id=LCD_RD_DATA();            //读取93
 2001b78:	20003480 	call	2000348 <LCD_RD_DATA>
 2001b7c:	00c08074 	movhi	r3,513
 2001b80:	18ec4e04 	addi	r3,r3,-20168
 2001b84:	18800215 	stw	r2,8(r3)
		lcddev.id<<=8;
 2001b88:	00808074 	movhi	r2,513
 2001b8c:	10ac4e04 	addi	r2,r2,-20168
 2001b90:	10800217 	ldw	r2,8(r2)
 2001b94:	1006923a 	slli	r3,r2,8
 2001b98:	00808074 	movhi	r2,513
 2001b9c:	10ac4e04 	addi	r2,r2,-20168
 2001ba0:	10c00215 	stw	r3,8(r2)
		lcddev.id|=LCD_RD_DATA();           //读取41
 2001ba4:	00808074 	movhi	r2,513
 2001ba8:	10ac4e04 	addi	r2,r2,-20168
 2001bac:	14000217 	ldw	r16,8(r2)
 2001bb0:	20003480 	call	2000348 <LCD_RD_DATA>
 2001bb4:	8086b03a 	or	r3,r16,r2
 2001bb8:	00808074 	movhi	r2,513
 2001bbc:	10ac4e04 	addi	r2,r2,-20168
 2001bc0:	10c00215 	stw	r3,8(r2)
		if(lcddev.id!=0X9341)               //非9341,尝试看看是不是NT35310
 2001bc4:	00808074 	movhi	r2,513
 2001bc8:	10ac4e04 	addi	r2,r2,-20168
 2001bcc:	10c00217 	ldw	r3,8(r2)
 2001bd0:	00a4d054 	movui	r2,37697
 2001bd4:	18806f26 	beq	r3,r2,2001d94 <MY_LCD_Init+0x318>
		{
			LCD_WR_CMD(0XD4);
 2001bd8:	01003504 	movi	r4,212
 2001bdc:	20002680 	call	2000268 <LCD_WR_CMD>
			lcddev.id=LCD_RD_DATA();       //dummy read
 2001be0:	20003480 	call	2000348 <LCD_RD_DATA>
 2001be4:	00c08074 	movhi	r3,513
 2001be8:	18ec4e04 	addi	r3,r3,-20168
 2001bec:	18800215 	stw	r2,8(r3)
			lcddev.id=LCD_RD_DATA();       //读回0X01
 2001bf0:	20003480 	call	2000348 <LCD_RD_DATA>
 2001bf4:	00c08074 	movhi	r3,513
 2001bf8:	18ec4e04 	addi	r3,r3,-20168
 2001bfc:	18800215 	stw	r2,8(r3)
			lcddev.id=LCD_RD_DATA();       //读回0X53
 2001c00:	20003480 	call	2000348 <LCD_RD_DATA>
 2001c04:	00c08074 	movhi	r3,513
 2001c08:	18ec4e04 	addi	r3,r3,-20168
 2001c0c:	18800215 	stw	r2,8(r3)
			lcddev.id<<=8;
 2001c10:	00808074 	movhi	r2,513
 2001c14:	10ac4e04 	addi	r2,r2,-20168
 2001c18:	10800217 	ldw	r2,8(r2)
 2001c1c:	1006923a 	slli	r3,r2,8
 2001c20:	00808074 	movhi	r2,513
 2001c24:	10ac4e04 	addi	r2,r2,-20168
 2001c28:	10c00215 	stw	r3,8(r2)
			lcddev.id|=LCD_RD_DATA();      //这里读回0X10
 2001c2c:	00808074 	movhi	r2,513
 2001c30:	10ac4e04 	addi	r2,r2,-20168
 2001c34:	14000217 	ldw	r16,8(r2)
 2001c38:	20003480 	call	2000348 <LCD_RD_DATA>
 2001c3c:	8086b03a 	or	r3,r16,r2
 2001c40:	00808074 	movhi	r2,513
 2001c44:	10ac4e04 	addi	r2,r2,-20168
 2001c48:	10c00215 	stw	r3,8(r2)
			if(lcddev.id!=0X5310)          //也不是NT35310,尝试看看是不是NT35510
 2001c4c:	00808074 	movhi	r2,513
 2001c50:	10ac4e04 	addi	r2,r2,-20168
 2001c54:	10800217 	ldw	r2,8(r2)
 2001c58:	1094c420 	cmpeqi	r2,r2,21264
 2001c5c:	10004d1e 	bne	r2,zero,2001d94 <MY_LCD_Init+0x318>
			{
				LCD_WR_CMD(0XDA00);
 2001c60:	01368014 	movui	r4,55808
 2001c64:	20002680 	call	2000268 <LCD_WR_CMD>
				lcddev.id=LCD_RD_DATA();  //读回0X00
 2001c68:	20003480 	call	2000348 <LCD_RD_DATA>
 2001c6c:	00c08074 	movhi	r3,513
 2001c70:	18ec4e04 	addi	r3,r3,-20168
 2001c74:	18800215 	stw	r2,8(r3)
				LCD_WR_CMD(0XDB00);
 2001c78:	0136c014 	movui	r4,56064
 2001c7c:	20002680 	call	2000268 <LCD_WR_CMD>
				lcddev.id=LCD_RD_DATA();  //读回0X80
 2001c80:	20003480 	call	2000348 <LCD_RD_DATA>
 2001c84:	00c08074 	movhi	r3,513
 2001c88:	18ec4e04 	addi	r3,r3,-20168
 2001c8c:	18800215 	stw	r2,8(r3)
				lcddev.id<<=8;
 2001c90:	00808074 	movhi	r2,513
 2001c94:	10ac4e04 	addi	r2,r2,-20168
 2001c98:	10800217 	ldw	r2,8(r2)
 2001c9c:	1006923a 	slli	r3,r2,8
 2001ca0:	00808074 	movhi	r2,513
 2001ca4:	10ac4e04 	addi	r2,r2,-20168
 2001ca8:	10c00215 	stw	r3,8(r2)
				LCD_WR_CMD(0XDC00);
 2001cac:	01370014 	movui	r4,56320
 2001cb0:	20002680 	call	2000268 <LCD_WR_CMD>
				lcddev.id|=LCD_RD_DATA(); //读回0X00
 2001cb4:	00808074 	movhi	r2,513
 2001cb8:	10ac4e04 	addi	r2,r2,-20168
 2001cbc:	14000217 	ldw	r16,8(r2)
 2001cc0:	20003480 	call	2000348 <LCD_RD_DATA>
 2001cc4:	8086b03a 	or	r3,r16,r2
 2001cc8:	00808074 	movhi	r2,513
 2001ccc:	10ac4e04 	addi	r2,r2,-20168
 2001cd0:	10c00215 	stw	r3,8(r2)
				if(lcddev.id==0x8000)
 2001cd4:	00808074 	movhi	r2,513
 2001cd8:	10ac4e04 	addi	r2,r2,-20168
 2001cdc:	10c00217 	ldw	r3,8(r2)
 2001ce0:	00a00014 	movui	r2,32768
 2001ce4:	1880041e 	bne	r3,r2,2001cf8 <MY_LCD_Init+0x27c>
					lcddev.id=0x5510;//NT35510读回的ID是8000H,为方便区分,我们强制设置为5510
 2001ce8:	00808074 	movhi	r2,513
 2001cec:	10ac4e04 	addi	r2,r2,-20168
 2001cf0:	00d54404 	movi	r3,21776
 2001cf4:	10c00215 	stw	r3,8(r2)
				if(lcddev.id!=0X5510)     //也不是NT5510,尝试看看是不是SSD1963
 2001cf8:	00808074 	movhi	r2,513
 2001cfc:	10ac4e04 	addi	r2,r2,-20168
 2001d00:	10800217 	ldw	r2,8(r2)
 2001d04:	10954420 	cmpeqi	r2,r2,21776
 2001d08:	1000221e 	bne	r2,zero,2001d94 <MY_LCD_Init+0x318>
				{
					LCD_WR_CMD(0XA1);
 2001d0c:	01002844 	movi	r4,161
 2001d10:	20002680 	call	2000268 <LCD_WR_CMD>
					lcddev.id=LCD_RD_DATA();
 2001d14:	20003480 	call	2000348 <LCD_RD_DATA>
 2001d18:	00c08074 	movhi	r3,513
 2001d1c:	18ec4e04 	addi	r3,r3,-20168
 2001d20:	18800215 	stw	r2,8(r3)
					lcddev.id=LCD_RD_DATA();    //读回0X57
 2001d24:	20003480 	call	2000348 <LCD_RD_DATA>
 2001d28:	00c08074 	movhi	r3,513
 2001d2c:	18ec4e04 	addi	r3,r3,-20168
 2001d30:	18800215 	stw	r2,8(r3)
					lcddev.id<<=8;
 2001d34:	00808074 	movhi	r2,513
 2001d38:	10ac4e04 	addi	r2,r2,-20168
 2001d3c:	10800217 	ldw	r2,8(r2)
 2001d40:	1006923a 	slli	r3,r2,8
 2001d44:	00808074 	movhi	r2,513
 2001d48:	10ac4e04 	addi	r2,r2,-20168
 2001d4c:	10c00215 	stw	r3,8(r2)
					lcddev.id|=LCD_RD_DATA();   //读回0X61
 2001d50:	00808074 	movhi	r2,513
 2001d54:	10ac4e04 	addi	r2,r2,-20168
 2001d58:	14000217 	ldw	r16,8(r2)
 2001d5c:	20003480 	call	2000348 <LCD_RD_DATA>
 2001d60:	8086b03a 	or	r3,r16,r2
 2001d64:	00808074 	movhi	r2,513
 2001d68:	10ac4e04 	addi	r2,r2,-20168
 2001d6c:	10c00215 	stw	r3,8(r2)
					if(lcddev.id==0X5761)
 2001d70:	00808074 	movhi	r2,513
 2001d74:	10ac4e04 	addi	r2,r2,-20168
 2001d78:	10800217 	ldw	r2,8(r2)
 2001d7c:	1095d858 	cmpnei	r2,r2,22369
 2001d80:	1000041e 	bne	r2,zero,2001d94 <MY_LCD_Init+0x318>
						lcddev.id=0X1963;//SSD1963读回的ID是5761H,为方便区分,我们强制设置为1963
 2001d84:	00808074 	movhi	r2,513
 2001d88:	10ac4e04 	addi	r2,r2,-20168
 2001d8c:	00c658c4 	movi	r3,6499
 2001d90:	10c00215 	stw	r3,8(r2)
				}
			}
		}
//		printf(" LCD ID:%x\r\n",lcddev.id); //打印LCD ID
		if(lcddev.id==0X9341) {             //9341初始化
 2001d94:	00808074 	movhi	r2,513
 2001d98:	10ac4e04 	addi	r2,r2,-20168
 2001d9c:	10c00217 	ldw	r3,8(r2)
 2001da0:	00a4d054 	movui	r2,37697
 2001da4:	1880b91e 	bne	r3,r2,200208c <MY_LCD_Init+0x610>
			LCD_WR_CMD(0xCF);
 2001da8:	010033c4 	movi	r4,207
 2001dac:	20002680 	call	2000268 <LCD_WR_CMD>
			LCD_WR_DATA(0x00);
 2001db0:	0009883a 	mov	r4,zero
 2001db4:	20002d80 	call	20002d8 <LCD_WR_DATA>
			LCD_WR_DATA(0xC1);
 2001db8:	01003044 	movi	r4,193
 2001dbc:	20002d80 	call	20002d8 <LCD_WR_DATA>
			LCD_WR_DATA(0X30);
 2001dc0:	01000c04 	movi	r4,48
 2001dc4:	20002d80 	call	20002d8 <LCD_WR_DATA>
			LCD_WR_CMD(0xED);
 2001dc8:	01003b44 	movi	r4,237
 2001dcc:	20002680 	call	2000268 <LCD_WR_CMD>
			LCD_WR_DATA(0x64);
 2001dd0:	01001904 	movi	r4,100
 2001dd4:	20002d80 	call	20002d8 <LCD_WR_DATA>
			LCD_WR_DATA(0x03);
 2001dd8:	010000c4 	movi	r4,3
 2001ddc:	20002d80 	call	20002d8 <LCD_WR_DATA>
			LCD_WR_DATA(0X12);
 2001de0:	01000484 	movi	r4,18
 2001de4:	20002d80 	call	20002d8 <LCD_WR_DATA>
			LCD_WR_DATA(0X81);
 2001de8:	01002044 	movi	r4,129
 2001dec:	20002d80 	call	20002d8 <LCD_WR_DATA>
			LCD_WR_CMD(0xE8);
 2001df0:	01003a04 	movi	r4,232
 2001df4:	20002680 	call	2000268 <LCD_WR_CMD>
			LCD_WR_DATA(0x85);
 2001df8:	01002144 	movi	r4,133
 2001dfc:	20002d80 	call	20002d8 <LCD_WR_DATA>
			LCD_WR_DATA(0x10);
 2001e00:	01000404 	movi	r4,16
 2001e04:	20002d80 	call	20002d8 <LCD_WR_DATA>
			LCD_WR_DATA(0x7A);
 2001e08:	01001e84 	movi	r4,122
 2001e0c:	20002d80 	call	20002d8 <LCD_WR_DATA>
			LCD_WR_CMD(0xCB);
 2001e10:	010032c4 	movi	r4,203
 2001e14:	20002680 	call	2000268 <LCD_WR_CMD>
			LCD_WR_DATA(0x39);
 2001e18:	01000e44 	movi	r4,57
 2001e1c:	20002d80 	call	20002d8 <LCD_WR_DATA>
			LCD_WR_DATA(0x2C);
 2001e20:	01000b04 	movi	r4,44
 2001e24:	20002d80 	call	20002d8 <LCD_WR_DATA>
			LCD_WR_DATA(0x00);
 2001e28:	0009883a 	mov	r4,zero
 2001e2c:	20002d80 	call	20002d8 <LCD_WR_DATA>
			LCD_WR_DATA(0x34);
 2001e30:	01000d04 	movi	r4,52
 2001e34:	20002d80 	call	20002d8 <LCD_WR_DATA>
			LCD_WR_DATA(0x02);
 2001e38:	01000084 	movi	r4,2
 2001e3c:	20002d80 	call	20002d8 <LCD_WR_DATA>
			LCD_WR_CMD(0xF7);
 2001e40:	01003dc4 	movi	r4,247
 2001e44:	20002680 	call	2000268 <LCD_WR_CMD>
			LCD_WR_DATA(0x20);
 2001e48:	01000804 	movi	r4,32
 2001e4c:	20002d80 	call	20002d8 <LCD_WR_DATA>
			LCD_WR_CMD(0xEA);
 2001e50:	01003a84 	movi	r4,234
 2001e54:	20002680 	call	2000268 <LCD_WR_CMD>
			LCD_WR_DATA(0x00);
 2001e58:	0009883a 	mov	r4,zero
 2001e5c:	20002d80 	call	20002d8 <LCD_WR_DATA>
			LCD_WR_DATA(0x00);
 2001e60:	0009883a 	mov	r4,zero
 2001e64:	20002d80 	call	20002d8 <LCD_WR_DATA>
			LCD_WR_CMD(0xC0);    //Power control
 2001e68:	01003004 	movi	r4,192
 2001e6c:	20002680 	call	2000268 <LCD_WR_CMD>
			LCD_WR_DATA(0x1B);   //VRH[5:0]
 2001e70:	010006c4 	movi	r4,27
 2001e74:	20002d80 	call	20002d8 <LCD_WR_DATA>
			LCD_WR_CMD(0xC1);    //Power control
 2001e78:	01003044 	movi	r4,193
 2001e7c:	20002680 	call	2000268 <LCD_WR_CMD>
			LCD_WR_DATA(0x01);   //SAP[2:0];BT[3:0]
 2001e80:	01000044 	movi	r4,1
 2001e84:	20002d80 	call	20002d8 <LCD_WR_DATA>
			LCD_WR_CMD(0xC5);    //VCM control
 2001e88:	01003144 	movi	r4,197
 2001e8c:	20002680 	call	2000268 <LCD_WR_CMD>
			LCD_WR_DATA(0x30);   //3F
 2001e90:	01000c04 	movi	r4,48
 2001e94:	20002d80 	call	20002d8 <LCD_WR_DATA>
			LCD_WR_DATA(0x30);   //3C
 2001e98:	01000c04 	movi	r4,48
 2001e9c:	20002d80 	call	20002d8 <LCD_WR_DATA>
			LCD_WR_CMD(0xC7);    //VCM control2
 2001ea0:	010031c4 	movi	r4,199
 2001ea4:	20002680 	call	2000268 <LCD_WR_CMD>
			LCD_WR_DATA(0XB7);
 2001ea8:	01002dc4 	movi	r4,183
 2001eac:	20002d80 	call	20002d8 <LCD_WR_DATA>
			LCD_WR_CMD(0x36);    // Memory Access Control
 2001eb0:	01000d84 	movi	r4,54
 2001eb4:	20002680 	call	2000268 <LCD_WR_CMD>
			LCD_WR_DATA(0x48);
 2001eb8:	01001204 	movi	r4,72
 2001ebc:	20002d80 	call	20002d8 <LCD_WR_DATA>
			LCD_WR_CMD(0x3A);
 2001ec0:	01000e84 	movi	r4,58
 2001ec4:	20002680 	call	2000268 <LCD_WR_CMD>
			LCD_WR_DATA(0x55);
 2001ec8:	01001544 	movi	r4,85
 2001ecc:	20002d80 	call	20002d8 <LCD_WR_DATA>
			LCD_WR_CMD(0xB1);
 2001ed0:	01002c44 	movi	r4,177
 2001ed4:	20002680 	call	2000268 <LCD_WR_CMD>
			LCD_WR_DATA(0x00);
 2001ed8:	0009883a 	mov	r4,zero
 2001edc:	20002d80 	call	20002d8 <LCD_WR_DATA>
			LCD_WR_DATA(0x1A);
 2001ee0:	01000684 	movi	r4,26
 2001ee4:	20002d80 	call	20002d8 <LCD_WR_DATA>
			LCD_WR_CMD(0xB6);    // Display Function Control
 2001ee8:	01002d84 	movi	r4,182
 2001eec:	20002680 	call	2000268 <LCD_WR_CMD>
			LCD_WR_DATA(0x0A);
 2001ef0:	01000284 	movi	r4,10
 2001ef4:	20002d80 	call	20002d8 <LCD_WR_DATA>
			LCD_WR_DATA(0xA2);
 2001ef8:	01002884 	movi	r4,162
 2001efc:	20002d80 	call	20002d8 <LCD_WR_DATA>
			LCD_WR_CMD(0xF2);    // 3Gamma Function Disable
 2001f00:	01003c84 	movi	r4,242
 2001f04:	20002680 	call	2000268 <LCD_WR_CMD>
			LCD_WR_DATA(0x00);
 2001f08:	0009883a 	mov	r4,zero
 2001f0c:	20002d80 	call	20002d8 <LCD_WR_DATA>
			LCD_WR_CMD(0x26);    //Gamma curve selected
 2001f10:	01000984 	movi	r4,38
 2001f14:	20002680 	call	2000268 <LCD_WR_CMD>
			LCD_WR_DATA(0x01);
 2001f18:	01000044 	movi	r4,1
 2001f1c:	20002d80 	call	20002d8 <LCD_WR_DATA>
			LCD_WR_CMD(0xE0);    //Set Gamma
 2001f20:	01003804 	movi	r4,224
 2001f24:	20002680 	call	2000268 <LCD_WR_CMD>
			LCD_WR_DATA(0x0F);
 2001f28:	010003c4 	movi	r4,15
 2001f2c:	20002d80 	call	20002d8 <LCD_WR_DATA>
			LCD_WR_DATA(0x2A);
 2001f30:	01000a84 	movi	r4,42
 2001f34:	20002d80 	call	20002d8 <LCD_WR_DATA>
			LCD_WR_DATA(0x28);
 2001f38:	01000a04 	movi	r4,40
 2001f3c:	20002d80 	call	20002d8 <LCD_WR_DATA>
			LCD_WR_DATA(0x08);
 2001f40:	01000204 	movi	r4,8
 2001f44:	20002d80 	call	20002d8 <LCD_WR_DATA>
			LCD_WR_DATA(0x0E);
 2001f48:	01000384 	movi	r4,14
 2001f4c:	20002d80 	call	20002d8 <LCD_WR_DATA>
			LCD_WR_DATA(0x08);
 2001f50:	01000204 	movi	r4,8
 2001f54:	20002d80 	call	20002d8 <LCD_WR_DATA>
			LCD_WR_DATA(0x54);
 2001f58:	01001504 	movi	r4,84
 2001f5c:	20002d80 	call	20002d8 <LCD_WR_DATA>
			LCD_WR_DATA(0XA9);
 2001f60:	01002a44 	movi	r4,169
 2001f64:	20002d80 	call	20002d8 <LCD_WR_DATA>
			LCD_WR_DATA(0x43);
 2001f68:	010010c4 	movi	r4,67
 2001f6c:	20002d80 	call	20002d8 <LCD_WR_DATA>
			LCD_WR_DATA(0x0A);
 2001f70:	01000284 	movi	r4,10
 2001f74:	20002d80 	call	20002d8 <LCD_WR_DATA>
			LCD_WR_DATA(0x0F);
 2001f78:	010003c4 	movi	r4,15
 2001f7c:	20002d80 	call	20002d8 <LCD_WR_DATA>
			LCD_WR_DATA(0x00);
 2001f80:	0009883a 	mov	r4,zero
 2001f84:	20002d80 	call	20002d8 <LCD_WR_DATA>
			LCD_WR_DATA(0x00);
 2001f88:	0009883a 	mov	r4,zero
 2001f8c:	20002d80 	call	20002d8 <LCD_WR_DATA>
			LCD_WR_DATA(0x00);
 2001f90:	0009883a 	mov	r4,zero
 2001f94:	20002d80 	call	20002d8 <LCD_WR_DATA>
			LCD_WR_DATA(0x00);
 2001f98:	0009883a 	mov	r4,zero
 2001f9c:	20002d80 	call	20002d8 <LCD_WR_DATA>
			LCD_WR_CMD(0XE1);    //Set Gamma
 2001fa0:	01003844 	movi	r4,225
 2001fa4:	20002680 	call	2000268 <LCD_WR_CMD>
			LCD_WR_DATA(0x00);
 2001fa8:	0009883a 	mov	r4,zero
 2001fac:	20002d80 	call	20002d8 <LCD_WR_DATA>
			LCD_WR_DATA(0x15);
 2001fb0:	01000544 	movi	r4,21
 2001fb4:	20002d80 	call	20002d8 <LCD_WR_DATA>
			LCD_WR_DATA(0x17);
 2001fb8:	010005c4 	movi	r4,23
 2001fbc:	20002d80 	call	20002d8 <LCD_WR_DATA>
			LCD_WR_DATA(0x07);
 2001fc0:	010001c4 	movi	r4,7
 2001fc4:	20002d80 	call	20002d8 <LCD_WR_DATA>
			LCD_WR_DATA(0x11);
 2001fc8:	01000444 	movi	r4,17
 2001fcc:	20002d80 	call	20002d8 <LCD_WR_DATA>
			LCD_WR_DATA(0x06);
 2001fd0:	01000184 	movi	r4,6
 2001fd4:	20002d80 	call	20002d8 <LCD_WR_DATA>
			LCD_WR_DATA(0x2B);
 2001fd8:	01000ac4 	movi	r4,43
 2001fdc:	20002d80 	call	20002d8 <LCD_WR_DATA>
			LCD_WR_DATA(0x56);
 2001fe0:	01001584 	movi	r4,86
 2001fe4:	20002d80 	call	20002d8 <LCD_WR_DATA>
			LCD_WR_DATA(0x3C);
 2001fe8:	01000f04 	movi	r4,60
 2001fec:	20002d80 	call	20002d8 <LCD_WR_DATA>
			LCD_WR_DATA(0x05);
 2001ff0:	01000144 	movi	r4,5
 2001ff4:	20002d80 	call	20002d8 <LCD_WR_DATA>
			LCD_WR_DATA(0x10);
 2001ff8:	01000404 	movi	r4,16
 2001ffc:	20002d80 	call	20002d8 <LCD_WR_DATA>
			LCD_WR_DATA(0x0F);
 2002000:	010003c4 	movi	r4,15
 2002004:	20002d80 	call	20002d8 <LCD_WR_DATA>
			LCD_WR_DATA(0x3F);
 2002008:	01000fc4 	movi	r4,63
 200200c:	20002d80 	call	20002d8 <LCD_WR_DATA>
			LCD_WR_DATA(0x3F);
 2002010:	01000fc4 	movi	r4,63
 2002014:	20002d80 	call	20002d8 <LCD_WR_DATA>
			LCD_WR_DATA(0x0F);
 2002018:	010003c4 	movi	r4,15
 200201c:	20002d80 	call	20002d8 <LCD_WR_DATA>
			LCD_WR_CMD(0x2B);
 2002020:	01000ac4 	movi	r4,43
 2002024:	20002680 	call	2000268 <LCD_WR_CMD>
			LCD_WR_DATA(0x00);
 2002028:	0009883a 	mov	r4,zero
 200202c:	20002d80 	call	20002d8 <LCD_WR_DATA>
			LCD_WR_DATA(0x00);
 2002030:	0009883a 	mov	r4,zero
 2002034:	20002d80 	call	20002d8 <LCD_WR_DATA>
			LCD_WR_DATA(0x01);
 2002038:	01000044 	movi	r4,1
 200203c:	20002d80 	call	20002d8 <LCD_WR_DATA>
			LCD_WR_DATA(0x3f);
 2002040:	01000fc4 	movi	r4,63
 2002044:	20002d80 	call	20002d8 <LCD_WR_DATA>
			LCD_WR_CMD(0x2A);
 2002048:	01000a84 	movi	r4,42
 200204c:	20002680 	call	2000268 <LCD_WR_CMD>
			LCD_WR_DATA(0x00);
 2002050:	0009883a 	mov	r4,zero
 2002054:	20002d80 	call	20002d8 <LCD_WR_DATA>
			LCD_WR_DATA(0x00);
 2002058:	0009883a 	mov	r4,zero
 200205c:	20002d80 	call	20002d8 <LCD_WR_DATA>
			LCD_WR_DATA(0x00);
 2002060:	0009883a 	mov	r4,zero
 2002064:	20002d80 	call	20002d8 <LCD_WR_DATA>
			LCD_WR_DATA(0xef);
 2002068:	01003bc4 	movi	r4,239
 200206c:	20002d80 	call	20002d8 <LCD_WR_DATA>
			LCD_WR_CMD(0x11); //Exit Sleep
 2002070:	01000444 	movi	r4,17
 2002074:	20002680 	call	2000268 <LCD_WR_CMD>
			delay_ms(120);
 2002078:	01001e04 	movi	r4,120
 200207c:	20002000 	call	2000200 <delay_ms>
			LCD_WR_CMD(0x29); //display on
 2002080:	01000a44 	movi	r4,41
 2002084:	20002680 	call	2000268 <LCD_WR_CMD>
 2002088:	000a0006 	br	200488c <MY_LCD_Init+0x2e10>
		}else if(lcddev.id==0x5310) {
 200208c:	00808074 	movhi	r2,513
 2002090:	10ac4e04 	addi	r2,r2,-20168
 2002094:	10800217 	ldw	r2,8(r2)
 2002098:	1094c418 	cmpnei	r2,r2,21264
 200209c:	1004fb1e 	bne	r2,zero,200348c <MY_LCD_Init+0x1a10>
			LCD_WR_CMD(0xED);
 20020a0:	01003b44 	movi	r4,237
 20020a4:	20002680 	call	2000268 <LCD_WR_CMD>
			LCD_WR_DATA(0x01);
 20020a8:	01000044 	movi	r4,1
 20020ac:	20002d80 	call	20002d8 <LCD_WR_DATA>
			LCD_WR_DATA(0xFE);
 20020b0:	01003f84 	movi	r4,254
 20020b4:	20002d80 	call	20002d8 <LCD_WR_DATA>

			LCD_WR_CMD(0xEE);
 20020b8:	01003b84 	movi	r4,238
 20020bc:	20002680 	call	2000268 <LCD_WR_CMD>
			LCD_WR_DATA(0xDE);
 20020c0:	01003784 	movi	r4,222
 20020c4:	20002d80 	call	20002d8 <LCD_WR_DATA>
			LCD_WR_DATA(0x21);
 20020c8:	01000844 	movi	r4,33
 20020cc:	20002d80 	call	20002d8 <LCD_WR_DATA>

			LCD_WR_CMD(0xF1);
 20020d0:	01003c44 	movi	r4,241
 20020d4:	20002680 	call	2000268 <LCD_WR_CMD>
			LCD_WR_DATA(0x01);
 20020d8:	01000044 	movi	r4,1
 20020dc:	20002d80 	call	20002d8 <LCD_WR_DATA>
			LCD_WR_CMD(0xDF);
 20020e0:	010037c4 	movi	r4,223
 20020e4:	20002680 	call	2000268 <LCD_WR_CMD>
			LCD_WR_DATA(0x10);
 20020e8:	01000404 	movi	r4,16
 20020ec:	20002d80 	call	20002d8 <LCD_WR_DATA>

			//VCOMvoltage//
			LCD_WR_CMD(0xC4);
 20020f0:	01003104 	movi	r4,196
 20020f4:	20002680 	call	2000268 <LCD_WR_CMD>
			LCD_WR_DATA(0x8F);      //5f
 20020f8:	010023c4 	movi	r4,143
 20020fc:	20002d80 	call	20002d8 <LCD_WR_DATA>

			LCD_WR_CMD(0xC6);
 2002100:	01003184 	movi	r4,198
 2002104:	20002680 	call	2000268 <LCD_WR_CMD>
			LCD_WR_DATA(0x00);
 2002108:	0009883a 	mov	r4,zero
 200210c:	20002d80 	call	20002d8 <LCD_WR_DATA>
			LCD_WR_DATA(0xE2);
 2002110:	01003884 	movi	r4,226
 2002114:	20002d80 	call	20002d8 <LCD_WR_DATA>
			LCD_WR_DATA(0xE2);
 2002118:	01003884 	movi	r4,226
 200211c:	20002d80 	call	20002d8 <LCD_WR_DATA>
			LCD_WR_DATA(0xE2);
 2002120:	01003884 	movi	r4,226
 2002124:	20002d80 	call	20002d8 <LCD_WR_DATA>
			LCD_WR_CMD(0xBF);
 2002128:	01002fc4 	movi	r4,191
 200212c:	20002680 	call	2000268 <LCD_WR_CMD>
			LCD_WR_DATA(0xAA);
 2002130:	01002a84 	movi	r4,170
 2002134:	20002d80 	call	20002d8 <LCD_WR_DATA>

			LCD_WR_CMD(0xB0);
 2002138:	01002c04 	movi	r4,176
 200213c:	20002680 	call	2000268 <LCD_WR_CMD>
			LCD_WR_DATA(0x0D);
 2002140:	01000344 	movi	r4,13
 2002144:	20002d80 	call	20002d8 <LCD_WR_DATA>
			LCD_WR_DATA(0x00);
 2002148:	0009883a 	mov	r4,zero
 200214c:	20002d80 	call	20002d8 <LCD_WR_DATA>
			LCD_WR_DATA(0x0D);
 2002150:	01000344 	movi	r4,13
 2002154:	20002d80 	call	20002d8 <LCD_WR_DATA>
			LCD_WR_DATA(0x00);
 2002158:	0009883a 	mov	r4,zero
 200215c:	20002d80 	call	20002d8 <LCD_WR_DATA>
			LCD_WR_DATA(0x11);
 2002160:	01000444 	movi	r4,17
 2002164:	20002d80 	call	20002d8 <LCD_WR_DATA>
			LCD_WR_DATA(0x00);
 2002168:	0009883a 	mov	r4,zero
 200216c:	20002d80 	call	20002d8 <LCD_WR_DATA>
			LCD_WR_DATA(0x19);
 2002170:	01000644 	movi	r4,25
 2002174:	20002d80 	call	20002d8 <LCD_WR_DATA>
			LCD_WR_DATA(0x00);
 2002178:	0009883a 	mov	r4,zero
 200217c:	20002d80 	call	20002d8 <LCD_WR_DATA>
			LCD_WR_DATA(0x21);
 2002180:	01000844 	movi	r4,33
 2002184:	20002d80 	call	20002d8 <LCD_WR_DATA>
			LCD_WR_DATA(0x00);
 2002188:	0009883a 	mov	r4,zero
 200218c:	20002d80 	call	20002d8 <LCD_WR_DATA>
			LCD_WR_DATA(0x2D);
 2002190:	01000b44 	movi	r4,45
 2002194:	20002d80 	call	20002d8 <LCD_WR_DATA>
			LCD_WR_DATA(0x00);
 2002198:	0009883a 	mov	r4,zero
 200219c:	20002d80 	call	20002d8 <LCD_WR_DATA>
			LCD_WR_DATA(0x3D);
 20021a0:	01000f44 	movi	r4,61
 20021a4:	20002d80 	call	20002d8 <LCD_WR_DATA>
			LCD_WR_DATA(0x00);
 20021a8:	0009883a 	mov	r4,zero
 20021ac:	20002d80 	call	20002d8 <LCD_WR_DATA>
			LCD_WR_DATA(0x5D);
 20021b0:	01001744 	movi	r4,93
 20021b4:	20002d80 	call	20002d8 <LCD_WR_DATA>
			LCD_WR_DATA(0x00);
 20021b8:	0009883a 	mov	r4,zero
 20021bc:	20002d80 	call	20002d8 <LCD_WR_DATA>
			LCD_WR_DATA(0x5D);
 20021c0:	01001744 	movi	r4,93
 20021c4:	20002d80 	call	20002d8 <LCD_WR_DATA>
			LCD_WR_DATA(0x00);
 20021c8:	0009883a 	mov	r4,zero
 20021cc:	20002d80 	call	20002d8 <LCD_WR_DATA>

			LCD_WR_CMD(0xB1);
 20021d0:	01002c44 	movi	r4,177
 20021d4:	20002680 	call	2000268 <LCD_WR_CMD>
			LCD_WR_DATA(0x80);
 20021d8:	01002004 	movi	r4,128
 20021dc:	20002d80 	call	20002d8 <LCD_WR_DATA>
			LCD_WR_DATA(0x00);
 20021e0:	0009883a 	mov	r4,zero
 20021e4:	20002d80 	call	20002d8 <LCD_WR_DATA>
			LCD_WR_DATA(0x8B);
 20021e8:	010022c4 	movi	r4,139
 20021ec:	20002d80 	call	20002d8 <LCD_WR_DATA>
			LCD_WR_DATA(0x00);
 20021f0:	0009883a 	mov	r4,zero
 20021f4:	20002d80 	call	20002d8 <LCD_WR_DATA>
			LCD_WR_DATA(0x96);
 20021f8:	01002584 	movi	r4,150
 20021fc:	20002d80 	call	20002d8 <LCD_WR_DATA>
			LCD_WR_DATA(0x00);
 2002200:	0009883a 	mov	r4,zero
 2002204:	20002d80 	call	20002d8 <LCD_WR_DATA>

			LCD_WR_CMD(0xB2);
 2002208:	01002c84 	movi	r4,178
 200220c:	20002680 	call	2000268 <LCD_WR_CMD>
			LCD_WR_DATA(0x00);
 2002210:	0009883a 	mov	r4,zero
 2002214:	20002d80 	call	20002d8 <LCD_WR_DATA>
			LCD_WR_DATA(0x00);
 2002218:	0009883a 	mov	r4,zero
 200221c:	20002d80 	call	20002d8 <LCD_WR_DATA>
			LCD_WR_DATA(0x02);
 2002220:	01000084 	movi	r4,2
 2002224:	20002d80 	call	20002d8 <LCD_WR_DATA>
			LCD_WR_DATA(0x00);
 2002228:	0009883a 	mov	r4,zero
 200222c:	20002d80 	call	20002d8 <LCD_WR_DATA>
			LCD_WR_DATA(0x03);
 2002230:	010000c4 	movi	r4,3
 2002234:	20002d80 	call	20002d8 <LCD_WR_DATA>
			LCD_WR_DATA(0x00);
 2002238:	0009883a 	mov	r4,zero
 200223c:	20002d80 	call	20002d8 <LCD_WR_DATA>

			LCD_WR_CMD(0xB3);
 2002240:	01002cc4 	movi	r4,179
 2002244:	20002680 	call	2000268 <LCD_WR_CMD>
			LCD_WR_DATA(0x00);
 2002248:	0009883a 	mov	r4,zero
 200224c:	20002d80 	call	20002d8 <LCD_WR_DATA>
			LCD_WR_DATA(0x00);
 2002250:	0009883a 	mov	r4,zero
 2002254:	20002d80 	call	20002d8 <LCD_WR_DATA>
			LCD_WR_DATA(0x00);
 2002258:	0009883a 	mov	r4,zero
 200225c:	20002d80 	call	20002d8 <LCD_WR_DATA>
			LCD_WR_DATA(0x00);
 2002260:	0009883a 	mov	r4,zero
 2002264:	20002d80 	call	20002d8 <LCD_WR_DATA>
			LCD_WR_DATA(0x00);
 2002268:	0009883a 	mov	r4,zero
 200226c:	20002d80 	call	20002d8 <LCD_WR_DATA>
			LCD_WR_DATA(0x00);
 2002270:	0009883a 	mov	r4,zero
 2002274:	20002d80 	call	20002d8 <LCD_WR_DATA>
			LCD_WR_DATA(0x00);
 2002278:	0009883a 	mov	r4,zero
 200227c:	20002d80 	call	20002d8 <LCD_WR_DATA>
			LCD_WR_DATA(0x00);
 2002280:	0009883a 	mov	r4,zero
 2002284:	20002d80 	call	20002d8 <LCD_WR_DATA>
			LCD_WR_DATA(0x00);
 2002288:	0009883a 	mov	r4,zero
 200228c:	20002d80 	call	20002d8 <LCD_WR_DATA>
			LCD_WR_DATA(0x00);
 2002290:	0009883a 	mov	r4,zero
 2002294:	20002d80 	call	20002d8 <LCD_WR_DATA>
			LCD_WR_DATA(0x00);
 2002298:	0009883a 	mov	r4,zero
 200229c:	20002d80 	call	20002d8 <LCD_WR_DATA>
			LCD_WR_DATA(0x00);
 20022a0:	0009883a 	mov	r4,zero
 20022a4:	20002d80 	call	20002d8 <LCD_WR_DATA>
			LCD_WR_DATA(0x00);
 20022a8:	0009883a 	mov	r4,zero
 20022ac:	20002d80 	call	20002d8 <LCD_WR_DATA>
			LCD_WR_DATA(0x00);
 20022b0:	0009883a 	mov	r4,zero
 20022b4:	20002d80 	call	20002d8 <LCD_WR_DATA>
			LCD_WR_DATA(0x00);
 20022b8:	0009883a 	mov	r4,zero
 20022bc:	20002d80 	call	20002d8 <LCD_WR_DATA>
			LCD_WR_DATA(0x00);
 20022c0:	0009883a 	mov	r4,zero
 20022c4:	20002d80 	call	20002d8 <LCD_WR_DATA>
			LCD_WR_DATA(0x00);
 20022c8:	0009883a 	mov	r4,zero
 20022cc:	20002d80 	call	20002d8 <LCD_WR_DATA>
			LCD_WR_DATA(0x00);
 20022d0:	0009883a 	mov	r4,zero
 20022d4:	20002d80 	call	20002d8 <LCD_WR_DATA>
			LCD_WR_DATA(0x00);
 20022d8:	0009883a 	mov	r4,zero
 20022dc:	20002d80 	call	20002d8 <LCD_WR_DATA>
			LCD_WR_DATA(0x00);
 20022e0:	0009883a 	mov	r4,zero
 20022e4:	20002d80 	call	20002d8 <LCD_WR_DATA>
			LCD_WR_DATA(0x00);
 20022e8:	0009883a 	mov	r4,zero
 20022ec:	20002d80 	call	20002d8 <LCD_WR_DATA>
			LCD_WR_DATA(0x00);
 20022f0:	0009883a 	mov	r4,zero
 20022f4:	20002d80 	call	20002d8 <LCD_WR_DATA>
			LCD_WR_DATA(0x00);
 20022f8:	0009883a 	mov	r4,zero
 20022fc:	20002d80 	call	20002d8 <LCD_WR_DATA>
			LCD_WR_DATA(0x00);
 2002300:	0009883a 	mov	r4,zero
 2002304:	20002d80 	call	20002d8 <LCD_WR_DATA>

			LCD_WR_CMD(0xB4);
 2002308:	01002d04 	movi	r4,180
 200230c:	20002680 	call	2000268 <LCD_WR_CMD>
			LCD_WR_DATA(0x8B);
 2002310:	010022c4 	movi	r4,139
 2002314:	20002d80 	call	20002d8 <LCD_WR_DATA>
			LCD_WR_DATA(0x00);
 2002318:	0009883a 	mov	r4,zero
 200231c:	20002d80 	call	20002d8 <LCD_WR_DATA>
			LCD_WR_DATA(0x96);
 2002320:	01002584 	movi	r4,150
 2002324:	20002d80 	call	20002d8 <LCD_WR_DATA>
			LCD_WR_DATA(0x00);
 2002328:	0009883a 	mov	r4,zero
 200232c:	20002d80 	call	20002d8 <LCD_WR_DATA>
			LCD_WR_DATA(0xA1);
 2002330:	01002844 	movi	r4,161
 2002334:	20002d80 	call	20002d8 <LCD_WR_DATA>
			LCD_WR_DATA(0x00);
 2002338:	0009883a 	mov	r4,zero
 200233c:	20002d80 	call	20002d8 <LCD_WR_DATA>

			LCD_WR_CMD(0xB5);
 2002340:	01002d44 	movi	r4,181
 2002344:	20002680 	call	2000268 <LCD_WR_CMD>
			LCD_WR_DATA(0x02);
 2002348:	01000084 	movi	r4,2
 200234c:	20002d80 	call	20002d8 <LCD_WR_DATA>
			LCD_WR_DATA(0x00);
 2002350:	0009883a 	mov	r4,zero
 2002354:	20002d80 	call	20002d8 <LCD_WR_DATA>
			LCD_WR_DATA(0x03);
 2002358:	010000c4 	movi	r4,3
 200235c:	20002d80 	call	20002d8 <LCD_WR_DATA>
			LCD_WR_DATA(0x00);
 2002360:	0009883a 	mov	r4,zero
 2002364:	20002d80 	call	20002d8 <LCD_WR_DATA>
			LCD_WR_DATA(0x04);
 2002368:	01000104 	movi	r4,4
 200236c:	20002d80 	call	20002d8 <LCD_WR_DATA>
			LCD_WR_DATA(0x00);
 2002370:	0009883a 	mov	r4,zero
 2002374:	20002d80 	call	20002d8 <LCD_WR_DATA>

			LCD_WR_CMD(0xB6);
 2002378:	01002d84 	movi	r4,182
 200237c:	20002680 	call	2000268 <LCD_WR_CMD>
			LCD_WR_DATA(0x00);
 2002380:	0009883a 	mov	r4,zero
 2002384:	20002d80 	call	20002d8 <LCD_WR_DATA>
			LCD_WR_DATA(0x00);
 2002388:	0009883a 	mov	r4,zero
 200238c:	20002d80 	call	20002d8 <LCD_WR_DATA>

			LCD_WR_CMD(0xB7);
 2002390:	01002dc4 	movi	r4,183
 2002394:	20002680 	call	2000268 <LCD_WR_CMD>
			LCD_WR_DATA(0x00);
 2002398:	0009883a 	mov	r4,zero
 200239c:	20002d80 	call	20002d8 <LCD_WR_DATA>
			LCD_WR_DATA(0x00);
 20023a0:	0009883a 	mov	r4,zero
 20023a4:	20002d80 	call	20002d8 <LCD_WR_DATA>
			LCD_WR_DATA(0x3F);
 20023a8:	01000fc4 	movi	r4,63
 20023ac:	20002d80 	call	20002d8 <LCD_WR_DATA>
			LCD_WR_DATA(0x00);
 20023b0:	0009883a 	mov	r4,zero
 20023b4:	20002d80 	call	20002d8 <LCD_WR_DATA>
			LCD_WR_DATA(0x5E);
 20023b8:	01001784 	movi	r4,94
 20023bc:	20002d80 	call	20002d8 <LCD_WR_DATA>
			LCD_WR_DATA(0x00);
 20023c0:	0009883a 	mov	r4,zero
 20023c4:	20002d80 	call	20002d8 <LCD_WR_DATA>
			LCD_WR_DATA(0x64);
 20023c8:	01001904 	movi	r4,100
 20023cc:	20002d80 	call	20002d8 <LCD_WR_DATA>
			LCD_WR_DATA(0x00);
 20023d0:	0009883a 	mov	r4,zero
 20023d4:	20002d80 	call	20002d8 <LCD_WR_DATA>
			LCD_WR_DATA(0x8C);
 20023d8:	01002304 	movi	r4,140
 20023dc:	20002d80 	call	20002d8 <LCD_WR_DATA>
			LCD_WR_DATA(0x00);
 20023e0:	0009883a 	mov	r4,zero
 20023e4:	20002d80 	call	20002d8 <LCD_WR_DATA>
			LCD_WR_DATA(0xAC);
 20023e8:	01002b04 	movi	r4,172
 20023ec:	20002d80 	call	20002d8 <LCD_WR_DATA>
			LCD_WR_DATA(0x00);
 20023f0:	0009883a 	mov	r4,zero
 20023f4:	20002d80 	call	20002d8 <LCD_WR_DATA>
			LCD_WR_DATA(0xDC);
 20023f8:	01003704 	movi	r4,220
 20023fc:	20002d80 	call	20002d8 <LCD_WR_DATA>
			LCD_WR_DATA(0x00);
 2002400:	0009883a 	mov	r4,zero
 2002404:	20002d80 	call	20002d8 <LCD_WR_DATA>
			LCD_WR_DATA(0x70);
 2002408:	01001c04 	movi	r4,112
 200240c:	20002d80 	call	20002d8 <LCD_WR_DATA>
			LCD_WR_DATA(0x00);
 2002410:	0009883a 	mov	r4,zero
 2002414:	20002d80 	call	20002d8 <LCD_WR_DATA>
			LCD_WR_DATA(0x90);
 2002418:	01002404 	movi	r4,144
 200241c:	20002d80 	call	20002d8 <LCD_WR_DATA>
			LCD_WR_DATA(0x00);
 2002420:	0009883a 	mov	r4,zero
 2002424:	20002d80 	call	20002d8 <LCD_WR_DATA>
			LCD_WR_DATA(0xEB);
 2002428:	01003ac4 	movi	r4,235
 200242c:	20002d80 	call	20002d8 <LCD_WR_DATA>
			LCD_WR_DATA(0x00);
 2002430:	0009883a 	mov	r4,zero
 2002434:	20002d80 	call	20002d8 <LCD_WR_DATA>
			LCD_WR_DATA(0xDC);
 2002438:	01003704 	movi	r4,220
 200243c:	20002d80 	call	20002d8 <LCD_WR_DATA>
			LCD_WR_DATA(0x00);
 2002440:	0009883a 	mov	r4,zero
 2002444:	20002d80 	call	20002d8 <LCD_WR_DATA>

			LCD_WR_CMD(0xB8);
 2002448:	01002e04 	movi	r4,184
 200244c:	20002680 	call	2000268 <LCD_WR_CMD>
			LCD_WR_DATA(0x00);
 2002450:	0009883a 	mov	r4,zero
 2002454:	20002d80 	call	20002d8 <LCD_WR_DATA>
			LCD_WR_DATA(0x00);
 2002458:	0009883a 	mov	r4,zero
 200245c:	20002d80 	call	20002d8 <LCD_WR_DATA>
			LCD_WR_DATA(0x00);
 2002460:	0009883a 	mov	r4,zero
 2002464:	20002d80 	call	20002d8 <LCD_WR_DATA>
			LCD_WR_DATA(0x00);
 2002468:	0009883a 	mov	r4,zero
 200246c:	20002d80 	call	20002d8 <LCD_WR_DATA>
			LCD_WR_DATA(0x00);
 2002470:	0009883a 	mov	r4,zero
 2002474:	20002d80 	call	20002d8 <LCD_WR_DATA>
			LCD_WR_DATA(0x00);
 2002478:	0009883a 	mov	r4,zero
 200247c:	20002d80 	call	20002d8 <LCD_WR_DATA>
			LCD_WR_DATA(0x00);
 2002480:	0009883a 	mov	r4,zero
 2002484:	20002d80 	call	20002d8 <LCD_WR_DATA>
			LCD_WR_DATA(0x00);
 2002488:	0009883a 	mov	r4,zero
 200248c:	20002d80 	call	20002d8 <LCD_WR_DATA>

			LCD_WR_CMD(0xBA);
 2002490:	01002e84 	movi	r4,186
 2002494:	20002680 	call	2000268 <LCD_WR_CMD>
			LCD_WR_DATA(0x24);
 2002498:	01000904 	movi	r4,36
 200249c:	20002d80 	call	20002d8 <LCD_WR_DATA>
			LCD_WR_DATA(0x00);
 20024a0:	0009883a 	mov	r4,zero
 20024a4:	20002d80 	call	20002d8 <LCD_WR_DATA>
			LCD_WR_DATA(0x00);
 20024a8:	0009883a 	mov	r4,zero
 20024ac:	20002d80 	call	20002d8 <LCD_WR_DATA>
			LCD_WR_DATA(0x00);
 20024b0:	0009883a 	mov	r4,zero
 20024b4:	20002d80 	call	20002d8 <LCD_WR_DATA>

			LCD_WR_CMD(0xC1);
 20024b8:	01003044 	movi	r4,193
 20024bc:	20002680 	call	2000268 <LCD_WR_CMD>
			LCD_WR_DATA(0x20);
 20024c0:	01000804 	movi	r4,32
 20024c4:	20002d80 	call	20002d8 <LCD_WR_DATA>
			LCD_WR_DATA(0x00);
 20024c8:	0009883a 	mov	r4,zero
 20024cc:	20002d80 	call	20002d8 <LCD_WR_DATA>
			LCD_WR_DATA(0x54);
 20024d0:	01001504 	movi	r4,84
 20024d4:	20002d80 	call	20002d8 <LCD_WR_DATA>
			LCD_WR_DATA(0x00);
 20024d8:	0009883a 	mov	r4,zero
 20024dc:	20002d80 	call	20002d8 <LCD_WR_DATA>
			LCD_WR_DATA(0xFF);
 20024e0:	01003fc4 	movi	r4,255
 20024e4:	20002d80 	call	20002d8 <LCD_WR_DATA>
			LCD_WR_DATA(0x00);
 20024e8:	0009883a 	mov	r4,zero
 20024ec:	20002d80 	call	20002d8 <LCD_WR_DATA>

			LCD_WR_CMD(0xC2);
 20024f0:	01003084 	movi	r4,194
 20024f4:	20002680 	call	2000268 <LCD_WR_CMD>
			LCD_WR_DATA(0x0A);
 20024f8:	01000284 	movi	r4,10
 20024fc:	20002d80 	call	20002d8 <LCD_WR_DATA>
			LCD_WR_DATA(0x00);
 2002500:	0009883a 	mov	r4,zero
 2002504:	20002d80 	call	20002d8 <LCD_WR_DATA>
			LCD_WR_DATA(0x04);
 2002508:	01000104 	movi	r4,4
 200250c:	20002d80 	call	20002d8 <LCD_WR_DATA>
			LCD_WR_DATA(0x00);
 2002510:	0009883a 	mov	r4,zero
 2002514:	20002d80 	call	20002d8 <LCD_WR_DATA>

			LCD_WR_CMD(0xC3);
 2002518:	010030c4 	movi	r4,195
 200251c:	20002680 	call	2000268 <LCD_WR_CMD>
			LCD_WR_DATA(0x3C);
 2002520:	01000f04 	movi	r4,60
 2002524:	20002d80 	call	20002d8 <LCD_WR_DATA>
			LCD_WR_DATA(0x00);
 2002528:	0009883a 	mov	r4,zero
 200252c:	20002d80 	call	20002d8 <LCD_WR_DATA>
			LCD_WR_DATA(0x3A);
 2002530:	01000e84 	movi	r4,58
 2002534:	20002d80 	call	20002d8 <LCD_WR_DATA>
			LCD_WR_DATA(0x00);
 2002538:	0009883a 	mov	r4,zero
 200253c:	20002d80 	call	20002d8 <LCD_WR_DATA>
			LCD_WR_DATA(0x39);
 2002540:	01000e44 	movi	r4,57
 2002544:	20002d80 	call	20002d8 <LCD_WR_DATA>
			LCD_WR_DATA(0x00);
 2002548:	0009883a 	mov	r4,zero
 200254c:	20002d80 	call	20002d8 <LCD_WR_DATA>
			LCD_WR_DATA(0x37);
 2002550:	01000dc4 	movi	r4,55
 2002554:	20002d80 	call	20002d8 <LCD_WR_DATA>
			LCD_WR_DATA(0x00);
 2002558:	0009883a 	mov	r4,zero
 200255c:	20002d80 	call	20002d8 <LCD_WR_DATA>
			LCD_WR_DATA(0x3C);
 2002560:	01000f04 	movi	r4,60
 2002564:	20002d80 	call	20002d8 <LCD_WR_DATA>
			LCD_WR_DATA(0x00);
 2002568:	0009883a 	mov	r4,zero
 200256c:	20002d80 	call	20002d8 <LCD_WR_DATA>
			LCD_WR_DATA(0x36);
 2002570:	01000d84 	movi	r4,54
 2002574:	20002d80 	call	20002d8 <LCD_WR_DATA>
			LCD_WR_DATA(0x00);
 2002578:	0009883a 	mov	r4,zero
 200257c:	20002d80 	call	20002d8 <LCD_WR_DATA>
			LCD_WR_DATA(0x32);
 2002580:	01000c84 	movi	r4,50
 2002584:	20002d80 	call	20002d8 <LCD_WR_DATA>
			LCD_WR_DATA(0x00);
 2002588:	0009883a 	mov	r4,zero
 200258c:	20002d80 	call	20002d8 <LCD_WR_DATA>
			LCD_WR_DATA(0x2F);
 2002590:	01000bc4 	movi	r4,47
 2002594:	20002d80 	call	20002d8 <LCD_WR_DATA>
			LCD_WR_DATA(0x00);
 2002598:	0009883a 	mov	r4,zero
 200259c:	20002d80 	call	20002d8 <LCD_WR_DATA>
			LCD_WR_DATA(0x2C);
 20025a0:	01000b04 	movi	r4,44
 20025a4:	20002d80 	call	20002d8 <LCD_WR_DATA>
			LCD_WR_DATA(0x00);
 20025a8:	0009883a 	mov	r4,zero
 20025ac:	20002d80 	call	20002d8 <LCD_WR_DATA>
			LCD_WR_DATA(0x29);
 20025b0:	01000a44 	movi	r4,41
 20025b4:	20002d80 	call	20002d8 <LCD_WR_DATA>
			LCD_WR_DATA(0x00);
 20025b8:	0009883a 	mov	r4,zero
 20025bc:	20002d80 	call	20002d8 <LCD_WR_DATA>
			LCD_WR_DATA(0x26);
 20025c0:	01000984 	movi	r4,38
 20025c4:	20002d80 	call	20002d8 <LCD_WR_DATA>
			LCD_WR_DATA(0x00);
 20025c8:	0009883a 	mov	r4,zero
 20025cc:	20002d80 	call	20002d8 <LCD_WR_DATA>
			LCD_WR_DATA(0x24);
 20025d0:	01000904 	movi	r4,36
 20025d4:	20002d80 	call	20002d8 <LCD_WR_DATA>
			LCD_WR_DATA(0x00);
 20025d8:	0009883a 	mov	r4,zero
 20025dc:	20002d80 	call	20002d8 <LCD_WR_DATA>
			LCD_WR_DATA(0x24);
 20025e0:	01000904 	movi	r4,36
 20025e4:	20002d80 	call	20002d8 <LCD_WR_DATA>
			LCD_WR_DATA(0x00);
 20025e8:	0009883a 	mov	r4,zero
 20025ec:	20002d80 	call	20002d8 <LCD_WR_DATA>
			LCD_WR_DATA(0x23);
 20025f0:	010008c4 	movi	r4,35
 20025f4:	20002d80 	call	20002d8 <LCD_WR_DATA>
			LCD_WR_DATA(0x00);
 20025f8:	0009883a 	mov	r4,zero
 20025fc:	20002d80 	call	20002d8 <LCD_WR_DATA>
			LCD_WR_DATA(0x3C);
 2002600:	01000f04 	movi	r4,60
 2002604:	20002d80 	call	20002d8 <LCD_WR_DATA>
			LCD_WR_DATA(0x00);
 2002608:	0009883a 	mov	r4,zero
 200260c:	20002d80 	call	20002d8 <LCD_WR_DATA>
			LCD_WR_DATA(0x36);
 2002610:	01000d84 	movi	r4,54
 2002614:	20002d80 	call	20002d8 <LCD_WR_DATA>
			LCD_WR_DATA(0x00);
 2002618:	0009883a 	mov	r4,zero
 200261c:	20002d80 	call	20002d8 <LCD_WR_DATA>
			LCD_WR_DATA(0x32);
 2002620:	01000c84 	movi	r4,50
 2002624:	20002d80 	call	20002d8 <LCD_WR_DATA>
			LCD_WR_DATA(0x00);
 2002628:	0009883a 	mov	r4,zero
 200262c:	20002d80 	call	20002d8 <LCD_WR_DATA>
			LCD_WR_DATA(0x2F);
 2002630:	01000bc4 	movi	r4,47
 2002634:	20002d80 	call	20002d8 <LCD_WR_DATA>
			LCD_WR_DATA(0x00);
 2002638:	0009883a 	mov	r4,zero
 200263c:	20002d80 	call	20002d8 <LCD_WR_DATA>
			LCD_WR_DATA(0x2C);
 2002640:	01000b04 	movi	r4,44
 2002644:	20002d80 	call	20002d8 <LCD_WR_DATA>
			LCD_WR_DATA(0x00);
 2002648:	0009883a 	mov	r4,zero
 200264c:	20002d80 	call	20002d8 <LCD_WR_DATA>
			LCD_WR_DATA(0x29);
 2002650:	01000a44 	movi	r4,41
 2002654:	20002d80 	call	20002d8 <LCD_WR_DATA>
			LCD_WR_DATA(0x00);
 2002658:	0009883a 	mov	r4,zero
 200265c:	20002d80 	call	20002d8 <LCD_WR_DATA>
			LCD_WR_DATA(0x26);
 2002660:	01000984 	movi	r4,38
 2002664:	20002d80 	call	20002d8 <LCD_WR_DATA>
			LCD_WR_DATA(0x00);
 2002668:	0009883a 	mov	r4,zero
 200266c:	20002d80 	call	20002d8 <LCD_WR_DATA>
			LCD_WR_DATA(0x24);
 2002670:	01000904 	movi	r4,36
 2002674:	20002d80 	call	20002d8 <LCD_WR_DATA>
			LCD_WR_DATA(0x00);
 2002678:	0009883a 	mov	r4,zero
 200267c:	20002d80 	call	20002d8 <LCD_WR_DATA>
			LCD_WR_DATA(0x24);
 2002680:	01000904 	movi	r4,36
 2002684:	20002d80 	call	20002d8 <LCD_WR_DATA>
			LCD_WR_DATA(0x00);
 2002688:	0009883a 	mov	r4,zero
 200268c:	20002d80 	call	20002d8 <LCD_WR_DATA>
			LCD_WR_DATA(0x23);
 2002690:	010008c4 	movi	r4,35
 2002694:	20002d80 	call	20002d8 <LCD_WR_DATA>
			LCD_WR_DATA(0x00);
 2002698:	0009883a 	mov	r4,zero
 200269c:	20002d80 	call	20002d8 <LCD_WR_DATA>

			LCD_WR_CMD(0xC4);
 20026a0:	01003104 	movi	r4,196
 20026a4:	20002680 	call	2000268 <LCD_WR_CMD>
			LCD_WR_DATA(0x62);
 20026a8:	01001884 	movi	r4,98
 20026ac:	20002d80 	call	20002d8 <LCD_WR_DATA>
			LCD_WR_DATA(0x00);
 20026b0:	0009883a 	mov	r4,zero
 20026b4:	20002d80 	call	20002d8 <LCD_WR_DATA>
			LCD_WR_DATA(0x05);
 20026b8:	01000144 	movi	r4,5
 20026bc:	20002d80 	call	20002d8 <LCD_WR_DATA>
			LCD_WR_DATA(0x00);
 20026c0:	0009883a 	mov	r4,zero
 20026c4:	20002d80 	call	20002d8 <LCD_WR_DATA>
			LCD_WR_DATA(0x84);
 20026c8:	01002104 	movi	r4,132
 20026cc:	20002d80 	call	20002d8 <LCD_WR_DATA>
			LCD_WR_DATA(0x00);
 20026d0:	0009883a 	mov	r4,zero
 20026d4:	20002d80 	call	20002d8 <LCD_WR_DATA>
			LCD_WR_DATA(0xF0);
 20026d8:	01003c04 	movi	r4,240
 20026dc:	20002d80 	call	20002d8 <LCD_WR_DATA>
			LCD_WR_DATA(0x00);
 20026e0:	0009883a 	mov	r4,zero
 20026e4:	20002d80 	call	20002d8 <LCD_WR_DATA>
			LCD_WR_DATA(0x18);
 20026e8:	01000604 	movi	r4,24
 20026ec:	20002d80 	call	20002d8 <LCD_WR_DATA>
			LCD_WR_DATA(0x00);
 20026f0:	0009883a 	mov	r4,zero
 20026f4:	20002d80 	call	20002d8 <LCD_WR_DATA>
			LCD_WR_DATA(0xA4);
 20026f8:	01002904 	movi	r4,164
 20026fc:	20002d80 	call	20002d8 <LCD_WR_DATA>
			LCD_WR_DATA(0x00);
 2002700:	0009883a 	mov	r4,zero
 2002704:	20002d80 	call	20002d8 <LCD_WR_DATA>
			LCD_WR_DATA(0x18);
 2002708:	01000604 	movi	r4,24
 200270c:	20002d80 	call	20002d8 <LCD_WR_DATA>
			LCD_WR_DATA(0x00);
 2002710:	0009883a 	mov	r4,zero
 2002714:	20002d80 	call	20002d8 <LCD_WR_DATA>
			LCD_WR_DATA(0x50);
 2002718:	01001404 	movi	r4,80
 200271c:	20002d80 	call	20002d8 <LCD_WR_DATA>
			LCD_WR_DATA(0x00);
 2002720:	0009883a 	mov	r4,zero
 2002724:	20002d80 	call	20002d8 <LCD_WR_DATA>
			LCD_WR_DATA(0x0C);
 2002728:	01000304 	movi	r4,12
 200272c:	20002d80 	call	20002d8 <LCD_WR_DATA>
			LCD_WR_DATA(0x00);
 2002730:	0009883a 	mov	r4,zero
 2002734:	20002d80 	call	20002d8 <LCD_WR_DATA>
			LCD_WR_DATA(0x17);
 2002738:	010005c4 	movi	r4,23
 200273c:	20002d80 	call	20002d8 <LCD_WR_DATA>
			LCD_WR_DATA(0x00);
 2002740:	0009883a 	mov	r4,zero
 2002744:	20002d80 	call	20002d8 <LCD_WR_DATA>
			LCD_WR_DATA(0x95);
 2002748:	01002544 	movi	r4,149
 200274c:	20002d80 	call	20002d8 <LCD_WR_DATA>
			LCD_WR_DATA(0x00);
 2002750:	0009883a 	mov	r4,zero
 2002754:	20002d80 	call	20002d8 <LCD_WR_DATA>
			LCD_WR_DATA(0xF3);
 2002758:	01003cc4 	movi	r4,243
 200275c:	20002d80 	call	20002d8 <LCD_WR_DATA>
			LCD_WR_DATA(0x00);
 2002760:	0009883a 	mov	r4,zero
 2002764:	20002d80 	call	20002d8 <LCD_WR_DATA>
			LCD_WR_DATA(0xE6);
 2002768:	01003984 	movi	r4,230
 200276c:	20002d80 	call	20002d8 <LCD_WR_DATA>
			LCD_WR_DATA(0x00);
 2002770:	0009883a 	mov	r4,zero
 2002774:	20002d80 	call	20002d8 <LCD_WR_DATA>

			LCD_WR_CMD(0xC5);
 2002778:	01003144 	movi	r4,197
 200277c:	20002680 	call	2000268 <LCD_WR_CMD>
			LCD_WR_DATA(0x32);
 2002780:	01000c84 	movi	r4,50
 2002784:	20002d80 	call	20002d8 <LCD_WR_DATA>
			LCD_WR_DATA(0x00);
 2002788:	0009883a 	mov	r4,zero
 200278c:	20002d80 	call	20002d8 <LCD_WR_DATA>
			LCD_WR_DATA(0x44);
 2002790:	01001104 	movi	r4,68
 2002794:	20002d80 	call	20002d8 <LCD_WR_DATA>
			LCD_WR_DATA(0x00);
 2002798:	0009883a 	mov	r4,zero
 200279c:	20002d80 	call	20002d8 <LCD_WR_DATA>
			LCD_WR_DATA(0x65);
 20027a0:	01001944 	movi	r4,101
 20027a4:	20002d80 	call	20002d8 <LCD_WR_DATA>
			LCD_WR_DATA(0x00);
 20027a8:	0009883a 	mov	r4,zero
 20027ac:	20002d80 	call	20002d8 <LCD_WR_DATA>
			LCD_WR_DATA(0x76);
 20027b0:	01001d84 	movi	r4,118
 20027b4:	20002d80 	call	20002d8 <LCD_WR_DATA>
			LCD_WR_DATA(0x00);
 20027b8:	0009883a 	mov	r4,zero
 20027bc:	20002d80 	call	20002d8 <LCD_WR_DATA>
			LCD_WR_DATA(0x88);
 20027c0:	01002204 	movi	r4,136
 20027c4:	20002d80 	call	20002d8 <LCD_WR_DATA>
			LCD_WR_DATA(0x00);
 20027c8:	0009883a 	mov	r4,zero
 20027cc:	20002d80 	call	20002d8 <LCD_WR_DATA>

			LCD_WR_CMD(0xC6);
 20027d0:	01003184 	movi	r4,198
 20027d4:	20002680 	call	2000268 <LCD_WR_CMD>
			LCD_WR_DATA(0x20);
 20027d8:	01000804 	movi	r4,32
 20027dc:	20002d80 	call	20002d8 <LCD_WR_DATA>
			LCD_WR_DATA(0x00);
 20027e0:	0009883a 	mov	r4,zero
 20027e4:	20002d80 	call	20002d8 <LCD_WR_DATA>
			LCD_WR_DATA(0x17);
 20027e8:	010005c4 	movi	r4,23
 20027ec:	20002d80 	call	20002d8 <LCD_WR_DATA>
			LCD_WR_DATA(0x00);
 20027f0:	0009883a 	mov	r4,zero
 20027f4:	20002d80 	call	20002d8 <LCD_WR_DATA>
			LCD_WR_DATA(0x01);
 20027f8:	01000044 	movi	r4,1
 20027fc:	20002d80 	call	20002d8 <LCD_WR_DATA>
			LCD_WR_DATA(0x00);
 2002800:	0009883a 	mov	r4,zero
 2002804:	20002d80 	call	20002d8 <LCD_WR_DATA>

			LCD_WR_CMD(0xC7);
 2002808:	010031c4 	movi	r4,199
 200280c:	20002680 	call	2000268 <LCD_WR_CMD>
			LCD_WR_DATA(0x00);
 2002810:	0009883a 	mov	r4,zero
 2002814:	20002d80 	call	20002d8 <LCD_WR_DATA>
			LCD_WR_DATA(0x00);
 2002818:	0009883a 	mov	r4,zero
 200281c:	20002d80 	call	20002d8 <LCD_WR_DATA>
			LCD_WR_DATA(0x00);
 2002820:	0009883a 	mov	r4,zero
 2002824:	20002d80 	call	20002d8 <LCD_WR_DATA>
			LCD_WR_DATA(0x00);
 2002828:	0009883a 	mov	r4,zero
 200282c:	20002d80 	call	20002d8 <LCD_WR_DATA>

			LCD_WR_CMD(0xC8);
 2002830:	01003204 	movi	r4,200
 2002834:	20002680 	call	2000268 <LCD_WR_CMD>
			LCD_WR_DATA(0x00);
 2002838:	0009883a 	mov	r4,zero
 200283c:	20002d80 	call	20002d8 <LCD_WR_DATA>
			LCD_WR_DATA(0x00);
 2002840:	0009883a 	mov	r4,zero
 2002844:	20002d80 	call	20002d8 <LCD_WR_DATA>
			LCD_WR_DATA(0x00);
 2002848:	0009883a 	mov	r4,zero
 200284c:	20002d80 	call	20002d8 <LCD_WR_DATA>
			LCD_WR_DATA(0x00);
 2002850:	0009883a 	mov	r4,zero
 2002854:	20002d80 	call	20002d8 <LCD_WR_DATA>

			LCD_WR_CMD(0xC9);
 2002858:	01003244 	movi	r4,201
 200285c:	20002680 	call	2000268 <LCD_WR_CMD>
			LCD_WR_DATA(0x00);
 2002860:	0009883a 	mov	r4,zero
 2002864:	20002d80 	call	20002d8 <LCD_WR_DATA>
			LCD_WR_DATA(0x00);
 2002868:	0009883a 	mov	r4,zero
 200286c:	20002d80 	call	20002d8 <LCD_WR_DATA>
			LCD_WR_DATA(0x00);
 2002870:	0009883a 	mov	r4,zero
 2002874:	20002d80 	call	20002d8 <LCD_WR_DATA>
			LCD_WR_DATA(0x00);
 2002878:	0009883a 	mov	r4,zero
 200287c:	20002d80 	call	20002d8 <LCD_WR_DATA>
			LCD_WR_DATA(0x00);
 2002880:	0009883a 	mov	r4,zero
 2002884:	20002d80 	call	20002d8 <LCD_WR_DATA>
			LCD_WR_DATA(0x00);
 2002888:	0009883a 	mov	r4,zero
 200288c:	20002d80 	call	20002d8 <LCD_WR_DATA>
			LCD_WR_DATA(0x00);
 2002890:	0009883a 	mov	r4,zero
 2002894:	20002d80 	call	20002d8 <LCD_WR_DATA>
			LCD_WR_DATA(0x00);
 2002898:	0009883a 	mov	r4,zero
 200289c:	20002d80 	call	20002d8 <LCD_WR_DATA>
			LCD_WR_DATA(0x00);
 20028a0:	0009883a 	mov	r4,zero
 20028a4:	20002d80 	call	20002d8 <LCD_WR_DATA>
			LCD_WR_DATA(0x00);
 20028a8:	0009883a 	mov	r4,zero
 20028ac:	20002d80 	call	20002d8 <LCD_WR_DATA>
			LCD_WR_DATA(0x00);
 20028b0:	0009883a 	mov	r4,zero
 20028b4:	20002d80 	call	20002d8 <LCD_WR_DATA>
			LCD_WR_DATA(0x00);
 20028b8:	0009883a 	mov	r4,zero
 20028bc:	20002d80 	call	20002d8 <LCD_WR_DATA>
			LCD_WR_DATA(0x00);
 20028c0:	0009883a 	mov	r4,zero
 20028c4:	20002d80 	call	20002d8 <LCD_WR_DATA>
			LCD_WR_DATA(0x00);
 20028c8:	0009883a 	mov	r4,zero
 20028cc:	20002d80 	call	20002d8 <LCD_WR_DATA>
			LCD_WR_DATA(0x00);
 20028d0:	0009883a 	mov	r4,zero
 20028d4:	20002d80 	call	20002d8 <LCD_WR_DATA>
			LCD_WR_DATA(0x00);
 20028d8:	0009883a 	mov	r4,zero
 20028dc:	20002d80 	call	20002d8 <LCD_WR_DATA>

			LCD_WR_CMD(0xE0);
 20028e0:	01003804 	movi	r4,224
 20028e4:	20002680 	call	2000268 <LCD_WR_CMD>
			LCD_WR_DATA(0x16);
 20028e8:	01000584 	movi	r4,22
 20028ec:	20002d80 	call	20002d8 <LCD_WR_DATA>
			LCD_WR_DATA(0x00);
 20028f0:	0009883a 	mov	r4,zero
 20028f4:	20002d80 	call	20002d8 <LCD_WR_DATA>
			LCD_WR_DATA(0x1C);
 20028f8:	01000704 	movi	r4,28
 20028fc:	20002d80 	call	20002d8 <LCD_WR_DATA>
			LCD_WR_DATA(0x00);
 2002900:	0009883a 	mov	r4,zero
 2002904:	20002d80 	call	20002d8 <LCD_WR_DATA>
			LCD_WR_DATA(0x21);
 2002908:	01000844 	movi	r4,33
 200290c:	20002d80 	call	20002d8 <LCD_WR_DATA>
			LCD_WR_DATA(0x00);
 2002910:	0009883a 	mov	r4,zero
 2002914:	20002d80 	call	20002d8 <LCD_WR_DATA>
			LCD_WR_DATA(0x36);
 2002918:	01000d84 	movi	r4,54
 200291c:	20002d80 	call	20002d8 <LCD_WR_DATA>
			LCD_WR_DATA(0x00);
 2002920:	0009883a 	mov	r4,zero
 2002924:	20002d80 	call	20002d8 <LCD_WR_DATA>
			LCD_WR_DATA(0x46);
 2002928:	01001184 	movi	r4,70
 200292c:	20002d80 	call	20002d8 <LCD_WR_DATA>
			LCD_WR_DATA(0x00);
 2002930:	0009883a 	mov	r4,zero
 2002934:	20002d80 	call	20002d8 <LCD_WR_DATA>
			LCD_WR_DATA(0x52);
 2002938:	01001484 	movi	r4,82
 200293c:	20002d80 	call	20002d8 <LCD_WR_DATA>
			LCD_WR_DATA(0x00);
 2002940:	0009883a 	mov	r4,zero
 2002944:	20002d80 	call	20002d8 <LCD_WR_DATA>
			LCD_WR_DATA(0x64);
 2002948:	01001904 	movi	r4,100
 200294c:	20002d80 	call	20002d8 <LCD_WR_DATA>
			LCD_WR_DATA(0x00);
 2002950:	0009883a 	mov	r4,zero
 2002954:	20002d80 	call	20002d8 <LCD_WR_DATA>
			LCD_WR_DATA(0x7A);
 2002958:	01001e84 	movi	r4,122
 200295c:	20002d80 	call	20002d8 <LCD_WR_DATA>
			LCD_WR_DATA(0x00);
 2002960:	0009883a 	mov	r4,zero
 2002964:	20002d80 	call	20002d8 <LCD_WR_DATA>
			LCD_WR_DATA(0x8B);
 2002968:	010022c4 	movi	r4,139
 200296c:	20002d80 	call	20002d8 <LCD_WR_DATA>
			LCD_WR_DATA(0x00);
 2002970:	0009883a 	mov	r4,zero
 2002974:	20002d80 	call	20002d8 <LCD_WR_DATA>
			LCD_WR_DATA(0x99);
 2002978:	01002644 	movi	r4,153
 200297c:	20002d80 	call	20002d8 <LCD_WR_DATA>
			LCD_WR_DATA(0x00);
 2002980:	0009883a 	mov	r4,zero
 2002984:	20002d80 	call	20002d8 <LCD_WR_DATA>
			LCD_WR_DATA(0xA8);
 2002988:	01002a04 	movi	r4,168
 200298c:	20002d80 	call	20002d8 <LCD_WR_DATA>
			LCD_WR_DATA(0x00);
 2002990:	0009883a 	mov	r4,zero
 2002994:	20002d80 	call	20002d8 <LCD_WR_DATA>
			LCD_WR_DATA(0xB9);
 2002998:	01002e44 	movi	r4,185
 200299c:	20002d80 	call	20002d8 <LCD_WR_DATA>
			LCD_WR_DATA(0x00);
 20029a0:	0009883a 	mov	r4,zero
 20029a4:	20002d80 	call	20002d8 <LCD_WR_DATA>
			LCD_WR_DATA(0xC4);
 20029a8:	01003104 	movi	r4,196
 20029ac:	20002d80 	call	20002d8 <LCD_WR_DATA>
			LCD_WR_DATA(0x00);
 20029b0:	0009883a 	mov	r4,zero
 20029b4:	20002d80 	call	20002d8 <LCD_WR_DATA>
			LCD_WR_DATA(0xCA);
 20029b8:	01003284 	movi	r4,202
 20029bc:	20002d80 	call	20002d8 <LCD_WR_DATA>
			LCD_WR_DATA(0x00);
 20029c0:	0009883a 	mov	r4,zero
 20029c4:	20002d80 	call	20002d8 <LCD_WR_DATA>
			LCD_WR_DATA(0xD2);
 20029c8:	01003484 	movi	r4,210
 20029cc:	20002d80 	call	20002d8 <LCD_WR_DATA>
			LCD_WR_DATA(0x00);
 20029d0:	0009883a 	mov	r4,zero
 20029d4:	20002d80 	call	20002d8 <LCD_WR_DATA>
			LCD_WR_DATA(0xD9);
 20029d8:	01003644 	movi	r4,217
 20029dc:	20002d80 	call	20002d8 <LCD_WR_DATA>
			LCD_WR_DATA(0x00);
 20029e0:	0009883a 	mov	r4,zero
 20029e4:	20002d80 	call	20002d8 <LCD_WR_DATA>
			LCD_WR_DATA(0xE0);
 20029e8:	01003804 	movi	r4,224
 20029ec:	20002d80 	call	20002d8 <LCD_WR_DATA>
			LCD_WR_DATA(0x00);
 20029f0:	0009883a 	mov	r4,zero
 20029f4:	20002d80 	call	20002d8 <LCD_WR_DATA>
			LCD_WR_DATA(0xF3);
 20029f8:	01003cc4 	movi	r4,243
 20029fc:	20002d80 	call	20002d8 <LCD_WR_DATA>
			LCD_WR_DATA(0x00);
 2002a00:	0009883a 	mov	r4,zero
 2002a04:	20002d80 	call	20002d8 <LCD_WR_DATA>

			LCD_WR_CMD(0xE1);
 2002a08:	01003844 	movi	r4,225
 2002a0c:	20002680 	call	2000268 <LCD_WR_CMD>
			LCD_WR_DATA(0x16);
 2002a10:	01000584 	movi	r4,22
 2002a14:	20002d80 	call	20002d8 <LCD_WR_DATA>
			LCD_WR_DATA(0x00);
 2002a18:	0009883a 	mov	r4,zero
 2002a1c:	20002d80 	call	20002d8 <LCD_WR_DATA>
			LCD_WR_DATA(0x1C);
 2002a20:	01000704 	movi	r4,28
 2002a24:	20002d80 	call	20002d8 <LCD_WR_DATA>
			LCD_WR_DATA(0x00);
 2002a28:	0009883a 	mov	r4,zero
 2002a2c:	20002d80 	call	20002d8 <LCD_WR_DATA>
			LCD_WR_DATA(0x22);
 2002a30:	01000884 	movi	r4,34
 2002a34:	20002d80 	call	20002d8 <LCD_WR_DATA>
			LCD_WR_DATA(0x00);
 2002a38:	0009883a 	mov	r4,zero
 2002a3c:	20002d80 	call	20002d8 <LCD_WR_DATA>
			LCD_WR_DATA(0x36);
 2002a40:	01000d84 	movi	r4,54
 2002a44:	20002d80 	call	20002d8 <LCD_WR_DATA>
			LCD_WR_DATA(0x00);
 2002a48:	0009883a 	mov	r4,zero
 2002a4c:	20002d80 	call	20002d8 <LCD_WR_DATA>
			LCD_WR_DATA(0x45);
 2002a50:	01001144 	movi	r4,69
 2002a54:	20002d80 	call	20002d8 <LCD_WR_DATA>
			LCD_WR_DATA(0x00);
 2002a58:	0009883a 	mov	r4,zero
 2002a5c:	20002d80 	call	20002d8 <LCD_WR_DATA>
			LCD_WR_DATA(0x52);
 2002a60:	01001484 	movi	r4,82
 2002a64:	20002d80 	call	20002d8 <LCD_WR_DATA>
			LCD_WR_DATA(0x00);
 2002a68:	0009883a 	mov	r4,zero
 2002a6c:	20002d80 	call	20002d8 <LCD_WR_DATA>
			LCD_WR_DATA(0x64);
 2002a70:	01001904 	movi	r4,100
 2002a74:	20002d80 	call	20002d8 <LCD_WR_DATA>
			LCD_WR_DATA(0x00);
 2002a78:	0009883a 	mov	r4,zero
 2002a7c:	20002d80 	call	20002d8 <LCD_WR_DATA>
			LCD_WR_DATA(0x7A);
 2002a80:	01001e84 	movi	r4,122
 2002a84:	20002d80 	call	20002d8 <LCD_WR_DATA>
			LCD_WR_DATA(0x00);
 2002a88:	0009883a 	mov	r4,zero
 2002a8c:	20002d80 	call	20002d8 <LCD_WR_DATA>
			LCD_WR_DATA(0x8B);
 2002a90:	010022c4 	movi	r4,139
 2002a94:	20002d80 	call	20002d8 <LCD_WR_DATA>
			LCD_WR_DATA(0x00);
 2002a98:	0009883a 	mov	r4,zero
 2002a9c:	20002d80 	call	20002d8 <LCD_WR_DATA>
			LCD_WR_DATA(0x99);
 2002aa0:	01002644 	movi	r4,153
 2002aa4:	20002d80 	call	20002d8 <LCD_WR_DATA>
			LCD_WR_DATA(0x00);
 2002aa8:	0009883a 	mov	r4,zero
 2002aac:	20002d80 	call	20002d8 <LCD_WR_DATA>
			LCD_WR_DATA(0xA8);
 2002ab0:	01002a04 	movi	r4,168
 2002ab4:	20002d80 	call	20002d8 <LCD_WR_DATA>
			LCD_WR_DATA(0x00);
 2002ab8:	0009883a 	mov	r4,zero
 2002abc:	20002d80 	call	20002d8 <LCD_WR_DATA>
			LCD_WR_DATA(0xB9);
 2002ac0:	01002e44 	movi	r4,185
 2002ac4:	20002d80 	call	20002d8 <LCD_WR_DATA>
			LCD_WR_DATA(0x00);
 2002ac8:	0009883a 	mov	r4,zero
 2002acc:	20002d80 	call	20002d8 <LCD_WR_DATA>
			LCD_WR_DATA(0xC4);
 2002ad0:	01003104 	movi	r4,196
 2002ad4:	20002d80 	call	20002d8 <LCD_WR_DATA>
			LCD_WR_DATA(0x00);
 2002ad8:	0009883a 	mov	r4,zero
 2002adc:	20002d80 	call	20002d8 <LCD_WR_DATA>
			LCD_WR_DATA(0xCA);
 2002ae0:	01003284 	movi	r4,202
 2002ae4:	20002d80 	call	20002d8 <LCD_WR_DATA>
			LCD_WR_DATA(0x00);
 2002ae8:	0009883a 	mov	r4,zero
 2002aec:	20002d80 	call	20002d8 <LCD_WR_DATA>
			LCD_WR_DATA(0xD2);
 2002af0:	01003484 	movi	r4,210
 2002af4:	20002d80 	call	20002d8 <LCD_WR_DATA>
			LCD_WR_DATA(0x00);
 2002af8:	0009883a 	mov	r4,zero
 2002afc:	20002d80 	call	20002d8 <LCD_WR_DATA>
			LCD_WR_DATA(0xD8);
 2002b00:	01003604 	movi	r4,216
 2002b04:	20002d80 	call	20002d8 <LCD_WR_DATA>
			LCD_WR_DATA(0x00);
 2002b08:	0009883a 	mov	r4,zero
 2002b0c:	20002d80 	call	20002d8 <LCD_WR_DATA>
			LCD_WR_DATA(0xE0);
 2002b10:	01003804 	movi	r4,224
 2002b14:	20002d80 	call	20002d8 <LCD_WR_DATA>
			LCD_WR_DATA(0x00);
 2002b18:	0009883a 	mov	r4,zero
 2002b1c:	20002d80 	call	20002d8 <LCD_WR_DATA>
			LCD_WR_DATA(0xF3);
 2002b20:	01003cc4 	movi	r4,243
 2002b24:	20002d80 	call	20002d8 <LCD_WR_DATA>
			LCD_WR_DATA(0x00);
 2002b28:	0009883a 	mov	r4,zero
 2002b2c:	20002d80 	call	20002d8 <LCD_WR_DATA>

			LCD_WR_CMD(0xE2);
 2002b30:	01003884 	movi	r4,226
 2002b34:	20002680 	call	2000268 <LCD_WR_CMD>
			LCD_WR_DATA(0x05);
 2002b38:	01000144 	movi	r4,5
 2002b3c:	20002d80 	call	20002d8 <LCD_WR_DATA>
			LCD_WR_DATA(0x00);
 2002b40:	0009883a 	mov	r4,zero
 2002b44:	20002d80 	call	20002d8 <LCD_WR_DATA>
			LCD_WR_DATA(0x0B);
 2002b48:	010002c4 	movi	r4,11
 2002b4c:	20002d80 	call	20002d8 <LCD_WR_DATA>
			LCD_WR_DATA(0x00);
 2002b50:	0009883a 	mov	r4,zero
 2002b54:	20002d80 	call	20002d8 <LCD_WR_DATA>
			LCD_WR_DATA(0x1B);
 2002b58:	010006c4 	movi	r4,27
 2002b5c:	20002d80 	call	20002d8 <LCD_WR_DATA>
			LCD_WR_DATA(0x00);
 2002b60:	0009883a 	mov	r4,zero
 2002b64:	20002d80 	call	20002d8 <LCD_WR_DATA>
			LCD_WR_DATA(0x34);
 2002b68:	01000d04 	movi	r4,52
 2002b6c:	20002d80 	call	20002d8 <LCD_WR_DATA>
			LCD_WR_DATA(0x00);
 2002b70:	0009883a 	mov	r4,zero
 2002b74:	20002d80 	call	20002d8 <LCD_WR_DATA>
			LCD_WR_DATA(0x44);
 2002b78:	01001104 	movi	r4,68
 2002b7c:	20002d80 	call	20002d8 <LCD_WR_DATA>
			LCD_WR_DATA(0x00);
 2002b80:	0009883a 	mov	r4,zero
 2002b84:	20002d80 	call	20002d8 <LCD_WR_DATA>
			LCD_WR_DATA(0x4F);
 2002b88:	010013c4 	movi	r4,79
 2002b8c:	20002d80 	call	20002d8 <LCD_WR_DATA>
			LCD_WR_DATA(0x00);
 2002b90:	0009883a 	mov	r4,zero
 2002b94:	20002d80 	call	20002d8 <LCD_WR_DATA>
			LCD_WR_DATA(0x61);
 2002b98:	01001844 	movi	r4,97
 2002b9c:	20002d80 	call	20002d8 <LCD_WR_DATA>
			LCD_WR_DATA(0x00);
 2002ba0:	0009883a 	mov	r4,zero
 2002ba4:	20002d80 	call	20002d8 <LCD_WR_DATA>
			LCD_WR_DATA(0x79);
 2002ba8:	01001e44 	movi	r4,121
 2002bac:	20002d80 	call	20002d8 <LCD_WR_DATA>
			LCD_WR_DATA(0x00);
 2002bb0:	0009883a 	mov	r4,zero
 2002bb4:	20002d80 	call	20002d8 <LCD_WR_DATA>
			LCD_WR_DATA(0x88);
 2002bb8:	01002204 	movi	r4,136
 2002bbc:	20002d80 	call	20002d8 <LCD_WR_DATA>
			LCD_WR_DATA(0x00);
 2002bc0:	0009883a 	mov	r4,zero
 2002bc4:	20002d80 	call	20002d8 <LCD_WR_DATA>
			LCD_WR_DATA(0x97);
 2002bc8:	010025c4 	movi	r4,151
 2002bcc:	20002d80 	call	20002d8 <LCD_WR_DATA>
			LCD_WR_DATA(0x00);
 2002bd0:	0009883a 	mov	r4,zero
 2002bd4:	20002d80 	call	20002d8 <LCD_WR_DATA>
			LCD_WR_DATA(0xA6);
 2002bd8:	01002984 	movi	r4,166
 2002bdc:	20002d80 	call	20002d8 <LCD_WR_DATA>
			LCD_WR_DATA(0x00);
 2002be0:	0009883a 	mov	r4,zero
 2002be4:	20002d80 	call	20002d8 <LCD_WR_DATA>
			LCD_WR_DATA(0xB7);
 2002be8:	01002dc4 	movi	r4,183
 2002bec:	20002d80 	call	20002d8 <LCD_WR_DATA>
			LCD_WR_DATA(0x00);
 2002bf0:	0009883a 	mov	r4,zero
 2002bf4:	20002d80 	call	20002d8 <LCD_WR_DATA>
			LCD_WR_DATA(0xC2);
 2002bf8:	01003084 	movi	r4,194
 2002bfc:	20002d80 	call	20002d8 <LCD_WR_DATA>
			LCD_WR_DATA(0x00);
 2002c00:	0009883a 	mov	r4,zero
 2002c04:	20002d80 	call	20002d8 <LCD_WR_DATA>
			LCD_WR_DATA(0xC7);
 2002c08:	010031c4 	movi	r4,199
 2002c0c:	20002d80 	call	20002d8 <LCD_WR_DATA>
			LCD_WR_DATA(0x00);
 2002c10:	0009883a 	mov	r4,zero
 2002c14:	20002d80 	call	20002d8 <LCD_WR_DATA>
			LCD_WR_DATA(0xD1);
 2002c18:	01003444 	movi	r4,209
 2002c1c:	20002d80 	call	20002d8 <LCD_WR_DATA>
			LCD_WR_DATA(0x00);
 2002c20:	0009883a 	mov	r4,zero
 2002c24:	20002d80 	call	20002d8 <LCD_WR_DATA>
			LCD_WR_DATA(0xD6);
 2002c28:	01003584 	movi	r4,214
 2002c2c:	20002d80 	call	20002d8 <LCD_WR_DATA>
			LCD_WR_DATA(0x00);
 2002c30:	0009883a 	mov	r4,zero
 2002c34:	20002d80 	call	20002d8 <LCD_WR_DATA>
			LCD_WR_DATA(0xDD);
 2002c38:	01003744 	movi	r4,221
 2002c3c:	20002d80 	call	20002d8 <LCD_WR_DATA>
			LCD_WR_DATA(0x00);
 2002c40:	0009883a 	mov	r4,zero
 2002c44:	20002d80 	call	20002d8 <LCD_WR_DATA>
			LCD_WR_DATA(0xF3);
 2002c48:	01003cc4 	movi	r4,243
 2002c4c:	20002d80 	call	20002d8 <LCD_WR_DATA>
			LCD_WR_DATA(0x00);
 2002c50:	0009883a 	mov	r4,zero
 2002c54:	20002d80 	call	20002d8 <LCD_WR_DATA>
			LCD_WR_CMD(0xE3);
 2002c58:	010038c4 	movi	r4,227
 2002c5c:	20002680 	call	2000268 <LCD_WR_CMD>
			LCD_WR_DATA(0x05);
 2002c60:	01000144 	movi	r4,5
 2002c64:	20002d80 	call	20002d8 <LCD_WR_DATA>
			LCD_WR_DATA(0x00);
 2002c68:	0009883a 	mov	r4,zero
 2002c6c:	20002d80 	call	20002d8 <LCD_WR_DATA>
			LCD_WR_DATA(0xA);
 2002c70:	01000284 	movi	r4,10
 2002c74:	20002d80 	call	20002d8 <LCD_WR_DATA>
			LCD_WR_DATA(0x00);
 2002c78:	0009883a 	mov	r4,zero
 2002c7c:	20002d80 	call	20002d8 <LCD_WR_DATA>
			LCD_WR_DATA(0x1C);
 2002c80:	01000704 	movi	r4,28
 2002c84:	20002d80 	call	20002d8 <LCD_WR_DATA>
			LCD_WR_DATA(0x00);
 2002c88:	0009883a 	mov	r4,zero
 2002c8c:	20002d80 	call	20002d8 <LCD_WR_DATA>
			LCD_WR_DATA(0x33);
 2002c90:	01000cc4 	movi	r4,51
 2002c94:	20002d80 	call	20002d8 <LCD_WR_DATA>
			LCD_WR_DATA(0x00);
 2002c98:	0009883a 	mov	r4,zero
 2002c9c:	20002d80 	call	20002d8 <LCD_WR_DATA>
			LCD_WR_DATA(0x44);
 2002ca0:	01001104 	movi	r4,68
 2002ca4:	20002d80 	call	20002d8 <LCD_WR_DATA>
			LCD_WR_DATA(0x00);
 2002ca8:	0009883a 	mov	r4,zero
 2002cac:	20002d80 	call	20002d8 <LCD_WR_DATA>
			LCD_WR_DATA(0x50);
 2002cb0:	01001404 	movi	r4,80
 2002cb4:	20002d80 	call	20002d8 <LCD_WR_DATA>
			LCD_WR_DATA(0x00);
 2002cb8:	0009883a 	mov	r4,zero
 2002cbc:	20002d80 	call	20002d8 <LCD_WR_DATA>
			LCD_WR_DATA(0x62);
 2002cc0:	01001884 	movi	r4,98
 2002cc4:	20002d80 	call	20002d8 <LCD_WR_DATA>
			LCD_WR_DATA(0x00);
 2002cc8:	0009883a 	mov	r4,zero
 2002ccc:	20002d80 	call	20002d8 <LCD_WR_DATA>
			LCD_WR_DATA(0x78);
 2002cd0:	01001e04 	movi	r4,120
 2002cd4:	20002d80 	call	20002d8 <LCD_WR_DATA>
			LCD_WR_DATA(0x00);
 2002cd8:	0009883a 	mov	r4,zero
 2002cdc:	20002d80 	call	20002d8 <LCD_WR_DATA>
			LCD_WR_DATA(0x88);
 2002ce0:	01002204 	movi	r4,136
 2002ce4:	20002d80 	call	20002d8 <LCD_WR_DATA>
			LCD_WR_DATA(0x00);
 2002ce8:	0009883a 	mov	r4,zero
 2002cec:	20002d80 	call	20002d8 <LCD_WR_DATA>
			LCD_WR_DATA(0x97);
 2002cf0:	010025c4 	movi	r4,151
 2002cf4:	20002d80 	call	20002d8 <LCD_WR_DATA>
			LCD_WR_DATA(0x00);
 2002cf8:	0009883a 	mov	r4,zero
 2002cfc:	20002d80 	call	20002d8 <LCD_WR_DATA>
			LCD_WR_DATA(0xA6);
 2002d00:	01002984 	movi	r4,166
 2002d04:	20002d80 	call	20002d8 <LCD_WR_DATA>
			LCD_WR_DATA(0x00);
 2002d08:	0009883a 	mov	r4,zero
 2002d0c:	20002d80 	call	20002d8 <LCD_WR_DATA>
			LCD_WR_DATA(0xB7);
 2002d10:	01002dc4 	movi	r4,183
 2002d14:	20002d80 	call	20002d8 <LCD_WR_DATA>
			LCD_WR_DATA(0x00);
 2002d18:	0009883a 	mov	r4,zero
 2002d1c:	20002d80 	call	20002d8 <LCD_WR_DATA>
			LCD_WR_DATA(0xC2);
 2002d20:	01003084 	movi	r4,194
 2002d24:	20002d80 	call	20002d8 <LCD_WR_DATA>
			LCD_WR_DATA(0x00);
 2002d28:	0009883a 	mov	r4,zero
 2002d2c:	20002d80 	call	20002d8 <LCD_WR_DATA>
			LCD_WR_DATA(0xC7);
 2002d30:	010031c4 	movi	r4,199
 2002d34:	20002d80 	call	20002d8 <LCD_WR_DATA>
			LCD_WR_DATA(0x00);
 2002d38:	0009883a 	mov	r4,zero
 2002d3c:	20002d80 	call	20002d8 <LCD_WR_DATA>
			LCD_WR_DATA(0xD1);
 2002d40:	01003444 	movi	r4,209
 2002d44:	20002d80 	call	20002d8 <LCD_WR_DATA>
			LCD_WR_DATA(0x00);
 2002d48:	0009883a 	mov	r4,zero
 2002d4c:	20002d80 	call	20002d8 <LCD_WR_DATA>
			LCD_WR_DATA(0xD5);
 2002d50:	01003544 	movi	r4,213
 2002d54:	20002d80 	call	20002d8 <LCD_WR_DATA>
			LCD_WR_DATA(0x00);
 2002d58:	0009883a 	mov	r4,zero
 2002d5c:	20002d80 	call	20002d8 <LCD_WR_DATA>
			LCD_WR_DATA(0xDD);
 2002d60:	01003744 	movi	r4,221
 2002d64:	20002d80 	call	20002d8 <LCD_WR_DATA>
			LCD_WR_DATA(0x00);
 2002d68:	0009883a 	mov	r4,zero
 2002d6c:	20002d80 	call	20002d8 <LCD_WR_DATA>
			LCD_WR_DATA(0xF3);
 2002d70:	01003cc4 	movi	r4,243
 2002d74:	20002d80 	call	20002d8 <LCD_WR_DATA>
			LCD_WR_DATA(0x00);
 2002d78:	0009883a 	mov	r4,zero
 2002d7c:	20002d80 	call	20002d8 <LCD_WR_DATA>

			LCD_WR_CMD(0xE4);
 2002d80:	01003904 	movi	r4,228
 2002d84:	20002680 	call	2000268 <LCD_WR_CMD>
			LCD_WR_DATA(0x01);
 2002d88:	01000044 	movi	r4,1
 2002d8c:	20002d80 	call	20002d8 <LCD_WR_DATA>
			LCD_WR_DATA(0x00);
 2002d90:	0009883a 	mov	r4,zero
 2002d94:	20002d80 	call	20002d8 <LCD_WR_DATA>
			LCD_WR_DATA(0x01);
 2002d98:	01000044 	movi	r4,1
 2002d9c:	20002d80 	call	20002d8 <LCD_WR_DATA>
			LCD_WR_DATA(0x00);
 2002da0:	0009883a 	mov	r4,zero
 2002da4:	20002d80 	call	20002d8 <LCD_WR_DATA>
			LCD_WR_DATA(0x02);
 2002da8:	01000084 	movi	r4,2
 2002dac:	20002d80 	call	20002d8 <LCD_WR_DATA>
			LCD_WR_DATA(0x00);
 2002db0:	0009883a 	mov	r4,zero
 2002db4:	20002d80 	call	20002d8 <LCD_WR_DATA>
			LCD_WR_DATA(0x2A);
 2002db8:	01000a84 	movi	r4,42
 2002dbc:	20002d80 	call	20002d8 <LCD_WR_DATA>
			LCD_WR_DATA(0x00);
 2002dc0:	0009883a 	mov	r4,zero
 2002dc4:	20002d80 	call	20002d8 <LCD_WR_DATA>
			LCD_WR_DATA(0x3C);
 2002dc8:	01000f04 	movi	r4,60
 2002dcc:	20002d80 	call	20002d8 <LCD_WR_DATA>
			LCD_WR_DATA(0x00);
 2002dd0:	0009883a 	mov	r4,zero
 2002dd4:	20002d80 	call	20002d8 <LCD_WR_DATA>
			LCD_WR_DATA(0x4B);
 2002dd8:	010012c4 	movi	r4,75
 2002ddc:	20002d80 	call	20002d8 <LCD_WR_DATA>
			LCD_WR_DATA(0x00);
 2002de0:	0009883a 	mov	r4,zero
 2002de4:	20002d80 	call	20002d8 <LCD_WR_DATA>
			LCD_WR_DATA(0x5D);
 2002de8:	01001744 	movi	r4,93
 2002dec:	20002d80 	call	20002d8 <LCD_WR_DATA>
			LCD_WR_DATA(0x00);
 2002df0:	0009883a 	mov	r4,zero
 2002df4:	20002d80 	call	20002d8 <LCD_WR_DATA>
			LCD_WR_DATA(0x74);
 2002df8:	01001d04 	movi	r4,116
 2002dfc:	20002d80 	call	20002d8 <LCD_WR_DATA>
			LCD_WR_DATA(0x00);
 2002e00:	0009883a 	mov	r4,zero
 2002e04:	20002d80 	call	20002d8 <LCD_WR_DATA>
			LCD_WR_DATA(0x84);
 2002e08:	01002104 	movi	r4,132
 2002e0c:	20002d80 	call	20002d8 <LCD_WR_DATA>
			LCD_WR_DATA(0x00);
 2002e10:	0009883a 	mov	r4,zero
 2002e14:	20002d80 	call	20002d8 <LCD_WR_DATA>
			LCD_WR_DATA(0x93);
 2002e18:	010024c4 	movi	r4,147
 2002e1c:	20002d80 	call	20002d8 <LCD_WR_DATA>
			LCD_WR_DATA(0x00);
 2002e20:	0009883a 	mov	r4,zero
 2002e24:	20002d80 	call	20002d8 <LCD_WR_DATA>
			LCD_WR_DATA(0xA2);
 2002e28:	01002884 	movi	r4,162
 2002e2c:	20002d80 	call	20002d8 <LCD_WR_DATA>
			LCD_WR_DATA(0x00);
 2002e30:	0009883a 	mov	r4,zero
 2002e34:	20002d80 	call	20002d8 <LCD_WR_DATA>
			LCD_WR_DATA(0xB3);
 2002e38:	01002cc4 	movi	r4,179
 2002e3c:	20002d80 	call	20002d8 <LCD_WR_DATA>
			LCD_WR_DATA(0x00);
 2002e40:	0009883a 	mov	r4,zero
 2002e44:	20002d80 	call	20002d8 <LCD_WR_DATA>
			LCD_WR_DATA(0xBE);
 2002e48:	01002f84 	movi	r4,190
 2002e4c:	20002d80 	call	20002d8 <LCD_WR_DATA>
			LCD_WR_DATA(0x00);
 2002e50:	0009883a 	mov	r4,zero
 2002e54:	20002d80 	call	20002d8 <LCD_WR_DATA>
			LCD_WR_DATA(0xC4);
 2002e58:	01003104 	movi	r4,196
 2002e5c:	20002d80 	call	20002d8 <LCD_WR_DATA>
			LCD_WR_DATA(0x00);
 2002e60:	0009883a 	mov	r4,zero
 2002e64:	20002d80 	call	20002d8 <LCD_WR_DATA>
			LCD_WR_DATA(0xCD);
 2002e68:	01003344 	movi	r4,205
 2002e6c:	20002d80 	call	20002d8 <LCD_WR_DATA>
			LCD_WR_DATA(0x00);
 2002e70:	0009883a 	mov	r4,zero
 2002e74:	20002d80 	call	20002d8 <LCD_WR_DATA>
			LCD_WR_DATA(0xD3);
 2002e78:	010034c4 	movi	r4,211
 2002e7c:	20002d80 	call	20002d8 <LCD_WR_DATA>
			LCD_WR_DATA(0x00);
 2002e80:	0009883a 	mov	r4,zero
 2002e84:	20002d80 	call	20002d8 <LCD_WR_DATA>
			LCD_WR_DATA(0xDD);
 2002e88:	01003744 	movi	r4,221
 2002e8c:	20002d80 	call	20002d8 <LCD_WR_DATA>
			LCD_WR_DATA(0x00);
 2002e90:	0009883a 	mov	r4,zero
 2002e94:	20002d80 	call	20002d8 <LCD_WR_DATA>
			LCD_WR_DATA(0xF3);
 2002e98:	01003cc4 	movi	r4,243
 2002e9c:	20002d80 	call	20002d8 <LCD_WR_DATA>
			LCD_WR_DATA(0x00);
 2002ea0:	0009883a 	mov	r4,zero
 2002ea4:	20002d80 	call	20002d8 <LCD_WR_DATA>
			LCD_WR_CMD(0xE5);
 2002ea8:	01003944 	movi	r4,229
 2002eac:	20002680 	call	2000268 <LCD_WR_CMD>
			LCD_WR_DATA(0x00);
 2002eb0:	0009883a 	mov	r4,zero
 2002eb4:	20002d80 	call	20002d8 <LCD_WR_DATA>
			LCD_WR_DATA(0x00);
 2002eb8:	0009883a 	mov	r4,zero
 2002ebc:	20002d80 	call	20002d8 <LCD_WR_DATA>
			LCD_WR_DATA(0x00);
 2002ec0:	0009883a 	mov	r4,zero
 2002ec4:	20002d80 	call	20002d8 <LCD_WR_DATA>
			LCD_WR_DATA(0x00);
 2002ec8:	0009883a 	mov	r4,zero
 2002ecc:	20002d80 	call	20002d8 <LCD_WR_DATA>
			LCD_WR_DATA(0x02);
 2002ed0:	01000084 	movi	r4,2
 2002ed4:	20002d80 	call	20002d8 <LCD_WR_DATA>
			LCD_WR_DATA(0x00);
 2002ed8:	0009883a 	mov	r4,zero
 2002edc:	20002d80 	call	20002d8 <LCD_WR_DATA>
			LCD_WR_DATA(0x29);
 2002ee0:	01000a44 	movi	r4,41
 2002ee4:	20002d80 	call	20002d8 <LCD_WR_DATA>
			LCD_WR_DATA(0x00);
 2002ee8:	0009883a 	mov	r4,zero
 2002eec:	20002d80 	call	20002d8 <LCD_WR_DATA>
			LCD_WR_DATA(0x3C);
 2002ef0:	01000f04 	movi	r4,60
 2002ef4:	20002d80 	call	20002d8 <LCD_WR_DATA>
			LCD_WR_DATA(0x00);
 2002ef8:	0009883a 	mov	r4,zero
 2002efc:	20002d80 	call	20002d8 <LCD_WR_DATA>
			LCD_WR_DATA(0x4B);
 2002f00:	010012c4 	movi	r4,75
 2002f04:	20002d80 	call	20002d8 <LCD_WR_DATA>
			LCD_WR_DATA(0x00);
 2002f08:	0009883a 	mov	r4,zero
 2002f0c:	20002d80 	call	20002d8 <LCD_WR_DATA>
			LCD_WR_DATA(0x5D);
 2002f10:	01001744 	movi	r4,93
 2002f14:	20002d80 	call	20002d8 <LCD_WR_DATA>
			LCD_WR_DATA(0x00);
 2002f18:	0009883a 	mov	r4,zero
 2002f1c:	20002d80 	call	20002d8 <LCD_WR_DATA>
			LCD_WR_DATA(0x74);
 2002f20:	01001d04 	movi	r4,116
 2002f24:	20002d80 	call	20002d8 <LCD_WR_DATA>
			LCD_WR_DATA(0x00);
 2002f28:	0009883a 	mov	r4,zero
 2002f2c:	20002d80 	call	20002d8 <LCD_WR_DATA>
			LCD_WR_DATA(0x84);
 2002f30:	01002104 	movi	r4,132
 2002f34:	20002d80 	call	20002d8 <LCD_WR_DATA>
			LCD_WR_DATA(0x00);
 2002f38:	0009883a 	mov	r4,zero
 2002f3c:	20002d80 	call	20002d8 <LCD_WR_DATA>
			LCD_WR_DATA(0x93);
 2002f40:	010024c4 	movi	r4,147
 2002f44:	20002d80 	call	20002d8 <LCD_WR_DATA>
			LCD_WR_DATA(0x00);
 2002f48:	0009883a 	mov	r4,zero
 2002f4c:	20002d80 	call	20002d8 <LCD_WR_DATA>
			LCD_WR_DATA(0xA2);
 2002f50:	01002884 	movi	r4,162
 2002f54:	20002d80 	call	20002d8 <LCD_WR_DATA>
			LCD_WR_DATA(0x00);
 2002f58:	0009883a 	mov	r4,zero
 2002f5c:	20002d80 	call	20002d8 <LCD_WR_DATA>
			LCD_WR_DATA(0xB3);
 2002f60:	01002cc4 	movi	r4,179
 2002f64:	20002d80 	call	20002d8 <LCD_WR_DATA>
			LCD_WR_DATA(0x00);
 2002f68:	0009883a 	mov	r4,zero
 2002f6c:	20002d80 	call	20002d8 <LCD_WR_DATA>
			LCD_WR_DATA(0xBE);
 2002f70:	01002f84 	movi	r4,190
 2002f74:	20002d80 	call	20002d8 <LCD_WR_DATA>
			LCD_WR_DATA(0x00);
 2002f78:	0009883a 	mov	r4,zero
 2002f7c:	20002d80 	call	20002d8 <LCD_WR_DATA>
			LCD_WR_DATA(0xC4);
 2002f80:	01003104 	movi	r4,196
 2002f84:	20002d80 	call	20002d8 <LCD_WR_DATA>
			LCD_WR_DATA(0x00);
 2002f88:	0009883a 	mov	r4,zero
 2002f8c:	20002d80 	call	20002d8 <LCD_WR_DATA>
			LCD_WR_DATA(0xCD);
 2002f90:	01003344 	movi	r4,205
 2002f94:	20002d80 	call	20002d8 <LCD_WR_DATA>
			LCD_WR_DATA(0x00);
 2002f98:	0009883a 	mov	r4,zero
 2002f9c:	20002d80 	call	20002d8 <LCD_WR_DATA>
			LCD_WR_DATA(0xD3);
 2002fa0:	010034c4 	movi	r4,211
 2002fa4:	20002d80 	call	20002d8 <LCD_WR_DATA>
			LCD_WR_DATA(0x00);
 2002fa8:	0009883a 	mov	r4,zero
 2002fac:	20002d80 	call	20002d8 <LCD_WR_DATA>
			LCD_WR_DATA(0xDC);
 2002fb0:	01003704 	movi	r4,220
 2002fb4:	20002d80 	call	20002d8 <LCD_WR_DATA>
			LCD_WR_DATA(0x00);
 2002fb8:	0009883a 	mov	r4,zero
 2002fbc:	20002d80 	call	20002d8 <LCD_WR_DATA>
			LCD_WR_DATA(0xF3);
 2002fc0:	01003cc4 	movi	r4,243
 2002fc4:	20002d80 	call	20002d8 <LCD_WR_DATA>
			LCD_WR_DATA(0x00);
 2002fc8:	0009883a 	mov	r4,zero
 2002fcc:	20002d80 	call	20002d8 <LCD_WR_DATA>

			LCD_WR_CMD(0xE6);
 2002fd0:	01003984 	movi	r4,230
 2002fd4:	20002680 	call	2000268 <LCD_WR_CMD>
			LCD_WR_DATA(0x11);
 2002fd8:	01000444 	movi	r4,17
 2002fdc:	20002d80 	call	20002d8 <LCD_WR_DATA>
			LCD_WR_DATA(0x00);
 2002fe0:	0009883a 	mov	r4,zero
 2002fe4:	20002d80 	call	20002d8 <LCD_WR_DATA>
			LCD_WR_DATA(0x34);
 2002fe8:	01000d04 	movi	r4,52
 2002fec:	20002d80 	call	20002d8 <LCD_WR_DATA>
			LCD_WR_DATA(0x00);
 2002ff0:	0009883a 	mov	r4,zero
 2002ff4:	20002d80 	call	20002d8 <LCD_WR_DATA>
			LCD_WR_DATA(0x56);
 2002ff8:	01001584 	movi	r4,86
 2002ffc:	20002d80 	call	20002d8 <LCD_WR_DATA>
			LCD_WR_DATA(0x00);
 2003000:	0009883a 	mov	r4,zero
 2003004:	20002d80 	call	20002d8 <LCD_WR_DATA>
			LCD_WR_DATA(0x76);
 2003008:	01001d84 	movi	r4,118
 200300c:	20002d80 	call	20002d8 <LCD_WR_DATA>
			LCD_WR_DATA(0x00);
 2003010:	0009883a 	mov	r4,zero
 2003014:	20002d80 	call	20002d8 <LCD_WR_DATA>
			LCD_WR_DATA(0x77);
 2003018:	01001dc4 	movi	r4,119
 200301c:	20002d80 	call	20002d8 <LCD_WR_DATA>
			LCD_WR_DATA(0x00);
 2003020:	0009883a 	mov	r4,zero
 2003024:	20002d80 	call	20002d8 <LCD_WR_DATA>
			LCD_WR_DATA(0x66);
 2003028:	01001984 	movi	r4,102
 200302c:	20002d80 	call	20002d8 <LCD_WR_DATA>
			LCD_WR_DATA(0x00);
 2003030:	0009883a 	mov	r4,zero
 2003034:	20002d80 	call	20002d8 <LCD_WR_DATA>
			LCD_WR_DATA(0x88);
 2003038:	01002204 	movi	r4,136
 200303c:	20002d80 	call	20002d8 <LCD_WR_DATA>
			LCD_WR_DATA(0x00);
 2003040:	0009883a 	mov	r4,zero
 2003044:	20002d80 	call	20002d8 <LCD_WR_DATA>
			LCD_WR_DATA(0x99);
 2003048:	01002644 	movi	r4,153
 200304c:	20002d80 	call	20002d8 <LCD_WR_DATA>
			LCD_WR_DATA(0x00);
 2003050:	0009883a 	mov	r4,zero
 2003054:	20002d80 	call	20002d8 <LCD_WR_DATA>
			LCD_WR_DATA(0xBB);
 2003058:	01002ec4 	movi	r4,187
 200305c:	20002d80 	call	20002d8 <LCD_WR_DATA>
			LCD_WR_DATA(0x00);
 2003060:	0009883a 	mov	r4,zero
 2003064:	20002d80 	call	20002d8 <LCD_WR_DATA>
			LCD_WR_DATA(0x99);
 2003068:	01002644 	movi	r4,153
 200306c:	20002d80 	call	20002d8 <LCD_WR_DATA>
			LCD_WR_DATA(0x00);
 2003070:	0009883a 	mov	r4,zero
 2003074:	20002d80 	call	20002d8 <LCD_WR_DATA>
			LCD_WR_DATA(0x66);
 2003078:	01001984 	movi	r4,102
 200307c:	20002d80 	call	20002d8 <LCD_WR_DATA>
			LCD_WR_DATA(0x00);
 2003080:	0009883a 	mov	r4,zero
 2003084:	20002d80 	call	20002d8 <LCD_WR_DATA>
			LCD_WR_DATA(0x55);
 2003088:	01001544 	movi	r4,85
 200308c:	20002d80 	call	20002d8 <LCD_WR_DATA>
			LCD_WR_DATA(0x00);
 2003090:	0009883a 	mov	r4,zero
 2003094:	20002d80 	call	20002d8 <LCD_WR_DATA>
			LCD_WR_DATA(0x55);
 2003098:	01001544 	movi	r4,85
 200309c:	20002d80 	call	20002d8 <LCD_WR_DATA>
			LCD_WR_DATA(0x00);
 20030a0:	0009883a 	mov	r4,zero
 20030a4:	20002d80 	call	20002d8 <LCD_WR_DATA>
			LCD_WR_DATA(0x45);
 20030a8:	01001144 	movi	r4,69
 20030ac:	20002d80 	call	20002d8 <LCD_WR_DATA>
			LCD_WR_DATA(0x00);
 20030b0:	0009883a 	mov	r4,zero
 20030b4:	20002d80 	call	20002d8 <LCD_WR_DATA>
			LCD_WR_DATA(0x43);
 20030b8:	010010c4 	movi	r4,67
 20030bc:	20002d80 	call	20002d8 <LCD_WR_DATA>
			LCD_WR_DATA(0x00);
 20030c0:	0009883a 	mov	r4,zero
 20030c4:	20002d80 	call	20002d8 <LCD_WR_DATA>
			LCD_WR_DATA(0x44);
 20030c8:	01001104 	movi	r4,68
 20030cc:	20002d80 	call	20002d8 <LCD_WR_DATA>
			LCD_WR_DATA(0x00);
 20030d0:	0009883a 	mov	r4,zero
 20030d4:	20002d80 	call	20002d8 <LCD_WR_DATA>

			LCD_WR_CMD(0xE7);
 20030d8:	010039c4 	movi	r4,231
 20030dc:	20002680 	call	2000268 <LCD_WR_CMD>
			LCD_WR_DATA(0x32);
 20030e0:	01000c84 	movi	r4,50
 20030e4:	20002d80 	call	20002d8 <LCD_WR_DATA>
			LCD_WR_DATA(0x00);
 20030e8:	0009883a 	mov	r4,zero
 20030ec:	20002d80 	call	20002d8 <LCD_WR_DATA>
			LCD_WR_DATA(0x55);
 20030f0:	01001544 	movi	r4,85
 20030f4:	20002d80 	call	20002d8 <LCD_WR_DATA>
			LCD_WR_DATA(0x00);
 20030f8:	0009883a 	mov	r4,zero
 20030fc:	20002d80 	call	20002d8 <LCD_WR_DATA>
			LCD_WR_DATA(0x76);
 2003100:	01001d84 	movi	r4,118
 2003104:	20002d80 	call	20002d8 <LCD_WR_DATA>
			LCD_WR_DATA(0x00);
 2003108:	0009883a 	mov	r4,zero
 200310c:	20002d80 	call	20002d8 <LCD_WR_DATA>
			LCD_WR_DATA(0x66);
 2003110:	01001984 	movi	r4,102
 2003114:	20002d80 	call	20002d8 <LCD_WR_DATA>
			LCD_WR_DATA(0x00);
 2003118:	0009883a 	mov	r4,zero
 200311c:	20002d80 	call	20002d8 <LCD_WR_DATA>
			LCD_WR_DATA(0x67);
 2003120:	010019c4 	movi	r4,103
 2003124:	20002d80 	call	20002d8 <LCD_WR_DATA>
			LCD_WR_DATA(0x00);
 2003128:	0009883a 	mov	r4,zero
 200312c:	20002d80 	call	20002d8 <LCD_WR_DATA>
			LCD_WR_DATA(0x67);
 2003130:	010019c4 	movi	r4,103
 2003134:	20002d80 	call	20002d8 <LCD_WR_DATA>
			LCD_WR_DATA(0x00);
 2003138:	0009883a 	mov	r4,zero
 200313c:	20002d80 	call	20002d8 <LCD_WR_DATA>
			LCD_WR_DATA(0x87);
 2003140:	010021c4 	movi	r4,135
 2003144:	20002d80 	call	20002d8 <LCD_WR_DATA>
			LCD_WR_DATA(0x00);
 2003148:	0009883a 	mov	r4,zero
 200314c:	20002d80 	call	20002d8 <LCD_WR_DATA>
			LCD_WR_DATA(0x99);
 2003150:	01002644 	movi	r4,153
 2003154:	20002d80 	call	20002d8 <LCD_WR_DATA>
			LCD_WR_DATA(0x00);
 2003158:	0009883a 	mov	r4,zero
 200315c:	20002d80 	call	20002d8 <LCD_WR_DATA>
			LCD_WR_DATA(0xBB);
 2003160:	01002ec4 	movi	r4,187
 2003164:	20002d80 	call	20002d8 <LCD_WR_DATA>
			LCD_WR_DATA(0x00);
 2003168:	0009883a 	mov	r4,zero
 200316c:	20002d80 	call	20002d8 <LCD_WR_DATA>
			LCD_WR_DATA(0x99);
 2003170:	01002644 	movi	r4,153
 2003174:	20002d80 	call	20002d8 <LCD_WR_DATA>
			LCD_WR_DATA(0x00);
 2003178:	0009883a 	mov	r4,zero
 200317c:	20002d80 	call	20002d8 <LCD_WR_DATA>
			LCD_WR_DATA(0x77);
 2003180:	01001dc4 	movi	r4,119
 2003184:	20002d80 	call	20002d8 <LCD_WR_DATA>
			LCD_WR_DATA(0x00);
 2003188:	0009883a 	mov	r4,zero
 200318c:	20002d80 	call	20002d8 <LCD_WR_DATA>
			LCD_WR_DATA(0x44);
 2003190:	01001104 	movi	r4,68
 2003194:	20002d80 	call	20002d8 <LCD_WR_DATA>
			LCD_WR_DATA(0x00);
 2003198:	0009883a 	mov	r4,zero
 200319c:	20002d80 	call	20002d8 <LCD_WR_DATA>
			LCD_WR_DATA(0x56);
 20031a0:	01001584 	movi	r4,86
 20031a4:	20002d80 	call	20002d8 <LCD_WR_DATA>
			LCD_WR_DATA(0x00);
 20031a8:	0009883a 	mov	r4,zero
 20031ac:	20002d80 	call	20002d8 <LCD_WR_DATA>
			LCD_WR_DATA(0x23);
 20031b0:	010008c4 	movi	r4,35
 20031b4:	20002d80 	call	20002d8 <LCD_WR_DATA>
			LCD_WR_DATA(0x00);
 20031b8:	0009883a 	mov	r4,zero
 20031bc:	20002d80 	call	20002d8 <LCD_WR_DATA>
			LCD_WR_DATA(0x33);
 20031c0:	01000cc4 	movi	r4,51
 20031c4:	20002d80 	call	20002d8 <LCD_WR_DATA>
			LCD_WR_DATA(0x00);
 20031c8:	0009883a 	mov	r4,zero
 20031cc:	20002d80 	call	20002d8 <LCD_WR_DATA>
			LCD_WR_DATA(0x45);
 20031d0:	01001144 	movi	r4,69
 20031d4:	20002d80 	call	20002d8 <LCD_WR_DATA>
			LCD_WR_DATA(0x00);
 20031d8:	0009883a 	mov	r4,zero
 20031dc:	20002d80 	call	20002d8 <LCD_WR_DATA>

			LCD_WR_CMD(0xE8);
 20031e0:	01003a04 	movi	r4,232
 20031e4:	20002680 	call	2000268 <LCD_WR_CMD>
			LCD_WR_DATA(0x00);
 20031e8:	0009883a 	mov	r4,zero
 20031ec:	20002d80 	call	20002d8 <LCD_WR_DATA>
			LCD_WR_DATA(0x00);
 20031f0:	0009883a 	mov	r4,zero
 20031f4:	20002d80 	call	20002d8 <LCD_WR_DATA>
			LCD_WR_DATA(0x99);
 20031f8:	01002644 	movi	r4,153
 20031fc:	20002d80 	call	20002d8 <LCD_WR_DATA>
			LCD_WR_DATA(0x00);
 2003200:	0009883a 	mov	r4,zero
 2003204:	20002d80 	call	20002d8 <LCD_WR_DATA>
			LCD_WR_DATA(0x87);
 2003208:	010021c4 	movi	r4,135
 200320c:	20002d80 	call	20002d8 <LCD_WR_DATA>
			LCD_WR_DATA(0x00);
 2003210:	0009883a 	mov	r4,zero
 2003214:	20002d80 	call	20002d8 <LCD_WR_DATA>
			LCD_WR_DATA(0x88);
 2003218:	01002204 	movi	r4,136
 200321c:	20002d80 	call	20002d8 <LCD_WR_DATA>
			LCD_WR_DATA(0x00);
 2003220:	0009883a 	mov	r4,zero
 2003224:	20002d80 	call	20002d8 <LCD_WR_DATA>
			LCD_WR_DATA(0x77);
 2003228:	01001dc4 	movi	r4,119
 200322c:	20002d80 	call	20002d8 <LCD_WR_DATA>
			LCD_WR_DATA(0x00);
 2003230:	0009883a 	mov	r4,zero
 2003234:	20002d80 	call	20002d8 <LCD_WR_DATA>
			LCD_WR_DATA(0x66);
 2003238:	01001984 	movi	r4,102
 200323c:	20002d80 	call	20002d8 <LCD_WR_DATA>
			LCD_WR_DATA(0x00);
 2003240:	0009883a 	mov	r4,zero
 2003244:	20002d80 	call	20002d8 <LCD_WR_DATA>
			LCD_WR_DATA(0x88);
 2003248:	01002204 	movi	r4,136
 200324c:	20002d80 	call	20002d8 <LCD_WR_DATA>
			LCD_WR_DATA(0x00);
 2003250:	0009883a 	mov	r4,zero
 2003254:	20002d80 	call	20002d8 <LCD_WR_DATA>
			LCD_WR_DATA(0xAA);
 2003258:	01002a84 	movi	r4,170
 200325c:	20002d80 	call	20002d8 <LCD_WR_DATA>
			LCD_WR_DATA(0x00);
 2003260:	0009883a 	mov	r4,zero
 2003264:	20002d80 	call	20002d8 <LCD_WR_DATA>
			LCD_WR_DATA(0xBB);
 2003268:	01002ec4 	movi	r4,187
 200326c:	20002d80 	call	20002d8 <LCD_WR_DATA>
			LCD_WR_DATA(0x00);
 2003270:	0009883a 	mov	r4,zero
 2003274:	20002d80 	call	20002d8 <LCD_WR_DATA>
			LCD_WR_DATA(0x99);
 2003278:	01002644 	movi	r4,153
 200327c:	20002d80 	call	20002d8 <LCD_WR_DATA>
			LCD_WR_DATA(0x00);
 2003280:	0009883a 	mov	r4,zero
 2003284:	20002d80 	call	20002d8 <LCD_WR_DATA>
			LCD_WR_DATA(0x66);
 2003288:	01001984 	movi	r4,102
 200328c:	20002d80 	call	20002d8 <LCD_WR_DATA>
			LCD_WR_DATA(0x00);
 2003290:	0009883a 	mov	r4,zero
 2003294:	20002d80 	call	20002d8 <LCD_WR_DATA>
			LCD_WR_DATA(0x55);
 2003298:	01001544 	movi	r4,85
 200329c:	20002d80 	call	20002d8 <LCD_WR_DATA>
			LCD_WR_DATA(0x00);
 20032a0:	0009883a 	mov	r4,zero
 20032a4:	20002d80 	call	20002d8 <LCD_WR_DATA>
			LCD_WR_DATA(0x55);
 20032a8:	01001544 	movi	r4,85
 20032ac:	20002d80 	call	20002d8 <LCD_WR_DATA>
			LCD_WR_DATA(0x00);
 20032b0:	0009883a 	mov	r4,zero
 20032b4:	20002d80 	call	20002d8 <LCD_WR_DATA>
			LCD_WR_DATA(0x44);
 20032b8:	01001104 	movi	r4,68
 20032bc:	20002d80 	call	20002d8 <LCD_WR_DATA>
			LCD_WR_DATA(0x00);
 20032c0:	0009883a 	mov	r4,zero
 20032c4:	20002d80 	call	20002d8 <LCD_WR_DATA>
			LCD_WR_DATA(0x44);
 20032c8:	01001104 	movi	r4,68
 20032cc:	20002d80 	call	20002d8 <LCD_WR_DATA>
			LCD_WR_DATA(0x00);
 20032d0:	0009883a 	mov	r4,zero
 20032d4:	20002d80 	call	20002d8 <LCD_WR_DATA>
			LCD_WR_DATA(0x55);
 20032d8:	01001544 	movi	r4,85
 20032dc:	20002d80 	call	20002d8 <LCD_WR_DATA>
			LCD_WR_DATA(0x00);
 20032e0:	0009883a 	mov	r4,zero
 20032e4:	20002d80 	call	20002d8 <LCD_WR_DATA>

			LCD_WR_CMD(0xE9);
 20032e8:	01003a44 	movi	r4,233
 20032ec:	20002680 	call	2000268 <LCD_WR_CMD>
			LCD_WR_DATA(0xAA);
 20032f0:	01002a84 	movi	r4,170
 20032f4:	20002d80 	call	20002d8 <LCD_WR_DATA>
			LCD_WR_DATA(0x00);
 20032f8:	0009883a 	mov	r4,zero
 20032fc:	20002d80 	call	20002d8 <LCD_WR_DATA>
			LCD_WR_DATA(0x00);
 2003300:	0009883a 	mov	r4,zero
 2003304:	20002d80 	call	20002d8 <LCD_WR_DATA>
			LCD_WR_DATA(0x00);
 2003308:	0009883a 	mov	r4,zero
 200330c:	20002d80 	call	20002d8 <LCD_WR_DATA>

			LCD_WR_CMD(0x00);
 2003310:	0009883a 	mov	r4,zero
 2003314:	20002680 	call	2000268 <LCD_WR_CMD>
			LCD_WR_DATA(0xAA);
 2003318:	01002a84 	movi	r4,170
 200331c:	20002d80 	call	20002d8 <LCD_WR_DATA>

			LCD_WR_CMD(0xCF);
 2003320:	010033c4 	movi	r4,207
 2003324:	20002680 	call	2000268 <LCD_WR_CMD>
			LCD_WR_DATA(0x00);
 2003328:	0009883a 	mov	r4,zero
 200332c:	20002d80 	call	20002d8 <LCD_WR_DATA>
			LCD_WR_DATA(0x00);
 2003330:	0009883a 	mov	r4,zero
 2003334:	20002d80 	call	20002d8 <LCD_WR_DATA>
			LCD_WR_DATA(0x00);
 2003338:	0009883a 	mov	r4,zero
 200333c:	20002d80 	call	20002d8 <LCD_WR_DATA>
			LCD_WR_DATA(0x00);
 2003340:	0009883a 	mov	r4,zero
 2003344:	20002d80 	call	20002d8 <LCD_WR_DATA>
			LCD_WR_DATA(0x00);
 2003348:	0009883a 	mov	r4,zero
 200334c:	20002d80 	call	20002d8 <LCD_WR_DATA>
			LCD_WR_DATA(0x00);
 2003350:	0009883a 	mov	r4,zero
 2003354:	20002d80 	call	20002d8 <LCD_WR_DATA>
			LCD_WR_DATA(0x00);
 2003358:	0009883a 	mov	r4,zero
 200335c:	20002d80 	call	20002d8 <LCD_WR_DATA>
			LCD_WR_DATA(0x00);
 2003360:	0009883a 	mov	r4,zero
 2003364:	20002d80 	call	20002d8 <LCD_WR_DATA>
			LCD_WR_DATA(0x00);
 2003368:	0009883a 	mov	r4,zero
 200336c:	20002d80 	call	20002d8 <LCD_WR_DATA>
			LCD_WR_DATA(0x00);
 2003370:	0009883a 	mov	r4,zero
 2003374:	20002d80 	call	20002d8 <LCD_WR_DATA>
			LCD_WR_DATA(0x00);
 2003378:	0009883a 	mov	r4,zero
 200337c:	20002d80 	call	20002d8 <LCD_WR_DATA>
			LCD_WR_DATA(0x00);
 2003380:	0009883a 	mov	r4,zero
 2003384:	20002d80 	call	20002d8 <LCD_WR_DATA>
			LCD_WR_DATA(0x00);
 2003388:	0009883a 	mov	r4,zero
 200338c:	20002d80 	call	20002d8 <LCD_WR_DATA>
			LCD_WR_DATA(0x00);
 2003390:	0009883a 	mov	r4,zero
 2003394:	20002d80 	call	20002d8 <LCD_WR_DATA>
			LCD_WR_DATA(0x00);
 2003398:	0009883a 	mov	r4,zero
 200339c:	20002d80 	call	20002d8 <LCD_WR_DATA>
			LCD_WR_DATA(0x00);
 20033a0:	0009883a 	mov	r4,zero
 20033a4:	20002d80 	call	20002d8 <LCD_WR_DATA>
			LCD_WR_DATA(0x00);
 20033a8:	0009883a 	mov	r4,zero
 20033ac:	20002d80 	call	20002d8 <LCD_WR_DATA>

			LCD_WR_CMD(0xF0);
 20033b0:	01003c04 	movi	r4,240
 20033b4:	20002680 	call	2000268 <LCD_WR_CMD>
			LCD_WR_DATA(0x00);
 20033b8:	0009883a 	mov	r4,zero
 20033bc:	20002d80 	call	20002d8 <LCD_WR_DATA>
			LCD_WR_DATA(0x50);
 20033c0:	01001404 	movi	r4,80
 20033c4:	20002d80 	call	20002d8 <LCD_WR_DATA>
			LCD_WR_DATA(0x00);
 20033c8:	0009883a 	mov	r4,zero
 20033cc:	20002d80 	call	20002d8 <LCD_WR_DATA>
			LCD_WR_DATA(0x00);
 20033d0:	0009883a 	mov	r4,zero
 20033d4:	20002d80 	call	20002d8 <LCD_WR_DATA>
			LCD_WR_DATA(0x00);
 20033d8:	0009883a 	mov	r4,zero
 20033dc:	20002d80 	call	20002d8 <LCD_WR_DATA>

			LCD_WR_CMD(0xF3);
 20033e0:	01003cc4 	movi	r4,243
 20033e4:	20002680 	call	2000268 <LCD_WR_CMD>
			LCD_WR_DATA(0x00);
 20033e8:	0009883a 	mov	r4,zero
 20033ec:	20002d80 	call	20002d8 <LCD_WR_DATA>

			LCD_WR_CMD(0xF9);
 20033f0:	01003e44 	movi	r4,249
 20033f4:	20002680 	call	2000268 <LCD_WR_CMD>
			LCD_WR_DATA(0x06);
 20033f8:	01000184 	movi	r4,6
 20033fc:	20002d80 	call	20002d8 <LCD_WR_DATA>
			LCD_WR_DATA(0x10);
 2003400:	01000404 	movi	r4,16
 2003404:	20002d80 	call	20002d8 <LCD_WR_DATA>
			LCD_WR_DATA(0x29);
 2003408:	01000a44 	movi	r4,41
 200340c:	20002d80 	call	20002d8 <LCD_WR_DATA>
			LCD_WR_DATA(0x00);
 2003410:	0009883a 	mov	r4,zero
 2003414:	20002d80 	call	20002d8 <LCD_WR_DATA>

			LCD_WR_CMD(0x3A);
 2003418:	01000e84 	movi	r4,58
 200341c:	20002680 	call	2000268 <LCD_WR_CMD>
			LCD_WR_DATA(0x55);    //66
 2003420:	01001544 	movi	r4,85
 2003424:	20002d80 	call	20002d8 <LCD_WR_DATA>

			LCD_WR_CMD(0x11);
 2003428:	01000444 	movi	r4,17
 200342c:	20002680 	call	2000268 <LCD_WR_CMD>
			delay_ms(100);
 2003430:	01001904 	movi	r4,100
 2003434:	20002000 	call	2000200 <delay_ms>
			LCD_WR_CMD(0x29);
 2003438:	01000a44 	movi	r4,41
 200343c:	20002680 	call	2000268 <LCD_WR_CMD>
			LCD_WR_CMD(0x35);
 2003440:	01000d44 	movi	r4,53
 2003444:	20002680 	call	2000268 <LCD_WR_CMD>
			LCD_WR_DATA(0x00);
 2003448:	0009883a 	mov	r4,zero
 200344c:	20002d80 	call	20002d8 <LCD_WR_DATA>

			LCD_WR_CMD(0x51);
 2003450:	01001444 	movi	r4,81
 2003454:	20002680 	call	2000268 <LCD_WR_CMD>
			LCD_WR_DATA(0xFF);
 2003458:	01003fc4 	movi	r4,255
 200345c:	20002d80 	call	20002d8 <LCD_WR_DATA>
			LCD_WR_CMD(0x53);
 2003460:	010014c4 	movi	r4,83
 2003464:	20002680 	call	2000268 <LCD_WR_CMD>
			LCD_WR_DATA(0x2C);
 2003468:	01000b04 	movi	r4,44
 200346c:	20002d80 	call	20002d8 <LCD_WR_DATA>
			LCD_WR_CMD(0x55);
 2003470:	01001544 	movi	r4,85
 2003474:	20002680 	call	2000268 <LCD_WR_CMD>
			LCD_WR_DATA(0x82);
 2003478:	01002084 	movi	r4,130
 200347c:	20002d80 	call	20002d8 <LCD_WR_DATA>
			LCD_WR_CMD(0x2c);
 2003480:	01000b04 	movi	r4,44
 2003484:	20002680 	call	2000268 <LCD_WR_CMD>
 2003488:	00050006 	br	200488c <MY_LCD_Init+0x2e10>
		}else if(lcddev.id==0x5510) {
 200348c:	00808074 	movhi	r2,513
 2003490:	10ac4e04 	addi	r2,r2,-20168
 2003494:	10800217 	ldw	r2,8(r2)
 2003498:	10954418 	cmpnei	r2,r2,21776
 200349c:	10047e1e 	bne	r2,zero,2004698 <MY_LCD_Init+0x2c1c>
			// LV2 Page1 enable
			LCD_WriteReg(0xF000,0x55);
 20034a0:	013c0014 	movui	r4,61440
 20034a4:	01401544 	movi	r5,85
 20034a8:	20003dc0 	call	20003dc <LCD_WriteReg>
			LCD_WriteReg(0xF001,0xAA);
 20034ac:	013c0054 	movui	r4,61441
 20034b0:	01402a84 	movi	r5,170
 20034b4:	20003dc0 	call	20003dc <LCD_WriteReg>
			LCD_WriteReg(0xF002,0x52);
 20034b8:	013c0094 	movui	r4,61442
 20034bc:	01401484 	movi	r5,82
 20034c0:	20003dc0 	call	20003dc <LCD_WriteReg>
			LCD_WriteReg(0xF003,0x08);
 20034c4:	013c00d4 	movui	r4,61443
 20034c8:	01400204 	movi	r5,8
 20034cc:	20003dc0 	call	20003dc <LCD_WriteReg>
			LCD_WriteReg(0xF004,0x01);
 20034d0:	013c0114 	movui	r4,61444
 20034d4:	01400044 	movi	r5,1
 20034d8:	20003dc0 	call	20003dc <LCD_WriteReg>
			//AVDD Set AVDD 5.2V
			LCD_WriteReg(0xB000,0x0D);
 20034dc:	012c0014 	movui	r4,45056
 20034e0:	01400344 	movi	r5,13
 20034e4:	20003dc0 	call	20003dc <LCD_WriteReg>
			LCD_WriteReg(0xB001,0x0D);
 20034e8:	012c0054 	movui	r4,45057
 20034ec:	01400344 	movi	r5,13
 20034f0:	20003dc0 	call	20003dc <LCD_WriteReg>
			LCD_WriteReg(0xB002,0x0D);
 20034f4:	012c0094 	movui	r4,45058
 20034f8:	01400344 	movi	r5,13
 20034fc:	20003dc0 	call	20003dc <LCD_WriteReg>
			//AVDD ratio
			LCD_WriteReg(0xB600,0x34);
 2003500:	012d8014 	movui	r4,46592
 2003504:	01400d04 	movi	r5,52
 2003508:	20003dc0 	call	20003dc <LCD_WriteReg>
			LCD_WriteReg(0xB601,0x34);
 200350c:	012d8054 	movui	r4,46593
 2003510:	01400d04 	movi	r5,52
 2003514:	20003dc0 	call	20003dc <LCD_WriteReg>
			LCD_WriteReg(0xB602,0x34);
 2003518:	012d8094 	movui	r4,46594
 200351c:	01400d04 	movi	r5,52
 2003520:	20003dc0 	call	20003dc <LCD_WriteReg>
			//AVEE -5.2V
			LCD_WriteReg(0xB100,0x0D);
 2003524:	012c4014 	movui	r4,45312
 2003528:	01400344 	movi	r5,13
 200352c:	20003dc0 	call	20003dc <LCD_WriteReg>
			LCD_WriteReg(0xB101,0x0D);
 2003530:	012c4054 	movui	r4,45313
 2003534:	01400344 	movi	r5,13
 2003538:	20003dc0 	call	20003dc <LCD_WriteReg>
			LCD_WriteReg(0xB102,0x0D);
 200353c:	012c4094 	movui	r4,45314
 2003540:	01400344 	movi	r5,13
 2003544:	20003dc0 	call	20003dc <LCD_WriteReg>
			//AVEE ratio
			LCD_WriteReg(0xB700,0x34);
 2003548:	012dc014 	movui	r4,46848
 200354c:	01400d04 	movi	r5,52
 2003550:	20003dc0 	call	20003dc <LCD_WriteReg>
			LCD_WriteReg(0xB701,0x34);
 2003554:	012dc054 	movui	r4,46849
 2003558:	01400d04 	movi	r5,52
 200355c:	20003dc0 	call	20003dc <LCD_WriteReg>
			LCD_WriteReg(0xB702,0x34);
 2003560:	012dc094 	movui	r4,46850
 2003564:	01400d04 	movi	r5,52
 2003568:	20003dc0 	call	20003dc <LCD_WriteReg>
			//VCL -2.5V
			LCD_WriteReg(0xB200,0x00);
 200356c:	012c8014 	movui	r4,45568
 2003570:	000b883a 	mov	r5,zero
 2003574:	20003dc0 	call	20003dc <LCD_WriteReg>
			LCD_WriteReg(0xB201,0x00);
 2003578:	012c8054 	movui	r4,45569
 200357c:	000b883a 	mov	r5,zero
 2003580:	20003dc0 	call	20003dc <LCD_WriteReg>
			LCD_WriteReg(0xB202,0x00);
 2003584:	012c8094 	movui	r4,45570
 2003588:	000b883a 	mov	r5,zero
 200358c:	20003dc0 	call	20003dc <LCD_WriteReg>
			//VCL ratio
			LCD_WriteReg(0xB800,0x24);
 2003590:	012e0014 	movui	r4,47104
 2003594:	01400904 	movi	r5,36
 2003598:	20003dc0 	call	20003dc <LCD_WriteReg>
			LCD_WriteReg(0xB801,0x24);
 200359c:	012e0054 	movui	r4,47105
 20035a0:	01400904 	movi	r5,36
 20035a4:	20003dc0 	call	20003dc <LCD_WriteReg>
			LCD_WriteReg(0xB802,0x24);
 20035a8:	012e0094 	movui	r4,47106
 20035ac:	01400904 	movi	r5,36
 20035b0:	20003dc0 	call	20003dc <LCD_WriteReg>
			//VGH 15V (Free pump)
			LCD_WriteReg(0xBF00,0x01);
 20035b4:	012fc014 	movui	r4,48896
 20035b8:	01400044 	movi	r5,1
 20035bc:	20003dc0 	call	20003dc <LCD_WriteReg>
			LCD_WriteReg(0xB300,0x0F);
 20035c0:	012cc014 	movui	r4,45824
 20035c4:	014003c4 	movi	r5,15
 20035c8:	20003dc0 	call	20003dc <LCD_WriteReg>
			LCD_WriteReg(0xB301,0x0F);
 20035cc:	012cc054 	movui	r4,45825
 20035d0:	014003c4 	movi	r5,15
 20035d4:	20003dc0 	call	20003dc <LCD_WriteReg>
			LCD_WriteReg(0xB302,0x0F);
 20035d8:	012cc094 	movui	r4,45826
 20035dc:	014003c4 	movi	r5,15
 20035e0:	20003dc0 	call	20003dc <LCD_WriteReg>
			//VGH ratio
			LCD_WriteReg(0xB900,0x34);
 20035e4:	012e4014 	movui	r4,47360
 20035e8:	01400d04 	movi	r5,52
 20035ec:	20003dc0 	call	20003dc <LCD_WriteReg>
			LCD_WriteReg(0xB901,0x34);
 20035f0:	012e4054 	movui	r4,47361
 20035f4:	01400d04 	movi	r5,52
 20035f8:	20003dc0 	call	20003dc <LCD_WriteReg>
			LCD_WriteReg(0xB902,0x34);
 20035fc:	012e4094 	movui	r4,47362
 2003600:	01400d04 	movi	r5,52
 2003604:	20003dc0 	call	20003dc <LCD_WriteReg>
			//VGL_REG -10V
			LCD_WriteReg(0xB500,0x08);
 2003608:	012d4014 	movui	r4,46336
 200360c:	01400204 	movi	r5,8
 2003610:	20003dc0 	call	20003dc <LCD_WriteReg>
			LCD_WriteReg(0xB501,0x08);
 2003614:	012d4054 	movui	r4,46337
 2003618:	01400204 	movi	r5,8
 200361c:	20003dc0 	call	20003dc <LCD_WriteReg>
			LCD_WriteReg(0xB502,0x08);
 2003620:	012d4094 	movui	r4,46338
 2003624:	01400204 	movi	r5,8
 2003628:	20003dc0 	call	20003dc <LCD_WriteReg>
			LCD_WriteReg(0xC200,0x03);
 200362c:	01308014 	movui	r4,49664
 2003630:	014000c4 	movi	r5,3
 2003634:	20003dc0 	call	20003dc <LCD_WriteReg>
			//VGLX ratio
			LCD_WriteReg(0xBA00,0x24);
 2003638:	012e8014 	movui	r4,47616
 200363c:	01400904 	movi	r5,36
 2003640:	20003dc0 	call	20003dc <LCD_WriteReg>
			LCD_WriteReg(0xBA01,0x24);
 2003644:	012e8054 	movui	r4,47617
 2003648:	01400904 	movi	r5,36
 200364c:	20003dc0 	call	20003dc <LCD_WriteReg>
			LCD_WriteReg(0xBA02,0x24);
 2003650:	012e8094 	movui	r4,47618
 2003654:	01400904 	movi	r5,36
 2003658:	20003dc0 	call	20003dc <LCD_WriteReg>
			//VGMP/VGSP 4.5V/0V
			LCD_WriteReg(0xBC00,0x00);
 200365c:	012f0014 	movui	r4,48128
 2003660:	000b883a 	mov	r5,zero
 2003664:	20003dc0 	call	20003dc <LCD_WriteReg>
			LCD_WriteReg(0xBC01,0x78);
 2003668:	012f0054 	movui	r4,48129
 200366c:	01401e04 	movi	r5,120
 2003670:	20003dc0 	call	20003dc <LCD_WriteReg>
			LCD_WriteReg(0xBC02,0x00);
 2003674:	012f0094 	movui	r4,48130
 2003678:	000b883a 	mov	r5,zero
 200367c:	20003dc0 	call	20003dc <LCD_WriteReg>
			//VGMN/VGSN -4.5V/0V
			LCD_WriteReg(0xBD00,0x00);
 2003680:	012f4014 	movui	r4,48384
 2003684:	000b883a 	mov	r5,zero
 2003688:	20003dc0 	call	20003dc <LCD_WriteReg>
			LCD_WriteReg(0xBD01,0x78);
 200368c:	012f4054 	movui	r4,48385
 2003690:	01401e04 	movi	r5,120
 2003694:	20003dc0 	call	20003dc <LCD_WriteReg>
			LCD_WriteReg(0xBD02,0x00);
 2003698:	012f4094 	movui	r4,48386
 200369c:	000b883a 	mov	r5,zero
 20036a0:	20003dc0 	call	20003dc <LCD_WriteReg>
			//VCOM -2.0375V
			LCD_WriteReg(0xBE00,0x00);
 20036a4:	012f8014 	movui	r4,48640
 20036a8:	000b883a 	mov	r5,zero
 20036ac:	20003dc0 	call	20003dc <LCD_WriteReg>
			LCD_WriteReg(0xBE01,0x64);
 20036b0:	012f8054 	movui	r4,48641
 20036b4:	01401904 	movi	r5,100
 20036b8:	20003dc0 	call	20003dc <LCD_WriteReg>
			//Gamma Setting
			LCD_WriteReg(0xD100,0x00);
 20036bc:	01344014 	movui	r4,53504
 20036c0:	000b883a 	mov	r5,zero
 20036c4:	20003dc0 	call	20003dc <LCD_WriteReg>
			LCD_WriteReg(0xD101,0x33);
 20036c8:	01344054 	movui	r4,53505
 20036cc:	01400cc4 	movi	r5,51
 20036d0:	20003dc0 	call	20003dc <LCD_WriteReg>
			LCD_WriteReg(0xD102,0x00);
 20036d4:	01344094 	movui	r4,53506
 20036d8:	000b883a 	mov	r5,zero
 20036dc:	20003dc0 	call	20003dc <LCD_WriteReg>
			LCD_WriteReg(0xD103,0x34);
 20036e0:	013440d4 	movui	r4,53507
 20036e4:	01400d04 	movi	r5,52
 20036e8:	20003dc0 	call	20003dc <LCD_WriteReg>
			LCD_WriteReg(0xD104,0x00);
 20036ec:	01344114 	movui	r4,53508
 20036f0:	000b883a 	mov	r5,zero
 20036f4:	20003dc0 	call	20003dc <LCD_WriteReg>
			LCD_WriteReg(0xD105,0x3A);
 20036f8:	01344154 	movui	r4,53509
 20036fc:	01400e84 	movi	r5,58
 2003700:	20003dc0 	call	20003dc <LCD_WriteReg>
			LCD_WriteReg(0xD106,0x00);
 2003704:	01344194 	movui	r4,53510
 2003708:	000b883a 	mov	r5,zero
 200370c:	20003dc0 	call	20003dc <LCD_WriteReg>
			LCD_WriteReg(0xD107,0x4A);
 2003710:	013441d4 	movui	r4,53511
 2003714:	01401284 	movi	r5,74
 2003718:	20003dc0 	call	20003dc <LCD_WriteReg>
			LCD_WriteReg(0xD108,0x00);
 200371c:	01344214 	movui	r4,53512
 2003720:	000b883a 	mov	r5,zero
 2003724:	20003dc0 	call	20003dc <LCD_WriteReg>
			LCD_WriteReg(0xD109,0x5C);
 2003728:	01344254 	movui	r4,53513
 200372c:	01401704 	movi	r5,92
 2003730:	20003dc0 	call	20003dc <LCD_WriteReg>
			LCD_WriteReg(0xD10A,0x00);
 2003734:	01344294 	movui	r4,53514
 2003738:	000b883a 	mov	r5,zero
 200373c:	20003dc0 	call	20003dc <LCD_WriteReg>
			LCD_WriteReg(0xD10B,0x81);
 2003740:	013442d4 	movui	r4,53515
 2003744:	01402044 	movi	r5,129
 2003748:	20003dc0 	call	20003dc <LCD_WriteReg>
			LCD_WriteReg(0xD10C,0x00);
 200374c:	01344314 	movui	r4,53516
 2003750:	000b883a 	mov	r5,zero
 2003754:	20003dc0 	call	20003dc <LCD_WriteReg>
			LCD_WriteReg(0xD10D,0xA6);
 2003758:	01344354 	movui	r4,53517
 200375c:	01402984 	movi	r5,166
 2003760:	20003dc0 	call	20003dc <LCD_WriteReg>
			LCD_WriteReg(0xD10E,0x00);
 2003764:	01344394 	movui	r4,53518
 2003768:	000b883a 	mov	r5,zero
 200376c:	20003dc0 	call	20003dc <LCD_WriteReg>
			LCD_WriteReg(0xD10F,0xE5);
 2003770:	013443d4 	movui	r4,53519
 2003774:	01403944 	movi	r5,229
 2003778:	20003dc0 	call	20003dc <LCD_WriteReg>
			LCD_WriteReg(0xD110,0x01);
 200377c:	01344414 	movui	r4,53520
 2003780:	01400044 	movi	r5,1
 2003784:	20003dc0 	call	20003dc <LCD_WriteReg>
			LCD_WriteReg(0xD111,0x13);
 2003788:	01344454 	movui	r4,53521
 200378c:	014004c4 	movi	r5,19
 2003790:	20003dc0 	call	20003dc <LCD_WriteReg>
			LCD_WriteReg(0xD112,0x01);
 2003794:	01344494 	movui	r4,53522
 2003798:	01400044 	movi	r5,1
 200379c:	20003dc0 	call	20003dc <LCD_WriteReg>
			LCD_WriteReg(0xD113,0x54);
 20037a0:	013444d4 	movui	r4,53523
 20037a4:	01401504 	movi	r5,84
 20037a8:	20003dc0 	call	20003dc <LCD_WriteReg>
			LCD_WriteReg(0xD114,0x01);
 20037ac:	01344514 	movui	r4,53524
 20037b0:	01400044 	movi	r5,1
 20037b4:	20003dc0 	call	20003dc <LCD_WriteReg>
			LCD_WriteReg(0xD115,0x82);
 20037b8:	01344554 	movui	r4,53525
 20037bc:	01402084 	movi	r5,130
 20037c0:	20003dc0 	call	20003dc <LCD_WriteReg>
			LCD_WriteReg(0xD116,0x01);
 20037c4:	01344594 	movui	r4,53526
 20037c8:	01400044 	movi	r5,1
 20037cc:	20003dc0 	call	20003dc <LCD_WriteReg>
			LCD_WriteReg(0xD117,0xCA);
 20037d0:	013445d4 	movui	r4,53527
 20037d4:	01403284 	movi	r5,202
 20037d8:	20003dc0 	call	20003dc <LCD_WriteReg>
			LCD_WriteReg(0xD118,0x02);
 20037dc:	01344614 	movui	r4,53528
 20037e0:	01400084 	movi	r5,2
 20037e4:	20003dc0 	call	20003dc <LCD_WriteReg>
			LCD_WriteReg(0xD119,0x00);
 20037e8:	01344654 	movui	r4,53529
 20037ec:	000b883a 	mov	r5,zero
 20037f0:	20003dc0 	call	20003dc <LCD_WriteReg>
			LCD_WriteReg(0xD11A,0x02);
 20037f4:	01344694 	movui	r4,53530
 20037f8:	01400084 	movi	r5,2
 20037fc:	20003dc0 	call	20003dc <LCD_WriteReg>
			LCD_WriteReg(0xD11B,0x01);
 2003800:	013446d4 	movui	r4,53531
 2003804:	01400044 	movi	r5,1
 2003808:	20003dc0 	call	20003dc <LCD_WriteReg>
			LCD_WriteReg(0xD11C,0x02);
 200380c:	01344714 	movui	r4,53532
 2003810:	01400084 	movi	r5,2
 2003814:	20003dc0 	call	20003dc <LCD_WriteReg>
			LCD_WriteReg(0xD11D,0x34);
 2003818:	01344754 	movui	r4,53533
 200381c:	01400d04 	movi	r5,52
 2003820:	20003dc0 	call	20003dc <LCD_WriteReg>
			LCD_WriteReg(0xD11E,0x02);
 2003824:	01344794 	movui	r4,53534
 2003828:	01400084 	movi	r5,2
 200382c:	20003dc0 	call	20003dc <LCD_WriteReg>
			LCD_WriteReg(0xD11F,0x67);
 2003830:	013447d4 	movui	r4,53535
 2003834:	014019c4 	movi	r5,103
 2003838:	20003dc0 	call	20003dc <LCD_WriteReg>
			LCD_WriteReg(0xD120,0x02);
 200383c:	01344814 	movui	r4,53536
 2003840:	01400084 	movi	r5,2
 2003844:	20003dc0 	call	20003dc <LCD_WriteReg>
			LCD_WriteReg(0xD121,0x84);
 2003848:	01344854 	movui	r4,53537
 200384c:	01402104 	movi	r5,132
 2003850:	20003dc0 	call	20003dc <LCD_WriteReg>
			LCD_WriteReg(0xD122,0x02);
 2003854:	01344894 	movui	r4,53538
 2003858:	01400084 	movi	r5,2
 200385c:	20003dc0 	call	20003dc <LCD_WriteReg>
			LCD_WriteReg(0xD123,0xA4);
 2003860:	013448d4 	movui	r4,53539
 2003864:	01402904 	movi	r5,164
 2003868:	20003dc0 	call	20003dc <LCD_WriteReg>
			LCD_WriteReg(0xD124,0x02);
 200386c:	01344914 	movui	r4,53540
 2003870:	01400084 	movi	r5,2
 2003874:	20003dc0 	call	20003dc <LCD_WriteReg>
			LCD_WriteReg(0xD125,0xB7);
 2003878:	01344954 	movui	r4,53541
 200387c:	01402dc4 	movi	r5,183
 2003880:	20003dc0 	call	20003dc <LCD_WriteReg>
			LCD_WriteReg(0xD126,0x02);
 2003884:	01344994 	movui	r4,53542
 2003888:	01400084 	movi	r5,2
 200388c:	20003dc0 	call	20003dc <LCD_WriteReg>
			LCD_WriteReg(0xD127,0xCF);
 2003890:	013449d4 	movui	r4,53543
 2003894:	014033c4 	movi	r5,207
 2003898:	20003dc0 	call	20003dc <LCD_WriteReg>
			LCD_WriteReg(0xD128,0x02);
 200389c:	01344a14 	movui	r4,53544
 20038a0:	01400084 	movi	r5,2
 20038a4:	20003dc0 	call	20003dc <LCD_WriteReg>
			LCD_WriteReg(0xD129,0xDE);
 20038a8:	01344a54 	movui	r4,53545
 20038ac:	01403784 	movi	r5,222
 20038b0:	20003dc0 	call	20003dc <LCD_WriteReg>
			LCD_WriteReg(0xD12A,0x02);
 20038b4:	01344a94 	movui	r4,53546
 20038b8:	01400084 	movi	r5,2
 20038bc:	20003dc0 	call	20003dc <LCD_WriteReg>
			LCD_WriteReg(0xD12B,0xF2);
 20038c0:	01344ad4 	movui	r4,53547
 20038c4:	01403c84 	movi	r5,242
 20038c8:	20003dc0 	call	20003dc <LCD_WriteReg>
			LCD_WriteReg(0xD12C,0x02);
 20038cc:	01344b14 	movui	r4,53548
 20038d0:	01400084 	movi	r5,2
 20038d4:	20003dc0 	call	20003dc <LCD_WriteReg>
			LCD_WriteReg(0xD12D,0xFE);
 20038d8:	01344b54 	movui	r4,53549
 20038dc:	01403f84 	movi	r5,254
 20038e0:	20003dc0 	call	20003dc <LCD_WriteReg>
			LCD_WriteReg(0xD12E,0x03);
 20038e4:	01344b94 	movui	r4,53550
 20038e8:	014000c4 	movi	r5,3
 20038ec:	20003dc0 	call	20003dc <LCD_WriteReg>
			LCD_WriteReg(0xD12F,0x10);
 20038f0:	01344bd4 	movui	r4,53551
 20038f4:	01400404 	movi	r5,16
 20038f8:	20003dc0 	call	20003dc <LCD_WriteReg>
			LCD_WriteReg(0xD130,0x03);
 20038fc:	01344c14 	movui	r4,53552
 2003900:	014000c4 	movi	r5,3
 2003904:	20003dc0 	call	20003dc <LCD_WriteReg>
			LCD_WriteReg(0xD131,0x33);
 2003908:	01344c54 	movui	r4,53553
 200390c:	01400cc4 	movi	r5,51
 2003910:	20003dc0 	call	20003dc <LCD_WriteReg>
			LCD_WriteReg(0xD132,0x03);
 2003914:	01344c94 	movui	r4,53554
 2003918:	014000c4 	movi	r5,3
 200391c:	20003dc0 	call	20003dc <LCD_WriteReg>
			LCD_WriteReg(0xD133,0x6D);
 2003920:	01344cd4 	movui	r4,53555
 2003924:	01401b44 	movi	r5,109
 2003928:	20003dc0 	call	20003dc <LCD_WriteReg>
			LCD_WriteReg(0xD200,0x00);
 200392c:	01348014 	movui	r4,53760
 2003930:	000b883a 	mov	r5,zero
 2003934:	20003dc0 	call	20003dc <LCD_WriteReg>
			LCD_WriteReg(0xD201,0x33);
 2003938:	01348054 	movui	r4,53761
 200393c:	01400cc4 	movi	r5,51
 2003940:	20003dc0 	call	20003dc <LCD_WriteReg>
			LCD_WriteReg(0xD202,0x00);
 2003944:	01348094 	movui	r4,53762
 2003948:	000b883a 	mov	r5,zero
 200394c:	20003dc0 	call	20003dc <LCD_WriteReg>
			LCD_WriteReg(0xD203,0x34);
 2003950:	013480d4 	movui	r4,53763
 2003954:	01400d04 	movi	r5,52
 2003958:	20003dc0 	call	20003dc <LCD_WriteReg>
			LCD_WriteReg(0xD204,0x00);
 200395c:	01348114 	movui	r4,53764
 2003960:	000b883a 	mov	r5,zero
 2003964:	20003dc0 	call	20003dc <LCD_WriteReg>
			LCD_WriteReg(0xD205,0x3A);
 2003968:	01348154 	movui	r4,53765
 200396c:	01400e84 	movi	r5,58
 2003970:	20003dc0 	call	20003dc <LCD_WriteReg>
			LCD_WriteReg(0xD206,0x00);
 2003974:	01348194 	movui	r4,53766
 2003978:	000b883a 	mov	r5,zero
 200397c:	20003dc0 	call	20003dc <LCD_WriteReg>
			LCD_WriteReg(0xD207,0x4A);
 2003980:	013481d4 	movui	r4,53767
 2003984:	01401284 	movi	r5,74
 2003988:	20003dc0 	call	20003dc <LCD_WriteReg>
			LCD_WriteReg(0xD208,0x00);
 200398c:	01348214 	movui	r4,53768
 2003990:	000b883a 	mov	r5,zero
 2003994:	20003dc0 	call	20003dc <LCD_WriteReg>
			LCD_WriteReg(0xD209,0x5C);
 2003998:	01348254 	movui	r4,53769
 200399c:	01401704 	movi	r5,92
 20039a0:	20003dc0 	call	20003dc <LCD_WriteReg>
			LCD_WriteReg(0xD20A,0x00);
 20039a4:	01348294 	movui	r4,53770
 20039a8:	000b883a 	mov	r5,zero
 20039ac:	20003dc0 	call	20003dc <LCD_WriteReg>

			LCD_WriteReg(0xD20B,0x81);
 20039b0:	013482d4 	movui	r4,53771
 20039b4:	01402044 	movi	r5,129
 20039b8:	20003dc0 	call	20003dc <LCD_WriteReg>
			LCD_WriteReg(0xD20C,0x00);
 20039bc:	01348314 	movui	r4,53772
 20039c0:	000b883a 	mov	r5,zero
 20039c4:	20003dc0 	call	20003dc <LCD_WriteReg>
			LCD_WriteReg(0xD20D,0xA6);
 20039c8:	01348354 	movui	r4,53773
 20039cc:	01402984 	movi	r5,166
 20039d0:	20003dc0 	call	20003dc <LCD_WriteReg>
			LCD_WriteReg(0xD20E,0x00);
 20039d4:	01348394 	movui	r4,53774
 20039d8:	000b883a 	mov	r5,zero
 20039dc:	20003dc0 	call	20003dc <LCD_WriteReg>
			LCD_WriteReg(0xD20F,0xE5);
 20039e0:	013483d4 	movui	r4,53775
 20039e4:	01403944 	movi	r5,229
 20039e8:	20003dc0 	call	20003dc <LCD_WriteReg>
			LCD_WriteReg(0xD210,0x01);
 20039ec:	01348414 	movui	r4,53776
 20039f0:	01400044 	movi	r5,1
 20039f4:	20003dc0 	call	20003dc <LCD_WriteReg>
			LCD_WriteReg(0xD211,0x13);
 20039f8:	01348454 	movui	r4,53777
 20039fc:	014004c4 	movi	r5,19
 2003a00:	20003dc0 	call	20003dc <LCD_WriteReg>
			LCD_WriteReg(0xD212,0x01);
 2003a04:	01348494 	movui	r4,53778
 2003a08:	01400044 	movi	r5,1
 2003a0c:	20003dc0 	call	20003dc <LCD_WriteReg>
			LCD_WriteReg(0xD213,0x54);
 2003a10:	013484d4 	movui	r4,53779
 2003a14:	01401504 	movi	r5,84
 2003a18:	20003dc0 	call	20003dc <LCD_WriteReg>
			LCD_WriteReg(0xD214,0x01);
 2003a1c:	01348514 	movui	r4,53780
 2003a20:	01400044 	movi	r5,1
 2003a24:	20003dc0 	call	20003dc <LCD_WriteReg>
			LCD_WriteReg(0xD215,0x82);
 2003a28:	01348554 	movui	r4,53781
 2003a2c:	01402084 	movi	r5,130
 2003a30:	20003dc0 	call	20003dc <LCD_WriteReg>
			LCD_WriteReg(0xD216,0x01);
 2003a34:	01348594 	movui	r4,53782
 2003a38:	01400044 	movi	r5,1
 2003a3c:	20003dc0 	call	20003dc <LCD_WriteReg>
			LCD_WriteReg(0xD217,0xCA);
 2003a40:	013485d4 	movui	r4,53783
 2003a44:	01403284 	movi	r5,202
 2003a48:	20003dc0 	call	20003dc <LCD_WriteReg>
			LCD_WriteReg(0xD218,0x02);
 2003a4c:	01348614 	movui	r4,53784
 2003a50:	01400084 	movi	r5,2
 2003a54:	20003dc0 	call	20003dc <LCD_WriteReg>
			LCD_WriteReg(0xD219,0x00);
 2003a58:	01348654 	movui	r4,53785
 2003a5c:	000b883a 	mov	r5,zero
 2003a60:	20003dc0 	call	20003dc <LCD_WriteReg>
			LCD_WriteReg(0xD21A,0x02);
 2003a64:	01348694 	movui	r4,53786
 2003a68:	01400084 	movi	r5,2
 2003a6c:	20003dc0 	call	20003dc <LCD_WriteReg>
			LCD_WriteReg(0xD21B,0x01);
 2003a70:	013486d4 	movui	r4,53787
 2003a74:	01400044 	movi	r5,1
 2003a78:	20003dc0 	call	20003dc <LCD_WriteReg>
			LCD_WriteReg(0xD21C,0x02);
 2003a7c:	01348714 	movui	r4,53788
 2003a80:	01400084 	movi	r5,2
 2003a84:	20003dc0 	call	20003dc <LCD_WriteReg>
			LCD_WriteReg(0xD21D,0x34);
 2003a88:	01348754 	movui	r4,53789
 2003a8c:	01400d04 	movi	r5,52
 2003a90:	20003dc0 	call	20003dc <LCD_WriteReg>
			LCD_WriteReg(0xD21E,0x02);
 2003a94:	01348794 	movui	r4,53790
 2003a98:	01400084 	movi	r5,2
 2003a9c:	20003dc0 	call	20003dc <LCD_WriteReg>
			LCD_WriteReg(0xD21F,0x67);
 2003aa0:	013487d4 	movui	r4,53791
 2003aa4:	014019c4 	movi	r5,103
 2003aa8:	20003dc0 	call	20003dc <LCD_WriteReg>
			LCD_WriteReg(0xD220,0x02);
 2003aac:	01348814 	movui	r4,53792
 2003ab0:	01400084 	movi	r5,2
 2003ab4:	20003dc0 	call	20003dc <LCD_WriteReg>
			LCD_WriteReg(0xD221,0x84);
 2003ab8:	01348854 	movui	r4,53793
 2003abc:	01402104 	movi	r5,132
 2003ac0:	20003dc0 	call	20003dc <LCD_WriteReg>
			LCD_WriteReg(0xD222,0x02);
 2003ac4:	01348894 	movui	r4,53794
 2003ac8:	01400084 	movi	r5,2
 2003acc:	20003dc0 	call	20003dc <LCD_WriteReg>
			LCD_WriteReg(0xD223,0xA4);
 2003ad0:	013488d4 	movui	r4,53795
 2003ad4:	01402904 	movi	r5,164
 2003ad8:	20003dc0 	call	20003dc <LCD_WriteReg>
			LCD_WriteReg(0xD224,0x02);
 2003adc:	01348914 	movui	r4,53796
 2003ae0:	01400084 	movi	r5,2
 2003ae4:	20003dc0 	call	20003dc <LCD_WriteReg>
			LCD_WriteReg(0xD225,0xB7);
 2003ae8:	01348954 	movui	r4,53797
 2003aec:	01402dc4 	movi	r5,183
 2003af0:	20003dc0 	call	20003dc <LCD_WriteReg>
			LCD_WriteReg(0xD226,0x02);
 2003af4:	01348994 	movui	r4,53798
 2003af8:	01400084 	movi	r5,2
 2003afc:	20003dc0 	call	20003dc <LCD_WriteReg>
			LCD_WriteReg(0xD227,0xCF);
 2003b00:	013489d4 	movui	r4,53799
 2003b04:	014033c4 	movi	r5,207
 2003b08:	20003dc0 	call	20003dc <LCD_WriteReg>
			LCD_WriteReg(0xD228,0x02);
 2003b0c:	01348a14 	movui	r4,53800
 2003b10:	01400084 	movi	r5,2
 2003b14:	20003dc0 	call	20003dc <LCD_WriteReg>
			LCD_WriteReg(0xD229,0xDE);
 2003b18:	01348a54 	movui	r4,53801
 2003b1c:	01403784 	movi	r5,222
 2003b20:	20003dc0 	call	20003dc <LCD_WriteReg>
			LCD_WriteReg(0xD22A,0x02);
 2003b24:	01348a94 	movui	r4,53802
 2003b28:	01400084 	movi	r5,2
 2003b2c:	20003dc0 	call	20003dc <LCD_WriteReg>
			LCD_WriteReg(0xD22B,0xF2);
 2003b30:	01348ad4 	movui	r4,53803
 2003b34:	01403c84 	movi	r5,242
 2003b38:	20003dc0 	call	20003dc <LCD_WriteReg>
			LCD_WriteReg(0xD22C,0x02);
 2003b3c:	01348b14 	movui	r4,53804
 2003b40:	01400084 	movi	r5,2
 2003b44:	20003dc0 	call	20003dc <LCD_WriteReg>
			LCD_WriteReg(0xD22D,0xFE);
 2003b48:	01348b54 	movui	r4,53805
 2003b4c:	01403f84 	movi	r5,254
 2003b50:	20003dc0 	call	20003dc <LCD_WriteReg>
			LCD_WriteReg(0xD22E,0x03);
 2003b54:	01348b94 	movui	r4,53806
 2003b58:	014000c4 	movi	r5,3
 2003b5c:	20003dc0 	call	20003dc <LCD_WriteReg>
			LCD_WriteReg(0xD22F,0x10);
 2003b60:	01348bd4 	movui	r4,53807
 2003b64:	01400404 	movi	r5,16
 2003b68:	20003dc0 	call	20003dc <LCD_WriteReg>
			LCD_WriteReg(0xD230,0x03);
 2003b6c:	01348c14 	movui	r4,53808
 2003b70:	014000c4 	movi	r5,3
 2003b74:	20003dc0 	call	20003dc <LCD_WriteReg>
			LCD_WriteReg(0xD231,0x33);
 2003b78:	01348c54 	movui	r4,53809
 2003b7c:	01400cc4 	movi	r5,51
 2003b80:	20003dc0 	call	20003dc <LCD_WriteReg>
			LCD_WriteReg(0xD232,0x03);
 2003b84:	01348c94 	movui	r4,53810
 2003b88:	014000c4 	movi	r5,3
 2003b8c:	20003dc0 	call	20003dc <LCD_WriteReg>
			LCD_WriteReg(0xD233,0x6D);
 2003b90:	01348cd4 	movui	r4,53811
 2003b94:	01401b44 	movi	r5,109
 2003b98:	20003dc0 	call	20003dc <LCD_WriteReg>
			LCD_WriteReg(0xD300,0x00);
 2003b9c:	0134c014 	movui	r4,54016
 2003ba0:	000b883a 	mov	r5,zero
 2003ba4:	20003dc0 	call	20003dc <LCD_WriteReg>
			LCD_WriteReg(0xD301,0x33);
 2003ba8:	0134c054 	movui	r4,54017
 2003bac:	01400cc4 	movi	r5,51
 2003bb0:	20003dc0 	call	20003dc <LCD_WriteReg>
			LCD_WriteReg(0xD302,0x00);
 2003bb4:	0134c094 	movui	r4,54018
 2003bb8:	000b883a 	mov	r5,zero
 2003bbc:	20003dc0 	call	20003dc <LCD_WriteReg>
			LCD_WriteReg(0xD303,0x34);
 2003bc0:	0134c0d4 	movui	r4,54019
 2003bc4:	01400d04 	movi	r5,52
 2003bc8:	20003dc0 	call	20003dc <LCD_WriteReg>
			LCD_WriteReg(0xD304,0x00);
 2003bcc:	0134c114 	movui	r4,54020
 2003bd0:	000b883a 	mov	r5,zero
 2003bd4:	20003dc0 	call	20003dc <LCD_WriteReg>
			LCD_WriteReg(0xD305,0x3A);
 2003bd8:	0134c154 	movui	r4,54021
 2003bdc:	01400e84 	movi	r5,58
 2003be0:	20003dc0 	call	20003dc <LCD_WriteReg>
			LCD_WriteReg(0xD306,0x00);
 2003be4:	0134c194 	movui	r4,54022
 2003be8:	000b883a 	mov	r5,zero
 2003bec:	20003dc0 	call	20003dc <LCD_WriteReg>
			LCD_WriteReg(0xD307,0x4A);
 2003bf0:	0134c1d4 	movui	r4,54023
 2003bf4:	01401284 	movi	r5,74
 2003bf8:	20003dc0 	call	20003dc <LCD_WriteReg>
			LCD_WriteReg(0xD308,0x00);
 2003bfc:	0134c214 	movui	r4,54024
 2003c00:	000b883a 	mov	r5,zero
 2003c04:	20003dc0 	call	20003dc <LCD_WriteReg>
			LCD_WriteReg(0xD309,0x5C);
 2003c08:	0134c254 	movui	r4,54025
 2003c0c:	01401704 	movi	r5,92
 2003c10:	20003dc0 	call	20003dc <LCD_WriteReg>
			LCD_WriteReg(0xD30A,0x00);
 2003c14:	0134c294 	movui	r4,54026
 2003c18:	000b883a 	mov	r5,zero
 2003c1c:	20003dc0 	call	20003dc <LCD_WriteReg>

			LCD_WriteReg(0xD30B,0x81);
 2003c20:	0134c2d4 	movui	r4,54027
 2003c24:	01402044 	movi	r5,129
 2003c28:	20003dc0 	call	20003dc <LCD_WriteReg>
			LCD_WriteReg(0xD30C,0x00);
 2003c2c:	0134c314 	movui	r4,54028
 2003c30:	000b883a 	mov	r5,zero
 2003c34:	20003dc0 	call	20003dc <LCD_WriteReg>
			LCD_WriteReg(0xD30D,0xA6);
 2003c38:	0134c354 	movui	r4,54029
 2003c3c:	01402984 	movi	r5,166
 2003c40:	20003dc0 	call	20003dc <LCD_WriteReg>
			LCD_WriteReg(0xD30E,0x00);
 2003c44:	0134c394 	movui	r4,54030
 2003c48:	000b883a 	mov	r5,zero
 2003c4c:	20003dc0 	call	20003dc <LCD_WriteReg>
			LCD_WriteReg(0xD30F,0xE5);
 2003c50:	0134c3d4 	movui	r4,54031
 2003c54:	01403944 	movi	r5,229
 2003c58:	20003dc0 	call	20003dc <LCD_WriteReg>
			LCD_WriteReg(0xD310,0x01);
 2003c5c:	0134c414 	movui	r4,54032
 2003c60:	01400044 	movi	r5,1
 2003c64:	20003dc0 	call	20003dc <LCD_WriteReg>
			LCD_WriteReg(0xD311,0x13);
 2003c68:	0134c454 	movui	r4,54033
 2003c6c:	014004c4 	movi	r5,19
 2003c70:	20003dc0 	call	20003dc <LCD_WriteReg>
			LCD_WriteReg(0xD312,0x01);
 2003c74:	0134c494 	movui	r4,54034
 2003c78:	01400044 	movi	r5,1
 2003c7c:	20003dc0 	call	20003dc <LCD_WriteReg>
			LCD_WriteReg(0xD313,0x54);
 2003c80:	0134c4d4 	movui	r4,54035
 2003c84:	01401504 	movi	r5,84
 2003c88:	20003dc0 	call	20003dc <LCD_WriteReg>
			LCD_WriteReg(0xD314,0x01);
 2003c8c:	0134c514 	movui	r4,54036
 2003c90:	01400044 	movi	r5,1
 2003c94:	20003dc0 	call	20003dc <LCD_WriteReg>
			LCD_WriteReg(0xD315,0x82);
 2003c98:	0134c554 	movui	r4,54037
 2003c9c:	01402084 	movi	r5,130
 2003ca0:	20003dc0 	call	20003dc <LCD_WriteReg>
			LCD_WriteReg(0xD316,0x01);
 2003ca4:	0134c594 	movui	r4,54038
 2003ca8:	01400044 	movi	r5,1
 2003cac:	20003dc0 	call	20003dc <LCD_WriteReg>
			LCD_WriteReg(0xD317,0xCA);
 2003cb0:	0134c5d4 	movui	r4,54039
 2003cb4:	01403284 	movi	r5,202
 2003cb8:	20003dc0 	call	20003dc <LCD_WriteReg>
			LCD_WriteReg(0xD318,0x02);
 2003cbc:	0134c614 	movui	r4,54040
 2003cc0:	01400084 	movi	r5,2
 2003cc4:	20003dc0 	call	20003dc <LCD_WriteReg>
			LCD_WriteReg(0xD319,0x00);
 2003cc8:	0134c654 	movui	r4,54041
 2003ccc:	000b883a 	mov	r5,zero
 2003cd0:	20003dc0 	call	20003dc <LCD_WriteReg>
			LCD_WriteReg(0xD31A,0x02);
 2003cd4:	0134c694 	movui	r4,54042
 2003cd8:	01400084 	movi	r5,2
 2003cdc:	20003dc0 	call	20003dc <LCD_WriteReg>
			LCD_WriteReg(0xD31B,0x01);
 2003ce0:	0134c6d4 	movui	r4,54043
 2003ce4:	01400044 	movi	r5,1
 2003ce8:	20003dc0 	call	20003dc <LCD_WriteReg>
			LCD_WriteReg(0xD31C,0x02);
 2003cec:	0134c714 	movui	r4,54044
 2003cf0:	01400084 	movi	r5,2
 2003cf4:	20003dc0 	call	20003dc <LCD_WriteReg>
			LCD_WriteReg(0xD31D,0x34);
 2003cf8:	0134c754 	movui	r4,54045
 2003cfc:	01400d04 	movi	r5,52
 2003d00:	20003dc0 	call	20003dc <LCD_WriteReg>
			LCD_WriteReg(0xD31E,0x02);
 2003d04:	0134c794 	movui	r4,54046
 2003d08:	01400084 	movi	r5,2
 2003d0c:	20003dc0 	call	20003dc <LCD_WriteReg>
			LCD_WriteReg(0xD31F,0x67);
 2003d10:	0134c7d4 	movui	r4,54047
 2003d14:	014019c4 	movi	r5,103
 2003d18:	20003dc0 	call	20003dc <LCD_WriteReg>
			LCD_WriteReg(0xD320,0x02);
 2003d1c:	0134c814 	movui	r4,54048
 2003d20:	01400084 	movi	r5,2
 2003d24:	20003dc0 	call	20003dc <LCD_WriteReg>
			LCD_WriteReg(0xD321,0x84);
 2003d28:	0134c854 	movui	r4,54049
 2003d2c:	01402104 	movi	r5,132
 2003d30:	20003dc0 	call	20003dc <LCD_WriteReg>
			LCD_WriteReg(0xD322,0x02);
 2003d34:	0134c894 	movui	r4,54050
 2003d38:	01400084 	movi	r5,2
 2003d3c:	20003dc0 	call	20003dc <LCD_WriteReg>
			LCD_WriteReg(0xD323,0xA4);
 2003d40:	0134c8d4 	movui	r4,54051
 2003d44:	01402904 	movi	r5,164
 2003d48:	20003dc0 	call	20003dc <LCD_WriteReg>
			LCD_WriteReg(0xD324,0x02);
 2003d4c:	0134c914 	movui	r4,54052
 2003d50:	01400084 	movi	r5,2
 2003d54:	20003dc0 	call	20003dc <LCD_WriteReg>
			LCD_WriteReg(0xD325,0xB7);
 2003d58:	0134c954 	movui	r4,54053
 2003d5c:	01402dc4 	movi	r5,183
 2003d60:	20003dc0 	call	20003dc <LCD_WriteReg>
			LCD_WriteReg(0xD326,0x02);
 2003d64:	0134c994 	movui	r4,54054
 2003d68:	01400084 	movi	r5,2
 2003d6c:	20003dc0 	call	20003dc <LCD_WriteReg>
			LCD_WriteReg(0xD327,0xCF);
 2003d70:	0134c9d4 	movui	r4,54055
 2003d74:	014033c4 	movi	r5,207
 2003d78:	20003dc0 	call	20003dc <LCD_WriteReg>
			LCD_WriteReg(0xD328,0x02);
 2003d7c:	0134ca14 	movui	r4,54056
 2003d80:	01400084 	movi	r5,2
 2003d84:	20003dc0 	call	20003dc <LCD_WriteReg>
			LCD_WriteReg(0xD329,0xDE);
 2003d88:	0134ca54 	movui	r4,54057
 2003d8c:	01403784 	movi	r5,222
 2003d90:	20003dc0 	call	20003dc <LCD_WriteReg>
			LCD_WriteReg(0xD32A,0x02);
 2003d94:	0134ca94 	movui	r4,54058
 2003d98:	01400084 	movi	r5,2
 2003d9c:	20003dc0 	call	20003dc <LCD_WriteReg>
			LCD_WriteReg(0xD32B,0xF2);
 2003da0:	0134cad4 	movui	r4,54059
 2003da4:	01403c84 	movi	r5,242
 2003da8:	20003dc0 	call	20003dc <LCD_WriteReg>
			LCD_WriteReg(0xD32C,0x02);
 2003dac:	0134cb14 	movui	r4,54060
 2003db0:	01400084 	movi	r5,2
 2003db4:	20003dc0 	call	20003dc <LCD_WriteReg>
			LCD_WriteReg(0xD32D,0xFE);
 2003db8:	0134cb54 	movui	r4,54061
 2003dbc:	01403f84 	movi	r5,254
 2003dc0:	20003dc0 	call	20003dc <LCD_WriteReg>
			LCD_WriteReg(0xD32E,0x03);
 2003dc4:	0134cb94 	movui	r4,54062
 2003dc8:	014000c4 	movi	r5,3
 2003dcc:	20003dc0 	call	20003dc <LCD_WriteReg>
			LCD_WriteReg(0xD32F,0x10);
 2003dd0:	0134cbd4 	movui	r4,54063
 2003dd4:	01400404 	movi	r5,16
 2003dd8:	20003dc0 	call	20003dc <LCD_WriteReg>
			LCD_WriteReg(0xD330,0x03);
 2003ddc:	0134cc14 	movui	r4,54064
 2003de0:	014000c4 	movi	r5,3
 2003de4:	20003dc0 	call	20003dc <LCD_WriteReg>
			LCD_WriteReg(0xD331,0x33);
 2003de8:	0134cc54 	movui	r4,54065
 2003dec:	01400cc4 	movi	r5,51
 2003df0:	20003dc0 	call	20003dc <LCD_WriteReg>
			LCD_WriteReg(0xD332,0x03);
 2003df4:	0134cc94 	movui	r4,54066
 2003df8:	014000c4 	movi	r5,3
 2003dfc:	20003dc0 	call	20003dc <LCD_WriteReg>
			LCD_WriteReg(0xD333,0x6D);
 2003e00:	0134ccd4 	movui	r4,54067
 2003e04:	01401b44 	movi	r5,109
 2003e08:	20003dc0 	call	20003dc <LCD_WriteReg>
			LCD_WriteReg(0xD400,0x00);
 2003e0c:	01350014 	movui	r4,54272
 2003e10:	000b883a 	mov	r5,zero
 2003e14:	20003dc0 	call	20003dc <LCD_WriteReg>
			LCD_WriteReg(0xD401,0x33);
 2003e18:	01350054 	movui	r4,54273
 2003e1c:	01400cc4 	movi	r5,51
 2003e20:	20003dc0 	call	20003dc <LCD_WriteReg>
			LCD_WriteReg(0xD402,0x00);
 2003e24:	01350094 	movui	r4,54274
 2003e28:	000b883a 	mov	r5,zero
 2003e2c:	20003dc0 	call	20003dc <LCD_WriteReg>
			LCD_WriteReg(0xD403,0x34);
 2003e30:	013500d4 	movui	r4,54275
 2003e34:	01400d04 	movi	r5,52
 2003e38:	20003dc0 	call	20003dc <LCD_WriteReg>
			LCD_WriteReg(0xD404,0x00);
 2003e3c:	01350114 	movui	r4,54276
 2003e40:	000b883a 	mov	r5,zero
 2003e44:	20003dc0 	call	20003dc <LCD_WriteReg>
			LCD_WriteReg(0xD405,0x3A);
 2003e48:	01350154 	movui	r4,54277
 2003e4c:	01400e84 	movi	r5,58
 2003e50:	20003dc0 	call	20003dc <LCD_WriteReg>
			LCD_WriteReg(0xD406,0x00);
 2003e54:	01350194 	movui	r4,54278
 2003e58:	000b883a 	mov	r5,zero
 2003e5c:	20003dc0 	call	20003dc <LCD_WriteReg>
			LCD_WriteReg(0xD407,0x4A);
 2003e60:	013501d4 	movui	r4,54279
 2003e64:	01401284 	movi	r5,74
 2003e68:	20003dc0 	call	20003dc <LCD_WriteReg>
			LCD_WriteReg(0xD408,0x00);
 2003e6c:	01350214 	movui	r4,54280
 2003e70:	000b883a 	mov	r5,zero
 2003e74:	20003dc0 	call	20003dc <LCD_WriteReg>
			LCD_WriteReg(0xD409,0x5C);
 2003e78:	01350254 	movui	r4,54281
 2003e7c:	01401704 	movi	r5,92
 2003e80:	20003dc0 	call	20003dc <LCD_WriteReg>
			LCD_WriteReg(0xD40A,0x00);
 2003e84:	01350294 	movui	r4,54282
 2003e88:	000b883a 	mov	r5,zero
 2003e8c:	20003dc0 	call	20003dc <LCD_WriteReg>
			LCD_WriteReg(0xD40B,0x81);
 2003e90:	013502d4 	movui	r4,54283
 2003e94:	01402044 	movi	r5,129
 2003e98:	20003dc0 	call	20003dc <LCD_WriteReg>

			LCD_WriteReg(0xD40C,0x00);
 2003e9c:	01350314 	movui	r4,54284
 2003ea0:	000b883a 	mov	r5,zero
 2003ea4:	20003dc0 	call	20003dc <LCD_WriteReg>
			LCD_WriteReg(0xD40D,0xA6);
 2003ea8:	01350354 	movui	r4,54285
 2003eac:	01402984 	movi	r5,166
 2003eb0:	20003dc0 	call	20003dc <LCD_WriteReg>
			LCD_WriteReg(0xD40E,0x00);
 2003eb4:	01350394 	movui	r4,54286
 2003eb8:	000b883a 	mov	r5,zero
 2003ebc:	20003dc0 	call	20003dc <LCD_WriteReg>
			LCD_WriteReg(0xD40F,0xE5);
 2003ec0:	013503d4 	movui	r4,54287
 2003ec4:	01403944 	movi	r5,229
 2003ec8:	20003dc0 	call	20003dc <LCD_WriteReg>
			LCD_WriteReg(0xD410,0x01);
 2003ecc:	01350414 	movui	r4,54288
 2003ed0:	01400044 	movi	r5,1
 2003ed4:	20003dc0 	call	20003dc <LCD_WriteReg>
			LCD_WriteReg(0xD411,0x13);
 2003ed8:	01350454 	movui	r4,54289
 2003edc:	014004c4 	movi	r5,19
 2003ee0:	20003dc0 	call	20003dc <LCD_WriteReg>
			LCD_WriteReg(0xD412,0x01);
 2003ee4:	01350494 	movui	r4,54290
 2003ee8:	01400044 	movi	r5,1
 2003eec:	20003dc0 	call	20003dc <LCD_WriteReg>
			LCD_WriteReg(0xD413,0x54);
 2003ef0:	013504d4 	movui	r4,54291
 2003ef4:	01401504 	movi	r5,84
 2003ef8:	20003dc0 	call	20003dc <LCD_WriteReg>
			LCD_WriteReg(0xD414,0x01);
 2003efc:	01350514 	movui	r4,54292
 2003f00:	01400044 	movi	r5,1
 2003f04:	20003dc0 	call	20003dc <LCD_WriteReg>
			LCD_WriteReg(0xD415,0x82);
 2003f08:	01350554 	movui	r4,54293
 2003f0c:	01402084 	movi	r5,130
 2003f10:	20003dc0 	call	20003dc <LCD_WriteReg>
			LCD_WriteReg(0xD416,0x01);
 2003f14:	01350594 	movui	r4,54294
 2003f18:	01400044 	movi	r5,1
 2003f1c:	20003dc0 	call	20003dc <LCD_WriteReg>
			LCD_WriteReg(0xD417,0xCA);
 2003f20:	013505d4 	movui	r4,54295
 2003f24:	01403284 	movi	r5,202
 2003f28:	20003dc0 	call	20003dc <LCD_WriteReg>
			LCD_WriteReg(0xD418,0x02);
 2003f2c:	01350614 	movui	r4,54296
 2003f30:	01400084 	movi	r5,2
 2003f34:	20003dc0 	call	20003dc <LCD_WriteReg>
			LCD_WriteReg(0xD419,0x00);
 2003f38:	01350654 	movui	r4,54297
 2003f3c:	000b883a 	mov	r5,zero
 2003f40:	20003dc0 	call	20003dc <LCD_WriteReg>
			LCD_WriteReg(0xD41A,0x02);
 2003f44:	01350694 	movui	r4,54298
 2003f48:	01400084 	movi	r5,2
 2003f4c:	20003dc0 	call	20003dc <LCD_WriteReg>
			LCD_WriteReg(0xD41B,0x01);
 2003f50:	013506d4 	movui	r4,54299
 2003f54:	01400044 	movi	r5,1
 2003f58:	20003dc0 	call	20003dc <LCD_WriteReg>
			LCD_WriteReg(0xD41C,0x02);
 2003f5c:	01350714 	movui	r4,54300
 2003f60:	01400084 	movi	r5,2
 2003f64:	20003dc0 	call	20003dc <LCD_WriteReg>
			LCD_WriteReg(0xD41D,0x34);
 2003f68:	01350754 	movui	r4,54301
 2003f6c:	01400d04 	movi	r5,52
 2003f70:	20003dc0 	call	20003dc <LCD_WriteReg>
			LCD_WriteReg(0xD41E,0x02);
 2003f74:	01350794 	movui	r4,54302
 2003f78:	01400084 	movi	r5,2
 2003f7c:	20003dc0 	call	20003dc <LCD_WriteReg>
			LCD_WriteReg(0xD41F,0x67);
 2003f80:	013507d4 	movui	r4,54303
 2003f84:	014019c4 	movi	r5,103
 2003f88:	20003dc0 	call	20003dc <LCD_WriteReg>
			LCD_WriteReg(0xD420,0x02);
 2003f8c:	01350814 	movui	r4,54304
 2003f90:	01400084 	movi	r5,2
 2003f94:	20003dc0 	call	20003dc <LCD_WriteReg>
			LCD_WriteReg(0xD421,0x84);
 2003f98:	01350854 	movui	r4,54305
 2003f9c:	01402104 	movi	r5,132
 2003fa0:	20003dc0 	call	20003dc <LCD_WriteReg>
			LCD_WriteReg(0xD422,0x02);
 2003fa4:	01350894 	movui	r4,54306
 2003fa8:	01400084 	movi	r5,2
 2003fac:	20003dc0 	call	20003dc <LCD_WriteReg>
			LCD_WriteReg(0xD423,0xA4);
 2003fb0:	013508d4 	movui	r4,54307
 2003fb4:	01402904 	movi	r5,164
 2003fb8:	20003dc0 	call	20003dc <LCD_WriteReg>
			LCD_WriteReg(0xD424,0x02);
 2003fbc:	01350914 	movui	r4,54308
 2003fc0:	01400084 	movi	r5,2
 2003fc4:	20003dc0 	call	20003dc <LCD_WriteReg>
			LCD_WriteReg(0xD425,0xB7);
 2003fc8:	01350954 	movui	r4,54309
 2003fcc:	01402dc4 	movi	r5,183
 2003fd0:	20003dc0 	call	20003dc <LCD_WriteReg>
			LCD_WriteReg(0xD426,0x02);
 2003fd4:	01350994 	movui	r4,54310
 2003fd8:	01400084 	movi	r5,2
 2003fdc:	20003dc0 	call	20003dc <LCD_WriteReg>
			LCD_WriteReg(0xD427,0xCF);
 2003fe0:	013509d4 	movui	r4,54311
 2003fe4:	014033c4 	movi	r5,207
 2003fe8:	20003dc0 	call	20003dc <LCD_WriteReg>
			LCD_WriteReg(0xD428,0x02);
 2003fec:	01350a14 	movui	r4,54312
 2003ff0:	01400084 	movi	r5,2
 2003ff4:	20003dc0 	call	20003dc <LCD_WriteReg>
			LCD_WriteReg(0xD429,0xDE);
 2003ff8:	01350a54 	movui	r4,54313
 2003ffc:	01403784 	movi	r5,222
 2004000:	20003dc0 	call	20003dc <LCD_WriteReg>
			LCD_WriteReg(0xD42A,0x02);
 2004004:	01350a94 	movui	r4,54314
 2004008:	01400084 	movi	r5,2
 200400c:	20003dc0 	call	20003dc <LCD_WriteReg>
			LCD_WriteReg(0xD42B,0xF2);
 2004010:	01350ad4 	movui	r4,54315
 2004014:	01403c84 	movi	r5,242
 2004018:	20003dc0 	call	20003dc <LCD_WriteReg>
			LCD_WriteReg(0xD42C,0x02);
 200401c:	01350b14 	movui	r4,54316
 2004020:	01400084 	movi	r5,2
 2004024:	20003dc0 	call	20003dc <LCD_WriteReg>
			LCD_WriteReg(0xD42D,0xFE);
 2004028:	01350b54 	movui	r4,54317
 200402c:	01403f84 	movi	r5,254
 2004030:	20003dc0 	call	20003dc <LCD_WriteReg>
			LCD_WriteReg(0xD42E,0x03);
 2004034:	01350b94 	movui	r4,54318
 2004038:	014000c4 	movi	r5,3
 200403c:	20003dc0 	call	20003dc <LCD_WriteReg>
			LCD_WriteReg(0xD42F,0x10);
 2004040:	01350bd4 	movui	r4,54319
 2004044:	01400404 	movi	r5,16
 2004048:	20003dc0 	call	20003dc <LCD_WriteReg>
			LCD_WriteReg(0xD430,0x03);
 200404c:	01350c14 	movui	r4,54320
 2004050:	014000c4 	movi	r5,3
 2004054:	20003dc0 	call	20003dc <LCD_WriteReg>
			LCD_WriteReg(0xD431,0x33);
 2004058:	01350c54 	movui	r4,54321
 200405c:	01400cc4 	movi	r5,51
 2004060:	20003dc0 	call	20003dc <LCD_WriteReg>
			LCD_WriteReg(0xD432,0x03);
 2004064:	01350c94 	movui	r4,54322
 2004068:	014000c4 	movi	r5,3
 200406c:	20003dc0 	call	20003dc <LCD_WriteReg>
			LCD_WriteReg(0xD433,0x6D);    /* VU */
 2004070:	01350cd4 	movui	r4,54323
 2004074:	01401b44 	movi	r5,109
 2004078:	20003dc0 	call	20003dc <LCD_WriteReg>
			LCD_WriteReg(0xD500,0x00);
 200407c:	01354014 	movui	r4,54528
 2004080:	000b883a 	mov	r5,zero
 2004084:	20003dc0 	call	20003dc <LCD_WriteReg>
			LCD_WriteReg(0xD501,0x33);
 2004088:	01354054 	movui	r4,54529
 200408c:	01400cc4 	movi	r5,51
 2004090:	20003dc0 	call	20003dc <LCD_WriteReg>
			LCD_WriteReg(0xD502,0x00);
 2004094:	01354094 	movui	r4,54530
 2004098:	000b883a 	mov	r5,zero
 200409c:	20003dc0 	call	20003dc <LCD_WriteReg>
			LCD_WriteReg(0xD503,0x34);
 20040a0:	013540d4 	movui	r4,54531
 20040a4:	01400d04 	movi	r5,52
 20040a8:	20003dc0 	call	20003dc <LCD_WriteReg>
			LCD_WriteReg(0xD504,0x00);
 20040ac:	01354114 	movui	r4,54532
 20040b0:	000b883a 	mov	r5,zero
 20040b4:	20003dc0 	call	20003dc <LCD_WriteReg>
			LCD_WriteReg(0xD505,0x3A);
 20040b8:	01354154 	movui	r4,54533
 20040bc:	01400e84 	movi	r5,58
 20040c0:	20003dc0 	call	20003dc <LCD_WriteReg>
			LCD_WriteReg(0xD506,0x00);
 20040c4:	01354194 	movui	r4,54534
 20040c8:	000b883a 	mov	r5,zero
 20040cc:	20003dc0 	call	20003dc <LCD_WriteReg>
			LCD_WriteReg(0xD507,0x4A);
 20040d0:	013541d4 	movui	r4,54535
 20040d4:	01401284 	movi	r5,74
 20040d8:	20003dc0 	call	20003dc <LCD_WriteReg>
			LCD_WriteReg(0xD508,0x00);
 20040dc:	01354214 	movui	r4,54536
 20040e0:	000b883a 	mov	r5,zero
 20040e4:	20003dc0 	call	20003dc <LCD_WriteReg>
			LCD_WriteReg(0xD509,0x5C);
 20040e8:	01354254 	movui	r4,54537
 20040ec:	01401704 	movi	r5,92
 20040f0:	20003dc0 	call	20003dc <LCD_WriteReg>
			LCD_WriteReg(0xD50A,0x00);
 20040f4:	01354294 	movui	r4,54538
 20040f8:	000b883a 	mov	r5,zero
 20040fc:	20003dc0 	call	20003dc <LCD_WriteReg>
			LCD_WriteReg(0xD50B,0x81);
 2004100:	013542d4 	movui	r4,54539
 2004104:	01402044 	movi	r5,129
 2004108:	20003dc0 	call	20003dc <LCD_WriteReg>

			LCD_WriteReg(0xD50C,0x00);
 200410c:	01354314 	movui	r4,54540
 2004110:	000b883a 	mov	r5,zero
 2004114:	20003dc0 	call	20003dc <LCD_WriteReg>
			LCD_WriteReg(0xD50D,0xA6);
 2004118:	01354354 	movui	r4,54541
 200411c:	01402984 	movi	r5,166
 2004120:	20003dc0 	call	20003dc <LCD_WriteReg>
			LCD_WriteReg(0xD50E,0x00);
 2004124:	01354394 	movui	r4,54542
 2004128:	000b883a 	mov	r5,zero
 200412c:	20003dc0 	call	20003dc <LCD_WriteReg>
			LCD_WriteReg(0xD50F,0xE5);
 2004130:	013543d4 	movui	r4,54543
 2004134:	01403944 	movi	r5,229
 2004138:	20003dc0 	call	20003dc <LCD_WriteReg>
			LCD_WriteReg(0xD510,0x01);
 200413c:	01354414 	movui	r4,54544
 2004140:	01400044 	movi	r5,1
 2004144:	20003dc0 	call	20003dc <LCD_WriteReg>
			LCD_WriteReg(0xD511,0x13);
 2004148:	01354454 	movui	r4,54545
 200414c:	014004c4 	movi	r5,19
 2004150:	20003dc0 	call	20003dc <LCD_WriteReg>
			LCD_WriteReg(0xD512,0x01);
 2004154:	01354494 	movui	r4,54546
 2004158:	01400044 	movi	r5,1
 200415c:	20003dc0 	call	20003dc <LCD_WriteReg>
			LCD_WriteReg(0xD513,0x54);
 2004160:	013544d4 	movui	r4,54547
 2004164:	01401504 	movi	r5,84
 2004168:	20003dc0 	call	20003dc <LCD_WriteReg>
			LCD_WriteReg(0xD514,0x01);
 200416c:	01354514 	movui	r4,54548
 2004170:	01400044 	movi	r5,1
 2004174:	20003dc0 	call	20003dc <LCD_WriteReg>
			LCD_WriteReg(0xD515,0x82);
 2004178:	01354554 	movui	r4,54549
 200417c:	01402084 	movi	r5,130
 2004180:	20003dc0 	call	20003dc <LCD_WriteReg>
			LCD_WriteReg(0xD516,0x01);
 2004184:	01354594 	movui	r4,54550
 2004188:	01400044 	movi	r5,1
 200418c:	20003dc0 	call	20003dc <LCD_WriteReg>
			LCD_WriteReg(0xD517,0xCA);
 2004190:	013545d4 	movui	r4,54551
 2004194:	01403284 	movi	r5,202
 2004198:	20003dc0 	call	20003dc <LCD_WriteReg>
			LCD_WriteReg(0xD518,0x02);
 200419c:	01354614 	movui	r4,54552
 20041a0:	01400084 	movi	r5,2
 20041a4:	20003dc0 	call	20003dc <LCD_WriteReg>
			LCD_WriteReg(0xD519,0x00);
 20041a8:	01354654 	movui	r4,54553
 20041ac:	000b883a 	mov	r5,zero
 20041b0:	20003dc0 	call	20003dc <LCD_WriteReg>
			LCD_WriteReg(0xD51A,0x02);
 20041b4:	01354694 	movui	r4,54554
 20041b8:	01400084 	movi	r5,2
 20041bc:	20003dc0 	call	20003dc <LCD_WriteReg>
			LCD_WriteReg(0xD51B,0x01);
 20041c0:	013546d4 	movui	r4,54555
 20041c4:	01400044 	movi	r5,1
 20041c8:	20003dc0 	call	20003dc <LCD_WriteReg>
			LCD_WriteReg(0xD51C,0x02);
 20041cc:	01354714 	movui	r4,54556
 20041d0:	01400084 	movi	r5,2
 20041d4:	20003dc0 	call	20003dc <LCD_WriteReg>
			LCD_WriteReg(0xD51D,0x34);
 20041d8:	01354754 	movui	r4,54557
 20041dc:	01400d04 	movi	r5,52
 20041e0:	20003dc0 	call	20003dc <LCD_WriteReg>
			LCD_WriteReg(0xD51E,0x02);
 20041e4:	01354794 	movui	r4,54558
 20041e8:	01400084 	movi	r5,2
 20041ec:	20003dc0 	call	20003dc <LCD_WriteReg>
			LCD_WriteReg(0xD51F,0x67);
 20041f0:	013547d4 	movui	r4,54559
 20041f4:	014019c4 	movi	r5,103
 20041f8:	20003dc0 	call	20003dc <LCD_WriteReg>
			LCD_WriteReg(0xD520,0x02);
 20041fc:	01354814 	movui	r4,54560
 2004200:	01400084 	movi	r5,2
 2004204:	20003dc0 	call	20003dc <LCD_WriteReg>
			LCD_WriteReg(0xD521,0x84);
 2004208:	01354854 	movui	r4,54561
 200420c:	01402104 	movi	r5,132
 2004210:	20003dc0 	call	20003dc <LCD_WriteReg>
			LCD_WriteReg(0xD522,0x02);
 2004214:	01354894 	movui	r4,54562
 2004218:	01400084 	movi	r5,2
 200421c:	20003dc0 	call	20003dc <LCD_WriteReg>
			LCD_WriteReg(0xD523,0xA4);
 2004220:	013548d4 	movui	r4,54563
 2004224:	01402904 	movi	r5,164
 2004228:	20003dc0 	call	20003dc <LCD_WriteReg>
			LCD_WriteReg(0xD524,0x02);
 200422c:	01354914 	movui	r4,54564
 2004230:	01400084 	movi	r5,2
 2004234:	20003dc0 	call	20003dc <LCD_WriteReg>
			LCD_WriteReg(0xD525,0xB7);
 2004238:	01354954 	movui	r4,54565
 200423c:	01402dc4 	movi	r5,183
 2004240:	20003dc0 	call	20003dc <LCD_WriteReg>
			LCD_WriteReg(0xD526,0x02);
 2004244:	01354994 	movui	r4,54566
 2004248:	01400084 	movi	r5,2
 200424c:	20003dc0 	call	20003dc <LCD_WriteReg>
			LCD_WriteReg(0xD527,0xCF);
 2004250:	013549d4 	movui	r4,54567
 2004254:	014033c4 	movi	r5,207
 2004258:	20003dc0 	call	20003dc <LCD_WriteReg>
			LCD_WriteReg(0xD528,0x02);
 200425c:	01354a14 	movui	r4,54568
 2004260:	01400084 	movi	r5,2
 2004264:	20003dc0 	call	20003dc <LCD_WriteReg>
			LCD_WriteReg(0xD529,0xDE);
 2004268:	01354a54 	movui	r4,54569
 200426c:	01403784 	movi	r5,222
 2004270:	20003dc0 	call	20003dc <LCD_WriteReg>
			LCD_WriteReg(0xD52A,0x02);
 2004274:	01354a94 	movui	r4,54570
 2004278:	01400084 	movi	r5,2
 200427c:	20003dc0 	call	20003dc <LCD_WriteReg>
			LCD_WriteReg(0xD52B,0xF2);
 2004280:	01354ad4 	movui	r4,54571
 2004284:	01403c84 	movi	r5,242
 2004288:	20003dc0 	call	20003dc <LCD_WriteReg>
			LCD_WriteReg(0xD52C,0x02);
 200428c:	01354b14 	movui	r4,54572
 2004290:	01400084 	movi	r5,2
 2004294:	20003dc0 	call	20003dc <LCD_WriteReg>
			LCD_WriteReg(0xD52D,0xFE);
 2004298:	01354b54 	movui	r4,54573
 200429c:	01403f84 	movi	r5,254
 20042a0:	20003dc0 	call	20003dc <LCD_WriteReg>
			LCD_WriteReg(0xD52E,0x03);
 20042a4:	01354b94 	movui	r4,54574
 20042a8:	014000c4 	movi	r5,3
 20042ac:	20003dc0 	call	20003dc <LCD_WriteReg>
			LCD_WriteReg(0xD52F,0x10);
 20042b0:	01354bd4 	movui	r4,54575
 20042b4:	01400404 	movi	r5,16
 20042b8:	20003dc0 	call	20003dc <LCD_WriteReg>
			LCD_WriteReg(0xD530,0x03);
 20042bc:	01354c14 	movui	r4,54576
 20042c0:	014000c4 	movi	r5,3
 20042c4:	20003dc0 	call	20003dc <LCD_WriteReg>
			LCD_WriteReg(0xD531,0x33);
 20042c8:	01354c54 	movui	r4,54577
 20042cc:	01400cc4 	movi	r5,51
 20042d0:	20003dc0 	call	20003dc <LCD_WriteReg>
			LCD_WriteReg(0xD532,0x03);
 20042d4:	01354c94 	movui	r4,54578
 20042d8:	014000c4 	movi	r5,3
 20042dc:	20003dc0 	call	20003dc <LCD_WriteReg>
			LCD_WriteReg(0xD533,0x6D);
 20042e0:	01354cd4 	movui	r4,54579
 20042e4:	01401b44 	movi	r5,109
 20042e8:	20003dc0 	call	20003dc <LCD_WriteReg>
			LCD_WriteReg(0xD600,0x00);
 20042ec:	01358014 	movui	r4,54784
 20042f0:	000b883a 	mov	r5,zero
 20042f4:	20003dc0 	call	20003dc <LCD_WriteReg>
			LCD_WriteReg(0xD601,0x33);
 20042f8:	01358054 	movui	r4,54785
 20042fc:	01400cc4 	movi	r5,51
 2004300:	20003dc0 	call	20003dc <LCD_WriteReg>
			LCD_WriteReg(0xD602,0x00);
 2004304:	01358094 	movui	r4,54786
 2004308:	000b883a 	mov	r5,zero
 200430c:	20003dc0 	call	20003dc <LCD_WriteReg>
			LCD_WriteReg(0xD603,0x34);
 2004310:	013580d4 	movui	r4,54787
 2004314:	01400d04 	movi	r5,52
 2004318:	20003dc0 	call	20003dc <LCD_WriteReg>
			LCD_WriteReg(0xD604,0x00);
 200431c:	01358114 	movui	r4,54788
 2004320:	000b883a 	mov	r5,zero
 2004324:	20003dc0 	call	20003dc <LCD_WriteReg>
			LCD_WriteReg(0xD605,0x3A);
 2004328:	01358154 	movui	r4,54789
 200432c:	01400e84 	movi	r5,58
 2004330:	20003dc0 	call	20003dc <LCD_WriteReg>
			LCD_WriteReg(0xD606,0x00);
 2004334:	01358194 	movui	r4,54790
 2004338:	000b883a 	mov	r5,zero
 200433c:	20003dc0 	call	20003dc <LCD_WriteReg>
			LCD_WriteReg(0xD607,0x4A);
 2004340:	013581d4 	movui	r4,54791
 2004344:	01401284 	movi	r5,74
 2004348:	20003dc0 	call	20003dc <LCD_WriteReg>
			LCD_WriteReg(0xD608,0x00);
 200434c:	01358214 	movui	r4,54792
 2004350:	000b883a 	mov	r5,zero
 2004354:	20003dc0 	call	20003dc <LCD_WriteReg>
			LCD_WriteReg(0xD609,0x5C);
 2004358:	01358254 	movui	r4,54793
 200435c:	01401704 	movi	r5,92
 2004360:	20003dc0 	call	20003dc <LCD_WriteReg>
			LCD_WriteReg(0xD60A,0x00);
 2004364:	01358294 	movui	r4,54794
 2004368:	000b883a 	mov	r5,zero
 200436c:	20003dc0 	call	20003dc <LCD_WriteReg>
			LCD_WriteReg(0xD60B,0x81);
 2004370:	013582d4 	movui	r4,54795
 2004374:	01402044 	movi	r5,129
 2004378:	20003dc0 	call	20003dc <LCD_WriteReg>

			LCD_WriteReg(0xD60C,0x00);
 200437c:	01358314 	movui	r4,54796
 2004380:	000b883a 	mov	r5,zero
 2004384:	20003dc0 	call	20003dc <LCD_WriteReg>
			LCD_WriteReg(0xD60D,0xA6);
 2004388:	01358354 	movui	r4,54797
 200438c:	01402984 	movi	r5,166
 2004390:	20003dc0 	call	20003dc <LCD_WriteReg>
			LCD_WriteReg(0xD60E,0x00);
 2004394:	01358394 	movui	r4,54798
 2004398:	000b883a 	mov	r5,zero
 200439c:	20003dc0 	call	20003dc <LCD_WriteReg>
			LCD_WriteReg(0xD60F,0xE5);
 20043a0:	013583d4 	movui	r4,54799
 20043a4:	01403944 	movi	r5,229
 20043a8:	20003dc0 	call	20003dc <LCD_WriteReg>
			LCD_WriteReg(0xD610,0x01);
 20043ac:	01358414 	movui	r4,54800
 20043b0:	01400044 	movi	r5,1
 20043b4:	20003dc0 	call	20003dc <LCD_WriteReg>
			LCD_WriteReg(0xD611,0x13);
 20043b8:	01358454 	movui	r4,54801
 20043bc:	014004c4 	movi	r5,19
 20043c0:	20003dc0 	call	20003dc <LCD_WriteReg>
			LCD_WriteReg(0xD612,0x01);
 20043c4:	01358494 	movui	r4,54802
 20043c8:	01400044 	movi	r5,1
 20043cc:	20003dc0 	call	20003dc <LCD_WriteReg>
			LCD_WriteReg(0xD613,0x54);
 20043d0:	013584d4 	movui	r4,54803
 20043d4:	01401504 	movi	r5,84
 20043d8:	20003dc0 	call	20003dc <LCD_WriteReg>
			LCD_WriteReg(0xD614,0x01);
 20043dc:	01358514 	movui	r4,54804
 20043e0:	01400044 	movi	r5,1
 20043e4:	20003dc0 	call	20003dc <LCD_WriteReg>
			LCD_WriteReg(0xD615,0x82);
 20043e8:	01358554 	movui	r4,54805
 20043ec:	01402084 	movi	r5,130
 20043f0:	20003dc0 	call	20003dc <LCD_WriteReg>
			LCD_WriteReg(0xD616,0x01);
 20043f4:	01358594 	movui	r4,54806
 20043f8:	01400044 	movi	r5,1
 20043fc:	20003dc0 	call	20003dc <LCD_WriteReg>
			LCD_WriteReg(0xD617,0xCA);
 2004400:	013585d4 	movui	r4,54807
 2004404:	01403284 	movi	r5,202
 2004408:	20003dc0 	call	20003dc <LCD_WriteReg>
			LCD_WriteReg(0xD618,0x02);
 200440c:	01358614 	movui	r4,54808
 2004410:	01400084 	movi	r5,2
 2004414:	20003dc0 	call	20003dc <LCD_WriteReg>
			LCD_WriteReg(0xD619,0x00);
 2004418:	01358654 	movui	r4,54809
 200441c:	000b883a 	mov	r5,zero
 2004420:	20003dc0 	call	20003dc <LCD_WriteReg>
			LCD_WriteReg(0xD61A,0x02);
 2004424:	01358694 	movui	r4,54810
 2004428:	01400084 	movi	r5,2
 200442c:	20003dc0 	call	20003dc <LCD_WriteReg>
			LCD_WriteReg(0xD61B,0x01);
 2004430:	013586d4 	movui	r4,54811
 2004434:	01400044 	movi	r5,1
 2004438:	20003dc0 	call	20003dc <LCD_WriteReg>
			LCD_WriteReg(0xD61C,0x02);
 200443c:	01358714 	movui	r4,54812
 2004440:	01400084 	movi	r5,2
 2004444:	20003dc0 	call	20003dc <LCD_WriteReg>
			LCD_WriteReg(0xD61D,0x34);
 2004448:	01358754 	movui	r4,54813
 200444c:	01400d04 	movi	r5,52
 2004450:	20003dc0 	call	20003dc <LCD_WriteReg>
			LCD_WriteReg(0xD61E,0x02);
 2004454:	01358794 	movui	r4,54814
 2004458:	01400084 	movi	r5,2
 200445c:	20003dc0 	call	20003dc <LCD_WriteReg>
			LCD_WriteReg(0xD61F,0x67);
 2004460:	013587d4 	movui	r4,54815
 2004464:	014019c4 	movi	r5,103
 2004468:	20003dc0 	call	20003dc <LCD_WriteReg>
			LCD_WriteReg(0xD620,0x02);
 200446c:	01358814 	movui	r4,54816
 2004470:	01400084 	movi	r5,2
 2004474:	20003dc0 	call	20003dc <LCD_WriteReg>
			LCD_WriteReg(0xD621,0x84);
 2004478:	01358854 	movui	r4,54817
 200447c:	01402104 	movi	r5,132
 2004480:	20003dc0 	call	20003dc <LCD_WriteReg>
			LCD_WriteReg(0xD622,0x02);
 2004484:	01358894 	movui	r4,54818
 2004488:	01400084 	movi	r5,2
 200448c:	20003dc0 	call	20003dc <LCD_WriteReg>
			LCD_WriteReg(0xD623,0xA4);
 2004490:	013588d4 	movui	r4,54819
 2004494:	01402904 	movi	r5,164
 2004498:	20003dc0 	call	20003dc <LCD_WriteReg>
			LCD_WriteReg(0xD624,0x02);
 200449c:	01358914 	movui	r4,54820
 20044a0:	01400084 	movi	r5,2
 20044a4:	20003dc0 	call	20003dc <LCD_WriteReg>
			LCD_WriteReg(0xD625,0xB7);
 20044a8:	01358954 	movui	r4,54821
 20044ac:	01402dc4 	movi	r5,183
 20044b0:	20003dc0 	call	20003dc <LCD_WriteReg>
			LCD_WriteReg(0xD626,0x02);
 20044b4:	01358994 	movui	r4,54822
 20044b8:	01400084 	movi	r5,2
 20044bc:	20003dc0 	call	20003dc <LCD_WriteReg>
			LCD_WriteReg(0xD627,0xCF);
 20044c0:	013589d4 	movui	r4,54823
 20044c4:	014033c4 	movi	r5,207
 20044c8:	20003dc0 	call	20003dc <LCD_WriteReg>
			LCD_WriteReg(0xD628,0x02);
 20044cc:	01358a14 	movui	r4,54824
 20044d0:	01400084 	movi	r5,2
 20044d4:	20003dc0 	call	20003dc <LCD_WriteReg>
			LCD_WriteReg(0xD629,0xDE);
 20044d8:	01358a54 	movui	r4,54825
 20044dc:	01403784 	movi	r5,222
 20044e0:	20003dc0 	call	20003dc <LCD_WriteReg>
			LCD_WriteReg(0xD62A,0x02);
 20044e4:	01358a94 	movui	r4,54826
 20044e8:	01400084 	movi	r5,2
 20044ec:	20003dc0 	call	20003dc <LCD_WriteReg>
			LCD_WriteReg(0xD62B,0xF2);
 20044f0:	01358ad4 	movui	r4,54827
 20044f4:	01403c84 	movi	r5,242
 20044f8:	20003dc0 	call	20003dc <LCD_WriteReg>
			LCD_WriteReg(0xD62C,0x02);
 20044fc:	01358b14 	movui	r4,54828
 2004500:	01400084 	movi	r5,2
 2004504:	20003dc0 	call	20003dc <LCD_WriteReg>
			LCD_WriteReg(0xD62D,0xFE);
 2004508:	01358b54 	movui	r4,54829
 200450c:	01403f84 	movi	r5,254
 2004510:	20003dc0 	call	20003dc <LCD_WriteReg>
			LCD_WriteReg(0xD62E,0x03);
 2004514:	01358b94 	movui	r4,54830
 2004518:	014000c4 	movi	r5,3
 200451c:	20003dc0 	call	20003dc <LCD_WriteReg>
			LCD_WriteReg(0xD62F,0x10);
 2004520:	01358bd4 	movui	r4,54831
 2004524:	01400404 	movi	r5,16
 2004528:	20003dc0 	call	20003dc <LCD_WriteReg>
			LCD_WriteReg(0xD630,0x03);
 200452c:	01358c14 	movui	r4,54832
 2004530:	014000c4 	movi	r5,3
 2004534:	20003dc0 	call	20003dc <LCD_WriteReg>
			LCD_WriteReg(0xD631,0x33);
 2004538:	01358c54 	movui	r4,54833
 200453c:	01400cc4 	movi	r5,51
 2004540:	20003dc0 	call	20003dc <LCD_WriteReg>
			LCD_WriteReg(0xD632,0x03);
 2004544:	01358c94 	movui	r4,54834
 2004548:	014000c4 	movi	r5,3
 200454c:	20003dc0 	call	20003dc <LCD_WriteReg>
			LCD_WriteReg(0xD633,0x6D);
 2004550:	01358cd4 	movui	r4,54835
 2004554:	01401b44 	movi	r5,109
 2004558:	20003dc0 	call	20003dc <LCD_WriteReg>
			//LV2 Page 0 enable
			LCD_WriteReg(0xF000,0x55);
 200455c:	013c0014 	movui	r4,61440
 2004560:	01401544 	movi	r5,85
 2004564:	20003dc0 	call	20003dc <LCD_WriteReg>
			LCD_WriteReg(0xF001,0xAA);
 2004568:	013c0054 	movui	r4,61441
 200456c:	01402a84 	movi	r5,170
 2004570:	20003dc0 	call	20003dc <LCD_WriteReg>
			LCD_WriteReg(0xF002,0x52);
 2004574:	013c0094 	movui	r4,61442
 2004578:	01401484 	movi	r5,82
 200457c:	20003dc0 	call	20003dc <LCD_WriteReg>
			LCD_WriteReg(0xF003,0x08);
 2004580:	013c00d4 	movui	r4,61443
 2004584:	01400204 	movi	r5,8
 2004588:	20003dc0 	call	20003dc <LCD_WriteReg>
			LCD_WriteReg(0xF004,0x00);
 200458c:	013c0114 	movui	r4,61444
 2004590:	000b883a 	mov	r5,zero
 2004594:	20003dc0 	call	20003dc <LCD_WriteReg>
			//Display control
			LCD_WriteReg(0xB100, 0xCC);
 2004598:	012c4014 	movui	r4,45312
 200459c:	01403304 	movi	r5,204
 20045a0:	20003dc0 	call	20003dc <LCD_WriteReg>
			LCD_WriteReg(0xB101, 0x00);
 20045a4:	012c4054 	movui	r4,45313
 20045a8:	000b883a 	mov	r5,zero
 20045ac:	20003dc0 	call	20003dc <LCD_WriteReg>
			//Source hold time
			LCD_WriteReg(0xB600,0x05);
 20045b0:	012d8014 	movui	r4,46592
 20045b4:	01400144 	movi	r5,5
 20045b8:	20003dc0 	call	20003dc <LCD_WriteReg>
			//Gate EQ control
			LCD_WriteReg(0xB700,0x70);
 20045bc:	012dc014 	movui	r4,46848
 20045c0:	01401c04 	movi	r5,112
 20045c4:	20003dc0 	call	20003dc <LCD_WriteReg>
			LCD_WriteReg(0xB701,0x70);
 20045c8:	012dc054 	movui	r4,46849
 20045cc:	01401c04 	movi	r5,112
 20045d0:	20003dc0 	call	20003dc <LCD_WriteReg>
			//Source EQ control (Mode 2)
			LCD_WriteReg(0xB800,0x01);
 20045d4:	012e0014 	movui	r4,47104
 20045d8:	01400044 	movi	r5,1
 20045dc:	20003dc0 	call	20003dc <LCD_WriteReg>
			LCD_WriteReg(0xB801,0x03);
 20045e0:	012e0054 	movui	r4,47105
 20045e4:	014000c4 	movi	r5,3
 20045e8:	20003dc0 	call	20003dc <LCD_WriteReg>
			LCD_WriteReg(0xB802,0x03);
 20045ec:	012e0094 	movui	r4,47106
 20045f0:	014000c4 	movi	r5,3
 20045f4:	20003dc0 	call	20003dc <LCD_WriteReg>
			LCD_WriteReg(0xB803,0x03);
 20045f8:	012e00d4 	movui	r4,47107
 20045fc:	014000c4 	movi	r5,3
 2004600:	20003dc0 	call	20003dc <LCD_WriteReg>
			//Inversion mode (2-dot)
			LCD_WriteReg(0xBC00,0x02);
 2004604:	012f0014 	movui	r4,48128
 2004608:	01400084 	movi	r5,2
 200460c:	20003dc0 	call	20003dc <LCD_WriteReg>
			LCD_WriteReg(0xBC01,0x00);
 2004610:	012f0054 	movui	r4,48129
 2004614:	000b883a 	mov	r5,zero
 2004618:	20003dc0 	call	20003dc <LCD_WriteReg>
			LCD_WriteReg(0xBC02,0x00);
 200461c:	012f0094 	movui	r4,48130
 2004620:	000b883a 	mov	r5,zero
 2004624:	20003dc0 	call	20003dc <LCD_WriteReg>
			//Timing control 4H w/ 4-delay
			LCD_WriteReg(0xC900,0xD0);
 2004628:	01324014 	movui	r4,51456
 200462c:	01403404 	movi	r5,208
 2004630:	20003dc0 	call	20003dc <LCD_WriteReg>
			LCD_WriteReg(0xC901,0x02);
 2004634:	01324054 	movui	r4,51457
 2004638:	01400084 	movi	r5,2
 200463c:	20003dc0 	call	20003dc <LCD_WriteReg>
			LCD_WriteReg(0xC902,0x50);
 2004640:	01324094 	movui	r4,51458
 2004644:	01401404 	movi	r5,80
 2004648:	20003dc0 	call	20003dc <LCD_WriteReg>
			LCD_WriteReg(0xC903,0x50);
 200464c:	013240d4 	movui	r4,51459
 2004650:	01401404 	movi	r5,80
 2004654:	20003dc0 	call	20003dc <LCD_WriteReg>
			LCD_WriteReg(0xC904,0x50);
 2004658:	01324114 	movui	r4,51460
 200465c:	01401404 	movi	r5,80
 2004660:	20003dc0 	call	20003dc <LCD_WriteReg>
			LCD_WriteReg(0x3500,0x00);
 2004664:	010d4004 	movi	r4,13568
 2004668:	000b883a 	mov	r5,zero
 200466c:	20003dc0 	call	20003dc <LCD_WriteReg>
			LCD_WriteReg(0x3A00,0x55);  //16-bit/pixel
 2004670:	010e8004 	movi	r4,14848
 2004674:	01401544 	movi	r5,85
 2004678:	20003dc0 	call	20003dc <LCD_WriteReg>
			LCD_WR_CMD(0x1100);
 200467c:	01044004 	movi	r4,4352
 2004680:	20002680 	call	2000268 <LCD_WR_CMD>
			usleep(120);
 2004684:	01001e04 	movi	r4,120
 2004688:	200652c0 	call	200652c <usleep>
			LCD_WR_CMD(0x2900);
 200468c:	010a4004 	movi	r4,10496
 2004690:	20002680 	call	2000268 <LCD_WR_CMD>
 2004694:	00007d06 	br	200488c <MY_LCD_Init+0x2e10>
		}else if(lcddev.id==0X1963) {
 2004698:	00808074 	movhi	r2,513
 200469c:	10ac4e04 	addi	r2,r2,-20168
 20046a0:	10800217 	ldw	r2,8(r2)
 20046a4:	108658d8 	cmpnei	r2,r2,6499
 20046a8:	1000781e 	bne	r2,zero,200488c <MY_LCD_Init+0x2e10>
			LCD_WR_CMD(0xE2);     //Set PLL with OSC = 10MHz (hardware),  Multiplier N = 35, 250MHz < VCO < 800MHz = OSC*(N+1), VCO = 300MHz
 20046ac:	01003884 	movi	r4,226
 20046b0:	20002680 	call	2000268 <LCD_WR_CMD>
			LCD_WR_DATA(0x1D);    //参数1
 20046b4:	01000744 	movi	r4,29
 20046b8:	20002d80 	call	20002d8 <LCD_WR_DATA>
			LCD_WR_DATA(0x02);    //参数2 Divider M = 2, PLL = 300/(M+1) = 100MHz
 20046bc:	01000084 	movi	r4,2
 20046c0:	20002d80 	call	20002d8 <LCD_WR_DATA>
			LCD_WR_DATA(0x04);    //参数3 Validate M and N values
 20046c4:	01000104 	movi	r4,4
 20046c8:	20002d80 	call	20002d8 <LCD_WR_DATA>
			usleep(100);
 20046cc:	01001904 	movi	r4,100
 20046d0:	200652c0 	call	200652c <usleep>
			LCD_WR_CMD(0xE0);     // Start PLL command
 20046d4:	01003804 	movi	r4,224
 20046d8:	20002680 	call	2000268 <LCD_WR_CMD>
			LCD_WR_DATA(0x01);    // enable PLL
 20046dc:	01000044 	movi	r4,1
 20046e0:	20002d80 	call	20002d8 <LCD_WR_DATA>
			delay_ms(10);
 20046e4:	01000284 	movi	r4,10
 20046e8:	20002000 	call	2000200 <delay_ms>
			LCD_WR_CMD(0xE0);     // Start PLL command again
 20046ec:	01003804 	movi	r4,224
 20046f0:	20002680 	call	2000268 <LCD_WR_CMD>
			LCD_WR_DATA(0x03);    // now, use PLL output as system clock
 20046f4:	010000c4 	movi	r4,3
 20046f8:	20002d80 	call	20002d8 <LCD_WR_DATA>
			delay_ms(12);
 20046fc:	01000304 	movi	r4,12
 2004700:	20002000 	call	2000200 <delay_ms>
			LCD_WR_CMD(0x01);     //软复位
 2004704:	01000044 	movi	r4,1
 2004708:	20002680 	call	2000268 <LCD_WR_CMD>
			delay_ms(10);
 200470c:	01000284 	movi	r4,10
 2004710:	20002000 	call	2000200 <delay_ms>

			LCD_WR_CMD(0xE6);     //设置像素频率,33Mhz
 2004714:	01003984 	movi	r4,230
 2004718:	20002680 	call	2000268 <LCD_WR_CMD>
			LCD_WR_DATA(0x2F);
 200471c:	01000bc4 	movi	r4,47
 2004720:	20002d80 	call	20002d8 <LCD_WR_DATA>
			LCD_WR_DATA(0xFF);
 2004724:	01003fc4 	movi	r4,255
 2004728:	20002d80 	call	20002d8 <LCD_WR_DATA>
			LCD_WR_DATA(0xFF);
 200472c:	01003fc4 	movi	r4,255
 2004730:	20002d80 	call	20002d8 <LCD_WR_DATA>

			LCD_WR_CMD(0xB0);     //设置LCD模式
 2004734:	01002c04 	movi	r4,176
 2004738:	20002680 	call	2000268 <LCD_WR_CMD>
			LCD_WR_DATA(0x20);    //24位模式
 200473c:	01000804 	movi	r4,32
 2004740:	20002d80 	call	20002d8 <LCD_WR_DATA>
			LCD_WR_DATA(0x00);    //TFT 模式
 2004744:	0009883a 	mov	r4,zero
 2004748:	20002d80 	call	20002d8 <LCD_WR_DATA>

			LCD_WR_DATA((SSD_HOR_RESOLUTION-1)>>8);//设置LCD水平像素
 200474c:	010000c4 	movi	r4,3
 2004750:	20002d80 	call	20002d8 <LCD_WR_DATA>
			LCD_WR_DATA(SSD_HOR_RESOLUTION-1);
 2004754:	0100c7c4 	movi	r4,799
 2004758:	20002d80 	call	20002d8 <LCD_WR_DATA>
			LCD_WR_DATA((SSD_VER_RESOLUTION-1)>>8);//设置LCD垂直像素
 200475c:	01000044 	movi	r4,1
 2004760:	20002d80 	call	20002d8 <LCD_WR_DATA>
			LCD_WR_DATA(SSD_VER_RESOLUTION-1);
 2004764:	010077c4 	movi	r4,479
 2004768:	20002d80 	call	20002d8 <LCD_WR_DATA>
			LCD_WR_DATA(0x00);    //RGB序列
 200476c:	0009883a 	mov	r4,zero
 2004770:	20002d80 	call	20002d8 <LCD_WR_DATA>

			LCD_WR_CMD(0xB4);     //Set horizontal period
 2004774:	01002d04 	movi	r4,180
 2004778:	20002680 	call	2000268 <LCD_WR_CMD>
			LCD_WR_DATA((SSD_HT-1)>>8);
 200477c:	01000104 	movi	r4,4
 2004780:	20002d80 	call	20002d8 <LCD_WR_DATA>
			LCD_WR_DATA(SSD_HT-1);
 2004784:	010107c4 	movi	r4,1055
 2004788:	20002d80 	call	20002d8 <LCD_WR_DATA>
			LCD_WR_DATA(SSD_HPS>>8);
 200478c:	0009883a 	mov	r4,zero
 2004790:	20002d80 	call	20002d8 <LCD_WR_DATA>
			LCD_WR_DATA(SSD_HPS);
 2004794:	01000b84 	movi	r4,46
 2004798:	20002d80 	call	20002d8 <LCD_WR_DATA>
			LCD_WR_DATA(SSD_HOR_PULSE_WIDTH-1);
 200479c:	0009883a 	mov	r4,zero
 20047a0:	20002d80 	call	20002d8 <LCD_WR_DATA>
			LCD_WR_DATA(0x00);
 20047a4:	0009883a 	mov	r4,zero
 20047a8:	20002d80 	call	20002d8 <LCD_WR_DATA>
			LCD_WR_DATA(0x00);
 20047ac:	0009883a 	mov	r4,zero
 20047b0:	20002d80 	call	20002d8 <LCD_WR_DATA>
			LCD_WR_DATA(0x00);
 20047b4:	0009883a 	mov	r4,zero
 20047b8:	20002d80 	call	20002d8 <LCD_WR_DATA>
			LCD_WR_CMD(0xB6);     //Set vertical period
 20047bc:	01002d84 	movi	r4,182
