
qsys_eth.elf:     file format elf32-littlenios2
qsys_eth.elf
architecture: nios2, flags 0x00000112:
EXEC_P, HAS_SYMS, D_PAGED
start address 0x000001bc

Program Header:
    LOAD off    0x00001020 vaddr 0x00000020 paddr 0x00000020 align 2**12
         filesz 0x00049aa0 memsz 0x00050534 flags rwx
    LOAD off    0x0004b000 vaddr 0x02001000 paddr 0x02001000 align 2**12
         filesz 0x00000000 memsz 0x00000000 flags r-x

Sections:
Idx Name          Size      VMA       LMA       File off  Algn
  0 .entry        00000000  02001000  02001000  0004b000  2**5
                  CONTENTS, ALLOC, LOAD, READONLY, CODE
  1 .exceptions   0000019c  00000020  00000020  00001020  2**2
                  CONTENTS, ALLOC, LOAD, READONLY, CODE
  2 .text         00041c5c  000001bc  000001bc  000011bc  2**2
                  CONTENTS, ALLOC, LOAD, READONLY, CODE
  3 .rodata       00005cbc  00041e18  00041e18  00042e18  2**2
                  CONTENTS, ALLOC, LOAD, READONLY, DATA
  4 .rwdata       00001fec  00047ad4  00047ad4  00048ad4  2**2
                  CONTENTS, ALLOC, LOAD, DATA, SMALL_DATA
  5 .bss          00006a94  00049ac0  00049ac0  0004aac0  2**2
                  ALLOC, SMALL_DATA
  6 .comment      00000023  00000000  00000000  0004b000  2**0
                  CONTENTS, READONLY
  7 .debug_aranges 00001a88  00000000  00000000  0004b028  2**3
                  CONTENTS, READONLY, DEBUGGING
  8 .debug_info   0006758e  00000000  00000000  0004cab0  2**0
                  CONTENTS, READONLY, DEBUGGING
  9 .debug_abbrev 000142db  00000000  00000000  000b403e  2**0
                  CONTENTS, READONLY, DEBUGGING
 10 .debug_line   0001a531  00000000  00000000  000c8319  2**0
                  CONTENTS, READONLY, DEBUGGING
 11 .debug_frame  000061bc  00000000  00000000  000e284c  2**2
                  CONTENTS, READONLY, DEBUGGING
 12 .debug_str    0000ae27  00000000  00000000  000e8a08  2**0
                  CONTENTS, READONLY, DEBUGGING
 13 .debug_loc    00018a3f  00000000  00000000  000f382f  2**0
                  CONTENTS, READONLY, DEBUGGING
 14 .debug_alt_sim_info 00000050  00000000  00000000  0010c270  2**2
                  CONTENTS, READONLY, DEBUGGING
 15 .debug_ranges 00000af8  00000000  00000000  0010c2c0  2**3
                  CONTENTS, READONLY, DEBUGGING
 16 .thread_model 00000006  00000000  00000000  00116e68  2**0
                  CONTENTS, READONLY
 17 .cpu          00000005  00000000  00000000  00116e6e  2**0
                  CONTENTS, READONLY
 18 .qsys         00000001  00000000  00000000  00116e73  2**0
                  CONTENTS, READONLY
 19 .simulation_enabled 00000001  00000000  00000000  00116e74  2**0
                  CONTENTS, READONLY
 20 .sysid_hash   00000004  00000000  00000000  00116e75  2**0
                  CONTENTS, READONLY
 21 .sysid_base   00000004  00000000  00000000  00116e79  2**0
                  CONTENTS, READONLY
 22 .sysid_time   00000004  00000000  00000000  00116e7d  2**0
                  CONTENTS, READONLY
 23 .stderr_dev   00000009  00000000  00000000  00116e81  2**0
                  CONTENTS, READONLY
 24 .stdin_dev    00000009  00000000  00000000  00116e8a  2**0
                  CONTENTS, READONLY
 25 .stdout_dev   00000009  00000000  00000000  00116e93  2**0
                  CONTENTS, READONLY
 26 .sopc_system_name 00000007  00000000  00000000  00116e9c  2**0
                  CONTENTS, READONLY
 27 .quartus_project_dir 00000025  00000000  00000000  00116ea3  2**0
                  CONTENTS, READONLY
 28 .sopcinfo     00081f6a  00000000  00000000  00116ec8  2**0
                  CONTENTS, READONLY
SYMBOL TABLE:
02001000 l    d  .entry	00000000 .entry
00000020 l    d  .exceptions	00000000 .exceptions
000001bc l    d  .text	00000000 .text
00041e18 l    d  .rodata	00000000 .rodata
00047ad4 l    d  .rwdata	00000000 .rwdata
00049ac0 l    d  .bss	00000000 .bss
00000000 l    d  .comment	00000000 .comment
00000000 l    d  .debug_aranges	00000000 .debug_aranges
00000000 l    d  .debug_info	00000000 .debug_info
00000000 l    d  .debug_abbrev	00000000 .debug_abbrev
00000000 l    d  .debug_line	00000000 .debug_line
00000000 l    d  .debug_frame	00000000 .debug_frame
00000000 l    d  .debug_str	00000000 .debug_str
00000000 l    d  .debug_loc	00000000 .debug_loc
00000000 l    d  .debug_alt_sim_info	00000000 .debug_alt_sim_info
00000000 l    d  .debug_ranges	00000000 .debug_ranges
00000000 l    df *ABS*	00000000 ../qsys_eth_bsp//obj/HAL/src/crt0.o
00000200 l       .text	00000000 alt_after_alt_main
00000000 l    df *ABS*	00000000 alt_exception_entry.o
00000094 l       .exceptions	00000000 alt_exception_unknown
00000000 l    df *ABS*	00000000 alt_irq_handler.c
00000000 l    df *ABS*	00000000 alt_error_handler.c
00000000 l    df *ABS*	00000000 iniche_init.c
00000000 l    df *ABS*	00000000 network_utilities.c
00000000 l    df *ABS*	00000000 tcp_server.c
00049c98 l     O .bss	000005f0 conn.4577
00000000 l    df *ABS*	00000000 tse_my_system.c
00000000 l    df *ABS*	00000000 ctype_.c
00042edd l     O .rodata	00000180 _ctype_b
00000000 l    df *ABS*	00000000 fprintf.c
00000000 l    df *ABS*	00000000 fwrite.c
00000000 l    df *ABS*	00000000 getc.c
00000000 l    df *ABS*	00000000 impure.c
00047c0c l     O .rwdata	00000400 impure_data
00000000 l    df *ABS*	00000000 memset.c
00000000 l    df *ABS*	00000000 perror.c
00000000 l    df *ABS*	00000000 printf.c
00000000 l    df *ABS*	00000000 putc.c
00000000 l    df *ABS*	00000000 putchar.c
00000000 l    df *ABS*	00000000 puts.c
00000000 l    df *ABS*	00000000 rget.c
00000000 l    df *ABS*	00000000 strcmp.c
00000000 l    df *ABS*	00000000 strerror.c
00000000 l    df *ABS*	00000000 strlen.c
00000000 l    df *ABS*	00000000 u_strerr.c
00000000 l    df *ABS*	00000000 vfprintf.c
000029dc l     F .text	00000034 __sprint_r
00043852 l     O .rodata	00000010 blanks.3515
00043862 l     O .rodata	00000010 zeroes.3516
00000000 l    df *ABS*	00000000 wbuf.c
00000000 l    df *ABS*	00000000 wsetup.c
00000000 l    df *ABS*	00000000 dtoa.c
00004af8 l     F .text	00000208 quorem
00000000 l    df *ABS*	00000000 fflush.c
00000000 l    df *ABS*	00000000 findfp.c
00006534 l     F .text	00000008 __fp_lock
0000653c l     F .text	00000008 __fp_unlock
00000000 l    df *ABS*	00000000 fputc.c
00000000 l    df *ABS*	00000000 fputs.c
00000000 l    df *ABS*	00000000 mallocr.c
00000000 l    df *ABS*	00000000 fvwrite.c
00000000 l    df *ABS*	00000000 fwalk.c
00000000 l    df *ABS*	00000000 locale.c
00043894 l     O .rodata	00000030 lconv
00000000 l    df *ABS*	00000000 makebuf.c
00000000 l    df *ABS*	00000000 mallocr.c
00000000 l    df *ABS*	00000000 memchr.c
00000000 l    df *ABS*	00000000 memcpy.c
00000000 l    df *ABS*	00000000 memmove.c
00000000 l    df *ABS*	00000000 mprec.c
000439dc l     O .rodata	0000000c p05.2435
00000000 l    df *ABS*	00000000 mallocr.c
00000000 l    df *ABS*	00000000 refill.c
00009654 l     F .text	0000001c lflush
00000000 l    df *ABS*	00000000 s_isinfd.c
00000000 l    df *ABS*	00000000 s_isnand.c
00000000 l    df *ABS*	00000000 sbrkr.c
00000000 l    df *ABS*	00000000 stdio.c
00000000 l    df *ABS*	00000000 writer.c
00000000 l    df *ABS*	00000000 mallocr.c
00000000 l    df *ABS*	00000000 closer.c
00000000 l    df *ABS*	00000000 fclose.c
00000000 l    df *ABS*	00000000 fstatr.c
00000000 l    df *ABS*	00000000 int_errno.c
00000000 l    df *ABS*	00000000 isattyr.c
00000000 l    df *ABS*	00000000 lseekr.c
00000000 l    df *ABS*	00000000 readr.c
00000000 l    df *ABS*	00000000 libgcc2.c
00000000 l    df *ABS*	00000000 libgcc2.c
00000000 l    df *ABS*	00000000 fp-bit.c
0000aa38 l     F .text	00000354 _fpadd_parts
00000000 l    df *ABS*	00000000 fp-bit.c
00000000 l    df *ABS*	00000000 fp-bit.c
00000000 l    df *ABS*	00000000 fp-bit.c
00000000 l    df *ABS*	00000000 fp-bit.c
00000000 l    df *ABS*	00000000 fp-bit.c
00000000 l    df *ABS*	00000000 fp-bit.c
00000000 l    df *ABS*	00000000 fp-bit.c
00000000 l    df *ABS*	00000000 fp-bit.c
00000000 l    df *ABS*	00000000 fp-bit.c
00000000 l    df *ABS*	00000000 fp-bit.c
00000000 l    df *ABS*	00000000 fp-bit.c
00000000 l    df *ABS*	00000000 lib2-divmod.c
0000b778 l     F .text	00000074 udivmodsi4
00000000 l    df *ABS*	00000000 libgcc2.c
00000000 l    df *ABS*	00000000 libgcc2.c
00000000 l    df *ABS*	00000000 libgcc2.c
00000000 l    df *ABS*	00000000 fp-bit.c
00000000 l    df *ABS*	00000000 fp-bit.c
00000000 l    df *ABS*	00000000 fp-bit.c
00000000 l    df *ABS*	00000000 libgcc2.c
00000000 l    df *ABS*	00000000 libgcc2.c
00000000 l    df *ABS*	00000000 alt_flash_dev.c
00000000 l    df *ABS*	00000000 alt_fstat.c
0000beec l     F .text	00000050 alt_get_errno
00000000 l    df *ABS*	00000000 alt_isatty.c
0000bfe8 l     F .text	00000050 alt_get_errno
00000000 l    df *ABS*	00000000 alt_lseek.c
0000c0d8 l     F .text	00000050 alt_get_errno
00000000 l    df *ABS*	00000000 alt_main.c
00000000 l    df *ABS*	00000000 alt_sbrk.c
0004999c l     O .rwdata	00000004 heap_end
00000000 l    df *ABS*	00000000 alt_env_lock.c
000499a0 l     O .rwdata	00000004 lockid
00049af4 l     O .bss	00000004 locks
00000000 l    df *ABS*	00000000 alt_malloc_lock.c
000499a4 l     O .rwdata	00000004 lockid
00049afc l     O .bss	00000004 locks
00000000 l    df *ABS*	00000000 os_core.c
0000dc80 l     F .text	00000044 OS_InitMisc
0000dcc4 l     F .text	0000006c OS_InitRdyList
0000de28 l     F .text	000000e0 OS_InitTCBList
0000dba4 l     F .text	000000dc OS_InitEventList
0000dd30 l     F .text	0000007c OS_InitTaskIdle
0000ddac l     F .text	0000007c OS_InitTaskStat
0000e094 l     F .text	00000070 OS_SchedNew
00000000 l    df *ABS*	00000000 os_dbg.c
00000000 l    df *ABS*	00000000 os_flag.c
0000fea0 l     F .text	0000010c OS_FlagTaskRdy
0000fbfc l     F .text	000001c0 OS_FlagBlock
00000000 l    df *ABS*	00000000 os_mem.c
00000000 l    df *ABS*	00000000 os_q.c
00000000 l    df *ABS*	00000000 os_sem.c
00000000 l    df *ABS*	00000000 os_task.c
00000000 l    df *ABS*	00000000 os_time.c
00000000 l    df *ABS*	00000000 alt_sys_init.c
00014438 l     F .text	00000038 alt_dev_reg
00048420 l     O .rwdata	000000c8 ext_flash
000484e8 l     O .rwdata	0000106c jtag_uart
00049554 l     O .rwdata	00000030 sgdma_rx
00049584 l     O .rwdata	00000030 sgdma_tx
00000000 l    df *ABS*	00000000 altera_avalon_epcs_flash_controller.c
000146fc l     F .text	00000038 alt_flash_device_register
00014788 l     F .text	0000028c alt_epcs_flash_query
00014a14 l     F .text	000000e8 alt_epcs_flash_memcmp
00014de8 l     F .text	00000094 alt_epcs_test_address
00000000 l    df *ABS*	00000000 altera_avalon_jtag_uart_fd.c
00000000 l    df *ABS*	00000000 altera_avalon_jtag_uart_init.c
0001532c l     F .text	000002ac altera_avalon_jtag_uart_irq
000155d8 l     F .text	0000010c altera_avalon_jtag_uart_timeout
00000000 l    df *ABS*	00000000 altera_avalon_jtag_uart_ioctl.c
00000000 l    df *ABS*	00000000 altera_avalon_jtag_uart_read.c
00000000 l    df *ABS*	00000000 altera_avalon_jtag_uart_write.c
00000000 l    df *ABS*	00000000 altera_avalon_sgdma.c
00015dd4 l     F .text	00000050 alt_get_errno
00016978 l     F .text	000000b8 alt_avalon_sgdma_irq
00000000 l    df *ABS*	00000000 altera_avalon_timer_sc.c
00016ad4 l     F .text	00000074 alt_avalon_timer_sc_irq
00000000 l    df *ABS*	00000000 epcs_commands.c
00016c2c l     F .text	00000038 epcs_test_wip
00016c64 l     F .text	00000038 epcs_await_wip_released
00000000 l    df *ABS*	00000000 ins_tse_mac.c
00000000 l    df *ABS*	00000000 alt_iniche_close.c
00000000 l    df *ABS*	00000000 alt_iniche_dev.c
00000000 l    df *ABS*	00000000 alt_iniche_read.c
00000000 l    df *ABS*	00000000 alt_iniche_write.c
00000000 l    df *ABS*	00000000 ipnet.c
00000000 l    df *ABS*	00000000 ipstart.c
0004a2b0 l     O .bss	0000003c closers
00049b68 l     O .bss	00000004 nclosers
00000000 l    df *ABS*	00000000 igmp_cmn.c
00000000 l    df *ABS*	00000000 bsdsock.c
00000000 l    df *ABS*	00000000 cksum.c
00049a34 l     O .rwdata	00000004 cksum_select
00000000 l    df *ABS*	00000000 in_utils.c
0004a2ec l     O .bss	00000018 tistring
00000000 l    df *ABS*	00000000 netmain.c
00000000 l    df *ABS*	00000000 tk_crnos.c
00000000 l    df *ABS*	00000000 pktalloc.c
00000000 l    df *ABS*	00000000 q.c
00000000 l    df *ABS*	00000000 asm_cksum.o
0001d77c l       .text	00000000 done
0001d60c l       .text	00000000 asm1
0001d738 l       .text	00000000 loop0
0001d634 l       .text	00000000 loop
0001d754 l       .text	00000000 fold
00000000 l    df *ABS*	00000000 brdutils.c
00049b9c l     O .bss	00000004 kbd_init.3831
00049b98 l     O .bss	00000004 cpu_statusreg
00000000 l    df *ABS*	00000000 osportco.c
00000000 l    df *ABS*	00000000 targnios.c
00000000 l    df *ABS*	00000000 nptcp.c
00049bd0 l     O .bss	00000004 in_tcptick
00000000 l    df *ABS*	00000000 rawsock.c
00000000 l    df *ABS*	00000000 sockcall.c
00021b20 l     F .text	0000008c sockargs
00020e80 l     F .text	000001d4 t_getname
00000000 l    df *ABS*	00000000 socket.c
00000000 l    df *ABS*	00000000 socket2.c
00000000 l    df *ABS*	00000000 soselect.c
00000000 l    df *ABS*	00000000 tcp_in.c
00000000 l    df *ABS*	00000000 tcp_out.c
000296f0 l     F .text	000000c8 bld_options
00000000 l    df *ABS*	00000000 tcp_subr.c
00000000 l    df *ABS*	00000000 tcp_timr.c
00000000 l    df *ABS*	00000000 tcp_usr.c
00000000 l    df *ABS*	00000000 tcpport.c
00000000 l    df *ABS*	00000000 udpsock.c
00000000 l    df *ABS*	00000000 alt_alarm_start.c
00000000 l    df *ABS*	00000000 alt_close.c
0002bf44 l     F .text	00000050 alt_get_errno
00000000 l    df *ABS*	00000000 alt_dev.c
0002c05c l     F .text	0000002c alt_dev_null_write
00000000 l    df *ABS*	00000000 alt_dev_llist_insert.c
0002c088 l     F .text	00000050 alt_get_errno
00000000 l    df *ABS*	00000000 alt_do_ctors.c
00000000 l    df *ABS*	00000000 alt_do_dtors.c
00000000 l    df *ABS*	00000000 alt_errno.c
00000000 l    df *ABS*	00000000 alt_find_dev.c
00000000 l    df *ABS*	00000000 alt_iic.c
00000000 l    df *ABS*	00000000 alt_iic_isr_register.c
00000000 l    df *ABS*	00000000 alt_io_redirect.c
0002c588 l     F .text	000000c0 alt_open_fd
00000000 l    df *ABS*	00000000 alt_irq_vars.c
00000000 l    df *ABS*	00000000 alt_open.c
0002c6c0 l     F .text	00000050 alt_get_errno
0002c710 l     F .text	000000cc alt_file_locked
00000000 l    df *ABS*	00000000 alt_read.c
0002c930 l     F .text	00000050 alt_get_errno
00000000 l    df *ABS*	00000000 alt_release_fd.c
00000000 l    df *ABS*	00000000 alt_remap_cached.c
00000000 l    df *ABS*	00000000 alt_remap_uncached.c
00000000 l    df *ABS*	00000000 alt_tick.c
00000000 l    df *ABS*	00000000 alt_uncached_malloc.c
00000000 l    df *ABS*	00000000 alt_write.c
0002cd38 l     F .text	00000050 alt_get_errno
00000000 l    df *ABS*	00000000 altera_nios2_qsys_irq.c
00000000 l    df *ABS*	00000000 os_cpu_a.o
00000040 l       *ABS*	00000000 OSCtxSw_SWITCH_PC
00000000 l    df *ABS*	00000000 os_cpu_c.c
00000014 l       *ABS*	00000000 OSTCBNext_OFFSET
00000032 l       *ABS*	00000000 OSTCBPrio_OFFSET
00000000 l       *ABS*	00000000 OSTCBStkPtr_OFFSET
00000000 l    df *ABS*	00000000 altera_avalon_spi.c
00000000 l    df *ABS*	00000000 altera_avalon_tse.c
00049c07 l     O .bss	00000001 tse_system_count.4451
00049c06 l     O .bss	00000001 is_init.4533
00000000 l    df *ABS*	00000000 allports.c
00049c0c l     O .bss	00000004 inside_pktdemux
00000000 l    df *ABS*	00000000 timeouts.c
00032afc l     F .text	00000198 check_interval_timers
00049c18 l     O .bss	00000004 numtimers
00000000 l    df *ABS*	00000000 tk_misc.c
00000000 l    df *ABS*	00000000 alt_iniche_fcntl.c
00000000 l    df *ABS*	00000000 et_arp.c
00049c1c l     O .bss	00000004 arp_timer
00049c24 l     O .bss	00000004 cachetime
00000000 l    df *ABS*	00000000 iface.c
00000000 l    df *ABS*	00000000 ip.c
00049aa8 l     O .rwdata	00000004 uid
00000000 l    df *ABS*	00000000 ip_reasm.c
00000000 l    df *ABS*	00000000 ipdemux.c
00000000 l    df *ABS*	00000000 ipmc.c
00000000 l    df *ABS*	00000000 ipport.c
00000000 l    df *ABS*	00000000 ipraw.c
00000000 l    df *ABS*	00000000 iproute.c
00000000 l    df *ABS*	00000000 udp.c
00049c64 l     O .bss	00000002 usocket
00000000 l    df *ABS*	00000000 igmp.c
00000000 l    df *ABS*	00000000 igmp2.c
00000000 l    df *ABS*	00000000 ipopt.c
00000000 l    df *ABS*	00000000 u_mctest.c
00049ab0 l     O .rwdata	00000004 iCounter.4589
00000000 l    df *ABS*	00000000 memdev.c
00000000 l    df *ABS*	00000000 parseip.c
0004a304 l     O .bss	0000001e nearBuf.4216
00000000 l    df *ABS*	00000000 tcpcksum.c
00000000 l    df *ABS*	00000000 udp_open.c
00000000 l    df *ABS*	00000000 in_pcb.c
00000000 l    df *ABS*	00000000 vfsfiles.c
00000000 l    df *ABS*	00000000 vfsport.c
00000000 l    df *ABS*	00000000 alt_dcache_flush.c
00000000 l    df *ABS*	00000000 alt_fcntl.c
0003fab4 l     F .text	00000050 alt_get_errno
00000000 l    df *ABS*	00000000 alt_find_file.c
00000000 l    df *ABS*	00000000 alt_get_fd.c
00000000 l    df *ABS*	00000000 alt_usleep.c
00000000 l    df *ABS*	00000000 icmp.c
00049964 l     O .rwdata	00000018 dsts
00000000 l    df *ABS*	00000000 alt_busy_sleep.c
00000000 l    df *ABS*	00000000 atexit.c
00000000 l    df *ABS*	00000000 atoi.c
00000000 l    df *ABS*	00000000 calloc.c
00000000 l    df *ABS*	00000000 exit.c
00000000 l    df *ABS*	00000000 malloc.c
00000000 l    df *ABS*	00000000 memcmp.c
00000000 l    df *ABS*	00000000 sprintf.c
00000000 l    df *ABS*	00000000 strchr.c
00000000 l    df *ABS*	00000000 strcpy.c
00000000 l    df *ABS*	00000000 strncmp.c
00000000 l    df *ABS*	00000000 strtol.c
00000000 l    df *ABS*	00000000 vprintf.c
00000000 l    df *ABS*	00000000 vsprintf.c
00000000 l    df *ABS*	00000000 __atexit.c
00000000 l    df *ABS*	00000000 __call_atexit.c
00000000 l    df *ABS*	00000000 libgcc2.c
00000000 l    df *ABS*	00000000 alt_exit.c
00000000 l    df *ABS*	00000000 
0000212c g     F .text	0000001c putchar
0004fea0 g     O .bss	00000014 soq
00008ee4 g     F .text	00000074 _mprec_log10
0002e7dc g     F .text	000000d8 alt_tse_get_mac_info
000499f2 g     O .rwdata	00000002 OSTaskNameSize
00014d5c g     F .text	0000008c alt_epcs_flash_get_info
00008fd4 g     F .text	00000084 __any_on
00009da8 g     F .text	00000064 _isatty_r
000438c4 g     O .rodata	00000028 __mprec_tinytens
000349c8 g     F .text	00000740 ip_write_internal
0000c1f8 g     F .text	000000cc alt_main
000415c0 g     F .text	00000094 strcpy
0000bdf0 g     F .text	00000044 __ashldi3
0001d1fc g     F .text	000000b0 pk_free
00002148 g     F .text	00000084 _puts_r
0005004c g     O .bss	00000100 alt_irq
00049804 g     O .rwdata	00000009 rtp_priority
00009e0c g     F .text	0000006c _lseek_r
00040e3c g     F .text	0000033c icmp_timex
0001e830 g     F .text	00000040 m_freem
0003f540 g     F .text	00000048 vgetc
0001d8ec g     F .text	0000001c clock_c
00049be8 g     O .bss	00000004 tcp_optionbuf
000344ec g     F .text	0000007c if_getbynum
00010704 g     F .text	000000d0 OS_MemInit
0001c954 g     F .text	0000006c TK_OSTaskQuery
0001d5ec g       .text	00000000 asm_cksum
000323b4 g     F .text	000000f0 marvell_cfg_rgmii
000143d4 g     F .text	00000064 OSTimeSet
0003f448 g     F .text	000000f8 vgetc_locked
0001e16c g     F .text	00000020 post_task_setup
0003809c g     F .text	00000378 ipr_stats
0002af48 g     F .text	00000118 tcp_attach
0001fc14 g     F .text	000000c4 tcp_tick
0001bbf8 g     F .text	0000007c print_ipad
0001c850 g     F .text	00000104 tcp_wakeup
0000b2d8 g     F .text	0000005c __eqdf2
00049ac4 g     O .bss	00000004 last_flash_sector_offset
00049b6c g     O .bss	00000004 igmp_timers_are_running
000280e0 g     F .text	0000012c tcp_pulloutofband
0002f9c4 g     F .text	00000210 alt_tse_phy_print_profile
0000c8d8 g     F .text	0000063c OSEventPendMulti
00050554 g       *ABS*	00000000 __alt_heap_start
0002d258 g     F .text	00000020 OSTaskCreateHook
00032154 g     F .text	00000098 marvell_phy_cfg
00038464 g     F .text	000003e0 ip_rcv
0003f1ec g     F .text	0000014c vfseek
00024298 g     F .text	00000108 soqremque
0003a15c g     F .text	00000818 udpdemux
0001881c g     F .text	00000104 tse_mac_close
00001f3c g     F .text	0000003c printf
00049c38 g     O .bss	00000004 rt_mib
000499ca g     O .rwdata	00000002 OSMboxEn
00041a5c g     F .text	00000024 vsprintf
00015f48 g     F .text	00000110 alt_avalon_sgdma_do_sync_transfer
0000cf68 g     F .text	0000007c OSIntEnter
00009a00 g     F .text	0000005c __sseek
000065c4 g     F .text	0000010c __sinit
0003936c g     F .text	00000108 in_delmulti
0000482c g     F .text	0000013c __swbuf_r
00049c50 g     O .bss	00000004 so_evtmap_create
000499da g     O .rwdata	00000002 OSQEn
0003d8c8 g     F .text	00000088 in_pcballoc
00049a54 g     O .rwdata	00000002 socket_defaults
00007390 g     F .text	0000009c _setlocale_r
000332fc g     F .text	00000458 send_arp
00006550 g     F .text	00000064 __sfmoreglue
0003e308 g     F .text	00000338 vfopen_locked
0000c5a0 g     F .text	000000d4 __malloc_unlock
0002d2b4 g     F .text	0000001c OSTaskStatHook
00032948 g     F .text	00000054 prep_modules
0001b1d8 g     F .text	0000013c bsd_i_sockoptlen
00049b04 g     O .bss	00000001 OSLockNesting
000022e4 g     F .text	00000664 strerror
0002ea20 g     F .text	00000a74 getPHYSpeed
0003e84c g     F .text	00000040 vfclose
0004ff40 g     O .bss	0000002c tcb
00049a18 g     O .rwdata	00000002 OSDataSize
0002cad0 g     F .text	00000034 alt_remap_cached
00049b05 g     O .bss	00000001 OSRunning
00034230 g     F .text	000002bc grat_arp
00000f4c g     F .text	000001b0 get_ip_addr
0003d070 g     F .text	00000094 inet_pton
0003463c g     F .text	00000090 reg_type
00019fb8 g     F .text	00000224 igmp_fasttimo
0003e9fc g     F .text	00000058 vunlink_flag_open_files
00016634 g     F .text	00000344 alt_avalon_sgdma_construct_descriptor_burst
0004ff6c g     O .bss	000000e0 tcpstat
00037950 g     F .text	0000034c ip_reasm_copy_queued_fragments_into_reassy_buffer
0001ed84 g     F .text	0000009c dtom
000295f4 g     F .text	000000fc tcp_setpersist
00021208 g     F .text	00000184 t_getsockopt
00007f88 g     F .text	00000128 memmove
0001f1d4 g     F .text	000005c4 ip_output
0002d2f8 g     F .text	0000001c OSInitHookBegin
00041178 g     F .text	00000050 icmp_du
00049a38 g     O .rwdata	00000004 num_net_tasks
00049c78 g     O .bss	00000004 vfiles
00049a10 g     O .rwdata	00000002 OSTmrSize
000065b4 g     F .text	00000010 _cleanup
00036b24 g     F .text	000002b8 ip_reasm_process_first_fragment
000080b0 g     F .text	000000a8 _Balloc
000015cc g     F .text	00000108 get_board_mac_addr
00049b08 g     O .bss	00000004 OSIdleCtr
000313c8 g     F .text	000001bc alt_tse_phy_set_adv_1000
00049a90 g     O .rwdata	00000001 max_mac_system
0003ba5c g     F .text	000005cc ip_setmoptions
0002da94 g     F .text	000009fc alt_tse_system_add_sys
0000b390 g     F .text	00000064 __gtdf2
0003cb8c g     F .text	0000002c md_fseek
0002cf40 g       .text	00000000 OSStartTsk
00000000  w      *UND*	00000000 __errno
0000e3b4 g     F .text	000002d8 OS_TCBInit
00016c9c g     F .text	000000f8 epcs_sector_erase
00036ddc g     F .text	00000088 ip_reassm
0005034c g     O .bss	00000010 udp_mib
02001000 g     F .entry	00000000 __reset
00021994 g     F .text	000000d0 t_shutdown
0000192c g     F .text	00000170 sss_handle_receive
0002146c g     F .text	00000138 t_recvfrom
00049a16 g     O .rwdata	00000002 OSTmrWheelTblSize
0003c1f0 g     F .text	00000708 u_mctest_run
000161a4 g     F .text	00000074 alt_avalon_sgdma_construct_stream_to_mem_desc_burst
000394d8 g     F .text	00000088 prep_ifaces
00049b88 g     O .bss	00000001 to_netmain
0001cea4 g     F .text	000000cc pk_alloc
000499b6 g     O .rwdata	00000002 OSEventSize
00000b0c g     F .text	000002fc alt_SSSErrorHandler
00049b0c g     O .bss	00000001 OSPrioHighRdy
00009d40 g     F .text	00000068 _fstat_r
00047aec g     O .rwdata	00000120 tse_mac_device
0001c5cc g     F .text	00000044 tk_nettick
0002d278 g     F .text	00000020 OSTaskDelHook
00049ae4 g     O .bss	00000004 errno
0000222c g     F .text	00000014 __srget
00025498 g     F .text	000000c0 in_pcbnotify
0002cf20 g       .text	00000000 OSStartHighRdy
0004fb34 g     O .bss	00000014 lilfreeq
00000204 g     F .text	00000648 alt_uCOSIIErrorHandler
00039588 g     F .text	00000028 evtmap_setup
00012c04 g     F .text	000001f4 OSTaskCreateExt
00049b8c g     O .bss	00000004 tcp_sleep_timeout
00024c4c g     F .text	000001b8 sbdrop
00049c4c g     O .bss	00000004 net_system_exit
0005035c g     O .bss	00000068 icmp_mib
00031c9c g     F .text	000004b8 alt_tse_phy_set_common_speed
0002a094 g     F .text	00000078 tcp_getseq
00039970 g     F .text	000000c0 ip_raw_alloc
0000f73c g     F .text	00000068 OSFlagPendGetFlagsRdy
000499f6 g     O .rwdata	00000002 OSTaskStatStkSize
0005014c g     O .bss	00000010 pmac_groups
00022b20 g     F .text	00000740 soreceive
0000e818 g     F .text	00000308 OSFlagAccept
00010ddc g     F .text	000000b8 OSQFlush
000107d4 g     F .text	00000140 OSQAccept
00049aec g     O .bss	00000004 alt_argv
0005197c g       *ABS*	00000000 _gp
00038414 g     F .text	00000050 ip_reasm_send_icmp_timex
0003fe2c g     F .text	00000114 usleep
0003e88c g     F .text	00000048 vfflush
0004fe48 g     O .bss	00000040 resid_semaphore
0001bab8 g     F .text	00000140 hexdump
000369ec g     F .text	000000a0 ip_reasm_incr_mem_useage
0001e1c4 g     F .text	00000034 calloc2
0001a6e0 g     F .text	0000007c igmp_leavegroup
00012a48 g     F .text	000001bc OSTaskCreate
00012520 g     F .text	00000528 OSTaskChangePrio
00049b00 g     O .bss	00000004 alt_heapsem
00029edc g     F .text	000000f0 tcp_close
0000e68c g     F .text	0000018c OSDebugInit
00012df8 g     F .text	000003dc OSTaskDel
0003f968 g     F .text	0000005c vferror
0002cce0 g     F .text	00000058 alt_uncached_malloc
0002d5a0 g     F .text	00000060 tse_mac_initTransInfo2
0003add4 g     F .text	000000bc udp_alloc
0004966c g     O .rwdata	00000180 alt_fd_list
0004c324 g     O .bss	00000370 OSFlagTbl
00049bd4 g     O .bss	00000008 mbstat
00001cb8 g     F .text	00000070 _getc_r
00001d28 g     F .text	00000088 getc
00002124 g     F .text	00000008 _putchar_r
0000d994 g     F .text	000000b0 OS_EventTaskRemove
00016ed8 g     F .text	00000068 epcs_write_status_register
0003b68c g     F .text	00000148 igmpv2_chk_set_timer
0001c610 g     F .text	0000002c TK_OSTimeDly
0002c230 g     F .text	00000090 alt_find_dev
00007e90 g     F .text	000000f8 memcpy
0002d80c g     F .text	00000054 tse_mac_setMIImode
00032f0c g     F .text	00000088 task_stats
0002064c g     F .text	0000004c DOMAIN_CHECK
0001f798 g     F .text	00000038 in_broadcast
000499e0 g     O .rwdata	00000002 OSRdyTblSize
0002f494 g     F .text	00000048 alt_tse_phy_rd_mdio_addr
00049c74 g     O .bss	00000004 vfsystems
0003ad04 g     F .text	000000d0 udp_socket
00049b5c g     O .bss	00000004 MaxMtu
00025178 g     F .text	0000013c sock_selscan
00006544 g     F .text	0000000c _cleanup_r
0000b4b4 g     F .text	000000d4 __floatsidf
000367c4 g     F .text	000000c4 ip_reasm_match_frag_with_ire
000243f4 g     F .text	00000054 socantrcvmore
0002d600 g     F .text	000000e0 tse_mac_sTxWrite
00001efc g     F .text	00000014 perror
0002c648 g     F .text	00000078 alt_io_redirect
0000b458 g     F .text	0000005c __ltdf2
00049bb0 g     O .bss	00000004 netq_intmask
0003d024 g     F .text	0000004c hextoa
00041e18 g       *ABS*	00000000 __DTOR_END__
00021790 g     F .text	00000204 t_send
0002bf94 g     F .text	000000c8 alt_close
00049bdc g     O .bss	00000002 select_wait
000021cc g     F .text	00000014 puts
0001c134 g     F .text	00000044 std_out
0004f628 g     O .bss	00000030 tse_iniche_dev_driver_data
0003f588 g     F .text	00000124 vfslookup_locked
000223dc g     F .text	00000098 soaccept
0000c674 g     F .text	00000120 OSEventNameGet
000499c4 g     O .rwdata	00000002 OSFlagMax
0004feb4 g     O .bss	0000003c tcpmib
00021bac g     F .text	00000098 t_errno
000395b0 g     F .text	000000e0 ip_raw_open
00014ef0 g     F .text	00000104 alt_epcs_flash_write_block
00008e40 g     F .text	000000a4 __ratio
0000cfe4 g     F .text	000000f4 OSIntExit
00049aac g     O .rwdata	00000004 ipRoutes
0003e9ac g     F .text	00000050 vfeof
0002a390 g     F .text	0000005c tcp_canceltimers
000499fe g     O .rwdata	00000002 OSTCBSize
00016294 g     F .text	00000088 alt_avalon_sgdma_construct_mem_to_stream_desc_burst
00049b0d g     O .bss	00000001 OSPrioCur
00015840 g     F .text	000002c4 altera_avalon_jtag_uart_read
00041370 g     F .text	00000014 malloc
00049c70 g     O .bss	00000004 inpcb_cachemiss
00001f10 g     F .text	0000002c _printf_r
0003d1e0 g     F .text	000000c0 inet46_addr
00049c6c g     O .bss	00000004 inpcb_cachehits
0000b898 g     F .text	00000008 __udivsi3
0004962c g     O .rwdata	0000000b tcp_outflags
0004f658 g     O .bss	00000130 tse
0000c038 g     F .text	000000a0 isatty
0002e490 g     F .text	00000164 alt_tse_sys_enable_mdio_sharing
000499e4 g     O .rwdata	00000002 OSStkWidth
00043914 g     O .rodata	000000c8 __mprec_tens
0003e184 g     F .text	00000070 vf_alloc_and_link_vop
000499d8 g     O .rwdata	00000002 OSPtrSize
00049c3c g     O .bss	00000004 ipr_curr_mem
00019c2c g     F .text	0000006c exit_hook
0002e75c g     F .text	00000080 alt_tse_get_mac_info_index
00049b70 g     O .bss	00000004 igmp_cticks
00049bc4 g     O .bss	00000004 mheap_sem_ptr
00028494 g     F .text	0000004c ip4_tcpmss
0000742c g     F .text	0000000c __locale_charset
000499b8 g     O .rwdata	00000002 OSEventTblSize
000502d0 g     O .bss	00000014 netlist
00023260 g     F .text	00000098 soshutdown
00041d50 g     F .text	00000084 __fixunsdfsi
0002ce94 g       .text	00000000 OSCtxSw
000328d4 g     F .text	00000050 packet_check
0004fef0 g     O .bss	00000014 mbufq
0002238c g     F .text	00000050 soabort
00049ae0 g     O .bss	00000004 __malloc_top_pad
00049b10 g     O .bss	00000004 OSTCBList
0001d4ec g     F .text	00000100 qdel
000326a0 g     F .text	000001a0 station_state
00039ac8 g     F .text	00000174 rt_lookup
00049bf4 g     O .bss	00000004 alt_fd_list_lock
00049988 g     O .rwdata	00000004 __mb_cur_max
0001a75c g     F .text	00000314 igmp_validate
00007438 g     F .text	0000000c _localeconv_r
00019988 g     F .text	000002a4 ip_startup
00020944 g     F .text	0000024c t_accept
00023e7c g     F .text	00000094 soisdisconnecting
000084b0 g     F .text	0000003c __i2b
00006d4c g     F .text	000004e4 __sfvwrite_r
000163c0 g     F .text	00000058 alt_avalon_sgdma_stop
00019394 g     F .text	000003ac pktdemux
0004c694 g     O .bss	00000c30 OSMemTbl
00049b14 g     O .bss	00000001 OSTickStepState
0002f534 g     F .text	0000012c alt_tse_phy_wr_mdio_reg
0001d7b0 g     F .text	0000009c kbhit
00021054 g     F .text	000001b4 t_setsockopt
000098c0 g     F .text	00000064 _sbrk_r
000497ec g     O .rwdata	00000018 icmpdu_types
0002fbd4 g     F .text	0000069c alt_tse_mac_group_init
0003ea54 g     F .text	00000200 vunlink
000175bc g     F .text	00000a84 tse_mac_init
000499dc g     O .rwdata	00000002 OSQMax
0001b914 g     F .text	000000a8 ccksum
0003e1f4 g     F .text	000000c8 vf_alloc_buffer
00049c60 g     O .bss	00000004 cachedRoute
00049a3c g     O .rwdata	00000004 lilbufs
0004d2c4 g     O .bss	00000800 OSTaskStatStk
0003cbb8 g     F .text	00000024 md_ftell
0001b9bc g     F .text	00000054 cksum
00010330 g     F .text	000000f8 OSMemNameGet
00021f24 g     F .text	00000120 sofree
00049b64 g     O .bss	00000004 ifNumber
000499bc g     O .rwdata	00000002 OSFlagEn
00009e78 g     F .text	0000006c _read_r
00049a02 g     O .rwdata	00000002 OSTimeTickHookEn
0003fa40 g     F .text	00000074 alt_dcache_flush
00011304 g     F .text	00000168 OSQPost
0000ffac g     F .text	000000a0 OS_FlagUnlink
0004800c g     O .rwdata	0000000c __lc_ctype
00049a7c g     O .rwdata	00000004 alt_max_fd
0000df5c g     F .text	0000006c OS_MemCopy
00049a44 g     O .rwdata	00000004 bigbufs
0002b060 g     F .text	000000cc tcp_disconnect
0000dfc8 g     F .text	000000cc OS_Sched
0000bbd8 g     F .text	00000104 __unpack_d
00009bf0 g     F .text	0000013c _fclose_r
00010240 g     F .text	000000f0 OSMemGet
000134d4 g     F .text	000001c4 OSTaskNameSet
00006504 g     F .text	00000030 fflush
00049adc g     O .bss	00000004 __malloc_max_sbrked_mem
00049b18 g     O .bss	00000004 OSCtxSwCtr
0004faac g     O .bss	00000064 igmpstats
0002d2d0 g     F .text	00000028 OSTimeTickHook
0001b314 g     F .text	00000104 bsd_getsockopt
000499c6 g     O .rwdata	00000002 OSFlagNameSize
00050334 g     O .bss	00000018 ire_stats
0002b2a4 g     F .text	000001a0 udp_soinput
0001d440 g     F .text	000000ac putq
0000da44 g     F .text	000000f8 OS_EventTaskRemoveMulti
00049b84 g     O .bss	00000004 iniche_net_ready
0000ad8c g     F .text	00000054 __adddf3
0000d84c g     F .text	00000148 OS_EventTaskWaitMulti
0003f920 g     F .text	00000048 isvfile
000233f0 g     F .text	00000430 sosetopt
0001c464 g     F .text	000000e0 netmain
000284e0 g     F .text	000000f8 tcp_mss
00014e7c g     F .text	00000074 alt_epcs_flash_erase_block
00008bb4 g     F .text	00000148 __b2d
0003ccc8 g     F .text	000002fc parse_ipad
0003e164 g     F .text	00000020 get_vfopen_error
000499de g     O .rwdata	00000002 OSQSize
0000a4ac g     F .text	0000058c __umoddi3
0000c128 g     F .text	000000d0 lseek
0003299c g     F .text	00000160 inet_timer
00011e18 g     F .text	0000026c OSSemPend
0002f72c g     F .text	00000298 alt_tse_phy_add_profile_default
00030e30 g     F .text	00000598 alt_tse_phy_get_cap
00049980 g     O .rwdata	00000004 _global_impure_ptr
0001bdf4 g     F .text	00000158 print_eth
0001719c g     F .text	00000058 epcs_exit_4_bytes_mode
0003e640 g     F .text	00000050 vfopen
0002c980 g     F .text	000000f0 alt_read
00009058 g     F .text	000005fc _realloc_r
0000084c g     F .text	000002c0 alt_NetworkErrorHandler
000499c8 g     O .rwdata	00000002 OSLowestPrio
00050554 g       *ABS*	00000000 __bss_end
0002c498 g     F .text	000000f0 alt_iic_isr_register
00015e24 g     F .text	00000124 alt_avalon_sgdma_do_async_transfer
0001e718 g     F .text	00000118 m_free
0002d34c g     F .text	00000020 OSTCBInitHook
000187dc g     F .text	00000040 tse_mac_stats
0001cf70 g     F .text	0000028c pk_validate
00049a0e g     O .rwdata	00000002 OSTmrCfgTicksPerSec
0002cbdc g     F .text	00000104 alt_tick
0003dee8 g     F .text	00000254 in_pcblookup
00009ee4 g     F .text	000005c8 __udivdi3
0001e590 g     F .text	00000188 m_getnbuf
0001d2cc g     F .text	000000bc dump_buf_estats
00030cd0 g     F .text	00000160 alt_tse_phy_check_link
00049c34 g     O .bss	00000004 arpRepsOut
000499b0 g     O .rwdata	00000002 OSEventEn
000438ec g     O .rodata	00000028 __mprec_bigtens
00008294 g     F .text	00000104 __s2b
00049a0a g     O .rwdata	00000002 OSTmrCfgNameSize
0000b65c g     F .text	0000011c __floatunsidf
0003251c g     F .text	000000f4 netmain_init
000322d0 g     F .text	000000e4 marvell_cfg_sgmii
00030b0c g     F .text	000001c4 alt_tse_phy_restart_an
00008954 g     F .text	00000058 __mcmp
00029918 g     F .text	0000040c tcp_respond
0002b684 g     F .text	000002dc udp4_sockbind
0004997c g     O .rwdata	00000004 __ctype_ptr
00049bb4 g     O .bss	00000004 old_mode
0001a484 g     F .text	0000025c igmp_joingroup
0001f8c4 g     F .text	00000350 so_icmpdu
000067dc g     F .text	00000018 __fp_lock_all
00049c84 g     O .bss	00000004 vfs_dir_stale
0002c44c g     F .text	0000004c alt_ic_irq_enabled
0005015c g     O .bss	00000010 pphy_profiles
00037c9c g     F .text	0000011c ip_reasm_process_timer_tick
0003f9c4 g     F .text	00000058 vclearerr
0001b840 g     F .text	000000d4 bsd_setsockopt
0001ed30 g     F .text	00000054 mbuf_len
0000fdbc g     F .text	000000e4 OS_FlagInit
0002cb44 g     F .text	00000098 alt_alarm_stop
0003f6f4 g     F .text	000001d4 strippath
0001c6ac g     F .text	000001a4 tcp_sleep
000419b4 g     F .text	00000024 strtol
0002b12c g     F .text	000000d4 tcp_usrclosed
02002400 g       *ABS*	00000000 __alt_mem_descriptor_memory
00049ba0 g     O .bss	00000004 cticks_factor
000499ec g     O .rwdata	00000002 OSTaskIdleStkSize
0003d9a4 g     F .text	00000210 in_pcbbind
00049bf8 g     O .bss	00000004 alt_irq_active
000119f8 g     F .text	000000b0 OSSemAccept
00010544 g     F .text	000000d8 OSMemPut
0001004c g     F .text	000001f4 OSMemCreate
00049b1c g     O .bss	00000004 OSIdleCtrMax
000000ec g     F .exceptions	000000d0 alt_irq_handler
00049644 g     O .rwdata	00000028 alt_dev_null
00049a56 g     O .rwdata	00000001 tcprexmtthresh
00049a00 g     O .rwdata	00000002 OSTicksPerSec
000346cc g     F .text	00000090 if_killsocks
00035108 g     F .text	00000218 ip_write
00038844 g     F .text	000005dc ip_rcv_phase2
00020e3c g     F .text	00000044 t_getsockname
00020b90 g     F .text	00000268 t_connect
00049a50 g     O .rwdata	00000004 TCPTV_MSL
0004fb48 g     O .bss	00000010 memestats
000309f4 g     F .text	00000118 alt_tse_phy_init
0001d84c g     F .text	00000064 getch
000498e4 g     O .rwdata	00000080 vfs_root_path
00020df8 g     F .text	00000044 t_getpeername
00016418 g     F .text	00000064 alt_avalon_sgdma_check_descriptor_status
00036a8c g     F .text	00000098 ip_reasm_decr_mem_useage
0002457c g     F .text	00000088 soreserve
0002ce94 g       .text	00000000 OSIntCtxSw
0001e1f8 g     F .text	000000ec npalloc
00008398 g     F .text	00000068 __hi0bits
00049c5c g     O .bss	00000004 ipraw_eps
0001cc10 g     F .text	00000294 pk_init
0003c9b8 g     F .text	0000015c md_fread
0004131c g     F .text	0000001c calloc
00018040 g     F .text	000002f8 tse_mac_raw_send
0000b588 g     F .text	000000d4 __fixdfsi
0005016c g     O .bss	00000064 intimers
00024654 g     F .text	00000048 sbrelease
000255d4 g     F .text	000000f0 ifd_clr
00024f00 g     F .text	0000008c sbdroprecord
0001bf4c g     F .text	0000007c uslash
0002cd88 g     F .text	000000ec alt_write
00049c30 g     O .bss	00000004 arpRepsIn
00032c94 g     F .text	000001b8 in_timerset
00049b20 g     O .bss	00000004 OSTCBFreeList
00012084 g     F .text	00000174 OSSemPendAbort
000285d8 g     F .text	0000101c tcp_output
00049c08 g     O .bss	00000004 activehost
00049a74 g     O .rwdata	00000008 alt_dev_list
0001c254 g     F .text	00000210 parse_args
00049bb8 g     O .bss	00000004 global_TCPwakeup_setIndx
0000680c g     F .text	00000044 _fputc_r
00018b00 g     F .text	00000068 write
00016554 g     F .text	00000080 alt_avalon_sgdma_enable_desc_poll
0001e2e4 g     F .text	000000c0 npfree
00001f78 g     F .text	000000bc _putc_r
00033a08 g     F .text	000002c4 arpReply
0001ba3c g     F .text	0000007c nextarg
00049a04 g     O .rwdata	00000002 OSVersionNbr
000373c8 g     F .text	00000530 ip_reasm_process_subsequent_fragments
00049ab8 g     O .rwdata	00000004 pton_error
0004a324 g     O .bss	00002000 SSSInitialTaskStk
0004f788 g     O .bss	00000014 rcvdq
00025558 g     F .text	0000007c tcp_notify
0000bf3c g     F .text	000000ac fstat
00001bb4 g     F .text	00000024 fprintf
00022474 g     F .text	000000b8 soconnect
00039a70 g     F .text	00000058 ip_raw_maxalloc
0000bdac g     F .text	00000044 __lshrdi3
000324a4 g     F .text	00000078 DP83848C_link_status_read
0003de68 g     F .text	00000080 in_setpeeraddr
000499ac g     O .rwdata	00000004 OSEndiannessTest
0001d8b0 g     F .text	0000003c clock_init
0003e8d4 g     F .text	000000d8 vfgets
0003307c g     F .text	0000018c et_send
000086cc g     F .text	0000012c __pow5mult
00049ad4 g     O .bss	00000004 __nlocale_changed
0000b8a0 g     F .text	00000008 __umodsi3
0003cfc4 g     F .text	00000060 inet_addr
00036958 g     F .text	00000094 ip_reasm_check_mem_useage
000232f8 g     F .text	000000f8 sorflush
000419d8 g     F .text	00000020 vprintf
0004fc5c g     O .bss	000000fc global_tcb_ext
0003575c g     F .text	00000418 ip_fragment_lc
0004f79c g     O .bss	00000300 netstatic
0001705c g     F .text	00000068 epcs_read_electronic_signature
00020718 g     F .text	0000015c t_bind
00016218 g     F .text	0000007c alt_avalon_sgdma_construct_mem_to_stream_desc
000499be g     O .rwdata	00000002 OSFlagGrpSize
0003d7f0 g     F .text	000000d8 udp_close
0001631c g     F .text	00000050 alt_avalon_sgdma_register_callback
0001defc g     F .text	000001fc alt_iniche_init
00050554 g       *ABS*	00000000 end
0001db14 g     F .text	00000084 UNLOCK_NET_RESOURCE
00017338 g     F .text	00000284 prep_tse_mac
0002138c g     F .text	000000e0 t_recv
0003ec54 g     F .text	0000018c vfread
000192b0 g     F .text	000000e4 netclose
00001a9c g     F .text	000000f0 SSSSimpleSocketServerTask
00041310 g     F .text	0000000c _atoi_r
0002d8b0 g     F .text	000001e4 alt_tse_phy_add_profile
00049a60 g     O .rwdata	00000004 tcp_keepintvl
000151f0 g     F .text	0000013c altera_avalon_jtag_uart_init
0000e230 g     F .text	000000bc OS_TaskStat
00049a1c g     O .rwdata	00000004 tse_mac_name
000495e4 g     O .rwdata	00000018 tcp_protosw
00041e18 g       *ABS*	00000000 __CTOR_LIST__
00049c80 g     O .bss	00000004 vfopen_error
02000000 g       *ABS*	00000000 __alt_stack_pointer
00049bec g     O .bss	00000004 tcp_maxidle
00049c68 g     O .bss	00000004 firstudp
000165d4 g     F .text	00000060 alt_avalon_sgdma_disable_desc_poll
00016b48 g     F .text	00000088 alt_avalon_timer_sc_init
0000b908 g     F .text	000000ac __clzsi2
00015b04 g     F .text	000002d0 altera_avalon_jtag_uart_write
00016058 g     F .text	00000070 alt_avalon_sgdma_construct_mem_to_mem_desc
000067cc g     F .text	00000004 __sfp_lock_acquire
00007d98 g     F .text	000000f8 memchr
0000df08 g     F .text	00000054 OS_MemClr
00002a10 g     F .text	00001df8 ___vfprintf_internal_r
0002cf64 g     F .text	000002f4 OSTaskStkInit
00041414 g     F .text	00000058 _sprintf_r
00016148 g     F .text	0000005c alt_avalon_sgdma_construct_stream_to_mem_desc
00006a7c g     F .text	000002d0 _free_r
0003b7d4 g     F .text	00000140 igmpv2_chk4_rtr_alert_opt
00021a64 g     F .text	000000bc t_socketclose
0000d5ac g     F .text	00000198 OS_EventTaskRdy
00041bb0 g     F .text	000001a0 __call_exitprocs
000021e0 g     F .text	0000004c __srget_r
00018338 g     F .text	000000b0 tse_sgdmaRx_isr
00049b24 g     O .bss	00000001 OSCPUUsage
0004fa9c g     O .bss	00000010 nets
0001da50 g     F .text	000000c4 LOCK_NET_RESOURCE
00049ad0 g     O .bss	00000004 __mlocale_changed
00018598 g     F .text	00000244 tse_mac_rcv
00020698 g     F .text	00000080 t_socket
0004998c g     O .rwdata	00000004 __malloc_sbrk_base
000001bc g     F .text	00000048 _start
00033034 g     F .text	00000048 etainit
00049bfc g     O .bss	00000004 _alt_tick_rate
00032924 g     F .text	00000024 mcastlist
00010e94 g     F .text	000002fc OSQPend
0004fb58 g     O .bss	000000f0 pktlog
0003b310 g     F .text	00000140 igmpv2_process_report
00025738 g     F .text	00000078 ifd_isset
0003a028 g     F .text	00000134 del_route
0001647c g     F .text	00000050 alt_avalon_sgdma_open
000029d4 g     F .text	00000008 _user_strerror
00013e0c g     F .text	00000148 OSTimeDly
00000ef8 g     F .text	00000054 get_mac_addr
00021e54 g     F .text	000000d0 solisten
000087f8 g     F .text	0000015c __lshift
0002d36c g     F .text	00000208 alt_avalon_spi_command
00049c00 g     O .bss	00000004 _alt_nticks
0002f660 g     F .text	000000cc alt_tse_phy_rd_mdio_reg
00018a90 g     F .text	00000070 read
000144a4 g     F .text	00000258 alt_sys_init
00029fcc g     F .text	00000048 tcp_quench
0001bfc8 g     F .text	0000016c ns_printf
00034568 g     F .text	000000d4 isbcast
0001db98 g     F .text	00000230 TK_NEWTASK
00041a80 g     F .text	00000130 __register_exitproc
00049b25 g     O .bss	00000001 OSTaskCtr
00036888 g     F .text	000000d0 ip_reasm_determine_type_of_frag
00049c04 g     O .bss	00000001 phy_profile_count
00041654 g     F .text	000000fc strncmp
0002e6e8 g     F .text	00000074 alt_tse_get_mac_group_index
00013f54 g     F .text	00000230 OSTimeDlyHMSM
0002cb04 g     F .text	00000040 alt_remap_uncached
00039690 g     F .text	000000bc ip_raw_close
000084ec g     F .text	000001e0 __multiply
00049834 g     O .rwdata	000000b0 mdlist
000156e4 g     F .text	00000068 altera_avalon_jtag_uart_close
00019ed8 g     F .text	000000e0 igmp_input
00035698 g     F .text	000000c4 ip_raw_write
0003ede0 g     F .text	000003ac vfwrite_locked
0004a288 g     O .bss	00000028 __malloc_current_mallinfo
000499b2 g     O .rwdata	00000002 OSEventMax
0003d2a0 g     F .text	00000068 inet_setport
00008cfc g     F .text	00000144 __d2b
000121f8 g     F .text	00000110 OSSemPost
00027f60 g     F .text	00000180 tcp_dooptions
00016bd0 g     F .text	0000005c epcs_read_status_register
00023d7c g     F .text	00000100 soisconnected
0000d160 g     F .text	000000d8 OSSchedUnlock
00039560 g     F .text	00000028 netexit
000010fc g     F .text	000001d0 get_serial_number
00049b80 g     O .bss	00000004 nettick_wakes
0002f4dc g     F .text	00000058 alt_tse_phy_wr_mdio_addr
00049be0 g     O .bss	00000001 tcpprintfs
00032e4c g     F .text	0000009c in_timerkill
0003b1c8 g     F .text	00000148 igmpv2_input
0001508c g     F .text	00000060 altera_avalon_jtag_uart_read_fd
0001ba10 g     F .text	0000002c do_trap
0003fd30 g     F .text	000000fc alt_get_fd
0001b418 g     F .text	000000ec bsd_ioctl
00049b28 g     O .bss	00000004 OSMemFreeList
0000d2a4 g     F .text	000000ac OSStatInit
0001f010 g     F .text	000001c4 tcp_rcv
0001bdb0 g     F .text	00000044 panic
000411c8 g     F .text	00000128 alt_busy_sleep
00049c88 g     O .bss	00000004 vfs_open_files
000197f8 g     F .text	00000190 ip2mac
0000fb38 g     F .text	000000c4 OSFlagQuery
0000bcdc g     F .text	000000d0 __fpcmp_parts_d
000252b4 g     F .text	000001e4 sock_select
000297b8 g     F .text	00000058 tcp_init
00049bbc g     O .bss	00000004 cticks
00049b89 g     O .bss	00000001 to_nettick
000499e8 g     O .rwdata	00000002 OSTaskCreateExtEn
00009b8c g     F .text	00000064 _close_r
00018b68 g     F .text	000005f0 Netinit
0001e18c g     F .text	00000038 prep_armintcp
00039220 g     F .text	0000014c in_addmulti
00029810 g     F .text	00000108 tcp_template
00031974 g     F .text	00000328 alt_tse_phy_get_common_speed
0001ee20 g     F .text	00000070 remque
000419f8 g     F .text	00000014 _vprintf_r
00025814 g     F .text	0000040c tcp_reass
0003d43c g     F .text	0000019c tcp_cksum
0002b960 g     F .text	0000037c udp4_socksend
000170c4 g     F .text	00000080 epcs_read_device_id
0003e690 g     F .text	000001bc vfclose_locked
000256c4 g     F .text	00000074 ifd_set
00041398 g     F .text	0000007c memcmp
0000d590 g     F .text	0000001c OS_Dummy
0001514c g     F .text	00000050 altera_avalon_jtag_uart_close_fd
00049b60 g     O .bss	00000004 NDEBUG
00050554 g       *ABS*	00000000 __alt_stack_base
00049ac8 g     O .bss	00000004 last_flash_sector
0001519c g     F .text	00000054 altera_avalon_jtag_uart_ioctl_fd
00024604 g     F .text	00000050 sbreserve
00049c05 g     O .bss	00000001 mac_group_count
0003974c g     F .text	00000224 ip_raw_input
00001bd8 g     F .text	000000a0 _fwrite_r
00049a40 g     O .rwdata	00000004 lilbufsiz
000257b0 g     F .text	00000064 ifd_get
000244e8 g     F .text	00000094 sbwakeup
00004984 g     F .text	00000174 __swsetup_r
000171f4 g     F .text	00000144 altera_eth_tse_init
0004dac4 g     O .bss	000001e0 OSQTbl
0002820c g     F .text	00000288 tcp_xmit_timer
000183e8 g     F .text	000001b0 tse_sgdma_read_init
0000b124 g     F .text	000001b4 __divdf3
000066d0 g     F .text	000000fc __sfp
0000148c g     F .text	00000140 generate_mac_addr
00034844 g     F .text	00000184 ip_bldhead
00008f58 g     F .text	0000007c __copybits
0002469c g     F .text	000000a0 sbappend
00048018 g     O .rwdata	00000408 __malloc_av_
000067d8 g     F .text	00000004 __sinit_lock_release
00049b2c g     O .bss	00000004 OSTCBHighRdy
0000ae40 g     F .text	000002e4 __muldf3
00035320 g     F .text	00000378 ip_write2
00009924 g     F .text	00000054 __sread
00049aa4 g     O .rwdata	00000004 arp_ageout
00049b30 g     O .bss	00000004 OSQFreeList
00030270 g     F .text	0000041c alt_tse_mac_get_phy
0003475c g     F .text	000000e8 ip_init
0003fc1c g     F .text	00000114 alt_find_file
00039a30 g     F .text	00000040 ip_raw_free
00033908 g     F .text	00000100 make_arp_entry
0002c0d8 g     F .text	000000a0 alt_dev_llist_insert
0000c48c g     F .text	00000114 __malloc_lock
00001b8c g     F .text	00000028 _fprintf_r
0000c2c4 g     F .text	000000b0 sbrk
0002b240 g     F .text	00000064 udp_lookup
0001636c g     F .text	00000054 alt_avalon_sgdma_start
0000c794 g     F .text	00000144 OSEventNameSet
0000631c g     F .text	000001e8 _fflush_r
0002e994 g     F .text	0000008c alt_tse_mac_set_duplex
00009ad0 g     F .text	000000bc _calloc_r
00049b34 g     O .bss	00000001 OSRdyGrp
0003c970 g     F .text	00000028 md_fopen
000495fc g     O .rwdata	00000018 udp_protosw
00049994 g     O .rwdata	00000008 alt_flash_dev_list
0003dde8 g     F .text	00000080 in_setsockaddr
00049ac0 g       *ABS*	00000000 __bss_start
0002473c g     F .text	000000d8 sbappendrecord
000502e4 g     O .bss	00000050 ip_mib
00001db0 g     F .text	000000dc memset
0002252c g     F .text	00000098 sodisconnect
00000e78 g     F .text	00000080 main
00049af0 g     O .bss	00000004 alt_envp
00049ad8 g     O .bss	00000004 __malloc_max_total_mem
00001800 g     F .text	00000070 sss_reset_connection
0001eb60 g     F .text	000001d0 m_adj
000150ec g     F .text	00000060 altera_avalon_jtag_uart_write_fd
00004968 g     F .text	0000001c __swbuf
0003cbdc g     F .text	000000c8 md_fgetc
00043b0c g     O .rodata	00000100 OSUnMapTbl
000361cc g     F .text	000002a8 ip_dump
0001c9ec g     F .text	00000224 tk_stats
00049a28 g     O .rwdata	00000008 alt_iniche_dev_list
00049a20 g     O .rwdata	00000008 alt_sgdma_list
000499e2 g     O .rwdata	00000002 OSSemEn
00049ba4 g     O .bss	00000004 OS_TPS
0001ff04 g     F .text	00000748 rawip_usrreq
0000f7a4 g     F .text	00000394 OSFlagPost
00009a5c g     F .text	00000008 __sclose
0003d184 g     F .text	0000005c print46_addr
02000000 g       *ABS*	00000000 __alt_heap_limit
00009d2c g     F .text	00000014 fclose
0000d744 g     F .text	00000108 OS_EventTaskWait
00041750 g     F .text	00000264 _strtol_r
0001bc74 g     F .text	0000013c print_uptime
0000e2ec g     F .text	000000c8 OS_TaskStatStkChk
000503c4 g     O .bss	00000190 _atexit0
000131d4 g     F .text	00000158 OSTaskDelReq
00004d00 g     F .text	0000161c _dtoa_r
00007614 g     F .text	00000784 _malloc_r
0003cca4 g     F .text	00000024 md_unlink
0002d784 g     F .text	00000088 tse_mac_SwReset
0003d950 g     F .text	00000054 in_pcbdetach
00049a80 g     O .rwdata	00000004 alt_errno
00049ab4 g     O .rwdata	00000004 mdlist_size
0000d238 g     F .text	0000006c OSStart
0003c1c0 g     F .text	00000030 u_mctest_init
0000c42c g     F .text	00000060 __env_unlock
00007230 g     F .text	000000a8 _fwalk
00013698 g     F .text	000001f4 OSTaskResume
0001061c g     F .text	000000e8 OSMemQuery
0003d308 g     F .text	00000134 convert_ip
00033754 g     F .text	000001b4 find_oldest_arp
000499f4 g     O .rwdata	00000002 OSTaskStatEn
00049c28 g     O .bss	00000004 arpReqsIn
0003e2bc g     F .text	0000004c vf_free_buffer
0003fb04 g     F .text	00000118 alt_fcntl
000499ce g     O .rwdata	00000002 OSMemMax
0001146c g     F .text	00000170 OSQPostFront
0001d780 g     F .text	00000030 dtrap
00049a4c g     O .rwdata	00000004 kb_last
00002034 g     F .text	000000f0 putc
0000b7ec g     F .text	00000050 __divsi3
0002e634 g     F .text	00000048 alt_tse_mac_set_common_speed
00049b35 g     O .bss	00000003 OSRdyTbl
000499a8 g     O .rwdata	00000002 OSDebugEn
000439e8 g     O .rodata	00000014 __thenan_df
00019c98 g     F .text	000000cc ip_exit
00006940 g     F .text	0000013c _malloc_trim_r
00041e18 g       *ABS*	00000000 __CTOR_END__
000499c0 g     O .rwdata	00000002 OSFlagNodeSize
0001d908 g     F .text	000000ac cticks_hook
00049a08 g     O .rwdata	00000002 OSTmrCfgMax
00032840 g     F .text	00000094 sysuptime
00014afc g     F .text	00000260 alt_epcs_flash_write
00002240 g     F .text	000000a4 strcmp
000012cc g     F .text	000001c0 generate_and_store_mac_addr
00037db8 g     F .text	000001b4 ip_reasm_delete_ire
00010914 g     F .text	000001f8 OSQCreate
0001d9b4 g     F .text	0000005c irq_Mask
0001332c g     F .text	000001a8 OSTaskNameGet
00049c10 g     O .bss	00000004 nextppp
00049b94 g     O .bss	00000004 irq_level
00019158 g     F .text	00000158 fixup_subnet_mask
000115dc g     F .text	0000020c OSQPostOpt
0000d350 g     F .text	00000220 OSTimeTick
00036694 g     F .text	00000130 ip_copypkt
000499f0 g     O .rwdata	00000002 OSTaskMax
00041e18 g       *ABS*	00000000 __DTOR_LIST__
00011aa8 g     F .text	00000100 OSSemCreate
00049b74 g     O .bss	00000004 igmp_all_hosts_group
00049a14 g     O .rwdata	00000002 OSTmrWheelSize
00024448 g     F .text	00000038 sbselqueue
00049b7c g     O .bss	00000004 netmain_wakes
00033ccc g     F .text	0000026c arprcv
0001c63c g     F .text	00000070 TK_OSTaskResume
0001aa70 g     F .text	00000420 igmp_print_stats
0000b334 g     F .text	0000005c __nedf2
0001e43c g     F .text	00000090 pffindtype
000499ea g     O .rwdata	00000002 OSTaskDelEn
00049a64 g     O .rwdata	00000004 tcp_sendspace
0003f338 g     F .text	00000110 vftell
0004fb10 g     O .bss	00000012 eth_prt_buf
00012308 g     F .text	00000118 OSSemQuery
00010b0c g     F .text	000002d0 OSQDel
00011190 g     F .text	00000174 OSQPendAbort
00014470 g     F .text	00000034 alt_irq_init
0002e5f4 g     F .text	00000040 alt_tse_mac_get_common_speed
0004fe88 g     O .bss	00000018 app_semaphore
0002ca70 g     F .text	00000060 alt_release_fd
0001de84 g     F .text	00000078 post_app_sem
00019de8 g     F .text	000000f0 igmp_init
0004146c g     F .text	0000006c sprintf
000439fc g     O .rodata	00000100 __clz_tab
0003cb14 g     F .text	00000078 md_fwrite
00049acc g     O .bss	00000004 _PathLocale
00049ba8 g     O .bss	00000004 tcp_sleep_count
0001ee90 g     F .text	00000078 insque
000412f0 g     F .text	00000014 atexit
00049c7c g     O .bss	00000004 vfsfiles
00009a64 g     F .text	0000006c _write_r
00041a0c g     F .text	00000050 _vsprintf_r
0003a974 g     F .text	000002a0 udp_send
0000d0d8 g     F .text	00000088 OSSchedLock
0001a1dc g     F .text	000002a8 igmp_send
00007444 g     F .text	0000001c setlocale
0000eb20 g     F .text	00000128 OSFlagCreate
0001da10 g     F .text	00000040 irq_Unmask
00020874 g     F .text	000000d0 t_listen
00049984 g     O .rwdata	00000004 _impure_ptr
00047ad4 g     O .rwdata	00000018 ssstask
00049ae8 g     O .bss	00000004 alt_argc
0002a85c g     F .text	000006ec tcp_usrreq
0002b444 g     F .text	00000240 udp_usrreq
0001e3a4 g     F .text	00000050 ncpalloc
0002c1d4 g     F .text	0000005c _do_dtors
000499ba g     O .rwdata	00000002 OSEventMultiEn
00049a9c g     O .rwdata	00000004 pingdelay
0003328c g     F .text	00000070 arp_send_pending
0004f548 g     O .bss	000000e0 tse_mac_if
0003aefc g     F .text	000002cc igmpv1_input
00009670 g     F .text	000001ec __srefill_r
0001e0f8 g     F .text	00000074 pre_task_setup
00049bc8 g     O .bss	00000004 rcvdq_sem_ptr
0001b0c0 g     F .text	00000118 bsd_getsockname
00037f6c g     F .text	00000130 ip_reasm_mark_compact_rfq
000016d4 g     F .text	0000012c FindLastFlashSectorOffset
0000ec48 g     F .text	00000270 OSFlagDel
00049b38 g     O .bss	00000004 OSEventFreeList
00000020 g       .exceptions	00000000 alt_irq_entry
00049c20 g     O .bss	00000004 arpcache
00040b28 g     F .text	00000314 icmp_destun
00039474 g     F .text	00000064 lookup_mcast
0003f6ac g     F .text	00000048 vfslookup
00038e20 g     F .text	00000400 ip_demux
00008b54 g     F .text	00000060 __ulp
0000985c g     F .text	00000038 __isinfd
00049bac g     O .bss	00000004 tcp_wakeup_count
0000f13c g     F .text	00000600 OSFlagPend
00049a06 g     O .rwdata	00000002 OSTmrEn
000067f4 g     F .text	00000018 __fp_unlock_all
0001ddc8 g     F .text	000000bc wait_app_sem
00006850 g     F .text	00000060 fputc
00049a30 g     O .rwdata	00000004 ipmcfail_str
00049bc0 g     O .bss	00000004 memtrapsize
0001e870 g     F .text	000002f0 m_copy
00049a6c g     O .rwdata	00000008 alt_fs_list
0004ff04 g     O .bss	00000014 mfreeq
0000e104 g     F .text	0000007c OS_StrCopy
00021df8 g     F .text	0000005c sobind
0003c8f8 g     F .text	00000078 init_memdev
00049ac0 g     O .bss	00000001 to_ssstask
0001ef08 g     F .text	00000108 nptcp_init
000499d0 g     O .rwdata	00000002 OSMemNameSize
0004fd58 g     O .bss	000000f0 global_TCPwakeup_set
0002d314 g     F .text	0000001c OSInitHookEnd
00023f10 g     F .text	000000c0 soisdisconnected
00033208 g     F .text	00000084 arp_free_pending
000499fc g     O .rwdata	00000002 OSTCBPrioTblMax
00007460 g     F .text	0000000c localeconv
00022044 g     F .text	00000348 soclose
00016d94 g     F .text	000000f4 epcs_read_buffer
0004fc48 g     O .bss	00000014 bigfreeq
000499f8 g     O .rwdata	00000002 OSTaskStatStkChkEn
00049a98 g     O .rwdata	00000004 prompt
00014734 g     F .text	00000054 alt_epcs_flash_init
000317cc g     F .text	000001a8 alt_tse_phy_set_adv_10
00049a5c g     O .rwdata	00000004 tcp_keepidle
0001fd3c g     F .text	000001c8 rawip_soinput
0002c2c0 g     F .text	00000050 alt_ic_isr_register
0003f18c g     F .text	00000060 vfwrite
000499cc g     O .rwdata	00000002 OSMemEn
000241f0 g     F .text	000000a8 soqinsque
00049c54 g     O .bss	00000004 so_evtmap_delete
00001c78 g     F .text	00000040 fwrite
000499d6 g     O .rwdata	00000002 OSMutexEn
00049c40 g     O .bss	00000004 h_ireq
00049ac0 g       *ABS*	00000000 _edata
00035b74 g     F .text	000005b0 ip_fragment
00018968 g     F .text	00000128 iniche_devices_init
0004ff18 g     O .bss	00000028 tcp_saveti
0001c178 g     F .text	000000dc con_page
00050554 g       *ABS*	00000000 _end
00023820 g     F .text	000004a8 sogetopt
0000be34 g     F .text	00000068 alt_flash_open_dev
00049b3c g     O .bss	00000001 OSIntNesting
0003068c g     F .text	00000240 alt_tse_mac_associate_phy
000495b4 g     O .rwdata	00000030 nettasks
0001d2ac g     F .text	00000020 pk_get_max_intrsafe_buf_len
00036474 g     F .text	00000220 iproute
0001f7d0 g     F .text	000000f4 np_stripoptions
00049c58 g     O .bss	00000001 so_evtmap
0001574c g     F .text	000000f4 altera_avalon_jtag_uart_ioctl
000068b0 g     F .text	00000074 _fputs_r
00014184 g     F .text	000001ec OSTimeDlyResume
00039c3c g     F .text	000003ec add_route
0000efe8 g     F .text	00000154 OSFlagNameSet
00019740 g     F .text	000000b8 c_older
00024bc4 g     F .text	00000088 sbflush
0003c998 g     F .text	00000020 md_fclose
0001c9c0 g     F .text	0000002c tk_yield
00001870 g     F .text	000000bc sss_handle_accept
0001388c g     F .text	000001d4 OSTaskStkChk
0002c3ac g     F .text	000000a0 alt_ic_irq_disable
000225c4 g     F .text	0000055c sosend
00017144 g     F .text	00000058 epcs_enter_4_bytes_mode
000499d2 g     O .rwdata	00000002 OSMemSize
00036124 g     F .text	000000a8 ip_mymach
000164cc g     F .text	00000088 alt_avalon_sgdma_construct_descriptor
00009978 g     F .text	00000088 __swrite
00049b90 g     O .bss	00000004 cticks_initialized
00049aa0 g     O .rwdata	00000004 deflength
000215a4 g     F .text	000001ec t_sendto
00049990 g     O .rwdata	00000004 __malloc_trim_threshold
00001e8c g     F .text	00000070 _perror_r
0002ce74 g     F .text	00000020 altera_nios2_qsys_irq_init
00049b40 g     O .bss	00000004 OSTCBCur
00021c44 g     F .text	000001b4 socreate
00041338 g     F .text	00000038 exit
000501d0 g     O .bss	00000100 arp_table
00049c94 g     O .bss	00000004 icmpdu_hook
000499d4 g     O .rwdata	00000002 OSMemTblSize
000072d8 g     F .text	000000b8 _fwalk_reent
00032ee8 g     F .text	00000024 create_apptasks
00049a58 g     O .rwdata	00000004 tcp_ttl
000089ac g     F .text	000001a8 __mdiff
0000be9c g     F .text	00000050 alt_flash_close_dev
0001e3f4 g     F .text	00000048 ncpfree
0000b83c g     F .text	0000005c __modsi3
00049b58 g     O .bss	00000004 MaxLnh
0002d860 g     F .text	00000050 tse_mac_setGMIImode
0003d104 g     F .text	00000080 inet_ntop
0003ae90 g     F .text	0000002c udp_maxalloc
000321ec g     F .text	000000e4 marvell_cfg_gmii
02000000 g       *ABS*	00000000 __alt_data_end
00000020 g     F .exceptions	00000000 alt_exception
000067d0 g     F .text	00000004 __sfp_lock_release
0000cf14 g     F .text	00000054 OSInit
00000000 g       *ABS*	00000000 __alt_mem_sdram
000308cc g     F .text	00000128 alt_tse_phy_cfg_pcs
00013c70 g     F .text	0000012c OSTaskQuery
00032610 g     F .text	00000090 icmp_port_du
00049bf0 g     O .bss	00000004 tcp_iss
0001194c g     F .text	000000ac OS_QInit
00041304 g     F .text	0000000c atoi
00049a48 g     O .rwdata	00000004 bigbufsiz
0000e180 g     F .text	00000054 OS_StrLen
0002a014 g     F .text	00000080 tcp_putseq
00010428 g     F .text	0000011c OSMemNameSet
00042ddc g     O .rodata	00000101 _ctype_
00024814 g     F .text	000001d8 sbappendaddr
02001000 g       *ABS*	00000000 __alt_mem_ext_flash
00049c8c g     O .bss	00000004 vfs_total_rw_space
0003c028 g     F .text	00000114 ip_getmoptions
000499ee g     O .rwdata	00000002 OSTaskProfileEn
0003ac14 g     F .text	000000f0 udpswap
00049b44 g     O .bss	00000004 OSTime
00049bcc g     O .bss	00000004 nextslow
0002a10c g     F .text	00000284 tcp_slowtimo
00029d24 g     F .text	0000010c tcp_newtcpcb
00033f38 g     F .text	000001a8 send_via_arp
000378f8 g     F .text	00000058 ip_reasm_find_ire
0004dca4 g     O .bss	00000800 OSTaskIdleStk
00041dd4 g     F .text	00000044 _exit
0003f8c8 g     F .text	00000058 isvfile_locked
00009894 g     F .text	0000002c __isnand
0001b674 g     F .text	000001cc bsd_select
0002be04 g     F .text	00000140 alt_alarm_start
0000eeb8 g     F .text	00000130 OSFlagNameGet
0003aebc g     F .text	00000040 udp_free
0001d388 g     F .text	000000b8 getq
0003fa1c g     F .text	00000024 prep_vfs
00014370 g     F .text	00000064 OSTimeGet
00049a94 g     O .rwdata	00000004 name
00024e04 g     F .text	000000fc sbdropend
0000b8a8 g     F .text	00000060 __muldi3
0000746c g     F .text	000001a8 __smakebuf_r
000340e0 g     F .text	00000150 cb_arpent_tmo
00002948 g     F .text	0000008c strlen
0003b914 g     F .text	00000148 IPADDR_TO_NETP
00016e88 g     F .text	00000050 epcs_write_enable
0001b504 g     F .text	00000034 bsd_inet_ntoa
0002d298 g     F .text	0000001c OSTaskSwHook
0002c7dc g     F .text	00000154 open
0003d5d8 g     F .text	00000218 udp_open
0004e4a4 g     O .bss	00000b40 OSEventTbl
000243a0 g     F .text	00000054 socantsendmore
00049c90 g     O .bss	00000004 vfs_total_dyna_files
0000b3f4 g     F .text	00000064 __gedf2
0004efe4 g     O .bss	00000510 OSTCBTbl
00049c2c g     O .bss	00000004 arpReqsOut
00012420 g     F .text	00000100 OSSemSet
00049abc g     O .rwdata	00000004 http_root_path
00036e64 g     F .text	00000564 ip_reasm_compute_overlap
0002d6e0 g     F .text	000000a4 tse_mac_aRxRead
000414d8 g     F .text	000000e8 strchr
0004fb22 g     O .bss	00000012 ipreturn
00049c48 g     O .bss	00000004 port_prep
00049637 g     O .rwdata	0000000d tcp_backoff
00023d10 g     F .text	0000006c soisconnecting
00000e08 g     F .text	00000070 SSSInitialTask
00006924 g     F .text	0000001c fputs
00049a84 g     O .rwdata	00000004 alt_priority_mask
0003b450 g     F .text	0000023c igmpv2_process_query
00024f8c g     F .text	000001ec t_select
00011ba8 g     F .text	00000270 OSSemDel
0002bcdc g     F .text	00000128 udp4_sockaddr
00049b48 g     O .bss	00000004 OSFlagFreeList
0003dbb4 g     F .text	000001dc in_pcbconnect
00049be4 g     O .bss	00000004 dropline
00049c44 g     O .bss	00000004 ire_cticks
0002c310 g     F .text	0000009c alt_ic_irq_enable
000499b4 g     O .rwdata	00000002 OSEventNameSize
00004808 g     F .text	00000024 __vfprintf_internal
0001c544 g     F .text	00000088 tk_netmain
0003dd90 g     F .text	00000058 in_pcbdisconnect
00049b4c g     O .bss	00000001 OSStatRdy
0004f4f4 g     O .bss	00000054 OSTCBPrioTbl
0000c374 g     F .text	000000b8 __env_lock
000499fa g     O .rwdata	00000002 OSTaskSwHookEn
00049810 g     O .rwdata	00000024 mdio
0002e8b4 g     F .text	000000e0 alt_tse_mac_set_speed
000160c8 g     F .text	00000080 alt_avalon_sgdma_construct_mem_to_mem_desc_burst
0001ae90 g     F .text	00000118 bsd_accept
00049a68 g     O .rwdata	00000004 tcp_recvspace
0000ade0 g     F .text	00000060 __subdf3
0002b200 g     F .text	00000040 tcpinit
00049b78 g     O .bss	00000004 igmp_all_rtrs_group
0001fcd8 g     F .text	00000064 rawip_lookup
00014ff4 g     F .text	00000098 alt_epcs_flash_read
00032f94 g     F .text	000000a0 fcntl
00008400 g     F .text	000000b0 __lo0bits
000249ec g     F .text	000001d8 sbcompress
00049a88 g     O .rwdata	00000008 alt_alarm_list
00029e30 g     F .text	000000ac tcp_drop
000499c2 g     O .rwdata	00000002 OSFlagWidth
0002c178 g     F .text	0000005c _do_ctors
00031584 g     F .text	00000248 alt_tse_phy_set_adv_100
0002a3ec g     F .text	00000470 tcp_timers
00019d64 g     F .text	00000084 if_netnumber
0003c13c g     F .text	00000084 ip_freemoptions
00023cc8 g     F .text	00000048 sohasoutofband
00025c20 g     F .text	00002340 tcp_input
0001afa8 g     F .text	00000118 bsd_getpeername
0001b538 g     F .text	0000013c bsd_recvfrom
00018920 g     F .text	00000048 close
00049af8 g     O .bss	00000004 alt_envsem
00049b50 g     O .bss	00000004 OSIdleCtrRun
0000d570 g     F .text	00000020 OSVersion
00049a0c g     O .rwdata	00000002 OSTmrCfgWheelSize
00013d9c g     F .text	00000070 OS_TaskStkClr
0003e13c g     F .text	00000028 set_vfopen_error
0000b9b4 g     F .text	00000224 __pack_d
000499e6 g     O .rwdata	00000002 OSTaskCreateEn
0002e67c g     F .text	0000006c alt_tse_get_system_index
00049614 g     O .rwdata	00000018 rawip_protosw
00024480 g     F .text	00000068 sbwait
0000db3c g     F .text	00000068 OS_EventWaitListInit
00016a30 g     F .text	000000a4 alt_avalon_sgdma_init
00049c14 g     O .bss	00000004 port_1s_callout
0002d330 g     F .text	0000001c OSTaskIdleHook
00041384 g     F .text	00000014 free
000067d4 g     F .text	00000004 __sinit_lock_acquire
00016f40 g     F .text	0000011c epcs_write_buffer
00049b54 g     O .bss	00000001 number_of_tse_mac
00008180 g     F .text	00000114 __multadd
00013a60 g     F .text	00000210 OSTaskSuspend
00008158 g     F .text	00000028 _Bfree
0002d574 g     F .text	0000002c no_printf
00023fd0 g     F .text	00000220 sonewconn
0003ff40 g     F .text	00000be8 icmprcv
0001e4cc g     F .text	000000c4 pffindproto
0000e1d4 g     F .text	0000005c OS_TaskIdle
00049a12 g     O .rwdata	00000002 OSTmrTblSize
000117e8 g     F .text	00000164 OSQQuery



Disassembly of section .exceptions:

00000020 <alt_exception>:

#else /* ALT_EXCEPTION_STACK disabled */
        /* 
         * Reserve space on normal stack for registers about to be pushed.
         */
        addi  sp, sp, -76
  20:	deffed04 	addi	sp,sp,-76
         * documentation for details).
         *
         * Leave a gap in the stack frame at 4(sp) for the muldiv handler to
         * store zero into.
         */
        stw   ra,  0(sp)
  24:	dfc00015 	stw	ra,0(sp)
        stw   r1,   8(sp)
  28:	d8400215 	stw	at,8(sp)
        stw   r2,  12(sp)
  2c:	d8800315 	stw	r2,12(sp)
        stw   r3,  16(sp)
  30:	d8c00415 	stw	r3,16(sp)
        stw   r4,  20(sp)
  34:	d9000515 	stw	r4,20(sp)
        stw   r5,  24(sp)
  38:	d9400615 	stw	r5,24(sp)
        stw   r6,  28(sp)
  3c:	d9800715 	stw	r6,28(sp)
        stw   r7,  32(sp)
  40:	d9c00815 	stw	r7,32(sp)
        rdctl r5, estatus   /* Read early to avoid usage stall */
  44:	000b307a 	rdctl	r5,estatus
        stw   r8,  36(sp)
  48:	da000915 	stw	r8,36(sp)
        stw   r9,  40(sp)
  4c:	da400a15 	stw	r9,40(sp)
        stw   r10, 44(sp)
  50:	da800b15 	stw	r10,44(sp)
        stw   r11, 48(sp)
  54:	dac00c15 	stw	r11,48(sp)
        stw   r12, 52(sp)
  58:	db000d15 	stw	r12,52(sp)
        stw   r13, 56(sp)
  5c:	db400e15 	stw	r13,56(sp)
        stw   r14, 60(sp)
  60:	db800f15 	stw	r14,60(sp)
        stw   r15, 64(sp)
  64:	dbc01015 	stw	r15,64(sp)
        /*
         * ea-4 contains the address of the instruction being executed
         * when the exception occured. For interrupt exceptions, we will
         * will be re-issue the isntruction. Store it in 72(sp)
         */
        stw   r5,  68(sp)  /* estatus */
  68:	d9401115 	stw	r5,68(sp)
        addi  r15, ea, -4  /* instruction that caused exception */
  6c:	ebffff04 	addi	r15,ea,-4
        stw   r15,  72(sp)
  70:	dbc01215 	stw	r15,72(sp)
#else
        /*
         * Test to see if the exception was a software exception or caused 
         * by an external interrupt, and vector accordingly.
         */
        rdctl r4, ipending
  74:	0009313a 	rdctl	r4,ipending
        andi  r2, r5, 1
  78:	2880004c 	andi	r2,r5,1
        beq   r2, zero, .Lnot_irq
  7c:	10000326 	beq	r2,zero,8c <OSCtxSw_SWITCH_PC+0x4c>
        beq   r4, zero, .Lnot_irq
  80:	20000226 	beq	r4,zero,8c <OSCtxSw_SWITCH_PC+0x4c>
        /*
         * Now that all necessary registers have been preserved, call 
         * alt_irq_handler() to process the interrupts.
         */

        call alt_irq_handler
  84:	00000ec0 	call	ec <alt_irq_handler>

        .section .exceptions.irqreturn, "xa"

        br    .Lexception_exit
  88:	00000306 	br	98 <alt_exception_unknown+0x4>
         * upon completion, so we write ea (address of instruction *after*
         * the one where the exception occured) into 72(sp). The actual
         * instruction that caused the exception is written in r2, which these
         * handlers will utilize.
         */
        stw   ea,  72(sp)  /* Don't re-issue */
  8c:	df401215 	stw	ea,72(sp)
        ldw   r2, -4(ea)   /* Instruction that caused exception */
  90:	e8bfff17 	ldw	r2,-4(ea)

00000094 <alt_exception_unknown>:
#ifdef NIOS2_HAS_DEBUG_STUB
       /*
        *  Either tell the user now (if there is a debugger attached) or go into
        *  the debug monitor which will loop until a debugger is attached.
        */
        break
  94:	003da03a 	break	0
        /* 
         * Restore the saved registers, so that all general purpose registers 
         * have been restored to their state at the time the interrupt occured.
         */

        ldw   r5,  68(sp)
  98:	d9401117 	ldw	r5,68(sp)
        ldw   ea,  72(sp)  /* This becomes the PC once eret is executed */
  9c:	df401217 	ldw	ea,72(sp)
        ldw   ra,   0(sp)
  a0:	dfc00017 	ldw	ra,0(sp)

        wrctl estatus, r5
  a4:	2801707a 	wrctl	estatus,r5

        ldw   r1,   8(sp)
  a8:	d8400217 	ldw	at,8(sp)
        ldw   r2,  12(sp)
  ac:	d8800317 	ldw	r2,12(sp)
        ldw   r3,  16(sp)
  b0:	d8c00417 	ldw	r3,16(sp)
        ldw   r4,  20(sp)
  b4:	d9000517 	ldw	r4,20(sp)
        ldw   r5,  24(sp)
  b8:	d9400617 	ldw	r5,24(sp)
        ldw   r6,  28(sp)
  bc:	d9800717 	ldw	r6,28(sp)
        ldw   r7,  32(sp)
  c0:	d9c00817 	ldw	r7,32(sp)

#if defined(ALT_EXCEPTION_STACK) && defined(ALT_STACK_CHECK)
        ldw   et, %gprel(alt_exception_old_stack_limit)(gp)
#endif

        ldw   r8,  36(sp)
  c4:	da000917 	ldw	r8,36(sp)
        ldw   r9,  40(sp)
  c8:	da400a17 	ldw	r9,40(sp)
        ldw   r10, 44(sp)
  cc:	da800b17 	ldw	r10,44(sp)
        ldw   r11, 48(sp)
  d0:	dac00c17 	ldw	r11,48(sp)
        ldw   r12, 52(sp)
  d4:	db000d17 	ldw	r12,52(sp)
        ldw   r13, 56(sp)
  d8:	db400e17 	ldw	r13,56(sp)
        ldw   r14, 60(sp)
  dc:	db800f17 	ldw	r14,60(sp)
        ldw   r15, 64(sp)
  e0:	dbc01017 	ldw	r15,64(sp)
        stw   et, %gprel(alt_stack_limit_value)(gp)
        stw   zero, %gprel(alt_exception_old_stack_limit)(gp)
#endif /* ALT_STACK_CHECK */
        ldw   sp,  76(sp)
#else /* ALT_EXCEPTION_STACK disabled */
        addi  sp, sp, 76
  e4:	dec01304 	addi	sp,sp,76

        /*
         * Return to the interrupted instruction.
         */

        eret
  e8:	ef80083a 	eret

000000ec <alt_irq_handler>:
 * instruction is present if the macro ALT_CI_INTERRUPT_VECTOR defined.
 */

void alt_irq_handler (void) __attribute__ ((section (".exceptions")));
void alt_irq_handler (void)
{
  ec:	defff904 	addi	sp,sp,-28
  f0:	dfc00615 	stw	ra,24(sp)
  f4:	df000515 	stw	fp,20(sp)
  f8:	df000504 	addi	fp,sp,20
  
  /*
   * Notify the operating system that we are at interrupt level.
   */ 
  
  ALT_OS_INT_ENTER();
  fc:	000cf680 	call	cf68 <OSIntEnter>
#ifndef NIOS2_EIC_PRESENT
static ALT_INLINE alt_u32 ALT_ALWAYS_INLINE alt_irq_pending (void)
{
  alt_u32 active;

  NIOS2_READ_IPENDING (active);
 100:	0005313a 	rdctl	r2,ipending
 104:	e0bffe15 	stw	r2,-8(fp)

  return active;
 108:	e0bffe17 	ldw	r2,-8(fp)
   * Consider the case where the high priority interupt is asserted during
   * the interrupt entry sequence for a lower priority interrupt to see why
   * this is the case.
   */

  active = alt_irq_pending ();
 10c:	e0bffb15 	stw	r2,-20(fp)

  do
  {
    i = 0;
 110:	e03ffd15 	stw	zero,-12(fp)
    mask = 1;
 114:	00800044 	movi	r2,1
 118:	e0bffc15 	stw	r2,-16(fp)
     * called to clear the interrupt condition.
     */

    do
    {
      if (active & mask)
 11c:	e0fffb17 	ldw	r3,-20(fp)
 120:	e0bffc17 	ldw	r2,-16(fp)
 124:	1884703a 	and	r2,r3,r2
 128:	10001726 	beq	r2,zero,188 <alt_irq_handler+0x9c>
      { 
#ifdef ALT_ENHANCED_INTERRUPT_API_PRESENT
        alt_irq[i].handler(alt_irq[i].context); 
 12c:	00c00174 	movhi	r3,5
 130:	18c01304 	addi	r3,r3,76
 134:	e0bffd17 	ldw	r2,-12(fp)
 138:	100490fa 	slli	r2,r2,3
 13c:	1885883a 	add	r2,r3,r2
 140:	10c00017 	ldw	r3,0(r2)
 144:	01000174 	movhi	r4,5
 148:	21001304 	addi	r4,r4,76
 14c:	e0bffd17 	ldw	r2,-12(fp)
 150:	100490fa 	slli	r2,r2,3
 154:	2085883a 	add	r2,r4,r2
 158:	10800104 	addi	r2,r2,4
 15c:	10800017 	ldw	r2,0(r2)
 160:	1009883a 	mov	r4,r2
 164:	183ee83a 	callr	r3
#else
        alt_irq[i].handler(alt_irq[i].context, i); 
#endif
        break;
 168:	0001883a 	nop
#ifndef NIOS2_EIC_PRESENT
static ALT_INLINE alt_u32 ALT_ALWAYS_INLINE alt_irq_pending (void)
{
  alt_u32 active;

  NIOS2_READ_IPENDING (active);
 16c:	0005313a 	rdctl	r2,ipending
 170:	e0bfff15 	stw	r2,-4(fp)

  return active;
 174:	e0bfff17 	ldw	r2,-4(fp)
      mask <<= 1;
      i++;

    } while (1);

    active = alt_irq_pending ();
 178:	e0bffb15 	stw	r2,-20(fp)
    
  } while (active);
 17c:	e0bffb17 	ldw	r2,-20(fp)
 180:	103fe31e 	bne	r2,zero,110 <alt_irq_handler+0x24>
 184:	00000706 	br	1a4 <alt_irq_handler+0xb8>
#else
        alt_irq[i].handler(alt_irq[i].context, i); 
#endif
        break;
      }
      mask <<= 1;
 188:	e0bffc17 	ldw	r2,-16(fp)
 18c:	1085883a 	add	r2,r2,r2
 190:	e0bffc15 	stw	r2,-16(fp)
      i++;
 194:	e0bffd17 	ldw	r2,-12(fp)
 198:	10800044 	addi	r2,r2,1
 19c:	e0bffd15 	stw	r2,-12(fp)

    } while (1);
 1a0:	003fde06 	br	11c <alt_irq_handler+0x30>

  /*
   * Notify the operating system that interrupt processing is complete.
   */ 

  ALT_OS_INT_EXIT();
 1a4:	000cfe40 	call	cfe4 <OSIntExit>
}
 1a8:	e037883a 	mov	sp,fp
 1ac:	dfc00117 	ldw	ra,4(sp)
 1b0:	df000017 	ldw	fp,0(sp)
 1b4:	dec00204 	addi	sp,sp,8
 1b8:	f800283a 	ret

Disassembly of section .text:

000001bc <_start>:

    /* Assume the data cache size is always a power of two. */
#if NIOS2_DCACHE_SIZE > 0x8000
    movhi r2, %hi(NIOS2_DCACHE_SIZE)
#else
    movui r2, NIOS2_DCACHE_SIZE
     1bc:	00820014 	movui	r2,2048
#endif

0:
    initd 0(r2)
     1c0:	10000033 	initd	0(r2)
#ifdef NIOS2_ECC_PRESENT
    addi r2, r2, -4
#else
    addi r2, r2, -NIOS2_DCACHE_LINE_SIZE
     1c4:	10bff804 	addi	r2,r2,-32
#endif
    bgt r2, zero, 0b
     1c8:	00bffd16 	blt	zero,r2,1c0 <_start+0x4>

    /*
     * Now that the caches are initialized, set up the stack pointer and global pointer.
     * The values provided by the linker are assumed to be correctly aligned.
     */
    movhi sp, %hi(__alt_stack_pointer)
     1cc:	06c08034 	movhi	sp,512
    ori sp, sp, %lo(__alt_stack_pointer)
     1d0:	dec00014 	ori	sp,sp,0
    movhi gp, %hi(_gp)
     1d4:	06800174 	movhi	gp,5
    ori gp, gp, %lo(_gp)
     1d8:	d6865f14 	ori	gp,gp,6524
 */
#ifndef ALT_SIM_OPTIMIZE
    /* Log that the BSS is about to be cleared. */
    ALT_LOG_PUTS(alt_log_msg_bss)

    movhi r2, %hi(__bss_start)
     1dc:	00800134 	movhi	r2,4
    ori r2, r2, %lo(__bss_start)
     1e0:	10a6b014 	ori	r2,r2,39616

    movhi r3, %hi(__bss_end)
     1e4:	00c00174 	movhi	r3,5
    ori r3, r3, %lo(__bss_end)
     1e8:	18c15514 	ori	r3,r3,1364

    beq r2, r3, 1f
     1ec:	10c00326 	beq	r2,r3,1fc <_start+0x40>

0:
    stw zero, (r2)
     1f0:	10000015 	stw	zero,0(r2)
    addi r2, r2, 4
     1f4:	10800104 	addi	r2,r2,4
    bltu r2, r3, 0b
     1f8:	10fffd36 	bltu	r2,r3,1f0 <_start+0x34>

    /* Log that alt_main is about to be called. */
    ALT_LOG_PUTS(alt_log_msg_alt_main)

    /* Call the C entry point. It should never return. */
    call alt_main
     1fc:	000c1f80 	call	c1f8 <alt_main>

00000200 <alt_after_alt_main>:

    /* Wait in infinite loop in case alt_main does return. */
alt_after_alt_main:
    br alt_after_alt_main
     200:	003fff06 	br	200 <alt_after_alt_main>

00000204 <alt_uCOSIIErrorHandler>:
#include <errno.h>
#include "includes.h"
#include "alt_error_handler.h"
 
void alt_uCOSIIErrorHandler(INT8U error_code, void *expanded_diagnosis_ptr)
{
     204:	defffb04 	addi	sp,sp,-20
     208:	dfc00415 	stw	ra,16(sp)
     20c:	df000315 	stw	fp,12(sp)
     210:	df000304 	addi	fp,sp,12
     214:	2005883a 	mov	r2,r4
     218:	e17fff15 	stw	r5,-4(fp)
     21c:	e0bffe05 	stb	r2,-8(fp)
   FAULT_LEVEL fault_level;
   
   if(error_code == OS_NO_ERR)
     220:	e0bffe03 	ldbu	r2,-8(fp)
     224:	10018326 	beq	r2,zero,834 <alt_uCOSIIErrorHandler+0x630>
   {
      return;
   }
   
   fault_level = SYSTEM;  
     228:	00800084 	movi	r2,2
     22c:	e0bffd15 	stw	r2,-12(fp)
   OSSchedLock();  /* Disable Task Switching but still service other IRQs */
     230:	000d0d80 	call	d0d8 <OSSchedLock>
      
   switch (error_code)
     234:	e0bffe03 	ldbu	r2,-8(fp)
     238:	10c00a20 	cmpeqi	r3,r2,40
     23c:	1800261e 	bne	r3,zero,2d8 <alt_uCOSIIErrorHandler+0xd4>
     240:	10c00a48 	cmpgei	r3,r2,41
     244:	1800121e 	bne	r3,zero,290 <alt_uCOSIIErrorHandler+0x8c>
     248:	10c00120 	cmpeqi	r3,r2,4
     24c:	18006e1e 	bne	r3,zero,408 <alt_uCOSIIErrorHandler+0x204>
     250:	10c00148 	cmpgei	r3,r2,5
     254:	1800071e 	bne	r3,zero,274 <alt_uCOSIIErrorHandler+0x70>
     258:	10c000a0 	cmpeqi	r3,r2,2
     25c:	18008e1e 	bne	r3,zero,498 <alt_uCOSIIErrorHandler+0x294>
     260:	10c000c8 	cmpgei	r3,r2,3
     264:	1800731e 	bne	r3,zero,434 <alt_uCOSIIErrorHandler+0x230>
     268:	10800060 	cmpeqi	r2,r2,1
     26c:	1000591e 	bne	r2,zero,3d4 <alt_uCOSIIErrorHandler+0x1d0>
     270:	0000de06 	br	5ec <alt_uCOSIIErrorHandler+0x3e8>
     274:	10c00520 	cmpeqi	r3,r2,20
     278:	18004a1e 	bne	r3,zero,3a4 <alt_uCOSIIErrorHandler+0x1a0>
     27c:	10c007a0 	cmpeqi	r3,r2,30
     280:	1800b21e 	bne	r3,zero,54c <alt_uCOSIIErrorHandler+0x348>
     284:	108002a0 	cmpeqi	r2,r2,10
     288:	1000771e 	bne	r2,zero,468 <alt_uCOSIIErrorHandler+0x264>
     28c:	0000d706 	br	5ec <alt_uCOSIIErrorHandler+0x3e8>
     290:	10c01020 	cmpeqi	r3,r2,64
     294:	1800a21e 	bne	r3,zero,520 <alt_uCOSIIErrorHandler+0x31c>
     298:	10c01048 	cmpgei	r3,r2,65
     29c:	1800071e 	bne	r3,zero,2bc <alt_uCOSIIErrorHandler+0xb8>
     2a0:	10c00f60 	cmpeqi	r3,r2,61
     2a4:	1800921e 	bne	r3,zero,4f0 <alt_uCOSIIErrorHandler+0x2ec>
     2a8:	10c00fa0 	cmpeqi	r3,r2,62
     2ac:	1800851e 	bne	r3,zero,4c4 <alt_uCOSIIErrorHandler+0x2c0>
     2b0:	10800aa0 	cmpeqi	r2,r2,42
     2b4:	1000131e 	bne	r2,zero,304 <alt_uCOSIIErrorHandler+0x100>
     2b8:	0000cc06 	br	5ec <alt_uCOSIIErrorHandler+0x3e8>
     2bc:	10c01920 	cmpeqi	r3,r2,100
     2c0:	1800ae1e 	bne	r3,zero,57c <alt_uCOSIIErrorHandler+0x378>
     2c4:	10c03fe0 	cmpeqi	r3,r2,255
     2c8:	1800b91e 	bne	r3,zero,5b0 <alt_uCOSIIErrorHandler+0x3ac>
     2cc:	108010a0 	cmpeqi	r2,r2,66
     2d0:	1000201e 	bne	r2,zero,354 <alt_uCOSIIErrorHandler+0x150>
     2d4:	0000c506 	br	5ec <alt_uCOSIIErrorHandler+0x3e8>
   {  
      case OS_PRIO_EXIST:
         fprintf(stderr, "Attempted to assign task priority aready in use.\n");
     2d8:	00800174 	movhi	r2,5
     2dc:	10a66104 	addi	r2,r2,-26236
     2e0:	10800017 	ldw	r2,0(r2)
     2e4:	10800317 	ldw	r2,12(r2)
     2e8:	01000134 	movhi	r4,4
     2ec:	21078604 	addi	r4,r4,7704
     2f0:	01400044 	movi	r5,1
     2f4:	01800c44 	movi	r6,49
     2f8:	100f883a 	mov	r7,r2
     2fc:	0001c780 	call	1c78 <fwrite>
         break;
     300:	0000d506 	br	658 <alt_uCOSIIErrorHandler+0x454>
      case OS_PRIO_INVALID:
         fprintf(stderr, "Specified task priority higher than allowed max.\n");
     304:	00800174 	movhi	r2,5
     308:	10a66104 	addi	r2,r2,-26236
     30c:	10800017 	ldw	r2,0(r2)
     310:	10800317 	ldw	r2,12(r2)
     314:	01000134 	movhi	r4,4
     318:	21079304 	addi	r4,r4,7756
     31c:	01400044 	movi	r5,1
     320:	01800c44 	movi	r6,49
     324:	100f883a 	mov	r7,r2
     328:	0001c780 	call	1c78 <fwrite>
         fprintf(stderr, "Task can't be assigned a priority higher than %d\n",
     32c:	00800174 	movhi	r2,5
     330:	10a66104 	addi	r2,r2,-26236
     334:	10800017 	ldw	r2,0(r2)
     338:	10800317 	ldw	r2,12(r2)
     33c:	1009883a 	mov	r4,r2
     340:	01400134 	movhi	r5,4
     344:	2947a004 	addi	r5,r5,7808
     348:	01800504 	movi	r6,20
     34c:	0001bb40 	call	1bb4 <fprintf>
            OS_LOWEST_PRIO);
         break;
     350:	0000c106 	br	658 <alt_uCOSIIErrorHandler+0x454>
      case OS_NO_MORE_TCB:
         fprintf(stderr, "Task Control Blocks have been exhausted\n");
     354:	00800174 	movhi	r2,5
     358:	10a66104 	addi	r2,r2,-26236
     35c:	10800017 	ldw	r2,0(r2)
     360:	10800317 	ldw	r2,12(r2)
     364:	01000134 	movhi	r4,4
     368:	2107ad04 	addi	r4,r4,7860
     36c:	01400044 	movi	r5,1
     370:	01800a04 	movi	r6,40
     374:	100f883a 	mov	r7,r2
     378:	0001c780 	call	1c78 <fwrite>
         fprintf(stderr, "Current max number of tasks is %d\n",OS_MAX_TASKS);
     37c:	00800174 	movhi	r2,5
     380:	10a66104 	addi	r2,r2,-26236
     384:	10800017 	ldw	r2,0(r2)
     388:	10800317 	ldw	r2,12(r2)
     38c:	1009883a 	mov	r4,r2
     390:	01400134 	movhi	r5,4
     394:	2947b804 	addi	r5,r5,7904
     398:	01800284 	movi	r6,10
     39c:	0001bb40 	call	1bb4 <fprintf>
         break;
     3a0:	0000ad06 	br	658 <alt_uCOSIIErrorHandler+0x454>
      case OS_MBOX_FULL:
         fault_level = NONE;
     3a4:	e03ffd15 	stw	zero,-12(fp)
         fprintf(stderr, "Attempted Post to Mailbox already holding message\n");
     3a8:	00800174 	movhi	r2,5
     3ac:	10a66104 	addi	r2,r2,-26236
     3b0:	10800017 	ldw	r2,0(r2)
     3b4:	10800317 	ldw	r2,12(r2)
     3b8:	01000134 	movhi	r4,4
     3bc:	2107c104 	addi	r4,r4,7940
     3c0:	01400044 	movi	r5,1
     3c4:	01800c84 	movi	r6,50
     3c8:	100f883a 	mov	r7,r2
     3cc:	0001c780 	call	1c78 <fwrite>
         break;
     3d0:	0000a106 	br	658 <alt_uCOSIIErrorHandler+0x454>
      case OS_ERR_EVENT_TYPE:
         fault_level = TASK;
     3d4:	00800044 	movi	r2,1
     3d8:	e0bffd15 	stw	r2,-12(fp)
         fprintf(stderr, 
     3dc:	00800174 	movhi	r2,5
     3e0:	10a66104 	addi	r2,r2,-26236
     3e4:	10800017 	ldw	r2,0(r2)
     3e8:	10800317 	ldw	r2,12(r2)
     3ec:	01000134 	movhi	r4,4
     3f0:	2107ce04 	addi	r4,r4,7992
     3f4:	01400044 	movi	r5,1
     3f8:	01801244 	movi	r6,73
     3fc:	100f883a 	mov	r7,r2
     400:	0001c780 	call	1c78 <fwrite>
"Attempted to access a resource with no match for the required data type.\n");
         break;
     404:	00009406 	br	658 <alt_uCOSIIErrorHandler+0x454>
      case OS_ERR_PEVENT_NULL:
         fprintf(stderr, "Attempting to access a resource pointing to NULL\n");
     408:	00800174 	movhi	r2,5
     40c:	10a66104 	addi	r2,r2,-26236
     410:	10800017 	ldw	r2,0(r2)
     414:	10800317 	ldw	r2,12(r2)
     418:	01000134 	movhi	r4,4
     41c:	2107e104 	addi	r4,r4,8068
     420:	01400044 	movi	r5,1
     424:	01800c44 	movi	r6,49
     428:	100f883a 	mov	r7,r2
     42c:	0001c780 	call	1c78 <fwrite>
         break;
     430:	00008906 	br	658 <alt_uCOSIIErrorHandler+0x454>
      case OS_ERR_POST_NULL_PTR:
         fault_level = TASK;
     434:	00800044 	movi	r2,1
     438:	e0bffd15 	stw	r2,-12(fp)
         fprintf(stderr, "Attempted to Post a NULL to a resource. \n");
     43c:	00800174 	movhi	r2,5
     440:	10a66104 	addi	r2,r2,-26236
     444:	10800017 	ldw	r2,0(r2)
     448:	10800317 	ldw	r2,12(r2)
     44c:	01000134 	movhi	r4,4
     450:	2107ee04 	addi	r4,r4,8120
     454:	01400044 	movi	r5,1
     458:	01800a44 	movi	r6,41
     45c:	100f883a 	mov	r7,r2
     460:	0001c780 	call	1c78 <fwrite>
         break;
     464:	00007c06 	br	658 <alt_uCOSIIErrorHandler+0x454>
      case OS_TIMEOUT:
         fault_level = NONE;
     468:	e03ffd15 	stw	zero,-12(fp)
         fprintf(stderr, "Resource not received in specified time\n");
     46c:	00800174 	movhi	r2,5
     470:	10a66104 	addi	r2,r2,-26236
     474:	10800017 	ldw	r2,0(r2)
     478:	10800317 	ldw	r2,12(r2)
     47c:	01000134 	movhi	r4,4
     480:	2107f904 	addi	r4,r4,8164
     484:	01400044 	movi	r5,1
     488:	01800a04 	movi	r6,40
     48c:	100f883a 	mov	r7,r2
     490:	0001c780 	call	1c78 <fwrite>
         break;
     494:	00007006 	br	658 <alt_uCOSIIErrorHandler+0x454>
      case OS_ERR_PEND_ISR:
         fprintf(stderr, "Attempting to pend for a resource in an ISR\n");
     498:	00800174 	movhi	r2,5
     49c:	10a66104 	addi	r2,r2,-26236
     4a0:	10800017 	ldw	r2,0(r2)
     4a4:	10800317 	ldw	r2,12(r2)
     4a8:	01000134 	movhi	r4,4
     4ac:	21080404 	addi	r4,r4,8208
     4b0:	01400044 	movi	r5,1
     4b4:	01800b04 	movi	r6,44
     4b8:	100f883a 	mov	r7,r2
     4bc:	0001c780 	call	1c78 <fwrite>
         break;
     4c0:	00006506 	br	658 <alt_uCOSIIErrorHandler+0x454>
      case OS_TASK_DEL_IDLE:
         fprintf(stderr, "Attempted to delete the IDLE task\n");
     4c4:	00800174 	movhi	r2,5
     4c8:	10a66104 	addi	r2,r2,-26236
     4cc:	10800017 	ldw	r2,0(r2)
     4d0:	10800317 	ldw	r2,12(r2)
     4d4:	01000134 	movhi	r4,4
     4d8:	21081004 	addi	r4,r4,8256
     4dc:	01400044 	movi	r5,1
     4e0:	01800884 	movi	r6,34
     4e4:	100f883a 	mov	r7,r2
     4e8:	0001c780 	call	1c78 <fwrite>
         break;
     4ec:	00005a06 	br	658 <alt_uCOSIIErrorHandler+0x454>
      case OS_TASK_DEL_ERR:
         fault_level = NONE;
     4f0:	e03ffd15 	stw	zero,-12(fp)
         fprintf(stderr, "Attempted to delete a task that does not exist\n");
     4f4:	00800174 	movhi	r2,5
     4f8:	10a66104 	addi	r2,r2,-26236
     4fc:	10800017 	ldw	r2,0(r2)
     500:	10800317 	ldw	r2,12(r2)
     504:	01000134 	movhi	r4,4
     508:	21081904 	addi	r4,r4,8292
     50c:	01400044 	movi	r5,1
     510:	01800bc4 	movi	r6,47
     514:	100f883a 	mov	r7,r2
     518:	0001c780 	call	1c78 <fwrite>
         break;
     51c:	00004e06 	br	658 <alt_uCOSIIErrorHandler+0x454>
      case OS_TASK_DEL_ISR:
         fprintf(stderr, "Attempted to delete a task from an ISR\n");
     520:	00800174 	movhi	r2,5
     524:	10a66104 	addi	r2,r2,-26236
     528:	10800017 	ldw	r2,0(r2)
     52c:	10800317 	ldw	r2,12(r2)
     530:	01000134 	movhi	r4,4
     534:	21082504 	addi	r4,r4,8340
     538:	01400044 	movi	r5,1
     53c:	018009c4 	movi	r6,39
     540:	100f883a 	mov	r7,r2
     544:	0001c780 	call	1c78 <fwrite>
         break;
     548:	00004306 	br	658 <alt_uCOSIIErrorHandler+0x454>
      case OS_Q_FULL:
         fault_level = NONE;
     54c:	e03ffd15 	stw	zero,-12(fp)
         fprintf(stderr, "Attempted to post to a full message queue\n");
     550:	00800174 	movhi	r2,5
     554:	10a66104 	addi	r2,r2,-26236
     558:	10800017 	ldw	r2,0(r2)
     55c:	10800317 	ldw	r2,12(r2)
     560:	01000134 	movhi	r4,4
     564:	21082f04 	addi	r4,r4,8380
     568:	01400044 	movi	r5,1
     56c:	01800a84 	movi	r6,42
     570:	100f883a 	mov	r7,r2
     574:	0001c780 	call	1c78 <fwrite>
         break;
     578:	00003706 	br	658 <alt_uCOSIIErrorHandler+0x454>
      case OS_ERR_NOT_MUTEX_OWNER:
         fault_level = TASK;
     57c:	00800044 	movi	r2,1
     580:	e0bffd15 	stw	r2,-12(fp)
         fprintf(stderr, "Attempted to post a mutex not owned by the task\n");
     584:	00800174 	movhi	r2,5
     588:	10a66104 	addi	r2,r2,-26236
     58c:	10800017 	ldw	r2,0(r2)
     590:	10800317 	ldw	r2,12(r2)
     594:	01000134 	movhi	r4,4
     598:	21083a04 	addi	r4,r4,8424
     59c:	01400044 	movi	r5,1
     5a0:	01800c04 	movi	r6,48
     5a4:	100f883a 	mov	r7,r2
     5a8:	0001c780 	call	1c78 <fwrite>
         break;
     5ac:	00002a06 	br	658 <alt_uCOSIIErrorHandler+0x454>
      case EXPANDED_DIAGNOSIS_CODE:      
         fault_level = SYSTEM;
     5b0:	00800084 	movi	r2,2
     5b4:	e0bffd15 	stw	r2,-12(fp)
         printf(
     5b8:	01000134 	movhi	r4,4
     5bc:	21084704 	addi	r4,r4,8476
     5c0:	0001f3c0 	call	1f3c <printf>
"\n[MicroC/OS-II]: See STDERR for expanded diagnosis translation.");    
         fprintf(stderr, "\n[MicroC/OS-II]: Expanded Diagnosis: %s.", 
     5c4:	00800174 	movhi	r2,5
     5c8:	10a66104 	addi	r2,r2,-26236
     5cc:	10800017 	ldw	r2,0(r2)
     5d0:	10800317 	ldw	r2,12(r2)
     5d4:	1009883a 	mov	r4,r2
     5d8:	01400134 	movhi	r5,4
     5dc:	29485704 	addi	r5,r5,8540
     5e0:	e1bfff17 	ldw	r6,-4(fp)
     5e4:	0001bb40 	call	1bb4 <fprintf>
                 (char *)expanded_diagnosis_ptr);
         break;           
     5e8:	00001b06 	br	658 <alt_uCOSIIErrorHandler+0x454>
      default:
         printf("\n[MicroC/OS-II]: (Not a MicroC/OS-II error) See STDERR.\n");    
     5ec:	01000134 	movhi	r4,4
     5f0:	21086204 	addi	r4,r4,8584
     5f4:	00021cc0 	call	21cc <puts>
         fprintf(stderr, "\n[MicroC/OS-II]:");
     5f8:	00800174 	movhi	r2,5
     5fc:	10a66104 	addi	r2,r2,-26236
     600:	10800017 	ldw	r2,0(r2)
     604:	10800317 	ldw	r2,12(r2)
     608:	01000134 	movhi	r4,4
     60c:	21087004 	addi	r4,r4,8640
     610:	01400044 	movi	r5,1
     614:	01800404 	movi	r6,16
     618:	100f883a 	mov	r7,r2
     61c:	0001c780 	call	1c78 <fwrite>
         fprintf(stderr, "\nError_code %d.\n", error_code);
     620:	00800174 	movhi	r2,5
     624:	10a66104 	addi	r2,r2,-26236
     628:	10800017 	ldw	r2,0(r2)
     62c:	10c00317 	ldw	r3,12(r2)
     630:	e0bffe03 	ldbu	r2,-8(fp)
     634:	1809883a 	mov	r4,r3
     638:	01400134 	movhi	r5,4
     63c:	29487504 	addi	r5,r5,8660
     640:	100d883a 	mov	r6,r2
     644:	0001bb40 	call	1bb4 <fprintf>
         perror("\n[MicroC/OS-II]: (Not a MicroC/OS-II error), ERRNO: ");
     648:	01000134 	movhi	r4,4
     64c:	21087a04 	addi	r4,r4,8680
     650:	0001efc0 	call	1efc <perror>
         break;
     654:	0001883a 	nop

   }

   /* Process the error based on the fault level, 
    * reenable scheduler if appropriate. */  
   switch (fault_level) {
     658:	e0bffd17 	ldw	r2,-12(fp)
     65c:	10c00060 	cmpeqi	r3,r2,1
     660:	1800041e 	bne	r3,zero,674 <alt_uCOSIIErrorHandler+0x470>
     664:	0080442e 	bgeu	zero,r2,778 <alt_uCOSIIErrorHandler+0x574>
     668:	108000a0 	cmpeqi	r2,r2,2
     66c:	1000201e 	bne	r2,zero,6f0 <alt_uCOSIIErrorHandler+0x4ec>
     670:	00006206 	br	7fc <alt_uCOSIIErrorHandler+0x5f8>
      case TASK:
         /* Error can be isolated by killing the task */
         printf("\n[MicroC/OS-II]: See STDERR (FAULT_LEVEL is TASK).");
     674:	01000134 	movhi	r4,4
     678:	21088804 	addi	r4,r4,8736
     67c:	0001f3c0 	call	1f3c <printf>
         fprintf(stderr, "\n[MicroC/OS-II]: FAULT_LEVEL is TASK");
     680:	00800174 	movhi	r2,5
     684:	10a66104 	addi	r2,r2,-26236
     688:	10800017 	ldw	r2,0(r2)
     68c:	10800317 	ldw	r2,12(r2)
     690:	01000134 	movhi	r4,4
     694:	21089504 	addi	r4,r4,8788
     698:	01400044 	movi	r5,1
     69c:	01800904 	movi	r6,36
     6a0:	100f883a 	mov	r7,r2
     6a4:	0001c780 	call	1c78 <fwrite>
         fprintf(stderr, "\n[MicroC/OS-II]: Task is being deleted.\n");
     6a8:	00800174 	movhi	r2,5
     6ac:	10a66104 	addi	r2,r2,-26236
     6b0:	10800017 	ldw	r2,0(r2)
     6b4:	10800317 	ldw	r2,12(r2)
     6b8:	01000134 	movhi	r4,4
     6bc:	21089f04 	addi	r4,r4,8828
     6c0:	01400044 	movi	r5,1
     6c4:	01800a04 	movi	r6,40
     6c8:	100f883a 	mov	r7,r2
     6cc:	0001c780 	call	1c78 <fwrite>
         OSSchedUnlock(); /* Reenable Task Switching */
     6d0:	000d1600 	call	d160 <OSSchedUnlock>
         OSTaskDel(OS_PRIO_SELF);
     6d4:	01003fc4 	movi	r4,255
     6d8:	0012df80 	call	12df8 <OSTaskDel>
         /* Reinvoke uCOSII error handler in case task deletion fails, in 
          * which case fault_level for this secondary error will be SYSTEM. */
         alt_uCOSIIErrorHandler(error_code, 0);         
     6dc:	e0bffe03 	ldbu	r2,-8(fp)
     6e0:	1009883a 	mov	r4,r2
     6e4:	000b883a 	mov	r5,zero
     6e8:	00002040 	call	204 <alt_uCOSIIErrorHandler>
         break;
     6ec:	00005006 	br	830 <alt_uCOSIIErrorHandler+0x62c>
      case SYSTEM:
         /* Total System Failure, Restart Required */
         printf("\n[MicroC/OS-II]: See STDERR (FAULT_LEVEL is SYSTEM).");    
     6f0:	01000134 	movhi	r4,4
     6f4:	2108aa04 	addi	r4,r4,8872
     6f8:	0001f3c0 	call	1f3c <printf>
         fprintf(stderr, "\n[MicroC/OS-II]: FAULT_LEVEL is SYSTEM");
     6fc:	00800174 	movhi	r2,5
     700:	10a66104 	addi	r2,r2,-26236
     704:	10800017 	ldw	r2,0(r2)
     708:	10800317 	ldw	r2,12(r2)
     70c:	01000134 	movhi	r4,4
     710:	2108b804 	addi	r4,r4,8928
     714:	01400044 	movi	r5,1
     718:	01800984 	movi	r6,38
     71c:	100f883a 	mov	r7,r2
     720:	0001c780 	call	1c78 <fwrite>
         fprintf(stderr, "\n[MicroC/OS-II]: FATAL Error, Restart required.");
     724:	00800174 	movhi	r2,5
     728:	10a66104 	addi	r2,r2,-26236
     72c:	10800017 	ldw	r2,0(r2)
     730:	10800317 	ldw	r2,12(r2)
     734:	01000134 	movhi	r4,4
     738:	2108c204 	addi	r4,r4,8968
     73c:	01400044 	movi	r5,1
     740:	01800bc4 	movi	r6,47
     744:	100f883a 	mov	r7,r2
     748:	0001c780 	call	1c78 <fwrite>
         fprintf(stderr, "\n[MicroC/OS-II]: Locking scheduler - endless loop.\n");
     74c:	00800174 	movhi	r2,5
     750:	10a66104 	addi	r2,r2,-26236
     754:	10800017 	ldw	r2,0(r2)
     758:	10800317 	ldw	r2,12(r2)
     75c:	01000134 	movhi	r4,4
     760:	2108ce04 	addi	r4,r4,9016
     764:	01400044 	movi	r5,1
     768:	01800cc4 	movi	r6,51
     76c:	100f883a 	mov	r7,r2
     770:	0001c780 	call	1c78 <fwrite>
         while(1); /* Since scheduler is locked,loop halts all task activity.*/
     774:	003fff06 	br	774 <alt_uCOSIIErrorHandler+0x570>
         break;
      case NONE:
         fprintf(stderr, "\n[MicroC/OS-II]: FAULT_LEVEL is NONE");
     778:	00800174 	movhi	r2,5
     77c:	10a66104 	addi	r2,r2,-26236
     780:	10800017 	ldw	r2,0(r2)
     784:	10800317 	ldw	r2,12(r2)
     788:	01000134 	movhi	r4,4
     78c:	2108db04 	addi	r4,r4,9068
     790:	01400044 	movi	r5,1
     794:	01800904 	movi	r6,36
     798:	100f883a 	mov	r7,r2
     79c:	0001c780 	call	1c78 <fwrite>
         fprintf(stderr, "\n[MicroC/OS-II]: Informational error only, control"); 
     7a0:	00800174 	movhi	r2,5
     7a4:	10a66104 	addi	r2,r2,-26236
     7a8:	10800017 	ldw	r2,0(r2)
     7ac:	10800317 	ldw	r2,12(r2)
     7b0:	01000134 	movhi	r4,4
     7b4:	2108e504 	addi	r4,r4,9108
     7b8:	01400044 	movi	r5,1
     7bc:	01800c84 	movi	r6,50
     7c0:	100f883a 	mov	r7,r2
     7c4:	0001c780 	call	1c78 <fwrite>
         fprintf(stderr, 
     7c8:	00800174 	movhi	r2,5
     7cc:	10a66104 	addi	r2,r2,-26236
     7d0:	10800017 	ldw	r2,0(r2)
     7d4:	10800317 	ldw	r2,12(r2)
     7d8:	01000134 	movhi	r4,4
     7dc:	2108f204 	addi	r4,r4,9160
     7e0:	01400044 	movi	r5,1
     7e4:	01800f84 	movi	r6,62
     7e8:	100f883a 	mov	r7,r2
     7ec:	0001c780 	call	1c78 <fwrite>
            "returned to task to complete processing at application level.\n");
         OSSchedUnlock(); /* Reenable Task Switching */
     7f0:	000d1600 	call	d160 <OSSchedUnlock>
         return;   
     7f4:	0001883a 	nop
     7f8:	00000f06 	br	838 <alt_uCOSIIErrorHandler+0x634>
         break;      
      default:
         printf("\n[MicroC/OS-II]: See STDERR (FAULT_LEVEL is Unknown).\n");
     7fc:	01000134 	movhi	r4,4
     800:	21090204 	addi	r4,r4,9224
     804:	00021cc0 	call	21cc <puts>
         fprintf(stderr, "\n[MicroC/OS-II]: FAULT_LEVEL is unknown!?!\n");
     808:	00800174 	movhi	r2,5
     80c:	10a66104 	addi	r2,r2,-26236
     810:	10800017 	ldw	r2,0(r2)
     814:	10800317 	ldw	r2,12(r2)
     818:	01000134 	movhi	r4,4
     81c:	21091004 	addi	r4,r4,9280
     820:	01400044 	movi	r5,1
     824:	01800ac4 	movi	r6,43
     828:	100f883a 	mov	r7,r2
     82c:	0001c780 	call	1c78 <fwrite>
   }
   while(1); /* Correct Program Flow never gets here. */
     830:	003fff06 	br	830 <alt_uCOSIIErrorHandler+0x62c>
{
   FAULT_LEVEL fault_level;
   
   if(error_code == OS_NO_ERR)
   {
      return;
     834:	0001883a 	nop
      default:
         printf("\n[MicroC/OS-II]: See STDERR (FAULT_LEVEL is Unknown).\n");
         fprintf(stderr, "\n[MicroC/OS-II]: FAULT_LEVEL is unknown!?!\n");
   }
   while(1); /* Correct Program Flow never gets here. */
}
     838:	e037883a 	mov	sp,fp
     83c:	dfc00117 	ldw	ra,4(sp)
     840:	df000017 	ldw	fp,0(sp)
     844:	dec00204 	addi	sp,sp,8
     848:	f800283a 	ret

0000084c <alt_NetworkErrorHandler>:

void alt_NetworkErrorHandler(INT8U error_code, void *expanded_diagnosis_ptr)
{
     84c:	defffb04 	addi	sp,sp,-20
     850:	dfc00415 	stw	ra,16(sp)
     854:	df000315 	stw	fp,12(sp)
     858:	df000304 	addi	fp,sp,12
     85c:	2005883a 	mov	r2,r4
     860:	e17fff15 	stw	r5,-4(fp)
     864:	e0bffe05 	stb	r2,-8(fp)
   FAULT_LEVEL fault_level;

   if(error_code == OS_NO_ERR)
     868:	e0bffe03 	ldbu	r2,-8(fp)
     86c:	1000a126 	beq	r2,zero,af4 <alt_NetworkErrorHandler+0x2a8>
   {
      return;
   }

   fault_level = SYSTEM;   
     870:	00800084 	movi	r2,2
     874:	e0bffd15 	stw	r2,-12(fp)
   OSSchedLock();  /* Disable Task Switching but still service other IRQs */  
     878:	000d0d80 	call	d0d8 <OSSchedLock>

   if (error_code == EXPANDED_DIAGNOSIS_CODE) 
     87c:	e0bffe03 	ldbu	r2,-8(fp)
     880:	10803fd8 	cmpnei	r2,r2,255
     884:	1000121e 	bne	r2,zero,8d0 <alt_NetworkErrorHandler+0x84>
   {
      fault_level = SYSTEM;
     888:	00800084 	movi	r2,2
     88c:	e0bffd15 	stw	r2,-12(fp)
      printf("\n[Network]: See STDERR for expanded diagnosis translation.");    
     890:	01000134 	movhi	r4,4
     894:	21091b04 	addi	r4,r4,9324
     898:	0001f3c0 	call	1f3c <printf>
      fprintf(stderr, "\n[Network]: %s", (char *)expanded_diagnosis_ptr);
     89c:	00800174 	movhi	r2,5
     8a0:	10a66104 	addi	r2,r2,-26236
     8a4:	10800017 	ldw	r2,0(r2)
     8a8:	10800317 	ldw	r2,12(r2)
     8ac:	1009883a 	mov	r4,r2
     8b0:	01400134 	movhi	r5,4
     8b4:	29492a04 	addi	r5,r5,9384
     8b8:	e1bfff17 	ldw	r6,-4(fp)
     8bc:	0001bb40 	call	1bb4 <fprintf>
      /* Check errno also in case it has been set. */
      perror("\n[Network]:  ERRNO: ");
     8c0:	01000134 	movhi	r4,4
     8c4:	21092e04 	addi	r4,r4,9400
     8c8:	0001efc0 	call	1efc <perror>
     8cc:	00001206 	br	918 <alt_NetworkErrorHandler+0xcc>
   }
   else 
   {
      fault_level = TASK;
     8d0:	00800044 	movi	r2,1
     8d4:	e0bffd15 	stw	r2,-12(fp)
      printf("\n[Network]: See STDERR.\n");    
     8d8:	01000134 	movhi	r4,4
     8dc:	21093404 	addi	r4,r4,9424
     8e0:	00021cc0 	call	21cc <puts>
      fprintf(stderr, "\n[Network]: Error_code %d!\n", error_code);        
     8e4:	00800174 	movhi	r2,5
     8e8:	10a66104 	addi	r2,r2,-26236
     8ec:	10800017 	ldw	r2,0(r2)
     8f0:	10c00317 	ldw	r3,12(r2)
     8f4:	e0bffe03 	ldbu	r2,-8(fp)
     8f8:	1809883a 	mov	r4,r3
     8fc:	01400134 	movhi	r5,4
     900:	29493a04 	addi	r5,r5,9448
     904:	100d883a 	mov	r6,r2
     908:	0001bb40 	call	1bb4 <fprintf>
      perror("\n[Network]:  ERRNO: ");
     90c:	01000134 	movhi	r4,4
     910:	21092e04 	addi	r4,r4,9400
     914:	0001efc0 	call	1efc <perror>
   }

   /* Process error based on fault level, reenable scheduler if appropriate. */     
   switch (fault_level) 
     918:	e0bffd17 	ldw	r2,-12(fp)
     91c:	10c00060 	cmpeqi	r3,r2,1
     920:	1800041e 	bne	r3,zero,934 <alt_NetworkErrorHandler+0xe8>
     924:	0080442e 	bgeu	zero,r2,a38 <alt_NetworkErrorHandler+0x1ec>
     928:	108000a0 	cmpeqi	r2,r2,2
     92c:	1000201e 	bne	r2,zero,9b0 <alt_NetworkErrorHandler+0x164>
     930:	00006206 	br	abc <alt_NetworkErrorHandler+0x270>
   {
      case TASK:
         /* Error can be isolated by killing the task */
         printf("\n[Network]: See STDERR (FAULT_LEVEL is TASK).");
     934:	01000134 	movhi	r4,4
     938:	21094104 	addi	r4,r4,9476
     93c:	0001f3c0 	call	1f3c <printf>
         fprintf(stderr, "\n[Network]: FAULT_LEVEL is TASK");
     940:	00800174 	movhi	r2,5
     944:	10a66104 	addi	r2,r2,-26236
     948:	10800017 	ldw	r2,0(r2)
     94c:	10800317 	ldw	r2,12(r2)
     950:	01000134 	movhi	r4,4
     954:	21094d04 	addi	r4,r4,9524
     958:	01400044 	movi	r5,1
     95c:	018007c4 	movi	r6,31
     960:	100f883a 	mov	r7,r2
     964:	0001c780 	call	1c78 <fwrite>
         fprintf(stderr, "\n[Network]: Task is being deleted.\n");
     968:	00800174 	movhi	r2,5
     96c:	10a66104 	addi	r2,r2,-26236
     970:	10800017 	ldw	r2,0(r2)
     974:	10800317 	ldw	r2,12(r2)
     978:	01000134 	movhi	r4,4
     97c:	21095504 	addi	r4,r4,9556
     980:	01400044 	movi	r5,1
     984:	018008c4 	movi	r6,35
     988:	100f883a 	mov	r7,r2
     98c:	0001c780 	call	1c78 <fwrite>
         OSSchedUnlock(); /* Reenable Task Switching */
     990:	000d1600 	call	d160 <OSSchedUnlock>
         OSTaskDel(OS_PRIO_SELF);
     994:	01003fc4 	movi	r4,255
     998:	0012df80 	call	12df8 <OSTaskDel>
         /* Reinvoke uCOSII error handler in case task deletion fails, in 
          * which case fault_level for this secondary error will be SYSTEM. */
         alt_uCOSIIErrorHandler(error_code, 0);         
     99c:	e0bffe03 	ldbu	r2,-8(fp)
     9a0:	1009883a 	mov	r4,r2
     9a4:	000b883a 	mov	r5,zero
     9a8:	00002040 	call	204 <alt_uCOSIIErrorHandler>
         break;
     9ac:	00005006 	br	af0 <alt_NetworkErrorHandler+0x2a4>
      case SYSTEM:
         /* Total System Failure, Restart Required */
         printf("\n[Network]: See STDERR (FAULT_LEVEL is SYSTEM).");    
     9b0:	01000134 	movhi	r4,4
     9b4:	21095e04 	addi	r4,r4,9592
     9b8:	0001f3c0 	call	1f3c <printf>
         fprintf(stderr, "\n[Network]: FAULT_LEVEL is SYSTEM.");
     9bc:	00800174 	movhi	r2,5
     9c0:	10a66104 	addi	r2,r2,-26236
     9c4:	10800017 	ldw	r2,0(r2)
     9c8:	10800317 	ldw	r2,12(r2)
     9cc:	01000134 	movhi	r4,4
     9d0:	21096a04 	addi	r4,r4,9640
     9d4:	01400044 	movi	r5,1
     9d8:	01800884 	movi	r6,34
     9dc:	100f883a 	mov	r7,r2
     9e0:	0001c780 	call	1c78 <fwrite>
         fprintf(stderr, "\n[Network]: FATAL Error, Restart required.");
     9e4:	00800174 	movhi	r2,5
     9e8:	10a66104 	addi	r2,r2,-26236
     9ec:	10800017 	ldw	r2,0(r2)
     9f0:	10800317 	ldw	r2,12(r2)
     9f4:	01000134 	movhi	r4,4
     9f8:	21097304 	addi	r4,r4,9676
     9fc:	01400044 	movi	r5,1
     a00:	01800a84 	movi	r6,42
     a04:	100f883a 	mov	r7,r2
     a08:	0001c780 	call	1c78 <fwrite>
         fprintf(stderr, "\n[Network]: Locking scheduler - endless loop.\n");
     a0c:	00800174 	movhi	r2,5
     a10:	10a66104 	addi	r2,r2,-26236
     a14:	10800017 	ldw	r2,0(r2)
     a18:	10800317 	ldw	r2,12(r2)
     a1c:	01000134 	movhi	r4,4
     a20:	21097e04 	addi	r4,r4,9720
     a24:	01400044 	movi	r5,1
     a28:	01800b84 	movi	r6,46
     a2c:	100f883a 	mov	r7,r2
     a30:	0001c780 	call	1c78 <fwrite>
         while(1); /* Since scheduler is locked, loop halts all task activity.*/
     a34:	003fff06 	br	a34 <alt_NetworkErrorHandler+0x1e8>
         break;
      case NONE:
         fprintf(stderr, "\n[Network]: FAULT_LEVEL is NONE.");
     a38:	00800174 	movhi	r2,5
     a3c:	10a66104 	addi	r2,r2,-26236
     a40:	10800017 	ldw	r2,0(r2)
     a44:	10800317 	ldw	r2,12(r2)
     a48:	01000134 	movhi	r4,4
     a4c:	21098a04 	addi	r4,r4,9768
     a50:	01400044 	movi	r5,1
     a54:	01800804 	movi	r6,32
     a58:	100f883a 	mov	r7,r2
     a5c:	0001c780 	call	1c78 <fwrite>
         fprintf(stderr, "\n[Network]: Informational "
     a60:	00800174 	movhi	r2,5
     a64:	10a66104 	addi	r2,r2,-26236
     a68:	10800017 	ldw	r2,0(r2)
     a6c:	10800317 	ldw	r2,12(r2)
     a70:	01000134 	movhi	r4,4
     a74:	21099304 	addi	r4,r4,9804
     a78:	01400044 	movi	r5,1
     a7c:	01800d84 	movi	r6,54
     a80:	100f883a 	mov	r7,r2
     a84:	0001c780 	call	1c78 <fwrite>
                         "error only, control returned");
         fprintf(stderr, 
     a88:	00800174 	movhi	r2,5
     a8c:	10a66104 	addi	r2,r2,-26236
     a90:	10800017 	ldw	r2,0(r2)
     a94:	10800317 	ldw	r2,12(r2)
     a98:	01000134 	movhi	r4,4
     a9c:	2109a104 	addi	r4,r4,9860
     aa0:	01400044 	movi	r5,1
     aa4:	01800e44 	movi	r6,57
     aa8:	100f883a 	mov	r7,r2
     aac:	0001c780 	call	1c78 <fwrite>
            "to task to complete processing at the application level.\n");
         OSSchedUnlock(); /* Reenable Task Switching */ 
     ab0:	000d1600 	call	d160 <OSSchedUnlock>
         return;
     ab4:	0001883a 	nop
     ab8:	00000f06 	br	af8 <alt_NetworkErrorHandler+0x2ac>
         break;         
      default:
         printf("\n[Network]: See STDERR (FAULT_LEVEL is unknown).\n");    
     abc:	01000134 	movhi	r4,4
     ac0:	2109b004 	addi	r4,r4,9920
     ac4:	00021cc0 	call	21cc <puts>
         fprintf(stderr, "\n[Network] FAULT_LEVEL is unknown !?!\n");
     ac8:	00800174 	movhi	r2,5
     acc:	10a66104 	addi	r2,r2,-26236
     ad0:	10800017 	ldw	r2,0(r2)
     ad4:	10800317 	ldw	r2,12(r2)
     ad8:	01000134 	movhi	r4,4
     adc:	2109bd04 	addi	r4,r4,9972
     ae0:	01400044 	movi	r5,1
     ae4:	01800984 	movi	r6,38
     ae8:	100f883a 	mov	r7,r2
     aec:	0001c780 	call	1c78 <fwrite>
   }
   while(1); /* Correct Program Flow never gets here. */
     af0:	003fff06 	br	af0 <alt_NetworkErrorHandler+0x2a4>
{
   FAULT_LEVEL fault_level;

   if(error_code == OS_NO_ERR)
   {
      return;
     af4:	0001883a 	nop
      default:
         printf("\n[Network]: See STDERR (FAULT_LEVEL is unknown).\n");    
         fprintf(stderr, "\n[Network] FAULT_LEVEL is unknown !?!\n");
   }
   while(1); /* Correct Program Flow never gets here. */
}
     af8:	e037883a 	mov	sp,fp
     afc:	dfc00117 	ldw	ra,4(sp)
     b00:	df000017 	ldw	fp,0(sp)
     b04:	dec00204 	addi	sp,sp,8
     b08:	f800283a 	ret

00000b0c <alt_SSSErrorHandler>:
   
   
void alt_SSSErrorHandler(INT8U error_code, 
                         void *expanded_diagnosis_ptr)
{
     b0c:	defffb04 	addi	sp,sp,-20
     b10:	dfc00415 	stw	ra,16(sp)
     b14:	df000315 	stw	fp,12(sp)
     b18:	df000304 	addi	fp,sp,12
     b1c:	2005883a 	mov	r2,r4
     b20:	e17fff15 	stw	r5,-4(fp)
     b24:	e0bffe05 	stb	r2,-8(fp)
   FAULT_LEVEL fault_level;
   
   if   (error_code == OS_NO_ERR)
     b28:	e0bffe03 	ldbu	r2,-8(fp)
     b2c:	1000b026 	beq	r2,zero,df0 <alt_SSSErrorHandler+0x2e4>
   {
      return;
   }

   fault_level = (error_code == OS_NO_ERR) ? NONE : SYSTEM;
     b30:	e0bffe03 	ldbu	r2,-8(fp)
     b34:	1000021e 	bne	r2,zero,b40 <alt_SSSErrorHandler+0x34>
     b38:	0005883a 	mov	r2,zero
     b3c:	00000106 	br	b44 <alt_SSSErrorHandler+0x38>
     b40:	00800084 	movi	r2,2
     b44:	e0bffd15 	stw	r2,-12(fp)
   
   OSSchedLock();  /* Disable Task Switching but still service other IRQs */
     b48:	000d0d80 	call	d0d8 <OSSchedLock>
   switch (error_code)
     b4c:	e0bffe03 	ldbu	r2,-8(fp)
     b50:	10c007a0 	cmpeqi	r3,r2,30
     b54:	1800111e 	bne	r3,zero,b9c <alt_SSSErrorHandler+0x90>
     b58:	10803fe0 	cmpeqi	r2,r2,255
     b5c:	10001b26 	beq	r2,zero,bcc <alt_SSSErrorHandler+0xc0>
   {
      case EXPANDED_DIAGNOSIS_CODE:      
         fault_level = SYSTEM;
     b60:	00800084 	movi	r2,2
     b64:	e0bffd15 	stw	r2,-12(fp)
         printf("\n[SSS]: See STDERR for expanded diagnosis translation.");    
     b68:	01000134 	movhi	r4,4
     b6c:	2109c704 	addi	r4,r4,10012
     b70:	0001f3c0 	call	1f3c <printf>
         fprintf(stderr, "\n[SSS]: %s", (char *)expanded_diagnosis_ptr);
     b74:	00800174 	movhi	r2,5
     b78:	10a66104 	addi	r2,r2,-26236
     b7c:	10800017 	ldw	r2,0(r2)
     b80:	10800317 	ldw	r2,12(r2)
     b84:	1009883a 	mov	r4,r2
     b88:	01400134 	movhi	r5,4
     b8c:	2949d504 	addi	r5,r5,10068
     b90:	e1bfff17 	ldw	r6,-4(fp)
     b94:	0001bb40 	call	1bb4 <fprintf>
         break;
     b98:	00001e06 	br	c14 <alt_SSSErrorHandler+0x108>
         
      case OS_Q_FULL:
         fault_level = NONE;
     b9c:	e03ffd15 	stw	zero,-12(fp)
         fprintf(stderr,"\n[SSS]: Attempted to post to a full message queue.");
     ba0:	00800174 	movhi	r2,5
     ba4:	10a66104 	addi	r2,r2,-26236
     ba8:	10800017 	ldw	r2,0(r2)
     bac:	10800317 	ldw	r2,12(r2)
     bb0:	01000134 	movhi	r4,4
     bb4:	2109d804 	addi	r4,r4,10080
     bb8:	01400044 	movi	r5,1
     bbc:	01800c84 	movi	r6,50
     bc0:	100f883a 	mov	r7,r2
     bc4:	0001c780 	call	1c78 <fwrite>
         break;
     bc8:	00001206 	br	c14 <alt_SSSErrorHandler+0x108>
      
      default:
         fault_level = SYSTEM;
     bcc:	00800084 	movi	r2,2
     bd0:	e0bffd15 	stw	r2,-12(fp)
         printf("\n[SSS]: See STDERR.\n");    
     bd4:	01000134 	movhi	r4,4
     bd8:	2109e504 	addi	r4,r4,10132
     bdc:	00021cc0 	call	21cc <puts>
         fprintf(stderr, "\n[SSS]: Error_code %d!", error_code);        
     be0:	00800174 	movhi	r2,5
     be4:	10a66104 	addi	r2,r2,-26236
     be8:	10800017 	ldw	r2,0(r2)
     bec:	10c00317 	ldw	r3,12(r2)
     bf0:	e0bffe03 	ldbu	r2,-8(fp)
     bf4:	1809883a 	mov	r4,r3
     bf8:	01400134 	movhi	r5,4
     bfc:	2949ea04 	addi	r5,r5,10152
     c00:	100d883a 	mov	r6,r2
     c04:	0001bb40 	call	1bb4 <fprintf>
         perror("\n[SSS]:  ERRNO: ");
     c08:	01000134 	movhi	r4,4
     c0c:	2109f004 	addi	r4,r4,10176
     c10:	0001efc0 	call	1efc <perror>
   }

   /* Process the error based on the fault level, 
    * reenable scheduler if appropriate. */     
   switch (fault_level) 
     c14:	e0bffd17 	ldw	r2,-12(fp)
     c18:	10c00060 	cmpeqi	r3,r2,1
     c1c:	1800041e 	bne	r3,zero,c30 <alt_SSSErrorHandler+0x124>
     c20:	0080442e 	bgeu	zero,r2,d34 <alt_SSSErrorHandler+0x228>
     c24:	108000a0 	cmpeqi	r2,r2,2
     c28:	1000201e 	bne	r2,zero,cac <alt_SSSErrorHandler+0x1a0>
     c2c:	00006206 	br	db8 <alt_SSSErrorHandler+0x2ac>
   {
      case TASK:
         /* Error can be isolated by killing the task */
         printf("\n[SSS]: See STDERR (FAULT_LEVEL is TASK).");
     c30:	01000134 	movhi	r4,4
     c34:	2109f504 	addi	r4,r4,10196
     c38:	0001f3c0 	call	1f3c <printf>
         fprintf(stderr, "\n[SSS]: FAULT_LEVEL is TASK");
     c3c:	00800174 	movhi	r2,5
     c40:	10a66104 	addi	r2,r2,-26236
     c44:	10800017 	ldw	r2,0(r2)
     c48:	10800317 	ldw	r2,12(r2)
     c4c:	01000134 	movhi	r4,4
     c50:	210a0004 	addi	r4,r4,10240
     c54:	01400044 	movi	r5,1
     c58:	018006c4 	movi	r6,27
     c5c:	100f883a 	mov	r7,r2
     c60:	0001c780 	call	1c78 <fwrite>
         fprintf(stderr, "\n[SSS]: Task is being deleted.\n");
     c64:	00800174 	movhi	r2,5
     c68:	10a66104 	addi	r2,r2,-26236
     c6c:	10800017 	ldw	r2,0(r2)
     c70:	10800317 	ldw	r2,12(r2)
     c74:	01000134 	movhi	r4,4
     c78:	210a0704 	addi	r4,r4,10268
     c7c:	01400044 	movi	r5,1
     c80:	018007c4 	movi	r6,31
     c84:	100f883a 	mov	r7,r2
     c88:	0001c780 	call	1c78 <fwrite>
         OSSchedUnlock(); /* Reenable Task Switching */
     c8c:	000d1600 	call	d160 <OSSchedUnlock>
         OSTaskDel(OS_PRIO_SELF);
     c90:	01003fc4 	movi	r4,255
     c94:	0012df80 	call	12df8 <OSTaskDel>
         /* Invoke uCOSII error handler in case task deletion fails, in 
          * which case fault_level for this secondary error will be SYSTEM. */
         alt_uCOSIIErrorHandler(error_code, 0);         
     c98:	e0bffe03 	ldbu	r2,-8(fp)
     c9c:	1009883a 	mov	r4,r2
     ca0:	000b883a 	mov	r5,zero
     ca4:	00002040 	call	204 <alt_uCOSIIErrorHandler>
         break;
     ca8:	00005006 	br	dec <alt_SSSErrorHandler+0x2e0>
      case SYSTEM:
          /* Total System Failure, Restart Required */
         printf("\n[SSS]: See STDERR (FAULT_LEVEL is SYSTEM).");    
     cac:	01000134 	movhi	r4,4
     cb0:	210a0f04 	addi	r4,r4,10300
     cb4:	0001f3c0 	call	1f3c <printf>
         fprintf(stderr, "\n[SSS]: FAULT_LEVEL is SYSTEM.");
     cb8:	00800174 	movhi	r2,5
     cbc:	10a66104 	addi	r2,r2,-26236
     cc0:	10800017 	ldw	r2,0(r2)
     cc4:	10800317 	ldw	r2,12(r2)
     cc8:	01000134 	movhi	r4,4
     ccc:	210a1a04 	addi	r4,r4,10344
     cd0:	01400044 	movi	r5,1
     cd4:	01800784 	movi	r6,30
     cd8:	100f883a 	mov	r7,r2
     cdc:	0001c780 	call	1c78 <fwrite>
         fprintf(stderr, "\n[SSS]: FATAL Error, Restart required.");
     ce0:	00800174 	movhi	r2,5
     ce4:	10a66104 	addi	r2,r2,-26236
     ce8:	10800017 	ldw	r2,0(r2)
     cec:	10800317 	ldw	r2,12(r2)
     cf0:	01000134 	movhi	r4,4
     cf4:	210a2204 	addi	r4,r4,10376
     cf8:	01400044 	movi	r5,1
     cfc:	01800984 	movi	r6,38
     d00:	100f883a 	mov	r7,r2
     d04:	0001c780 	call	1c78 <fwrite>
         fprintf(stderr, "\n[SSS]: Locking scheduler - endless loop.\n");
     d08:	00800174 	movhi	r2,5
     d0c:	10a66104 	addi	r2,r2,-26236
     d10:	10800017 	ldw	r2,0(r2)
     d14:	10800317 	ldw	r2,12(r2)
     d18:	01000134 	movhi	r4,4
     d1c:	210a2c04 	addi	r4,r4,10416
     d20:	01400044 	movi	r5,1
     d24:	01800a84 	movi	r6,42
     d28:	100f883a 	mov	r7,r2
     d2c:	0001c780 	call	1c78 <fwrite>
         while(1); /* Since scheduler is locked, loop halts all task activity.*/
     d30:	003fff06 	br	d30 <alt_SSSErrorHandler+0x224>
         break;
      case NONE:
         fprintf(stderr, "\n[SSS] FAULT_LEVEL is NONE.");
     d34:	00800174 	movhi	r2,5
     d38:	10a66104 	addi	r2,r2,-26236
     d3c:	10800017 	ldw	r2,0(r2)
     d40:	10800317 	ldw	r2,12(r2)
     d44:	01000134 	movhi	r4,4
     d48:	210a3704 	addi	r4,r4,10460
     d4c:	01400044 	movi	r5,1
     d50:	018006c4 	movi	r6,27
     d54:	100f883a 	mov	r7,r2
     d58:	0001c780 	call	1c78 <fwrite>
         fprintf(stderr, 
     d5c:	00800174 	movhi	r2,5
     d60:	10a66104 	addi	r2,r2,-26236
     d64:	10800017 	ldw	r2,0(r2)
     d68:	10800317 	ldw	r2,12(r2)
     d6c:	01000134 	movhi	r4,4
     d70:	210a3e04 	addi	r4,r4,10488
     d74:	01400044 	movi	r5,1
     d78:	01800f44 	movi	r6,61
     d7c:	100f883a 	mov	r7,r2
     d80:	0001c780 	call	1c78 <fwrite>
            "\n[SSS] Informational error only, control returned to task to ");
         fprintf(stderr,
     d84:	00800174 	movhi	r2,5
     d88:	10a66104 	addi	r2,r2,-26236
     d8c:	10800017 	ldw	r2,0(r2)
     d90:	10800317 	ldw	r2,12(r2)
     d94:	01000134 	movhi	r4,4
     d98:	210a4e04 	addi	r4,r4,10552
     d9c:	01400044 	movi	r5,1
     da0:	01800b84 	movi	r6,46
     da4:	100f883a 	mov	r7,r2
     da8:	0001c780 	call	1c78 <fwrite>
            "complete processing at the application level.\n");
         OSSchedUnlock(); /* Reenable Task Switching */ 
     dac:	000d1600 	call	d160 <OSSchedUnlock>
         return;         
     db0:	0001883a 	nop
     db4:	00000f06 	br	df4 <alt_SSSErrorHandler+0x2e8>
         break;
      default:
         printf("\n[SSS]: See STDERR (FAULT_LEVEL is Unknown).\n");
     db8:	01000134 	movhi	r4,4
     dbc:	210a5a04 	addi	r4,r4,10600
     dc0:	00021cc0 	call	21cc <puts>
         fprintf(stderr, "\n[SSS] FAULT_LEVEL is unknown!?!\n");
     dc4:	00800174 	movhi	r2,5
     dc8:	10a66104 	addi	r2,r2,-26236
     dcc:	10800017 	ldw	r2,0(r2)
     dd0:	10800317 	ldw	r2,12(r2)
     dd4:	01000134 	movhi	r4,4
     dd8:	210a6604 	addi	r4,r4,10648
     ddc:	01400044 	movi	r5,1
     de0:	01800844 	movi	r6,33
     de4:	100f883a 	mov	r7,r2
     de8:	0001c780 	call	1c78 <fwrite>
   }
   while(1); /* Correct Program Flow never gets here. */
     dec:	003fff06 	br	dec <alt_SSSErrorHandler+0x2e0>
{
   FAULT_LEVEL fault_level;
   
   if   (error_code == OS_NO_ERR)
   {
      return;
     df0:	0001883a 	nop
      default:
         printf("\n[SSS]: See STDERR (FAULT_LEVEL is Unknown).\n");
         fprintf(stderr, "\n[SSS] FAULT_LEVEL is unknown!?!\n");
   }
   while(1); /* Correct Program Flow never gets here. */
}
     df4:	e037883a 	mov	sp,fp
     df8:	dfc00117 	ldw	ra,4(sp)
     dfc:	df000017 	ldw	fp,0(sp)
     e00:	dec00204 	addi	sp,sp,8
     e04:	f800283a 	ret

00000e08 <SSSInitialTask>:
/* SSSInitialTask will initialize the NicheStack
 * TCP/IP Stack and then initialize the rest of the Simple Socket Server example 
 * RTOS structures and tasks. 
 */
void SSSInitialTask(void *task_data)
{
     e08:	defffc04 	addi	sp,sp,-16
     e0c:	dfc00315 	stw	ra,12(sp)
     e10:	df000215 	stw	fp,8(sp)
     e14:	df000204 	addi	fp,sp,8
     e18:	e13fff15 	stw	r4,-4(fp)
   * NicheStack is initialized from a task, so that RTOS will have started, and 
   * I/O drivers are available.  Two tasks are created:
   *    "Inet main"  task with priority 2
   *    "clock tick" task with priority 3
   */   
  alt_iniche_init();
     e1c:	001defc0 	call	1defc <alt_iniche_init>
  netmain(); 
     e20:	001c4640 	call	1c464 <netmain>

  /* Wait for the network stack to be ready before proceeding. 
   * iniche_net_ready indicates that TCP/IP stack is ready, and IP address is obtained.
   */
  while (!iniche_net_ready)
     e24:	00000206 	br	e30 <SSSInitialTask+0x28>
    TK_SLEEP(1);
     e28:	01000084 	movi	r4,2
     e2c:	0013e0c0 	call	13e0c <OSTimeDly>
  netmain(); 

  /* Wait for the network stack to be ready before proceeding. 
   * iniche_net_ready indicates that TCP/IP stack is ready, and IP address is obtained.
   */
  while (!iniche_net_ready)
     e30:	00800174 	movhi	r2,5
     e34:	10a6e104 	addi	r2,r2,-25724
     e38:	10800017 	ldw	r2,0(r2)
     e3c:	103ffa26 	beq	r2,zero,e28 <SSSInitialTask+0x20>

  /* Now that the stack is running, perform the application initialization steps */
  
  /* Application Specific Task Launching Code Block Begin */

  printf("\nSimple Socket Server starting up\n");
     e40:	01000134 	movhi	r4,4
     e44:	210a7504 	addi	r4,r4,10708
     e48:	00021cc0 	call	21cc <puts>

  /* Create the main simple socket server task. */
  TK_NEWTASK(&ssstask);
     e4c:	01000134 	movhi	r4,4
     e50:	211eb504 	addi	r4,r4,31444
     e54:	001db980 	call	1db98 <TK_NEWTASK>
  
  /* Application Specific Task Launching Code Block End */
  
  /*This task is deleted because there is no need for it to run again */
  error_code = OSTaskDel(OS_PRIO_SELF);
     e58:	01003fc4 	movi	r4,255
     e5c:	0012df80 	call	12df8 <OSTaskDel>
     e60:	e0bffe05 	stb	r2,-8(fp)
  alt_uCOSIIErrorHandler(error_code, 0);
     e64:	e0bffe03 	ldbu	r2,-8(fp)
     e68:	1009883a 	mov	r4,r2
     e6c:	000b883a 	mov	r5,zero
     e70:	00002040 	call	204 <alt_uCOSIIErrorHandler>
  
  while (1); /* Correct Program Flow should never get here */
     e74:	003fff06 	br	e74 <SSSInitialTask+0x6c>

00000e78 <main>:

/* Main creates a single task, SSSInitialTask, and starts task scheduler.
 */

int main (int argc, char* argv[], char* envp[])
{
     e78:	defff504 	addi	sp,sp,-44
     e7c:	dfc00a15 	stw	ra,40(sp)
     e80:	df000915 	stw	fp,36(sp)
     e84:	df000904 	addi	fp,sp,36
     e88:	e13ffd15 	stw	r4,-12(fp)
     e8c:	e17ffe15 	stw	r5,-8(fp)
     e90:	e1bfff15 	stw	r6,-4(fp)
  
  INT8U error_code;

  /* Clear the RTOS timer */
  OSTimeSet(0);
     e94:	0009883a 	mov	r4,zero
     e98:	00143d40 	call	143d4 <OSTimeSet>

  /* SSSInitialTask will initialize the NicheStack
   * TCP/IP Stack and then initialize the rest of the Simple Socket Server example 
   * RTOS structures and tasks. 
   */  
  error_code = OSTaskCreateExt(SSSInitialTask,
     e9c:	00800144 	movi	r2,5
     ea0:	d8800015 	stw	r2,0(sp)
     ea4:	00800174 	movhi	r2,5
     ea8:	10a8c904 	addi	r2,r2,-23772
     eac:	d8800115 	stw	r2,4(sp)
     eb0:	00820004 	movi	r2,2048
     eb4:	d8800215 	stw	r2,8(sp)
     eb8:	d8000315 	stw	zero,12(sp)
     ebc:	d8000415 	stw	zero,16(sp)
     ec0:	01000034 	movhi	r4,0
     ec4:	21038204 	addi	r4,r4,3592
     ec8:	000b883a 	mov	r5,zero
     ecc:	01800174 	movhi	r6,5
     ed0:	31b0c904 	addi	r6,r6,-15580
     ed4:	01c00144 	movi	r7,5
     ed8:	0012c040 	call	12c04 <OSTaskCreateExt>
     edc:	e0bffc05 	stb	r2,-16(fp)
                             SSS_INITIAL_TASK_PRIORITY,
                             SSSInitialTaskStk,
                             TASK_STACKSIZE,
                             NULL,
                             0);
  alt_uCOSIIErrorHandler(error_code, 0);
     ee0:	e0bffc03 	ldbu	r2,-16(fp)
     ee4:	1009883a 	mov	r4,r2
     ee8:	000b883a 	mov	r5,zero
     eec:	00002040 	call	204 <alt_uCOSIIErrorHandler>

  /*
   * As with all MicroC/OS-II designs, once the initial thread(s) and 
   * associated RTOS resources are declared, we start the RTOS. That's it!
   */
  OSStart();
     ef0:	000d2380 	call	d238 <OSStart>

  
  while(1); /* Correct Program Flow never gets here. */
     ef4:	003fff06 	br	ef4 <main+0x7c>

00000ef8 <get_mac_addr>:
* Read the MAC address in a board specific way. Prompt user to enter serial 
* number to generate MAC address if failed to read from flash.
*
*/
int get_mac_addr(NET net, unsigned char mac_addr[6])
{
     ef8:	defffb04 	addi	sp,sp,-20
     efc:	dfc00415 	stw	ra,16(sp)
     f00:	df000315 	stw	fp,12(sp)
     f04:	df000304 	addi	fp,sp,12
     f08:	e13ffe15 	stw	r4,-8(fp)
     f0c:	e17fff15 	stw	r5,-4(fp)
    error_t error = 0;
     f10:	e03ffd15 	stw	zero,-12(fp)
    
    error = get_board_mac_addr(mac_addr);
     f14:	e13fff17 	ldw	r4,-4(fp)
     f18:	00015cc0 	call	15cc <get_board_mac_addr>
     f1c:	e0bffd15 	stw	r2,-12(fp)
    
    if(error)
     f20:	e0bffd17 	ldw	r2,-12(fp)
     f24:	10000326 	beq	r2,zero,f34 <get_mac_addr+0x3c>
    {
        /* Failed read MAC address from flash, prompt user to enter serial 
           number to generate MAC address. */
        error = generate_mac_addr(mac_addr);
     f28:	e13fff17 	ldw	r4,-4(fp)
     f2c:	000148c0 	call	148c <generate_mac_addr>
     f30:	e0bffd15 	stw	r2,-12(fp)
    }
    return error;
     f34:	e0bffd17 	ldw	r2,-12(fp)
}
     f38:	e037883a 	mov	sp,fp
     f3c:	dfc00117 	ldw	ra,4(sp)
     f40:	df000017 	ldw	fp,0(sp)
     f44:	dec00204 	addi	sp,sp,8
     f48:	f800283a 	ret

00000f4c <get_ip_addr>:
int get_ip_addr(alt_iniche_dev *p_dev,
                ip_addr* ipaddr,
                ip_addr* netmask,
                ip_addr* gw,
                int* use_dhcp)
{
     f4c:	defff904 	addi	sp,sp,-28
     f50:	dfc00615 	stw	ra,24(sp)
     f54:	df000515 	stw	fp,20(sp)
     f58:	df000504 	addi	fp,sp,20
     f5c:	e13ffc15 	stw	r4,-16(fp)
     f60:	e17ffd15 	stw	r5,-12(fp)
     f64:	e1bffe15 	stw	r6,-8(fp)
     f68:	e1ffff15 	stw	r7,-4(fp)

    IP4_ADDR(*ipaddr, IPADDR0, IPADDR1, IPADDR2, IPADDR3);
     f6c:	e0bffd17 	ldw	r2,-12(fp)
     f70:	00fa80b4 	movhi	r3,59906
     f74:	18ea3004 	addi	r3,r3,-22336
     f78:	10c00015 	stw	r3,0(r2)
    IP4_ADDR(*gw, GWADDR0, GWADDR1, GWADDR2, GWADDR3);
     f7c:	e0bfff17 	ldw	r2,-4(fp)
     f80:	00c040b4 	movhi	r3,258
     f84:	18ea3004 	addi	r3,r3,-22336
     f88:	10c00015 	stw	r3,0(r2)
    IP4_ADDR(*netmask, MSKADDR0, MSKADDR1, MSKADDR2, MSKADDR3);
     f8c:	e0bffe17 	ldw	r2,-8(fp)
     f90:	00c04034 	movhi	r3,256
     f94:	18ffffc4 	addi	r3,r3,-1
     f98:	10c00015 	stw	r3,0(r2)

#ifdef DHCP_CLIENT
    *use_dhcp = 1;
#else /* not DHCP_CLIENT */
    *use_dhcp = 0;
     f9c:	e0800217 	ldw	r2,8(fp)
     fa0:	10000015 	stw	zero,0(r2)

    printf("Static IP Address is %d.%d.%d.%d\n",
        ip4_addr1(*ipaddr),
     fa4:	e0bffd17 	ldw	r2,-12(fp)
     fa8:	10800017 	ldw	r2,0(r2)
     fac:	1006d63a 	srli	r3,r2,24
     fb0:	e0bffd17 	ldw	r2,-12(fp)
     fb4:	10800017 	ldw	r2,0(r2)
     fb8:	1004d23a 	srli	r2,r2,8
     fbc:	10bfc00c 	andi	r2,r2,65280
     fc0:	1886b03a 	or	r3,r3,r2
     fc4:	e0bffd17 	ldw	r2,-12(fp)
     fc8:	10800017 	ldw	r2,0(r2)
     fcc:	10bfc00c 	andi	r2,r2,65280
     fd0:	1004923a 	slli	r2,r2,8
     fd4:	1886b03a 	or	r3,r3,r2
     fd8:	e0bffd17 	ldw	r2,-12(fp)
     fdc:	10800017 	ldw	r2,0(r2)
     fe0:	1004963a 	slli	r2,r2,24
     fe4:	1884b03a 	or	r2,r3,r2
     fe8:	100ad63a 	srli	r5,r2,24
        ip4_addr2(*ipaddr),
     fec:	e0bffd17 	ldw	r2,-12(fp)
     ff0:	10800017 	ldw	r2,0(r2)
     ff4:	1006d63a 	srli	r3,r2,24
     ff8:	e0bffd17 	ldw	r2,-12(fp)
     ffc:	10800017 	ldw	r2,0(r2)
    1000:	1004d23a 	srli	r2,r2,8
    1004:	10bfc00c 	andi	r2,r2,65280
    1008:	1886b03a 	or	r3,r3,r2
    100c:	e0bffd17 	ldw	r2,-12(fp)
    1010:	10800017 	ldw	r2,0(r2)
    1014:	10bfc00c 	andi	r2,r2,65280
    1018:	1004923a 	slli	r2,r2,8
    101c:	1886b03a 	or	r3,r3,r2
    1020:	e0bffd17 	ldw	r2,-12(fp)
    1024:	10800017 	ldw	r2,0(r2)
    1028:	1004963a 	slli	r2,r2,24
    102c:	1884b03a 	or	r2,r3,r2
    1030:	1004d43a 	srli	r2,r2,16
#ifdef DHCP_CLIENT
    *use_dhcp = 1;
#else /* not DHCP_CLIENT */
    *use_dhcp = 0;

    printf("Static IP Address is %d.%d.%d.%d\n",
    1034:	10c03fcc 	andi	r3,r2,255
        ip4_addr1(*ipaddr),
        ip4_addr2(*ipaddr),
        ip4_addr3(*ipaddr),
    1038:	e0bffd17 	ldw	r2,-12(fp)
    103c:	10800017 	ldw	r2,0(r2)
    1040:	1008d63a 	srli	r4,r2,24
    1044:	e0bffd17 	ldw	r2,-12(fp)
    1048:	10800017 	ldw	r2,0(r2)
    104c:	1004d23a 	srli	r2,r2,8
    1050:	10bfc00c 	andi	r2,r2,65280
    1054:	2088b03a 	or	r4,r4,r2
    1058:	e0bffd17 	ldw	r2,-12(fp)
    105c:	10800017 	ldw	r2,0(r2)
    1060:	10bfc00c 	andi	r2,r2,65280
    1064:	1004923a 	slli	r2,r2,8
    1068:	2088b03a 	or	r4,r4,r2
    106c:	e0bffd17 	ldw	r2,-12(fp)
    1070:	10800017 	ldw	r2,0(r2)
    1074:	1004963a 	slli	r2,r2,24
    1078:	2084b03a 	or	r2,r4,r2
    107c:	1004d23a 	srli	r2,r2,8
#ifdef DHCP_CLIENT
    *use_dhcp = 1;
#else /* not DHCP_CLIENT */
    *use_dhcp = 0;

    printf("Static IP Address is %d.%d.%d.%d\n",
    1080:	10803fcc 	andi	r2,r2,255
        ip4_addr1(*ipaddr),
        ip4_addr2(*ipaddr),
        ip4_addr3(*ipaddr),
        ip4_addr4(*ipaddr));
    1084:	e13ffd17 	ldw	r4,-12(fp)
    1088:	21000017 	ldw	r4,0(r4)
    108c:	200cd63a 	srli	r6,r4,24
    1090:	e13ffd17 	ldw	r4,-12(fp)
    1094:	21000017 	ldw	r4,0(r4)
    1098:	2008d23a 	srli	r4,r4,8
    109c:	213fc00c 	andi	r4,r4,65280
    10a0:	310cb03a 	or	r6,r6,r4
    10a4:	e13ffd17 	ldw	r4,-12(fp)
    10a8:	21000017 	ldw	r4,0(r4)
    10ac:	213fc00c 	andi	r4,r4,65280
    10b0:	2008923a 	slli	r4,r4,8
    10b4:	310cb03a 	or	r6,r6,r4
    10b8:	e13ffd17 	ldw	r4,-12(fp)
    10bc:	21000017 	ldw	r4,0(r4)
    10c0:	2008963a 	slli	r4,r4,24
    10c4:	3108b03a 	or	r4,r6,r4
#ifdef DHCP_CLIENT
    *use_dhcp = 1;
#else /* not DHCP_CLIENT */
    *use_dhcp = 0;

    printf("Static IP Address is %d.%d.%d.%d\n",
    10c8:	21003fcc 	andi	r4,r4,255
    10cc:	d9000015 	stw	r4,0(sp)
    10d0:	01000134 	movhi	r4,4
    10d4:	210a7e04 	addi	r4,r4,10744
    10d8:	180d883a 	mov	r6,r3
    10dc:	100f883a 	mov	r7,r2
    10e0:	0001f3c0 	call	1f3c <printf>
        ip4_addr3(*ipaddr),
        ip4_addr4(*ipaddr));
#endif /* not DHCP_CLIENT */

    /* Non-standard API: return 1 for success */
    return 1;
    10e4:	00800044 	movi	r2,1
}
    10e8:	e037883a 	mov	sp,fp
    10ec:	dfc00117 	ldw	ra,4(sp)
    10f0:	df000017 	ldw	fp,0(sp)
    10f4:	dec00204 	addi	sp,sp,8
    10f8:	f800283a 	ret

000010fc <get_serial_number>:
*
* Prompt user to enter 9-digit serial number. 
*
*/
alt_u32 get_serial_number (void)
{
    10fc:	defff904 	addi	sp,sp,-28
    1100:	dfc00615 	stw	ra,24(sp)
    1104:	df000515 	stw	fp,20(sp)
    1108:	df000504 	addi	fp,sp,20
    alt_u32 ser_num = 0;
    110c:	e03ffb15 	stw	zero,-20(fp)
    char serial_number[9];
    int i = 0;
    1110:	e03ffc15 	stw	zero,-16(fp)
    
    while(!ser_num)
    1114:	00006506 	br	12ac <get_serial_number+0x1b0>
    {
        printf("Please enter your 9-digit serial number. This is printed on a \n");
    1118:	01000134 	movhi	r4,4
    111c:	210a8704 	addi	r4,r4,10780
    1120:	00021cc0 	call	21cc <puts>
        printf("label under your Nios dev. board. The first 3 digits of the \n");
    1124:	01000134 	movhi	r4,4
    1128:	210a9704 	addi	r4,r4,10844
    112c:	00021cc0 	call	21cc <puts>
        printf("label are ASJ and the serial number follows this.\n -->");
    1130:	01000134 	movhi	r4,4
    1134:	210aa704 	addi	r4,r4,10908
    1138:	0001f3c0 	call	1f3c <printf>
        
        for(i=0; i<9; i++)
    113c:	e03ffc15 	stw	zero,-16(fp)
    1140:	00002a06 	br	11ec <get_serial_number+0xf0>
        {
            serial_number[i] = getchar();
    1144:	00800174 	movhi	r2,5
    1148:	10a66104 	addi	r2,r2,-26236
    114c:	10800017 	ldw	r2,0(r2)
    1150:	10800117 	ldw	r2,4(r2)
    1154:	1009883a 	mov	r4,r2
    1158:	0001d280 	call	1d28 <getc>
    115c:	1007883a 	mov	r3,r2
    1160:	e13ffd04 	addi	r4,fp,-12
    1164:	e0bffc17 	ldw	r2,-16(fp)
    1168:	2085883a 	add	r2,r4,r2
    116c:	10c00005 	stb	r3,0(r2)
            putchar(serial_number[i]);
    1170:	e0fffd04 	addi	r3,fp,-12
    1174:	e0bffc17 	ldw	r2,-16(fp)
    1178:	1885883a 	add	r2,r3,r2
    117c:	10800003 	ldbu	r2,0(r2)
    1180:	10c03fcc 	andi	r3,r2,255
    1184:	18c0201c 	xori	r3,r3,128
    1188:	18ffe004 	addi	r3,r3,-128
    118c:	00800174 	movhi	r2,5
    1190:	10a66104 	addi	r2,r2,-26236
    1194:	10800017 	ldw	r2,0(r2)
    1198:	10800217 	ldw	r2,8(r2)
    119c:	1809883a 	mov	r4,r3
    11a0:	100b883a 	mov	r5,r2
    11a4:	00020340 	call	2034 <putc>
            
            /* Handle backspaces.  How civilized. */
            if ((serial_number[i] == 0x08) && (i >= 0)) 
    11a8:	e0fffd04 	addi	r3,fp,-12
    11ac:	e0bffc17 	ldw	r2,-16(fp)
    11b0:	1885883a 	add	r2,r3,r2
    11b4:	10800003 	ldbu	r2,0(r2)
    11b8:	10803fcc 	andi	r2,r2,255
    11bc:	1080201c 	xori	r2,r2,128
    11c0:	10bfe004 	addi	r2,r2,-128
    11c4:	10800218 	cmpnei	r2,r2,8
    11c8:	1000051e 	bne	r2,zero,11e0 <get_serial_number+0xe4>
    11cc:	e0bffc17 	ldw	r2,-16(fp)
    11d0:	10000316 	blt	r2,zero,11e0 <get_serial_number+0xe4>
            {
                i--;
    11d4:	e0bffc17 	ldw	r2,-16(fp)
    11d8:	10bfffc4 	addi	r2,r2,-1
    11dc:	e0bffc15 	stw	r2,-16(fp)
    {
        printf("Please enter your 9-digit serial number. This is printed on a \n");
        printf("label under your Nios dev. board. The first 3 digits of the \n");
        printf("label are ASJ and the serial number follows this.\n -->");
        
        for(i=0; i<9; i++)
    11e0:	e0bffc17 	ldw	r2,-16(fp)
    11e4:	10800044 	addi	r2,r2,1
    11e8:	e0bffc15 	stw	r2,-16(fp)
    11ec:	e0bffc17 	ldw	r2,-16(fp)
    11f0:	10800250 	cmplti	r2,r2,9
    11f4:	103fd31e 	bne	r2,zero,1144 <get_serial_number+0x48>
            if ((serial_number[i] == 0x08) && (i >= 0)) 
            {
                i--;
            }
        }
        printf("\n");
    11f8:	01000284 	movi	r4,10
    11fc:	000212c0 	call	212c <putchar>
                
        for(i=0; i<9; i++)
    1200:	e03ffc15 	stw	zero,-16(fp)
    1204:	00002606 	br	12a0 <get_serial_number+0x1a4>
        {
            if (isdigit(serial_number[i]))
    1208:	00800174 	movhi	r2,5
    120c:	10a65f04 	addi	r2,r2,-26244
    1210:	10c00017 	ldw	r3,0(r2)
    1214:	e13ffd04 	addi	r4,fp,-12
    1218:	e0bffc17 	ldw	r2,-16(fp)
    121c:	2085883a 	add	r2,r4,r2
    1220:	10800003 	ldbu	r2,0(r2)
    1224:	10803fcc 	andi	r2,r2,255
    1228:	1080201c 	xori	r2,r2,128
    122c:	10bfe004 	addi	r2,r2,-128
    1230:	1885883a 	add	r2,r3,r2
    1234:	10800003 	ldbu	r2,0(r2)
    1238:	10803fcc 	andi	r2,r2,255
    123c:	1080010c 	andi	r2,r2,4
    1240:	10001226 	beq	r2,zero,128c <get_serial_number+0x190>
            {
                ser_num *= 10;
    1244:	e0bffb17 	ldw	r2,-20(fp)
    1248:	108002a4 	muli	r2,r2,10
    124c:	e0bffb15 	stw	r2,-20(fp)
                ser_num += serial_number[i] - '0';
    1250:	e0fffd04 	addi	r3,fp,-12
    1254:	e0bffc17 	ldw	r2,-16(fp)
    1258:	1885883a 	add	r2,r3,r2
    125c:	10800003 	ldbu	r2,0(r2)
    1260:	10c03fcc 	andi	r3,r2,255
    1264:	18c0201c 	xori	r3,r3,128
    1268:	18ffe004 	addi	r3,r3,-128
    126c:	e0bffb17 	ldw	r2,-20(fp)
    1270:	1885883a 	add	r2,r3,r2
    1274:	10bff404 	addi	r2,r2,-48
    1278:	e0bffb15 	stw	r2,-20(fp)
                i--;
            }
        }
        printf("\n");
                
        for(i=0; i<9; i++)
    127c:	e0bffc17 	ldw	r2,-16(fp)
    1280:	10800044 	addi	r2,r2,1
    1284:	e0bffc15 	stw	r2,-16(fp)
    1288:	00000506 	br	12a0 <get_serial_number+0x1a4>
                ser_num *= 10;
                ser_num += serial_number[i] - '0';
            }
            else
            {
                ser_num = 0;
    128c:	e03ffb15 	stw	zero,-20(fp)
                printf("Serial number only contains decimal digits and is non-zero\n");
    1290:	01000134 	movhi	r4,4
    1294:	210ab504 	addi	r4,r4,10964
    1298:	00021cc0 	call	21cc <puts>
                break;
    129c:	00000306 	br	12ac <get_serial_number+0x1b0>
                i--;
            }
        }
        printf("\n");
                
        for(i=0; i<9; i++)
    12a0:	e0bffc17 	ldw	r2,-16(fp)
    12a4:	10800250 	cmplti	r2,r2,9
    12a8:	103fd71e 	bne	r2,zero,1208 <get_serial_number+0x10c>
{
    alt_u32 ser_num = 0;
    char serial_number[9];
    int i = 0;
    
    while(!ser_num)
    12ac:	e0bffb17 	ldw	r2,-20(fp)
    12b0:	103f9926 	beq	r2,zero,1118 <get_serial_number+0x1c>
                break;
            }
        }
    }
    
    return ser_num;
    12b4:	e0bffb17 	ldw	r2,-20(fp)
}
    12b8:	e037883a 	mov	sp,fp
    12bc:	dfc00117 	ldw	ra,4(sp)
    12c0:	df000017 	ldw	fp,0(sp)
    12c4:	dec00204 	addi	sp,sp,8
    12c8:	f800283a 	ret

000012cc <generate_and_store_mac_addr>:
 * sections. These fail-safe static settings are compatible with previous
 * Nios Ethernet designs, and allow the "factory-safe" design to behave 
 * as expected if the last flash sector is erased.
 */
error_t generate_and_store_mac_addr()
{
    12cc:	deffef04 	addi	sp,sp,-68
    12d0:	dfc01015 	stw	ra,64(sp)
    12d4:	df000f15 	stw	fp,60(sp)
    12d8:	df000f04 	addi	fp,sp,60
    error_t error = -1;
    12dc:	00bfffc4 	movi	r2,-1
    12e0:	e0bff115 	stw	r2,-60(fp)
    alt_u32 ser_num = 0;
    12e4:	e03ff215 	stw	zero,-56(fp)
    char flash_content[32];
    alt_flash_fd* flash_handle;
    
    printf("Can't read the MAC address from your board (this probably means\n");
    12e8:	01000134 	movhi	r4,4
    12ec:	210ac404 	addi	r4,r4,11024
    12f0:	00021cc0 	call	21cc <puts>
    printf("that your flash was erased). We will assign you a MAC address and\n");
    12f4:	01000134 	movhi	r4,4
    12f8:	210ad404 	addi	r4,r4,11088
    12fc:	00021cc0 	call	21cc <puts>
    printf("static network settings\n\n");
    1300:	01000134 	movhi	r4,4
    1304:	210ae504 	addi	r4,r4,11156
    1308:	00021cc0 	call	21cc <puts>
    
    ser_num = get_serial_number();
    130c:	00010fc0 	call	10fc <get_serial_number>
    1310:	e0bff215 	stw	r2,-56(fp)
  
    if (ser_num)
    1314:	e0bff217 	ldw	r2,-56(fp)
    1318:	10005626 	beq	r2,zero,1474 <generate_and_store_mac_addr+0x1a8>
    {
        /* This says the image is safe */
        flash_content[0] = 0xfe;
    131c:	00bfff84 	movi	r2,-2
    1320:	e0bff805 	stb	r2,-32(fp)
        flash_content[1] = 0x5a;
    1324:	00801684 	movi	r2,90
    1328:	e0bff845 	stb	r2,-31(fp)
        flash_content[2] = 0x0;
    132c:	e03ff885 	stb	zero,-30(fp)
        flash_content[3] = 0x0;
    1330:	e03ff8c5 	stb	zero,-29(fp)
        
        /* This is the Altera Vendor ID */
        flash_content[4] = 0x0;
    1334:	e03ff905 	stb	zero,-28(fp)
        flash_content[5] = 0x7;
    1338:	008001c4 	movi	r2,7
    133c:	e0bff945 	stb	r2,-27(fp)
        flash_content[6] = 0xed;
    1340:	00bffb44 	movi	r2,-19
    1344:	e0bff985 	stb	r2,-26(fp)
        
        /* Reserverd Board identifier for erase boards */
        flash_content[7] = 0xFF;
    1348:	00bfffc4 	movi	r2,-1
    134c:	e0bff9c5 	stb	r2,-25(fp)
        flash_content[8] = (ser_num & 0xff00) >> 8;
    1350:	e0bff217 	ldw	r2,-56(fp)
    1354:	10bfc00c 	andi	r2,r2,65280
    1358:	1004d23a 	srli	r2,r2,8
    135c:	e0bffa05 	stb	r2,-24(fp)
        flash_content[9] = ser_num & 0xff;
    1360:	e0bff217 	ldw	r2,-56(fp)
    1364:	e0bffa45 	stb	r2,-23(fp)
        
        /* Then comes a 16-bit "flags" field */
        flash_content[10] = 0xFF;
    1368:	00bfffc4 	movi	r2,-1
    136c:	e0bffa85 	stb	r2,-22(fp)
        flash_content[11] = 0xFF;
    1370:	00bfffc4 	movi	r2,-1
    1374:	e0bffac5 	stb	r2,-21(fp)
        
        /* Then comes the static IP address */
        flash_content[12] = IPADDR0;
    1378:	00bff004 	movi	r2,-64
    137c:	e0bffb05 	stb	r2,-20(fp)
        flash_content[13] = IPADDR1;
    1380:	00bfea04 	movi	r2,-88
    1384:	e0bffb45 	stb	r2,-19(fp)
        flash_content[14] = IPADDR2;
    1388:	00800044 	movi	r2,1
    138c:	e0bffb85 	stb	r2,-18(fp)
        flash_content[15] = IPADDR3;
    1390:	00bffa84 	movi	r2,-22
    1394:	e0bffbc5 	stb	r2,-17(fp)
        
        /* Then comes the static nameserver address */
        flash_content[16] = 0xFF;
    1398:	00bfffc4 	movi	r2,-1
    139c:	e0bffc05 	stb	r2,-16(fp)
        flash_content[17] = 0xFF;
    13a0:	00bfffc4 	movi	r2,-1
    13a4:	e0bffc45 	stb	r2,-15(fp)
        flash_content[18] = 0xFF;
    13a8:	00bfffc4 	movi	r2,-1
    13ac:	e0bffc85 	stb	r2,-14(fp)
        flash_content[19] = 0xFF;
    13b0:	00bfffc4 	movi	r2,-1
    13b4:	e0bffcc5 	stb	r2,-13(fp)
        
        /* Then comes the static subnet mask */
        flash_content[20] = MSKADDR0;
    13b8:	00bfffc4 	movi	r2,-1
    13bc:	e0bffd05 	stb	r2,-12(fp)
        flash_content[21] = MSKADDR1;
    13c0:	00bfffc4 	movi	r2,-1
    13c4:	e0bffd45 	stb	r2,-11(fp)
        flash_content[22] = MSKADDR2;
    13c8:	00bfffc4 	movi	r2,-1
    13cc:	e0bffd85 	stb	r2,-10(fp)
        flash_content[23] = MSKADDR3;
    13d0:	e03ffdc5 	stb	zero,-9(fp)
        
        /* Then comes the static gateway address */
        flash_content[24] = GWADDR0;
    13d4:	00bff004 	movi	r2,-64
    13d8:	e0bffe05 	stb	r2,-8(fp)
        flash_content[25] = GWADDR1;
    13dc:	00bfea04 	movi	r2,-88
    13e0:	e0bffe45 	stb	r2,-7(fp)
        flash_content[26] = GWADDR2;
    13e4:	00800044 	movi	r2,1
    13e8:	e0bffe85 	stb	r2,-6(fp)
        flash_content[27] = GWADDR3;
    13ec:	00800044 	movi	r2,1
    13f0:	e0bffec5 	stb	r2,-5(fp)
        
        /* And finally whether to use DHCP - set all bits to be safe */
        flash_content[28] = 0xFF;
    13f4:	00bfffc4 	movi	r2,-1
    13f8:	e0bfff05 	stb	r2,-4(fp)
        flash_content[29] = 0xFF;
    13fc:	00bfffc4 	movi	r2,-1
    1400:	e0bfff45 	stb	r2,-3(fp)
        flash_content[30] = 0xFF;
    1404:	00bfffc4 	movi	r2,-1
    1408:	e0bfff85 	stb	r2,-2(fp)
        flash_content[31] = 0xFF;
    140c:	00bfffc4 	movi	r2,-1
    1410:	e0bfffc5 	stb	r2,-1(fp)
        
        /* Write the MAC address to flash */
        flash_handle = alt_flash_open_dev(EXT_FLASH_NAME);
    1414:	01000134 	movhi	r4,4
    1418:	210aec04 	addi	r4,r4,11184
    141c:	000be340 	call	be34 <alt_flash_open_dev>
    1420:	e0bff315 	stw	r2,-52(fp)
        if (flash_handle)
    1424:	e0bff317 	ldw	r2,-52(fp)
    1428:	10001226 	beq	r2,zero,1474 <generate_and_store_mac_addr+0x1a8>
        {
            alt_write_flash(flash_handle,
    142c:	d0a05217 	ldw	r2,-32440(gp)
    1430:	e0fff317 	ldw	r3,-52(fp)
    1434:	e0fff415 	stw	r3,-48(fp)
    1438:	e0bff515 	stw	r2,-44(fp)
                            last_flash_sector_offset,
                            flash_content,
    143c:	e0bff804 	addi	r2,fp,-32
    1440:	e0bff615 	stw	r2,-40(fp)
    1444:	00800804 	movi	r2,32
    1448:	e0bff715 	stw	r2,-36(fp)
                                                           alt_flash_fd* fd, 
                                                           int offset, 
                                                           const void* src_addr, 
                                                           int length )
{
  return fd->write( fd, offset, src_addr, length );
    144c:	e0bff417 	ldw	r2,-48(fp)
    1450:	10800517 	ldw	r2,20(r2)
    1454:	e13ff417 	ldw	r4,-48(fp)
    1458:	e17ff517 	ldw	r5,-44(fp)
    145c:	e1bff617 	ldw	r6,-40(fp)
    1460:	e1fff717 	ldw	r7,-36(fp)
    1464:	103ee83a 	callr	r2
                            32);
            alt_flash_close_dev(flash_handle);
    1468:	e13ff317 	ldw	r4,-52(fp)
    146c:	000be9c0 	call	be9c <alt_flash_close_dev>
            error = 0;
    1470:	e03ff115 	stw	zero,-60(fp)
        }
    }

    return error;    
    1474:	e0bff117 	ldw	r2,-60(fp)
}
    1478:	e037883a 	mov	sp,fp
    147c:	dfc00117 	ldw	ra,4(sp)
    1480:	df000017 	ldw	fp,0(sp)
    1484:	dec00204 	addi	sp,sp,8
    1488:	f800283a 	ret

0000148c <generate_mac_addr>:
 * Development Board serial number is 040800017, the corresponding ethernet 
 * number generated will be 00:07:ED:FF:8F:11.
 * 
 */
error_t generate_mac_addr(unsigned char mac_addr[6])
{
    148c:	defff804 	addi	sp,sp,-32
    1490:	dfc00715 	stw	ra,28(sp)
    1494:	df000615 	stw	fp,24(sp)
    1498:	df000604 	addi	fp,sp,24
    149c:	e13fff15 	stw	r4,-4(fp)
    error_t error = -1;
    14a0:	00bfffc4 	movi	r2,-1
    14a4:	e0bffd15 	stw	r2,-12(fp)
    alt_u32 ser_num = 0;
    14a8:	e03ffe15 	stw	zero,-8(fp)
    
    printf("\nCan't read the MAC address from your board. We will assign you\n");
    14ac:	01000134 	movhi	r4,4
    14b0:	210af004 	addi	r4,r4,11200
    14b4:	00021cc0 	call	21cc <puts>
    printf("a MAC address.\n\n");
    14b8:	01000134 	movhi	r4,4
    14bc:	210b0004 	addi	r4,r4,11264
    14c0:	00021cc0 	call	21cc <puts>
    
    ser_num = get_serial_number();
    14c4:	00010fc0 	call	10fc <get_serial_number>
    14c8:	e0bffe15 	stw	r2,-8(fp)
  
    if (ser_num)
    14cc:	e0bffe17 	ldw	r2,-8(fp)
    14d0:	10003826 	beq	r2,zero,15b4 <generate_mac_addr+0x128>
    {
        /* This is the Altera Vendor ID */
        mac_addr[0] = 0x0;
    14d4:	e0bfff17 	ldw	r2,-4(fp)
    14d8:	10000005 	stb	zero,0(r2)
        mac_addr[1] = 0x7;
    14dc:	e0bfff17 	ldw	r2,-4(fp)
    14e0:	10800044 	addi	r2,r2,1
    14e4:	00c001c4 	movi	r3,7
    14e8:	10c00005 	stb	r3,0(r2)
        mac_addr[2] = 0xed;
    14ec:	e0bfff17 	ldw	r2,-4(fp)
    14f0:	10800084 	addi	r2,r2,2
    14f4:	00fffb44 	movi	r3,-19
    14f8:	10c00005 	stb	r3,0(r2)
        
        /* Reserverd Board identifier */
        mac_addr[3] = 0xFF;
    14fc:	e0bfff17 	ldw	r2,-4(fp)
    1500:	108000c4 	addi	r2,r2,3
    1504:	00ffffc4 	movi	r3,-1
    1508:	10c00005 	stb	r3,0(r2)
        mac_addr[4] = (ser_num & 0xff00) >> 8;
    150c:	e0bfff17 	ldw	r2,-4(fp)
    1510:	10800104 	addi	r2,r2,4
    1514:	e0fffe17 	ldw	r3,-8(fp)
    1518:	18ffc00c 	andi	r3,r3,65280
    151c:	1806d23a 	srli	r3,r3,8
    1520:	10c00005 	stb	r3,0(r2)
        mac_addr[5] = ser_num & 0xff;
    1524:	e0bfff17 	ldw	r2,-4(fp)
    1528:	10800144 	addi	r2,r2,5
    152c:	e0fffe17 	ldw	r3,-8(fp)
    1530:	10c00005 	stb	r3,0(r2)
        
        printf("Your Ethernet MAC address is %02x:%02x:%02x:%02x:%02x:%02x\n", 
            mac_addr[0],
    1534:	e0bfff17 	ldw	r2,-4(fp)
    1538:	10800003 	ldbu	r2,0(r2)
        /* Reserverd Board identifier */
        mac_addr[3] = 0xFF;
        mac_addr[4] = (ser_num & 0xff00) >> 8;
        mac_addr[5] = ser_num & 0xff;
        
        printf("Your Ethernet MAC address is %02x:%02x:%02x:%02x:%02x:%02x\n", 
    153c:	11403fcc 	andi	r5,r2,255
            mac_addr[0],
            mac_addr[1],
    1540:	e0bfff17 	ldw	r2,-4(fp)
    1544:	10800044 	addi	r2,r2,1
    1548:	10800003 	ldbu	r2,0(r2)
        /* Reserverd Board identifier */
        mac_addr[3] = 0xFF;
        mac_addr[4] = (ser_num & 0xff00) >> 8;
        mac_addr[5] = ser_num & 0xff;
        
        printf("Your Ethernet MAC address is %02x:%02x:%02x:%02x:%02x:%02x\n", 
    154c:	10c03fcc 	andi	r3,r2,255
            mac_addr[0],
            mac_addr[1],
            mac_addr[2],
    1550:	e0bfff17 	ldw	r2,-4(fp)
    1554:	10800084 	addi	r2,r2,2
    1558:	10800003 	ldbu	r2,0(r2)
        /* Reserverd Board identifier */
        mac_addr[3] = 0xFF;
        mac_addr[4] = (ser_num & 0xff00) >> 8;
        mac_addr[5] = ser_num & 0xff;
        
        printf("Your Ethernet MAC address is %02x:%02x:%02x:%02x:%02x:%02x\n", 
    155c:	10803fcc 	andi	r2,r2,255
            mac_addr[0],
            mac_addr[1],
            mac_addr[2],
            mac_addr[3],
    1560:	e13fff17 	ldw	r4,-4(fp)
    1564:	210000c4 	addi	r4,r4,3
    1568:	21000003 	ldbu	r4,0(r4)
        /* Reserverd Board identifier */
        mac_addr[3] = 0xFF;
        mac_addr[4] = (ser_num & 0xff00) >> 8;
        mac_addr[5] = ser_num & 0xff;
        
        printf("Your Ethernet MAC address is %02x:%02x:%02x:%02x:%02x:%02x\n", 
    156c:	21c03fcc 	andi	r7,r4,255
            mac_addr[0],
            mac_addr[1],
            mac_addr[2],
            mac_addr[3],
            mac_addr[4],
    1570:	e13fff17 	ldw	r4,-4(fp)
    1574:	21000104 	addi	r4,r4,4
    1578:	21000003 	ldbu	r4,0(r4)
        /* Reserverd Board identifier */
        mac_addr[3] = 0xFF;
        mac_addr[4] = (ser_num & 0xff00) >> 8;
        mac_addr[5] = ser_num & 0xff;
        
        printf("Your Ethernet MAC address is %02x:%02x:%02x:%02x:%02x:%02x\n", 
    157c:	21803fcc 	andi	r6,r4,255
            mac_addr[0],
            mac_addr[1],
            mac_addr[2],
            mac_addr[3],
            mac_addr[4],
            mac_addr[5]);
    1580:	e13fff17 	ldw	r4,-4(fp)
    1584:	21000144 	addi	r4,r4,5
    1588:	21000003 	ldbu	r4,0(r4)
        /* Reserverd Board identifier */
        mac_addr[3] = 0xFF;
        mac_addr[4] = (ser_num & 0xff00) >> 8;
        mac_addr[5] = ser_num & 0xff;
        
        printf("Your Ethernet MAC address is %02x:%02x:%02x:%02x:%02x:%02x\n", 
    158c:	21003fcc 	andi	r4,r4,255
    1590:	d9c00015 	stw	r7,0(sp)
    1594:	d9800115 	stw	r6,4(sp)
    1598:	d9000215 	stw	r4,8(sp)
    159c:	01000134 	movhi	r4,4
    15a0:	210b0404 	addi	r4,r4,11280
    15a4:	180d883a 	mov	r6,r3
    15a8:	100f883a 	mov	r7,r2
    15ac:	0001f3c0 	call	1f3c <printf>
            mac_addr[2],
            mac_addr[3],
            mac_addr[4],
            mac_addr[5]);
        
        error = 0;
    15b0:	e03ffd15 	stw	zero,-12(fp)
    }
  
    return error;    
    15b4:	e0bffd17 	ldw	r2,-12(fp)
}
    15b8:	e037883a 	mov	sp,fp
    15bc:	dfc00117 	ldw	ra,4(sp)
    15c0:	df000017 	ldw	fp,0(sp)
    15c4:	dec00204 	addi	sp,sp,8
    15c8:	f800283a 	ret

000015cc <get_board_mac_addr>:
*
* Read the MAC address in a board specific way
*
*/
error_t get_board_mac_addr(unsigned char mac_addr[6])
{
    15cc:	defff904 	addi	sp,sp,-28
    15d0:	dfc00615 	stw	ra,24(sp)
    15d4:	df000515 	stw	fp,20(sp)
    15d8:	df000504 	addi	fp,sp,20
    15dc:	e13fff15 	stw	r4,-4(fp)
    error_t error = 0;
    15e0:	e03ffe15 	stw	zero,-8(fp)

    mac_addr[0] = 40;
    15e4:	e0bfff17 	ldw	r2,-4(fp)
    15e8:	00c00a04 	movi	r3,40
    15ec:	10c00005 	stb	r3,0(r2)
    mac_addr[1] = 51;
    15f0:	e0bfff17 	ldw	r2,-4(fp)
    15f4:	10800044 	addi	r2,r2,1
    15f8:	00c00cc4 	movi	r3,51
    15fc:	10c00005 	stb	r3,0(r2)
    mac_addr[2] = 62;
    1600:	e0bfff17 	ldw	r2,-4(fp)
    1604:	10800084 	addi	r2,r2,2
    1608:	00c00f84 	movi	r3,62
    160c:	10c00005 	stb	r3,0(r2)
    mac_addr[3] = 73;
    1610:	e0bfff17 	ldw	r2,-4(fp)
    1614:	108000c4 	addi	r2,r2,3
    1618:	00c01244 	movi	r3,73
    161c:	10c00005 	stb	r3,0(r2)
    mac_addr[4] = 89;
    1620:	e0bfff17 	ldw	r2,-4(fp)
    1624:	10800104 	addi	r2,r2,4
    1628:	00c01644 	movi	r3,89
    162c:	10c00005 	stb	r3,0(r2)
    mac_addr[5] = 90;
    1630:	e0bfff17 	ldw	r2,-4(fp)
    1634:	10800144 	addi	r2,r2,5
    1638:	00c01684 	movi	r3,90
    163c:	10c00005 	stb	r3,0(r2)
    
    printf("Your Ethernet MAC address is %02x:%02x:%02x:%02x:%02x:%02x\n",
        mac_addr[0],
    1640:	e0bfff17 	ldw	r2,-4(fp)
    1644:	10800003 	ldbu	r2,0(r2)
    mac_addr[2] = 62;
    mac_addr[3] = 73;
    mac_addr[4] = 89;
    mac_addr[5] = 90;
    
    printf("Your Ethernet MAC address is %02x:%02x:%02x:%02x:%02x:%02x\n",
    1648:	11403fcc 	andi	r5,r2,255
        mac_addr[0],
        mac_addr[1],
    164c:	e0bfff17 	ldw	r2,-4(fp)
    1650:	10800044 	addi	r2,r2,1
    1654:	10800003 	ldbu	r2,0(r2)
    mac_addr[2] = 62;
    mac_addr[3] = 73;
    mac_addr[4] = 89;
    mac_addr[5] = 90;
    
    printf("Your Ethernet MAC address is %02x:%02x:%02x:%02x:%02x:%02x\n",
    1658:	10c03fcc 	andi	r3,r2,255
        mac_addr[0],
        mac_addr[1],
        mac_addr[2],
    165c:	e0bfff17 	ldw	r2,-4(fp)
    1660:	10800084 	addi	r2,r2,2
    1664:	10800003 	ldbu	r2,0(r2)
    mac_addr[2] = 62;
    mac_addr[3] = 73;
    mac_addr[4] = 89;
    mac_addr[5] = 90;
    
    printf("Your Ethernet MAC address is %02x:%02x:%02x:%02x:%02x:%02x\n",
    1668:	10803fcc 	andi	r2,r2,255
        mac_addr[0],
        mac_addr[1],
        mac_addr[2],
        mac_addr[3],
    166c:	e13fff17 	ldw	r4,-4(fp)
    1670:	210000c4 	addi	r4,r4,3
    1674:	21000003 	ldbu	r4,0(r4)
    mac_addr[2] = 62;
    mac_addr[3] = 73;
    mac_addr[4] = 89;
    mac_addr[5] = 90;
    
    printf("Your Ethernet MAC address is %02x:%02x:%02x:%02x:%02x:%02x\n",
    1678:	21c03fcc 	andi	r7,r4,255
        mac_addr[0],
        mac_addr[1],
        mac_addr[2],
        mac_addr[3],
        mac_addr[4],
    167c:	e13fff17 	ldw	r4,-4(fp)
    1680:	21000104 	addi	r4,r4,4
    1684:	21000003 	ldbu	r4,0(r4)
    mac_addr[2] = 62;
    mac_addr[3] = 73;
    mac_addr[4] = 89;
    mac_addr[5] = 90;
    
    printf("Your Ethernet MAC address is %02x:%02x:%02x:%02x:%02x:%02x\n",
    1688:	21803fcc 	andi	r6,r4,255
        mac_addr[0],
        mac_addr[1],
        mac_addr[2],
        mac_addr[3],
        mac_addr[4],
        mac_addr[5]);
    168c:	e13fff17 	ldw	r4,-4(fp)
    1690:	21000144 	addi	r4,r4,5
    1694:	21000003 	ldbu	r4,0(r4)
    mac_addr[2] = 62;
    mac_addr[3] = 73;
    mac_addr[4] = 89;
    mac_addr[5] = 90;
    
    printf("Your Ethernet MAC address is %02x:%02x:%02x:%02x:%02x:%02x\n",
    1698:	21003fcc 	andi	r4,r4,255
    169c:	d9c00015 	stw	r7,0(sp)
    16a0:	d9800115 	stw	r6,4(sp)
    16a4:	d9000215 	stw	r4,8(sp)
    16a8:	01000134 	movhi	r4,4
    16ac:	210b0404 	addi	r4,r4,11280
    16b0:	180d883a 	mov	r6,r3
    16b4:	100f883a 	mov	r7,r2
    16b8:	0001f3c0 	call	1f3c <printf>
        mac_addr[2],
        mac_addr[3],
        mac_addr[4],
        mac_addr[5]);

    return error;
    16bc:	e0bffe17 	ldw	r2,-8(fp)
}
    16c0:	e037883a 	mov	sp,fp
    16c4:	dfc00117 	ldw	ra,4(sp)
    16c8:	df000017 	ldw	fp,0(sp)
    16cc:	dec00204 	addi	sp,sp,8
    16d0:	f800283a 	ret

000016d4 <FindLastFlashSectorOffset>:
 * in pLastFlashSectorOffset.
 */

int FindLastFlashSectorOffset(
    alt_u32                     *pLastFlashSectorOffset)
{
    16d4:	defff304 	addi	sp,sp,-52
    16d8:	dfc00c15 	stw	ra,48(sp)
    16dc:	df000b15 	stw	fp,44(sp)
    16e0:	df000b04 	addi	fp,sp,44
    16e4:	e13fff15 	stw	r4,-4(fp)
    flash_region                *regions;
    int                         numRegions;
    flash_region                *pLastRegion;
    int                         lastFlashSectorOffset;
    int                         n;
    int                         error = 0;
    16e8:	e03ff815 	stw	zero,-32(fp)

    /* Open the flash device. */
    fd = alt_flash_open_dev(EXT_FLASH_NAME);
    16ec:	01000134 	movhi	r4,4
    16f0:	210aec04 	addi	r4,r4,11184
    16f4:	000be340 	call	be34 <alt_flash_open_dev>
    16f8:	e0bff915 	stw	r2,-28(fp)
    if (fd <= 0)
    16fc:	e0bff917 	ldw	r2,-28(fp)
    1700:	1000021e 	bne	r2,zero,170c <FindLastFlashSectorOffset+0x38>
        error = -1;
    1704:	00bfffc4 	movi	r2,-1
    1708:	e0bff815 	stw	r2,-32(fp)

    /* Get the flash info. */
    if (!error)
    170c:	e0bff817 	ldw	r2,-32(fp)
    1710:	10000d1e 	bne	r2,zero,1748 <FindLastFlashSectorOffset+0x74>
    1714:	e0bff917 	ldw	r2,-28(fp)
    1718:	e0bffa15 	stw	r2,-24(fp)
        error = alt_get_flash_info(fd, &regions, &numRegions);
    171c:	e0bffd04 	addi	r2,fp,-12
    1720:	e0bffb15 	stw	r2,-20(fp)
    1724:	e0bffe04 	addi	r2,fp,-8
    1728:	e0bffc15 	stw	r2,-16(fp)
 */
static __inline__ int __attribute__ ((always_inline)) alt_get_flash_info( 
                                      alt_flash_fd* fd, flash_region** info, 
                                      int* number_of_regions)
{
  return fd->get_info( fd, info, number_of_regions);
    172c:	e0bffa17 	ldw	r2,-24(fp)
    1730:	10800717 	ldw	r2,28(r2)
    1734:	e13ffa17 	ldw	r4,-24(fp)
    1738:	e17ffb17 	ldw	r5,-20(fp)
    173c:	e1bffc17 	ldw	r6,-16(fp)
    1740:	103ee83a 	callr	r2
    1744:	e0bff815 	stw	r2,-32(fp)

    /* Find the last flash sector. */
    if (!error)
    1748:	e0bff817 	ldw	r2,-32(fp)
    174c:	1000211e 	bne	r2,zero,17d4 <FindLastFlashSectorOffset+0x100>
    {
        pLastRegion = &(regions[0]);
    1750:	e0bffd17 	ldw	r2,-12(fp)
    1754:	e0bff515 	stw	r2,-44(fp)
        for (n = 1; n < numRegions; n++)
    1758:	00800044 	movi	r2,1
    175c:	e0bff715 	stw	r2,-36(fp)
    1760:	00001006 	br	17a4 <FindLastFlashSectorOffset+0xd0>
        {
            if (regions[n].offset > pLastRegion->offset)
    1764:	e0fffd17 	ldw	r3,-12(fp)
    1768:	e0bff717 	ldw	r2,-36(fp)
    176c:	1004913a 	slli	r2,r2,4
    1770:	1885883a 	add	r2,r3,r2
    1774:	10800017 	ldw	r2,0(r2)
    1778:	e0fff517 	ldw	r3,-44(fp)
    177c:	18c00017 	ldw	r3,0(r3)
    1780:	1880050e 	bge	r3,r2,1798 <FindLastFlashSectorOffset+0xc4>
                pLastRegion = &(regions[n]);
    1784:	e0fffd17 	ldw	r3,-12(fp)
    1788:	e0bff717 	ldw	r2,-36(fp)
    178c:	1004913a 	slli	r2,r2,4
    1790:	1885883a 	add	r2,r3,r2
    1794:	e0bff515 	stw	r2,-44(fp)

    /* Find the last flash sector. */
    if (!error)
    {
        pLastRegion = &(regions[0]);
        for (n = 1; n < numRegions; n++)
    1798:	e0bff717 	ldw	r2,-36(fp)
    179c:	10800044 	addi	r2,r2,1
    17a0:	e0bff715 	stw	r2,-36(fp)
    17a4:	e0bffe17 	ldw	r2,-8(fp)
    17a8:	e0fff717 	ldw	r3,-36(fp)
    17ac:	18bfed16 	blt	r3,r2,1764 <FindLastFlashSectorOffset+0x90>
        {
            if (regions[n].offset > pLastRegion->offset)
                pLastRegion = &(regions[n]);
        }
        lastFlashSectorOffset =   pLastRegion->offset
    17b0:	e0bff517 	ldw	r2,-44(fp)
    17b4:	10c00017 	ldw	r3,0(r2)
                                + pLastRegion->region_size
    17b8:	e0bff517 	ldw	r2,-44(fp)
    17bc:	10800117 	ldw	r2,4(r2)
    17c0:	1887883a 	add	r3,r3,r2
                                - pLastRegion->block_size;
    17c4:	e0bff517 	ldw	r2,-44(fp)
    17c8:	10800317 	ldw	r2,12(r2)
        for (n = 1; n < numRegions; n++)
        {
            if (regions[n].offset > pLastRegion->offset)
                pLastRegion = &(regions[n]);
        }
        lastFlashSectorOffset =   pLastRegion->offset
    17cc:	1885c83a 	sub	r2,r3,r2
    17d0:	e0bff615 	stw	r2,-40(fp)
                                + pLastRegion->region_size
                                - pLastRegion->block_size;
    }

    /* Return results. */
    if (!error)
    17d4:	e0bff817 	ldw	r2,-32(fp)
    17d8:	1000031e 	bne	r2,zero,17e8 <FindLastFlashSectorOffset+0x114>
        *pLastFlashSectorOffset = lastFlashSectorOffset;
    17dc:	e0fff617 	ldw	r3,-40(fp)
    17e0:	e0bfff17 	ldw	r2,-4(fp)
    17e4:	10c00015 	stw	r3,0(r2)

    return (error);
    17e8:	e0bff817 	ldw	r2,-32(fp)
}
    17ec:	e037883a 	mov	sp,fp
    17f0:	dfc00117 	ldw	ra,4(sp)
    17f4:	df000017 	ldw	fp,0(sp)
    17f8:	dec00204 	addi	sp,sp,8
    17fc:	f800283a 	ret

00001800 <sss_reset_connection>:
/*
 * sss_reset_connection()
 * 
 * SSSConn
 */
void sss_reset_connection(SSSConn* conn) {
    1800:	defffd04 	addi	sp,sp,-12
    1804:	dfc00215 	stw	ra,8(sp)
    1808:	df000115 	stw	fp,4(sp)
    180c:	df000104 	addi	fp,sp,4
    1810:	e13fff15 	stw	r4,-4(fp)
    memset(conn, 0, sizeof(SSSConn));
    1814:	e13fff17 	ldw	r4,-4(fp)
    1818:	000b883a 	mov	r5,zero
    181c:	01817c04 	movi	r6,1520
    1820:	0001db00 	call	1db0 <memset>

    conn->fd = -1;                  //-1
    1824:	e0bfff17 	ldw	r2,-4(fp)
    1828:	00ffffc4 	movi	r3,-1
    182c:	10c00115 	stw	r3,4(r2)
    conn->state = READY;
    1830:	e0bfff17 	ldw	r2,-4(fp)
    1834:	10000015 	stw	zero,0(r2)
    conn->rx_wr_pos = conn->rx_buffer;
    1838:	e0bfff17 	ldw	r2,-4(fp)
    183c:	10c00304 	addi	r3,r2,12
    1840:	e0bfff17 	ldw	r2,-4(fp)
    1844:	10c17b15 	stw	r3,1516(r2)
    conn->rx_rd_pos = conn->rx_buffer;
    1848:	e0bfff17 	ldw	r2,-4(fp)
    184c:	10c00304 	addi	r3,r2,12
    1850:	e0bfff17 	ldw	r2,-4(fp)
    1854:	10c17a15 	stw	r3,1512(r2)
    return;
    1858:	0001883a 	nop
}
    185c:	e037883a 	mov	sp,fp
    1860:	dfc00117 	ldw	ra,4(sp)
    1864:	df000017 	ldw	fp,0(sp)
    1868:	dec00204 	addi	sp,sp,8
    186c:	f800283a 	ret

00001870 <sss_handle_accept>:
/*
 * sss_handle_accept()
 * 
 * IP
 */
void sss_handle_accept(int listen_socket, SSSConn* conn) {
    1870:	defff604 	addi	sp,sp,-40
    1874:	dfc00915 	stw	ra,36(sp)
    1878:	df000815 	stw	fp,32(sp)
    187c:	df000804 	addi	fp,sp,32
    1880:	e13ffe15 	stw	r4,-8(fp)
    1884:	e17fff15 	stw	r5,-4(fp)
    int socket, len;
    struct sockaddr_in incoming_addr;

    len = sizeof(incoming_addr);
    1888:	00800404 	movi	r2,16
    188c:	e0bff915 	stw	r2,-28(fp)

    if ((conn)->fd == -1) {
    1890:	e0bfff17 	ldw	r2,-4(fp)
    1894:	10800117 	ldw	r2,4(r2)
    1898:	10bfffd8 	cmpnei	r2,r2,-1
    189c:	1000181e 	bne	r2,zero,1900 <sss_handle_accept+0x90>
        socket = accept(listen_socket,(struct sockaddr*)&incoming_addr,&len);
    18a0:	e0fffa04 	addi	r3,fp,-24
    18a4:	e0bff904 	addi	r2,fp,-28
    18a8:	e13ffe17 	ldw	r4,-8(fp)
    18ac:	180b883a 	mov	r5,r3
    18b0:	100d883a 	mov	r6,r2
    18b4:	001ae900 	call	1ae90 <bsd_accept>
    18b8:	e0bff815 	stw	r2,-32(fp)
        if (socket < 0) {
    18bc:	e0bff817 	ldw	r2,-32(fp)
    18c0:	1000050e 	bge	r2,zero,18d8 <sss_handle_accept+0x68>
            alt_NetworkErrorHandler(EXPANDED_DIAGNOSIS_CODE,
    18c4:	01003fc4 	movi	r4,255
    18c8:	01400134 	movhi	r5,4
    18cc:	294b1304 	addi	r5,r5,11340
    18d0:	000084c0 	call	84c <alt_NetworkErrorHandler>
    18d4:	00001006 	br	1918 <sss_handle_accept+0xa8>
                    "[sss_handle_accept] accept failed");
        } else {
            (conn)->fd = socket;
    18d8:	e0bfff17 	ldw	r2,-4(fp)
    18dc:	e0fff817 	ldw	r3,-32(fp)
    18e0:	10c00115 	stw	r3,4(r2)
            printf("[sss_handle_accept] accepted connection request from %s\n",
    18e4:	e13ffb17 	ldw	r4,-20(fp)
    18e8:	001b5040 	call	1b504 <bsd_inet_ntoa>
    18ec:	01000134 	movhi	r4,4
    18f0:	210b1c04 	addi	r4,r4,11376
    18f4:	100b883a 	mov	r5,r2
    18f8:	0001f3c0 	call	1f3c <printf>
    18fc:	00000606 	br	1918 <sss_handle_accept+0xa8>
                    inet_ntoa(incoming_addr.sin_addr));
        }
    } else {
        printf("[sss_handle_accept] rejected connection request from %s\n",
    1900:	e13ffb17 	ldw	r4,-20(fp)
    1904:	001b5040 	call	1b504 <bsd_inet_ntoa>
    1908:	01000134 	movhi	r4,4
    190c:	210b2b04 	addi	r4,r4,11436
    1910:	100b883a 	mov	r5,r2
    1914:	0001f3c0 	call	1f3c <printf>
                inet_ntoa(incoming_addr.sin_addr));
    }

    return;
}
    1918:	e037883a 	mov	sp,fp
    191c:	dfc00117 	ldw	ra,4(sp)
    1920:	df000017 	ldw	fp,0(sp)
    1924:	dec00204 	addi	sp,sp,8
    1928:	f800283a 	ret

0000192c <sss_handle_receive>:
/*
 * sss_handle_receive()
 * 
 * 
 */
void sss_handle_receive(SSSConn* conn) {
    192c:	defff904 	addi	sp,sp,-28
    1930:	dfc00615 	stw	ra,24(sp)
    1934:	df000515 	stw	fp,20(sp)
    1938:	dc400415 	stw	r17,16(sp)
    193c:	dc000315 	stw	r16,12(sp)
    1940:	df000304 	addi	fp,sp,12
    1944:	e13fff15 	stw	r4,-4(fp)
    const char quit[] = "quit";
    1948:	009d1a74 	movhi	r2,29801
    194c:	109d5c44 	addi	r2,r2,30065
    1950:	e0bffd15 	stw	r2,-12(fp)
    1954:	e03ffe05 	stb	zero,-8(fp)

    while ((conn->state != CLOSE)) {
    1958:	00003c06 	br	1a4c <sss_handle_receive+0x120>
        if ((recv(conn->fd, conn->rx_buffer, SSS_RX_BUF_SIZE -1, 0)) > 0) {
    195c:	e0bfff17 	ldw	r2,-4(fp)
    1960:	10c00117 	ldw	r3,4(r2)
    1964:	e0bfff17 	ldw	r2,-4(fp)
    1968:	10800304 	addi	r2,r2,12
    196c:	1809883a 	mov	r4,r3
    1970:	100b883a 	mov	r5,r2
    1974:	018176c4 	movi	r6,1499
    1978:	000f883a 	mov	r7,zero
    197c:	002138c0 	call	2138c <t_recv>
    1980:	00801b0e 	bge	zero,r2,19f0 <sss_handle_receive+0xc4>
            conn->rx_rd_pos = conn->rx_buffer;
    1984:	e0bfff17 	ldw	r2,-4(fp)
    1988:	10c00304 	addi	r3,r2,12
    198c:	e0bfff17 	ldw	r2,-4(fp)
    1990:	10c17a15 	stw	r3,1512(r2)
            conn->rx_wr_pos = conn->rx_buffer;
    1994:	e0bfff17 	ldw	r2,-4(fp)
    1998:	10c00304 	addi	r3,r2,12
    199c:	e0bfff17 	ldw	r2,-4(fp)
    19a0:	10c17b15 	stw	r3,1516(r2)
            printf("[sss_handle_receive] print RX data: %s\n", conn->rx_rd_pos);
    19a4:	e0bfff17 	ldw	r2,-4(fp)
    19a8:	10817a17 	ldw	r2,1512(r2)
    19ac:	01000134 	movhi	r4,4
    19b0:	210b3a04 	addi	r4,r4,11496
    19b4:	100b883a 	mov	r5,r2
    19b8:	0001f3c0 	call	1f3c <printf>
            send(conn->fd, conn->rx_wr_pos, strlen(conn->rx_wr_pos), 0);
    19bc:	e0bfff17 	ldw	r2,-4(fp)
    19c0:	14400117 	ldw	r17,4(r2)
    19c4:	e0bfff17 	ldw	r2,-4(fp)
    19c8:	14017b17 	ldw	r16,1516(r2)
    19cc:	e0bfff17 	ldw	r2,-4(fp)
    19d0:	10817b17 	ldw	r2,1516(r2)
    19d4:	1009883a 	mov	r4,r2
    19d8:	00029480 	call	2948 <strlen>
    19dc:	8809883a 	mov	r4,r17
    19e0:	800b883a 	mov	r5,r16
    19e4:	100d883a 	mov	r6,r2
    19e8:	000f883a 	mov	r7,zero
    19ec:	00217900 	call	21790 <t_send>
        }
        if (strcmp(conn->rx_rd_pos, quit) == 0) {
    19f0:	e0bfff17 	ldw	r2,-4(fp)
    19f4:	10817a17 	ldw	r2,1512(r2)
    19f8:	1009883a 	mov	r4,r2
    19fc:	e17ffd04 	addi	r5,fp,-12
    1a00:	00022400 	call	2240 <strcmp>
    1a04:	1000031e 	bne	r2,zero,1a14 <sss_handle_receive+0xe8>
            conn->close = 1;
    1a08:	e0bfff17 	ldw	r2,-4(fp)
    1a0c:	00c00044 	movi	r3,1
    1a10:	10c00215 	stw	r3,8(r2)
        }
        conn->state = conn->close ? CLOSE : READY;      //quit
    1a14:	e0bfff17 	ldw	r2,-4(fp)
    1a18:	10800217 	ldw	r2,8(r2)
    1a1c:	10000226 	beq	r2,zero,1a28 <sss_handle_receive+0xfc>
    1a20:	00800084 	movi	r2,2
    1a24:	00000106 	br	1a2c <sss_handle_receive+0x100>
    1a28:	0005883a 	mov	r2,zero
    1a2c:	e0ffff17 	ldw	r3,-4(fp)
    1a30:	18800015 	stw	r2,0(r3)
        memset(conn->rx_buffer, 0, SSS_RX_BUF_SIZE);    //rx_buffer
    1a34:	e0bfff17 	ldw	r2,-4(fp)
    1a38:	10800304 	addi	r2,r2,12
    1a3c:	1009883a 	mov	r4,r2
    1a40:	000b883a 	mov	r5,zero
    1a44:	01817704 	movi	r6,1500
    1a48:	0001db00 	call	1db0 <memset>
 * 
 */
void sss_handle_receive(SSSConn* conn) {
    const char quit[] = "quit";

    while ((conn->state != CLOSE)) {
    1a4c:	e0bfff17 	ldw	r2,-4(fp)
    1a50:	10800017 	ldw	r2,0(r2)
    1a54:	10800098 	cmpnei	r2,r2,2
    1a58:	103fc01e 	bne	r2,zero,195c <sss_handle_receive+0x30>
        }
        conn->state = conn->close ? CLOSE : READY;      //quit
        memset(conn->rx_buffer, 0, SSS_RX_BUF_SIZE);    //rx_buffer
    }

    printf("[sss_handle_receive] closing connection\n");
    1a5c:	01000134 	movhi	r4,4
    1a60:	210b4404 	addi	r4,r4,11536
    1a64:	00021cc0 	call	21cc <puts>
    close(conn->fd);
    1a68:	e0bfff17 	ldw	r2,-4(fp)
    1a6c:	10800117 	ldw	r2,4(r2)
    1a70:	1009883a 	mov	r4,r2
    1a74:	00189200 	call	18920 <close>
    sss_reset_connection(conn);
    1a78:	e13fff17 	ldw	r4,-4(fp)
    1a7c:	00018000 	call	1800 <sss_reset_connection>

    return;
}
    1a80:	e037883a 	mov	sp,fp
    1a84:	dfc00317 	ldw	ra,12(sp)
    1a88:	df000217 	ldw	fp,8(sp)
    1a8c:	dc400117 	ldw	r17,4(sp)
    1a90:	dc000017 	ldw	r16,0(sp)
    1a94:	dec00404 	addi	sp,sp,16
    1a98:	f800283a 	ret

00001a9c <SSSSimpleSocketServerTask>:
/*
 * SSSSimpleSocketServerTask()
 * 
 *  MicroC/OS-IITCP
 */
void SSSSimpleSocketServerTask() {
    1a9c:	deffb804 	addi	sp,sp,-288
    1aa0:	dfc04715 	stw	ra,284(sp)
    1aa4:	df004615 	stw	fp,280(sp)
    1aa8:	df004604 	addi	fp,sp,280
    int fd_listen, max_socket;
    struct sockaddr_in addr;
    static SSSConn conn;
    fd_set readfds;

    if ((fd_listen = socket(AF_INET, SOCK_STREAM, 0)) < 0) {
    1aac:	01000084 	movi	r4,2
    1ab0:	01400044 	movi	r5,1
    1ab4:	000d883a 	mov	r6,zero
    1ab8:	00206980 	call	20698 <t_socket>
    1abc:	e0bfba15 	stw	r2,-280(fp)
    1ac0:	e0bfba17 	ldw	r2,-280(fp)
    1ac4:	1000040e 	bge	r2,zero,1ad8 <SSSSimpleSocketServerTask+0x3c>
        alt_NetworkErrorHandler(EXPANDED_DIAGNOSIS_CODE,
    1ac8:	01003fc4 	movi	r4,255
    1acc:	01400134 	movhi	r5,4
    1ad0:	294b4e04 	addi	r5,r5,11576
    1ad4:	000084c0 	call	84c <alt_NetworkErrorHandler>
                "[sss_task] Socket creation failed");
    }
    //
    addr.sin_family = AF_INET;			//IPv4
    1ad8:	00800084 	movi	r2,2
    1adc:	e0bfbb0d 	sth	r2,-276(fp)
    addr.sin_port = htons(SSS_PORT);	//
    1ae0:	00a407c4 	movi	r2,-28641
    1ae4:	e0bfbb8d 	sth	r2,-274(fp)
    addr.sin_addr.s_addr = INADDR_ANY;	//
    1ae8:	e03fbc15 	stw	zero,-272(fp)

    if ((bind(fd_listen,(struct sockaddr *)&addr,sizeof(addr))) < 0) {
    1aec:	e0bfbb04 	addi	r2,fp,-276
    1af0:	e13fba17 	ldw	r4,-280(fp)
    1af4:	100b883a 	mov	r5,r2
    1af8:	01800404 	movi	r6,16
    1afc:	00207180 	call	20718 <t_bind>
    1b00:	1000040e 	bge	r2,zero,1b14 <SSSSimpleSocketServerTask+0x78>
        alt_NetworkErrorHandler(EXPANDED_DIAGNOSIS_CODE,
    1b04:	01003fc4 	movi	r4,255
    1b08:	01400134 	movhi	r5,4
    1b0c:	294b5704 	addi	r5,r5,11612
    1b10:	000084c0 	call	84c <alt_NetworkErrorHandler>
                "[sss_task] Bind failed");
    }
    if ((listen(fd_listen,1)) < 0) {
    1b14:	e13fba17 	ldw	r4,-280(fp)
    1b18:	01400044 	movi	r5,1
    1b1c:	00208740 	call	20874 <t_listen>
    1b20:	1000040e 	bge	r2,zero,1b34 <SSSSimpleSocketServerTask+0x98>
        alt_NetworkErrorHandler(EXPANDED_DIAGNOSIS_CODE,
    1b24:	01003fc4 	movi	r4,255
    1b28:	01400134 	movhi	r5,4
    1b2c:	294b5d04 	addi	r5,r5,11636
    1b30:	000084c0 	call	84c <alt_NetworkErrorHandler>
                "[sss_task] Listen failed");
    }

    sss_reset_connection(&conn);
    1b34:	01000174 	movhi	r4,5
    1b38:	21272604 	addi	r4,r4,-25448
    1b3c:	00018000 	call	1800 <sss_reset_connection>
    printf("[sss_task] TCP Server listening on port %d\n", SSS_PORT);
    1b40:	01000134 	movhi	r4,4
    1b44:	210b6404 	addi	r4,r4,11664
    1b48:	0147e404 	movi	r5,8080
    1b4c:	0001f3c0 	call	1f3c <printf>
    1b50:	00000106 	br	1b58 <SSSSimpleSocketServerTask+0xbc>

    while (1) {
        sss_handle_accept(fd_listen, &conn);
        if (conn.fd != -1)
            sss_handle_receive(&conn);
    } /* while(1) */
    1b54:	0001883a 	nop

    sss_reset_connection(&conn);
    printf("[sss_task] TCP Server listening on port %d\n", SSS_PORT);

    while (1) {
        sss_handle_accept(fd_listen, &conn);
    1b58:	e13fba17 	ldw	r4,-280(fp)
    1b5c:	01400174 	movhi	r5,5
    1b60:	29672604 	addi	r5,r5,-25448
    1b64:	00018700 	call	1870 <sss_handle_accept>
        if (conn.fd != -1)
    1b68:	00800174 	movhi	r2,5
    1b6c:	10a72604 	addi	r2,r2,-25448
    1b70:	10800117 	ldw	r2,4(r2)
    1b74:	10bfffe0 	cmpeqi	r2,r2,-1
    1b78:	103ff61e 	bne	r2,zero,1b54 <SSSSimpleSocketServerTask+0xb8>
            sss_handle_receive(&conn);
    1b7c:	01000174 	movhi	r4,5
    1b80:	21272604 	addi	r4,r4,-25448
    1b84:	000192c0 	call	192c <sss_handle_receive>
    } /* while(1) */
    1b88:	003ff206 	br	1b54 <SSSSimpleSocketServerTask+0xb8>

00001b8c <_fprintf_r>:
    1b8c:	defffe04 	addi	sp,sp,-8
    1b90:	2809883a 	mov	r4,r5
    1b94:	dfc00015 	stw	ra,0(sp)
    1b98:	d9c00115 	stw	r7,4(sp)
    1b9c:	300b883a 	mov	r5,r6
    1ba0:	d9800104 	addi	r6,sp,4
    1ba4:	00048080 	call	4808 <__vfprintf_internal>
    1ba8:	dfc00017 	ldw	ra,0(sp)
    1bac:	dec00204 	addi	sp,sp,8
    1bb0:	f800283a 	ret

00001bb4 <fprintf>:
    1bb4:	defffd04 	addi	sp,sp,-12
    1bb8:	dfc00015 	stw	ra,0(sp)
    1bbc:	d9800115 	stw	r6,4(sp)
    1bc0:	d9c00215 	stw	r7,8(sp)
    1bc4:	d9800104 	addi	r6,sp,4
    1bc8:	00048080 	call	4808 <__vfprintf_internal>
    1bcc:	dfc00017 	ldw	ra,0(sp)
    1bd0:	dec00304 	addi	sp,sp,12
    1bd4:	f800283a 	ret

00001bd8 <_fwrite_r>:
    1bd8:	defff604 	addi	sp,sp,-40
    1bdc:	dc800715 	stw	r18,28(sp)
    1be0:	39a5383a 	mul	r18,r7,r6
    1be4:	d8800304 	addi	r2,sp,12
    1be8:	d8800015 	stw	r2,0(sp)
    1bec:	00800044 	movi	r2,1
    1bf0:	dcc00815 	stw	r19,32(sp)
    1bf4:	dc400615 	stw	r17,24(sp)
    1bf8:	dc000515 	stw	r16,20(sp)
    1bfc:	dfc00915 	stw	ra,36(sp)
    1c00:	d9400315 	stw	r5,12(sp)
    1c04:	dc800415 	stw	r18,16(sp)
    1c08:	dc800215 	stw	r18,8(sp)
    1c0c:	d8800115 	stw	r2,4(sp)
    1c10:	3027883a 	mov	r19,r6
    1c14:	3823883a 	mov	r17,r7
    1c18:	2021883a 	mov	r16,r4
    1c1c:	20000226 	beq	r4,zero,1c28 <_fwrite_r+0x50>
    1c20:	20800e17 	ldw	r2,56(r4)
    1c24:	10001226 	beq	r2,zero,1c70 <_fwrite_r+0x98>
    1c28:	d9400a17 	ldw	r5,40(sp)
    1c2c:	8009883a 	mov	r4,r16
    1c30:	d80d883a 	mov	r6,sp
    1c34:	0006d4c0 	call	6d4c <__sfvwrite_r>
    1c38:	10000526 	beq	r2,zero,1c50 <_fwrite_r+0x78>
    1c3c:	d9000217 	ldw	r4,8(sp)
    1c40:	980b883a 	mov	r5,r19
    1c44:	9109c83a 	sub	r4,r18,r4
    1c48:	000b8980 	call	b898 <__udivsi3>
    1c4c:	1023883a 	mov	r17,r2
    1c50:	8805883a 	mov	r2,r17
    1c54:	dfc00917 	ldw	ra,36(sp)
    1c58:	dcc00817 	ldw	r19,32(sp)
    1c5c:	dc800717 	ldw	r18,28(sp)
    1c60:	dc400617 	ldw	r17,24(sp)
    1c64:	dc000517 	ldw	r16,20(sp)
    1c68:	dec00a04 	addi	sp,sp,40
    1c6c:	f800283a 	ret
    1c70:	00065c40 	call	65c4 <__sinit>
    1c74:	003fec06 	br	1c28 <_fwrite_r+0x50>

00001c78 <fwrite>:
    1c78:	00800174 	movhi	r2,5
    1c7c:	10a66104 	addi	r2,r2,-26236
    1c80:	2011883a 	mov	r8,r4
    1c84:	11000017 	ldw	r4,0(r2)
    1c88:	defffe04 	addi	sp,sp,-8
    1c8c:	2807883a 	mov	r3,r5
    1c90:	3005883a 	mov	r2,r6
    1c94:	d9c00015 	stw	r7,0(sp)
    1c98:	400b883a 	mov	r5,r8
    1c9c:	180d883a 	mov	r6,r3
    1ca0:	100f883a 	mov	r7,r2
    1ca4:	dfc00115 	stw	ra,4(sp)
    1ca8:	0001bd80 	call	1bd8 <_fwrite_r>
    1cac:	dfc00117 	ldw	ra,4(sp)
    1cb0:	dec00204 	addi	sp,sp,8
    1cb4:	f800283a 	ret

00001cb8 <_getc_r>:
    1cb8:	defffd04 	addi	sp,sp,-12
    1cbc:	dc000115 	stw	r16,4(sp)
    1cc0:	dfc00215 	stw	ra,8(sp)
    1cc4:	2021883a 	mov	r16,r4
    1cc8:	20000226 	beq	r4,zero,1cd4 <_getc_r+0x1c>
    1ccc:	20800e17 	ldw	r2,56(r4)
    1cd0:	10000c26 	beq	r2,zero,1d04 <_getc_r+0x4c>
    1cd4:	28800117 	ldw	r2,4(r5)
    1cd8:	10bfffc4 	addi	r2,r2,-1
    1cdc:	28800115 	stw	r2,4(r5)
    1ce0:	10000c16 	blt	r2,zero,1d14 <_getc_r+0x5c>
    1ce4:	28c00017 	ldw	r3,0(r5)
    1ce8:	18800003 	ldbu	r2,0(r3)
    1cec:	18c00044 	addi	r3,r3,1
    1cf0:	28c00015 	stw	r3,0(r5)
    1cf4:	dfc00217 	ldw	ra,8(sp)
    1cf8:	dc000117 	ldw	r16,4(sp)
    1cfc:	dec00304 	addi	sp,sp,12
    1d00:	f800283a 	ret
    1d04:	d9400015 	stw	r5,0(sp)
    1d08:	00065c40 	call	65c4 <__sinit>
    1d0c:	d9400017 	ldw	r5,0(sp)
    1d10:	003ff006 	br	1cd4 <_getc_r+0x1c>
    1d14:	8009883a 	mov	r4,r16
    1d18:	dfc00217 	ldw	ra,8(sp)
    1d1c:	dc000117 	ldw	r16,4(sp)
    1d20:	dec00304 	addi	sp,sp,12
    1d24:	00021e01 	jmpi	21e0 <__srget_r>

00001d28 <getc>:
    1d28:	defffd04 	addi	sp,sp,-12
    1d2c:	dc400115 	stw	r17,4(sp)
    1d30:	04400174 	movhi	r17,5
    1d34:	8c666104 	addi	r17,r17,-26236
    1d38:	88800017 	ldw	r2,0(r17)
    1d3c:	dc000015 	stw	r16,0(sp)
    1d40:	dfc00215 	stw	ra,8(sp)
    1d44:	2021883a 	mov	r16,r4
    1d48:	10000226 	beq	r2,zero,1d54 <getc+0x2c>
    1d4c:	10c00e17 	ldw	r3,56(r2)
    1d50:	18000d26 	beq	r3,zero,1d88 <getc+0x60>
    1d54:	80800117 	ldw	r2,4(r16)
    1d58:	10bfffc4 	addi	r2,r2,-1
    1d5c:	80800115 	stw	r2,4(r16)
    1d60:	10000c16 	blt	r2,zero,1d94 <getc+0x6c>
    1d64:	80c00017 	ldw	r3,0(r16)
    1d68:	18800003 	ldbu	r2,0(r3)
    1d6c:	18c00044 	addi	r3,r3,1
    1d70:	80c00015 	stw	r3,0(r16)
    1d74:	dfc00217 	ldw	ra,8(sp)
    1d78:	dc400117 	ldw	r17,4(sp)
    1d7c:	dc000017 	ldw	r16,0(sp)
    1d80:	dec00304 	addi	sp,sp,12
    1d84:	f800283a 	ret
    1d88:	1009883a 	mov	r4,r2
    1d8c:	00065c40 	call	65c4 <__sinit>
    1d90:	003ff006 	br	1d54 <getc+0x2c>
    1d94:	89000017 	ldw	r4,0(r17)
    1d98:	800b883a 	mov	r5,r16
    1d9c:	dfc00217 	ldw	ra,8(sp)
    1da0:	dc400117 	ldw	r17,4(sp)
    1da4:	dc000017 	ldw	r16,0(sp)
    1da8:	dec00304 	addi	sp,sp,12
    1dac:	00021e01 	jmpi	21e0 <__srget_r>

00001db0 <memset>:
    1db0:	00c000c4 	movi	r3,3
    1db4:	2005883a 	mov	r2,r4
    1db8:	29403fcc 	andi	r5,r5,255
    1dbc:	19802d2e 	bgeu	r3,r6,1e74 <memset+0xc4>
    1dc0:	20c6703a 	and	r3,r4,r3
    1dc4:	18002e1e 	bne	r3,zero,1e80 <memset+0xd0>
    1dc8:	2806923a 	slli	r3,r5,8
    1dcc:	010003c4 	movi	r4,15
    1dd0:	3011883a 	mov	r8,r6
    1dd4:	1946b03a 	or	r3,r3,r5
    1dd8:	180e943a 	slli	r7,r3,16
    1ddc:	38ceb03a 	or	r7,r7,r3
    1de0:	1007883a 	mov	r3,r2
    1de4:	21800f2e 	bgeu	r4,r6,1e24 <memset+0x74>
    1de8:	19c00015 	stw	r7,0(r3)
    1dec:	19c00115 	stw	r7,4(r3)
    1df0:	19c00215 	stw	r7,8(r3)
    1df4:	19c00315 	stw	r7,12(r3)
    1df8:	423ffc04 	addi	r8,r8,-16
    1dfc:	18c00404 	addi	r3,r3,16
    1e00:	223ff936 	bltu	r4,r8,1de8 <memset+0x38>
    1e04:	30fffc04 	addi	r3,r6,-16
    1e08:	1806d13a 	srli	r3,r3,4
    1e0c:	318003cc 	andi	r6,r6,15
    1e10:	010000c4 	movi	r4,3
    1e14:	18c00044 	addi	r3,r3,1
    1e18:	1806913a 	slli	r3,r3,4
    1e1c:	10c7883a 	add	r3,r2,r3
    1e20:	21800e2e 	bgeu	r4,r6,1e5c <memset+0xac>
    1e24:	1813883a 	mov	r9,r3
    1e28:	3011883a 	mov	r8,r6
    1e2c:	010000c4 	movi	r4,3
    1e30:	49c00015 	stw	r7,0(r9)
    1e34:	423fff04 	addi	r8,r8,-4
    1e38:	4a400104 	addi	r9,r9,4
    1e3c:	223ffc36 	bltu	r4,r8,1e30 <memset+0x80>
    1e40:	313fff04 	addi	r4,r6,-4
    1e44:	2008d0ba 	srli	r4,r4,2
    1e48:	318000cc 	andi	r6,r6,3
    1e4c:	21000044 	addi	r4,r4,1
    1e50:	2109883a 	add	r4,r4,r4
    1e54:	2109883a 	add	r4,r4,r4
    1e58:	1907883a 	add	r3,r3,r4
    1e5c:	30000a26 	beq	r6,zero,1e88 <memset+0xd8>
    1e60:	198d883a 	add	r6,r3,r6
    1e64:	19400005 	stb	r5,0(r3)
    1e68:	18c00044 	addi	r3,r3,1
    1e6c:	19bffd1e 	bne	r3,r6,1e64 <memset+0xb4>
    1e70:	f800283a 	ret
    1e74:	2007883a 	mov	r3,r4
    1e78:	303ff91e 	bne	r6,zero,1e60 <memset+0xb0>
    1e7c:	00000206 	br	1e88 <memset+0xd8>
    1e80:	2007883a 	mov	r3,r4
    1e84:	003ff606 	br	1e60 <memset+0xb0>
    1e88:	f800283a 	ret

00001e8c <_perror_r>:
    1e8c:	defffe04 	addi	sp,sp,-8
    1e90:	dc000015 	stw	r16,0(sp)
    1e94:	dfc00115 	stw	ra,4(sp)
    1e98:	2805883a 	mov	r2,r5
    1e9c:	2021883a 	mov	r16,r4
    1ea0:	28000226 	beq	r5,zero,1eac <_perror_r+0x20>
    1ea4:	28c00007 	ldb	r3,0(r5)
    1ea8:	18000c1e 	bne	r3,zero,1edc <_perror_r+0x50>
    1eac:	81000017 	ldw	r4,0(r16)
    1eb0:	00022e40 	call	22e4 <strerror>
    1eb4:	10000326 	beq	r2,zero,1ec4 <_perror_r+0x38>
    1eb8:	81400317 	ldw	r5,12(r16)
    1ebc:	1009883a 	mov	r4,r2
    1ec0:	00069240 	call	6924 <fputs>
    1ec4:	81400317 	ldw	r5,12(r16)
    1ec8:	01000284 	movi	r4,10
    1ecc:	dfc00117 	ldw	ra,4(sp)
    1ed0:	dc000017 	ldw	r16,0(sp)
    1ed4:	dec00204 	addi	sp,sp,8
    1ed8:	00068501 	jmpi	6850 <fputc>
    1edc:	21400317 	ldw	r5,12(r4)
    1ee0:	1009883a 	mov	r4,r2
    1ee4:	00069240 	call	6924 <fputs>
    1ee8:	81400317 	ldw	r5,12(r16)
    1eec:	01000134 	movhi	r4,4
    1ef0:	210c1904 	addi	r4,r4,12388
    1ef4:	00069240 	call	6924 <fputs>
    1ef8:	003fec06 	br	1eac <_perror_r+0x20>

00001efc <perror>:
    1efc:	00800174 	movhi	r2,5
    1f00:	10a66104 	addi	r2,r2,-26236
    1f04:	200b883a 	mov	r5,r4
    1f08:	11000017 	ldw	r4,0(r2)
    1f0c:	0001e8c1 	jmpi	1e8c <_perror_r>

00001f10 <_printf_r>:
    1f10:	defffd04 	addi	sp,sp,-12
    1f14:	dfc00015 	stw	ra,0(sp)
    1f18:	d9800115 	stw	r6,4(sp)
    1f1c:	d9c00215 	stw	r7,8(sp)
    1f20:	280d883a 	mov	r6,r5
    1f24:	21400217 	ldw	r5,8(r4)
    1f28:	d9c00104 	addi	r7,sp,4
    1f2c:	0002a100 	call	2a10 <___vfprintf_internal_r>
    1f30:	dfc00017 	ldw	ra,0(sp)
    1f34:	dec00304 	addi	sp,sp,12
    1f38:	f800283a 	ret

00001f3c <printf>:
    1f3c:	defffc04 	addi	sp,sp,-16
    1f40:	dfc00015 	stw	ra,0(sp)
    1f44:	d9400115 	stw	r5,4(sp)
    1f48:	d9800215 	stw	r6,8(sp)
    1f4c:	d9c00315 	stw	r7,12(sp)
    1f50:	00800174 	movhi	r2,5
    1f54:	10a66104 	addi	r2,r2,-26236
    1f58:	10800017 	ldw	r2,0(r2)
    1f5c:	200b883a 	mov	r5,r4
    1f60:	d9800104 	addi	r6,sp,4
    1f64:	11000217 	ldw	r4,8(r2)
    1f68:	00048080 	call	4808 <__vfprintf_internal>
    1f6c:	dfc00017 	ldw	ra,0(sp)
    1f70:	dec00404 	addi	sp,sp,16
    1f74:	f800283a 	ret

00001f78 <_putc_r>:
    1f78:	defffc04 	addi	sp,sp,-16
    1f7c:	dc000215 	stw	r16,8(sp)
    1f80:	dfc00315 	stw	ra,12(sp)
    1f84:	2021883a 	mov	r16,r4
    1f88:	20000226 	beq	r4,zero,1f94 <_putc_r+0x1c>
    1f8c:	20800e17 	ldw	r2,56(r4)
    1f90:	10001d26 	beq	r2,zero,2008 <_putc_r+0x90>
    1f94:	30800217 	ldw	r2,8(r6)
    1f98:	10bfffc4 	addi	r2,r2,-1
    1f9c:	30800215 	stw	r2,8(r6)
    1fa0:	10000a16 	blt	r2,zero,1fcc <_putc_r+0x54>
    1fa4:	30800017 	ldw	r2,0(r6)
    1fa8:	11400005 	stb	r5,0(r2)
    1fac:	30800017 	ldw	r2,0(r6)
    1fb0:	10c00044 	addi	r3,r2,1
    1fb4:	10800003 	ldbu	r2,0(r2)
    1fb8:	30c00015 	stw	r3,0(r6)
    1fbc:	dfc00317 	ldw	ra,12(sp)
    1fc0:	dc000217 	ldw	r16,8(sp)
    1fc4:	dec00404 	addi	sp,sp,16
    1fc8:	f800283a 	ret
    1fcc:	30c00617 	ldw	r3,24(r6)
    1fd0:	10c01316 	blt	r2,r3,2020 <_putc_r+0xa8>
    1fd4:	30800017 	ldw	r2,0(r6)
    1fd8:	01000284 	movi	r4,10
    1fdc:	11400005 	stb	r5,0(r2)
    1fe0:	30c00017 	ldw	r3,0(r6)
    1fe4:	19400003 	ldbu	r5,0(r3)
    1fe8:	29000d26 	beq	r5,r4,2020 <_putc_r+0xa8>
    1fec:	18c00044 	addi	r3,r3,1
    1ff0:	2805883a 	mov	r2,r5
    1ff4:	30c00015 	stw	r3,0(r6)
    1ff8:	dfc00317 	ldw	ra,12(sp)
    1ffc:	dc000217 	ldw	r16,8(sp)
    2000:	dec00404 	addi	sp,sp,16
    2004:	f800283a 	ret
    2008:	d9400015 	stw	r5,0(sp)
    200c:	d9800115 	stw	r6,4(sp)
    2010:	00065c40 	call	65c4 <__sinit>
    2014:	d9800117 	ldw	r6,4(sp)
    2018:	d9400017 	ldw	r5,0(sp)
    201c:	003fdd06 	br	1f94 <_putc_r+0x1c>
    2020:	8009883a 	mov	r4,r16
    2024:	dfc00317 	ldw	ra,12(sp)
    2028:	dc000217 	ldw	r16,8(sp)
    202c:	dec00404 	addi	sp,sp,16
    2030:	000482c1 	jmpi	482c <__swbuf_r>

00002034 <putc>:
    2034:	defffc04 	addi	sp,sp,-16
    2038:	dc400115 	stw	r17,4(sp)
    203c:	04400174 	movhi	r17,5
    2040:	8c666104 	addi	r17,r17,-26236
    2044:	88800017 	ldw	r2,0(r17)
    2048:	dc800215 	stw	r18,8(sp)
    204c:	dc000015 	stw	r16,0(sp)
    2050:	dfc00315 	stw	ra,12(sp)
    2054:	2025883a 	mov	r18,r4
    2058:	2821883a 	mov	r16,r5
    205c:	10000226 	beq	r2,zero,2068 <putc+0x34>
    2060:	10c00e17 	ldw	r3,56(r2)
    2064:	18002126 	beq	r3,zero,20ec <putc+0xb8>
    2068:	80800217 	ldw	r2,8(r16)
    206c:	10bfffc4 	addi	r2,r2,-1
    2070:	80800215 	stw	r2,8(r16)
    2074:	10000c16 	blt	r2,zero,20a8 <putc+0x74>
    2078:	80800017 	ldw	r2,0(r16)
    207c:	14800005 	stb	r18,0(r2)
    2080:	80800017 	ldw	r2,0(r16)
    2084:	10c00044 	addi	r3,r2,1
    2088:	10800003 	ldbu	r2,0(r2)
    208c:	80c00015 	stw	r3,0(r16)
    2090:	dfc00317 	ldw	ra,12(sp)
    2094:	dc800217 	ldw	r18,8(sp)
    2098:	dc400117 	ldw	r17,4(sp)
    209c:	dc000017 	ldw	r16,0(sp)
    20a0:	dec00404 	addi	sp,sp,16
    20a4:	f800283a 	ret
    20a8:	80c00617 	ldw	r3,24(r16)
    20ac:	10c01216 	blt	r2,r3,20f8 <putc+0xc4>
    20b0:	80800017 	ldw	r2,0(r16)
    20b4:	01000284 	movi	r4,10
    20b8:	14800005 	stb	r18,0(r2)
    20bc:	80c00017 	ldw	r3,0(r16)
    20c0:	19400003 	ldbu	r5,0(r3)
    20c4:	29001526 	beq	r5,r4,211c <putc+0xe8>
    20c8:	18c00044 	addi	r3,r3,1
    20cc:	2805883a 	mov	r2,r5
    20d0:	80c00015 	stw	r3,0(r16)
    20d4:	dfc00317 	ldw	ra,12(sp)
    20d8:	dc800217 	ldw	r18,8(sp)
    20dc:	dc400117 	ldw	r17,4(sp)
    20e0:	dc000017 	ldw	r16,0(sp)
    20e4:	dec00404 	addi	sp,sp,16
    20e8:	f800283a 	ret
    20ec:	1009883a 	mov	r4,r2
    20f0:	00065c40 	call	65c4 <__sinit>
    20f4:	003fdc06 	br	2068 <putc+0x34>
    20f8:	89000017 	ldw	r4,0(r17)
    20fc:	900b883a 	mov	r5,r18
    2100:	800d883a 	mov	r6,r16
    2104:	dfc00317 	ldw	ra,12(sp)
    2108:	dc800217 	ldw	r18,8(sp)
    210c:	dc400117 	ldw	r17,4(sp)
    2110:	dc000017 	ldw	r16,0(sp)
    2114:	dec00404 	addi	sp,sp,16
    2118:	000482c1 	jmpi	482c <__swbuf_r>
    211c:	89000017 	ldw	r4,0(r17)
    2120:	003ff706 	br	2100 <putc+0xcc>

00002124 <_putchar_r>:
    2124:	21800217 	ldw	r6,8(r4)
    2128:	0001f781 	jmpi	1f78 <_putc_r>

0000212c <putchar>:
    212c:	00800174 	movhi	r2,5
    2130:	10a66104 	addi	r2,r2,-26236
    2134:	10800017 	ldw	r2,0(r2)
    2138:	200b883a 	mov	r5,r4
    213c:	11800217 	ldw	r6,8(r2)
    2140:	1009883a 	mov	r4,r2
    2144:	0001f781 	jmpi	1f78 <_putc_r>

00002148 <_puts_r>:
    2148:	defff604 	addi	sp,sp,-40
    214c:	dc400815 	stw	r17,32(sp)
    2150:	2023883a 	mov	r17,r4
    2154:	2809883a 	mov	r4,r5
    2158:	dc000715 	stw	r16,28(sp)
    215c:	dfc00915 	stw	ra,36(sp)
    2160:	2821883a 	mov	r16,r5
    2164:	00029480 	call	2948 <strlen>
    2168:	10c00044 	addi	r3,r2,1
    216c:	d8800115 	stw	r2,4(sp)
    2170:	89400217 	ldw	r5,8(r17)
    2174:	00800134 	movhi	r2,4
    2178:	108c1a04 	addi	r2,r2,12392
    217c:	d8800215 	stw	r2,8(sp)
    2180:	00800044 	movi	r2,1
    2184:	d8800315 	stw	r2,12(sp)
    2188:	8809883a 	mov	r4,r17
    218c:	00800084 	movi	r2,2
    2190:	d9800404 	addi	r6,sp,16
    2194:	dc000015 	stw	r16,0(sp)
    2198:	d8c00615 	stw	r3,24(sp)
    219c:	dec00415 	stw	sp,16(sp)
    21a0:	d8800515 	stw	r2,20(sp)
    21a4:	0006d4c0 	call	6d4c <__sfvwrite_r>
    21a8:	1000061e 	bne	r2,zero,21c4 <_puts_r+0x7c>
    21ac:	00800284 	movi	r2,10
    21b0:	dfc00917 	ldw	ra,36(sp)
    21b4:	dc400817 	ldw	r17,32(sp)
    21b8:	dc000717 	ldw	r16,28(sp)
    21bc:	dec00a04 	addi	sp,sp,40
    21c0:	f800283a 	ret
    21c4:	00bfffc4 	movi	r2,-1
    21c8:	003ff906 	br	21b0 <_puts_r+0x68>

000021cc <puts>:
    21cc:	00800174 	movhi	r2,5
    21d0:	10a66104 	addi	r2,r2,-26236
    21d4:	200b883a 	mov	r5,r4
    21d8:	11000017 	ldw	r4,0(r2)
    21dc:	00021481 	jmpi	2148 <_puts_r>

000021e0 <__srget_r>:
    21e0:	defffe04 	addi	sp,sp,-8
    21e4:	dc000015 	stw	r16,0(sp)
    21e8:	dfc00115 	stw	ra,4(sp)
    21ec:	2821883a 	mov	r16,r5
    21f0:	00096700 	call	9670 <__srefill_r>
    21f4:	10000b1e 	bne	r2,zero,2224 <__srget_r+0x44>
    21f8:	80c00117 	ldw	r3,4(r16)
    21fc:	80800017 	ldw	r2,0(r16)
    2200:	18ffffc4 	addi	r3,r3,-1
    2204:	80c00115 	stw	r3,4(r16)
    2208:	10c00044 	addi	r3,r2,1
    220c:	10800003 	ldbu	r2,0(r2)
    2210:	80c00015 	stw	r3,0(r16)
    2214:	dfc00117 	ldw	ra,4(sp)
    2218:	dc000017 	ldw	r16,0(sp)
    221c:	dec00204 	addi	sp,sp,8
    2220:	f800283a 	ret
    2224:	00bfffc4 	movi	r2,-1
    2228:	003ffa06 	br	2214 <__srget_r+0x34>

0000222c <__srget>:
    222c:	00800174 	movhi	r2,5
    2230:	10a66104 	addi	r2,r2,-26236
    2234:	200b883a 	mov	r5,r4
    2238:	11000017 	ldw	r4,0(r2)
    223c:	00021e01 	jmpi	21e0 <__srget_r>

00002240 <strcmp>:
    2240:	2904b03a 	or	r2,r5,r4
    2244:	108000cc 	andi	r2,r2,3
    2248:	1000171e 	bne	r2,zero,22a8 <strcmp+0x68>
    224c:	20800017 	ldw	r2,0(r4)
    2250:	28c00017 	ldw	r3,0(r5)
    2254:	10c0141e 	bne	r2,r3,22a8 <strcmp+0x68>
    2258:	027fbff4 	movhi	r9,65279
    225c:	4a7fbfc4 	addi	r9,r9,-257
    2260:	1247883a 	add	r3,r2,r9
    2264:	0084303a 	nor	r2,zero,r2
    2268:	1884703a 	and	r2,r3,r2
    226c:	02202074 	movhi	r8,32897
    2270:	42202004 	addi	r8,r8,-32640
    2274:	1204703a 	and	r2,r2,r8
    2278:	10000226 	beq	r2,zero,2284 <strcmp+0x44>
    227c:	00001706 	br	22dc <strcmp+0x9c>
    2280:	3000161e 	bne	r6,zero,22dc <strcmp+0x9c>
    2284:	21000104 	addi	r4,r4,4
    2288:	20800017 	ldw	r2,0(r4)
    228c:	29400104 	addi	r5,r5,4
    2290:	28c00017 	ldw	r3,0(r5)
    2294:	124f883a 	add	r7,r2,r9
    2298:	008c303a 	nor	r6,zero,r2
    229c:	398c703a 	and	r6,r7,r6
    22a0:	320c703a 	and	r6,r6,r8
    22a4:	10fff626 	beq	r2,r3,2280 <strcmp+0x40>
    22a8:	20800007 	ldb	r2,0(r4)
    22ac:	1000051e 	bne	r2,zero,22c4 <strcmp+0x84>
    22b0:	00000606 	br	22cc <strcmp+0x8c>
    22b4:	21000044 	addi	r4,r4,1
    22b8:	20800007 	ldb	r2,0(r4)
    22bc:	29400044 	addi	r5,r5,1
    22c0:	10000226 	beq	r2,zero,22cc <strcmp+0x8c>
    22c4:	28c00007 	ldb	r3,0(r5)
    22c8:	10fffa26 	beq	r2,r3,22b4 <strcmp+0x74>
    22cc:	20c00003 	ldbu	r3,0(r4)
    22d0:	28800003 	ldbu	r2,0(r5)
    22d4:	1885c83a 	sub	r2,r3,r2
    22d8:	f800283a 	ret
    22dc:	0005883a 	mov	r2,zero
    22e0:	f800283a 	ret

000022e4 <strerror>:
    22e4:	deffff04 	addi	sp,sp,-4
    22e8:	dfc00015 	stw	ra,0(sp)
    22ec:	00802184 	movi	r2,134
    22f0:	1100052e 	bgeu	r2,r4,2308 <strerror+0x24>
    22f4:	00029d40 	call	29d4 <_user_strerror>
    22f8:	10019026 	beq	r2,zero,293c <strerror+0x658>
    22fc:	dfc00017 	ldw	ra,0(sp)
    2300:	dec00104 	addi	sp,sp,4
    2304:	f800283a 	ret
    2308:	2105883a 	add	r2,r4,r4
    230c:	1085883a 	add	r2,r2,r2
    2310:	00c00034 	movhi	r3,0
    2314:	18c8c904 	addi	r3,r3,8996
    2318:	10c5883a 	add	r2,r2,r3
    231c:	10800017 	ldw	r2,0(r2)
    2320:	1000683a 	jmp	r2
    2324:	000022f4 	movhi	zero,139
    2328:	00002930 	cmpltui	zero,zero,164
    232c:	00002924 	muli	zero,zero,164
    2330:	00002918 	cmpnei	zero,zero,164
    2334:	0000290c 	andi	zero,zero,164
    2338:	00002900 	call	290 <alt_uCOSIIErrorHandler+0x8c>
    233c:	000028f4 	movhi	zero,163
    2340:	000028e8 	cmpgeui	zero,zero,163
    2344:	000028dc 	xori	zero,zero,163
    2348:	000028d0 	cmplti	zero,zero,163
    234c:	000028c4 	movi	zero,163
    2350:	000028b8 	rdprs	zero,zero,162
    2354:	000028ac 	andhi	zero,zero,162
    2358:	000028a0 	cmpeqi	zero,zero,162
    235c:	00002894 	movui	zero,162
    2360:	00002888 	cmpgei	zero,zero,162
    2364:	0000287c 	xorhi	zero,zero,161
    2368:	00002870 	cmpltui	zero,zero,161
    236c:	00002864 	muli	zero,zero,161
    2370:	00002858 	cmpnei	zero,zero,161
    2374:	0000284c 	andi	zero,zero,161
    2378:	00002840 	call	284 <alt_uCOSIIErrorHandler+0x80>
    237c:	00002834 	movhi	zero,160
    2380:	00002828 	cmpgeui	zero,zero,160
    2384:	0000281c 	xori	zero,zero,160
    2388:	00002810 	cmplti	zero,zero,160
    238c:	00002804 	movi	zero,160
    2390:	000027f8 	rdprs	zero,zero,159
    2394:	000027ec 	andhi	zero,zero,159
    2398:	000027e0 	cmpeqi	zero,zero,159
    239c:	000027d4 	movui	zero,159
    23a0:	000027c8 	cmpgei	zero,zero,159
    23a4:	000027bc 	xorhi	zero,zero,158
    23a8:	000027b0 	cmpltui	zero,zero,158
    23ac:	000027a4 	muli	zero,zero,158
    23b0:	00002798 	cmpnei	zero,zero,158
    23b4:	0000278c 	andi	zero,zero,158
    23b8:	000022f4 	movhi	zero,139
    23bc:	000022f4 	movhi	zero,139
    23c0:	000022f4 	movhi	zero,139
    23c4:	000022f4 	movhi	zero,139
    23c8:	000022f4 	movhi	zero,139
    23cc:	000022f4 	movhi	zero,139
    23d0:	000022f4 	movhi	zero,139
    23d4:	000022f4 	movhi	zero,139
    23d8:	00002780 	call	278 <alt_uCOSIIErrorHandler+0x74>
    23dc:	00002774 	movhi	zero,157
    23e0:	000022f4 	movhi	zero,139
    23e4:	000022f4 	movhi	zero,139
    23e8:	000022f4 	movhi	zero,139
    23ec:	000022f4 	movhi	zero,139
    23f0:	000022f4 	movhi	zero,139
    23f4:	000022f4 	movhi	zero,139
    23f8:	000022f4 	movhi	zero,139
    23fc:	000022f4 	movhi	zero,139
    2400:	000022f4 	movhi	zero,139
    2404:	000022f4 	movhi	zero,139
    2408:	000022f4 	movhi	zero,139
    240c:	000022f4 	movhi	zero,139
    2410:	000022f4 	movhi	zero,139
    2414:	00002768 	cmpgeui	zero,zero,157
    2418:	000022f4 	movhi	zero,139
    241c:	0000275c 	xori	zero,zero,157
    2420:	00002750 	cmplti	zero,zero,157
    2424:	00002744 	movi	zero,157
    2428:	00002738 	rdprs	zero,zero,156
    242c:	0000272c 	andhi	zero,zero,156
    2430:	00002720 	cmpeqi	zero,zero,156
    2434:	00002714 	movui	zero,156
    2438:	00002708 	cmpgei	zero,zero,156
    243c:	000026fc 	xorhi	zero,zero,155
    2440:	000026f0 	cmpltui	zero,zero,155
    2444:	000022f4 	movhi	zero,139
    2448:	000022f4 	movhi	zero,139
    244c:	000026e4 	muli	zero,zero,155
    2450:	000022f4 	movhi	zero,139
    2454:	000022f4 	movhi	zero,139
    2458:	000026d8 	cmpnei	zero,zero,155
    245c:	000022f4 	movhi	zero,139
    2460:	000022f4 	movhi	zero,139
    2464:	000022f4 	movhi	zero,139
    2468:	000022f4 	movhi	zero,139
    246c:	000022f4 	movhi	zero,139
    2470:	000026cc 	andi	zero,zero,155
    2474:	000026c0 	call	26c <alt_uCOSIIErrorHandler+0x68>
    2478:	000026b4 	movhi	zero,154
    247c:	000026a8 	cmpgeui	zero,zero,154
    2480:	0000269c 	xori	zero,zero,154
    2484:	00002690 	cmplti	zero,zero,154
    2488:	00002684 	movi	zero,154
    248c:	00002678 	rdprs	zero,zero,153
    2490:	0000266c 	andhi	zero,zero,153
    2494:	00002660 	cmpeqi	zero,zero,153
    2498:	000022f4 	movhi	zero,139
    249c:	000022f4 	movhi	zero,139
    24a0:	00002654 	movui	zero,153
    24a4:	000022f4 	movhi	zero,139
    24a8:	000022f4 	movhi	zero,139
    24ac:	000022f4 	movhi	zero,139
    24b0:	000022f4 	movhi	zero,139
    24b4:	000022f4 	movhi	zero,139
    24b8:	000022f4 	movhi	zero,139
    24bc:	000022f4 	movhi	zero,139
    24c0:	000022f4 	movhi	zero,139
    24c4:	000022f4 	movhi	zero,139
    24c8:	00002648 	cmpgei	zero,zero,153
    24cc:	0000263c 	xorhi	zero,zero,152
    24d0:	00002630 	cmpltui	zero,zero,152
    24d4:	00002624 	muli	zero,zero,152
    24d8:	00002618 	cmpnei	zero,zero,152
    24dc:	0000260c 	andi	zero,zero,152
    24e0:	00002600 	call	260 <alt_uCOSIIErrorHandler+0x5c>
    24e4:	000025f4 	movhi	zero,151
    24e8:	000025e8 	cmpgeui	zero,zero,151
    24ec:	000025dc 	xori	zero,zero,151
    24f0:	000025d0 	cmplti	zero,zero,151
    24f4:	000025c4 	movi	zero,151
    24f8:	000025b8 	rdprs	zero,zero,150
    24fc:	000025ac 	andhi	zero,zero,150
    2500:	000025a0 	cmpeqi	zero,zero,150
    2504:	00002594 	movui	zero,150
    2508:	00002588 	cmpgei	zero,zero,150
    250c:	0000257c 	xorhi	zero,zero,149
    2510:	00002570 	cmpltui	zero,zero,149
    2514:	00002564 	muli	zero,zero,149
    2518:	000022f4 	movhi	zero,139
    251c:	000022f4 	movhi	zero,139
    2520:	00002558 	cmpnei	zero,zero,149
    2524:	0000254c 	andi	zero,zero,149
    2528:	000022f4 	movhi	zero,139
    252c:	000022f4 	movhi	zero,139
    2530:	000022f4 	movhi	zero,139
    2534:	000022f4 	movhi	zero,139
    2538:	000022f4 	movhi	zero,139
    253c:	00002540 	call	254 <alt_uCOSIIErrorHandler+0x50>
    2540:	00800134 	movhi	r2,4
    2544:	108ccb04 	addi	r2,r2,13100
    2548:	003f6c06 	br	22fc <strerror+0x18>
    254c:	00800134 	movhi	r2,4
    2550:	108ddc04 	addi	r2,r2,14192
    2554:	003f6906 	br	22fc <strerror+0x18>
    2558:	00800134 	movhi	r2,4
    255c:	108de904 	addi	r2,r2,14244
    2560:	003f6606 	br	22fc <strerror+0x18>
    2564:	00800134 	movhi	r2,4
    2568:	108de204 	addi	r2,r2,14216
    256c:	003f6306 	br	22fc <strerror+0x18>
    2570:	00800134 	movhi	r2,4
    2574:	108d3604 	addi	r2,r2,13528
    2578:	003f6006 	br	22fc <strerror+0x18>
    257c:	00800134 	movhi	r2,4
    2580:	108df904 	addi	r2,r2,14308
    2584:	003f5d06 	br	22fc <strerror+0x18>
    2588:	00800134 	movhi	r2,4
    258c:	108c5104 	addi	r2,r2,12612
    2590:	003f5a06 	br	22fc <strerror+0x18>
    2594:	00800134 	movhi	r2,4
    2598:	108c4304 	addi	r2,r2,12556
    259c:	003f5706 	br	22fc <strerror+0x18>
    25a0:	00800134 	movhi	r2,4
    25a4:	108c8b04 	addi	r2,r2,12844
    25a8:	003f5406 	br	22fc <strerror+0x18>
    25ac:	00800134 	movhi	r2,4
    25b0:	108cc004 	addi	r2,r2,13056
    25b4:	003f5106 	br	22fc <strerror+0x18>
    25b8:	00800134 	movhi	r2,4
    25bc:	108c8704 	addi	r2,r2,12828
    25c0:	003f4e06 	br	22fc <strerror+0x18>
    25c4:	00800134 	movhi	r2,4
    25c8:	108dfe04 	addi	r2,r2,14328
    25cc:	003f4b06 	br	22fc <strerror+0x18>
    25d0:	00800134 	movhi	r2,4
    25d4:	108c9c04 	addi	r2,r2,12912
    25d8:	003f4806 	br	22fc <strerror+0x18>
    25dc:	00800134 	movhi	r2,4
    25e0:	108cf804 	addi	r2,r2,13280
    25e4:	003f4506 	br	22fc <strerror+0x18>
    25e8:	00800134 	movhi	r2,4
    25ec:	108dd304 	addi	r2,r2,14156
    25f0:	003f4206 	br	22fc <strerror+0x18>
    25f4:	00800134 	movhi	r2,4
    25f8:	108dcd04 	addi	r2,r2,14132
    25fc:	003f3f06 	br	22fc <strerror+0x18>
    2600:	00800134 	movhi	r2,4
    2604:	108dc804 	addi	r2,r2,14112
    2608:	003f3c06 	br	22fc <strerror+0x18>
    260c:	00800134 	movhi	r2,4
    2610:	108dbf04 	addi	r2,r2,14076
    2614:	003f3906 	br	22fc <strerror+0x18>
    2618:	00800134 	movhi	r2,4
    261c:	108db904 	addi	r2,r2,14052
    2620:	003f3606 	br	22fc <strerror+0x18>
    2624:	00800134 	movhi	r2,4
    2628:	108db104 	addi	r2,r2,14020
    262c:	003f3306 	br	22fc <strerror+0x18>
    2630:	00800134 	movhi	r2,4
    2634:	108da904 	addi	r2,r2,13988
    2638:	003f3006 	br	22fc <strerror+0x18>
    263c:	00800134 	movhi	r2,4
    2640:	108d9d04 	addi	r2,r2,13940
    2644:	003f2d06 	br	22fc <strerror+0x18>
    2648:	00800134 	movhi	r2,4
    264c:	108d9604 	addi	r2,r2,13912
    2650:	003f2a06 	br	22fc <strerror+0x18>
    2654:	00800134 	movhi	r2,4
    2658:	108df004 	addi	r2,r2,14272
    265c:	003f2706 	br	22fc <strerror+0x18>
    2660:	00800134 	movhi	r2,4
    2664:	108d9004 	addi	r2,r2,13888
    2668:	003f2406 	br	22fc <strerror+0x18>
    266c:	00800134 	movhi	r2,4
    2670:	108d8904 	addi	r2,r2,13860
    2674:	003f2106 	br	22fc <strerror+0x18>
    2678:	00800134 	movhi	r2,4
    267c:	108d8404 	addi	r2,r2,13840
    2680:	003f1e06 	br	22fc <strerror+0x18>
    2684:	00800134 	movhi	r2,4
    2688:	108d8004 	addi	r2,r2,13824
    268c:	003f1b06 	br	22fc <strerror+0x18>
    2690:	00800134 	movhi	r2,4
    2694:	108d7904 	addi	r2,r2,13796
    2698:	003f1806 	br	22fc <strerror+0x18>
    269c:	00800134 	movhi	r2,4
    26a0:	108d6f04 	addi	r2,r2,13756
    26a4:	003f1506 	br	22fc <strerror+0x18>
    26a8:	00800134 	movhi	r2,4
    26ac:	108d5f04 	addi	r2,r2,13692
    26b0:	003f1206 	br	22fc <strerror+0x18>
    26b4:	00800134 	movhi	r2,4
    26b8:	108d5704 	addi	r2,r2,13660
    26bc:	003f0f06 	br	22fc <strerror+0x18>
    26c0:	00800134 	movhi	r2,4
    26c4:	108d4d04 	addi	r2,r2,13620
    26c8:	003f0c06 	br	22fc <strerror+0x18>
    26cc:	00800134 	movhi	r2,4
    26d0:	108d4304 	addi	r2,r2,13580
    26d4:	003f0906 	br	22fc <strerror+0x18>
    26d8:	00800134 	movhi	r2,4
    26dc:	108d4004 	addi	r2,r2,13568
    26e0:	003f0606 	br	22fc <strerror+0x18>
    26e4:	00800134 	movhi	r2,4
    26e8:	108d3b04 	addi	r2,r2,13548
    26ec:	003f0306 	br	22fc <strerror+0x18>
    26f0:	00800134 	movhi	r2,4
    26f4:	108d3204 	addi	r2,r2,13512
    26f8:	003f0006 	br	22fc <strerror+0x18>
    26fc:	00800134 	movhi	r2,4
    2700:	108d2d04 	addi	r2,r2,13492
    2704:	003efd06 	br	22fc <strerror+0x18>
    2708:	00800134 	movhi	r2,4
    270c:	108d2904 	addi	r2,r2,13476
    2710:	003efa06 	br	22fc <strerror+0x18>
    2714:	00800134 	movhi	r2,4
    2718:	108d2504 	addi	r2,r2,13460
    271c:	003ef706 	br	22fc <strerror+0x18>
    2720:	00800134 	movhi	r2,4
    2724:	108d1f04 	addi	r2,r2,13436
    2728:	003ef406 	br	22fc <strerror+0x18>
    272c:	00800134 	movhi	r2,4
    2730:	108d1a04 	addi	r2,r2,13416
    2734:	003ef106 	br	22fc <strerror+0x18>
    2738:	00800134 	movhi	r2,4
    273c:	108d1704 	addi	r2,r2,13404
    2740:	003eee06 	br	22fc <strerror+0x18>
    2744:	00800134 	movhi	r2,4
    2748:	108d0f04 	addi	r2,r2,13372
    274c:	003eeb06 	br	22fc <strerror+0x18>
    2750:	00800134 	movhi	r2,4
    2754:	108d0a04 	addi	r2,r2,13352
    2758:	003ee806 	br	22fc <strerror+0x18>
    275c:	00800134 	movhi	r2,4
    2760:	108d0404 	addi	r2,r2,13328
    2764:	003ee506 	br	22fc <strerror+0x18>
    2768:	00800134 	movhi	r2,4
    276c:	108d0004 	addi	r2,r2,13312
    2770:	003ee206 	br	22fc <strerror+0x18>
    2774:	00800134 	movhi	r2,4
    2778:	108cfe04 	addi	r2,r2,13304
    277c:	003edf06 	br	22fc <strerror+0x18>
    2780:	00800134 	movhi	r2,4
    2784:	108cf504 	addi	r2,r2,13268
    2788:	003edc06 	br	22fc <strerror+0x18>
    278c:	00800134 	movhi	r2,4
    2790:	108cf004 	addi	r2,r2,13248
    2794:	003ed906 	br	22fc <strerror+0x18>
    2798:	00800134 	movhi	r2,4
    279c:	108ce904 	addi	r2,r2,13220
    27a0:	003ed606 	br	22fc <strerror+0x18>
    27a4:	00800134 	movhi	r2,4
    27a8:	108ce404 	addi	r2,r2,13200
    27ac:	003ed306 	br	22fc <strerror+0x18>
    27b0:	00800134 	movhi	r2,4
    27b4:	108ce004 	addi	r2,r2,13184
    27b8:	003ed006 	br	22fc <strerror+0x18>
    27bc:	00800134 	movhi	r2,4
    27c0:	108cdd04 	addi	r2,r2,13172
    27c4:	003ecd06 	br	22fc <strerror+0x18>
    27c8:	00800134 	movhi	r2,4
    27cc:	108cd904 	addi	r2,r2,13156
    27d0:	003eca06 	br	22fc <strerror+0x18>
    27d4:	00800134 	movhi	r2,4
    27d8:	108cd304 	addi	r2,r2,13132
    27dc:	003ec706 	br	22fc <strerror+0x18>
    27e0:	00800134 	movhi	r2,4
    27e4:	108ccf04 	addi	r2,r2,13116
    27e8:	003ec406 	br	22fc <strerror+0x18>
    27ec:	00800134 	movhi	r2,4
    27f0:	108cc504 	addi	r2,r2,13076
    27f4:	003ec106 	br	22fc <strerror+0x18>
    27f8:	00800134 	movhi	r2,4
    27fc:	108cbc04 	addi	r2,r2,13040
    2800:	003ebe06 	br	22fc <strerror+0x18>
    2804:	00800134 	movhi	r2,4
    2808:	108cb804 	addi	r2,r2,13024
    280c:	003ebb06 	br	22fc <strerror+0x18>
    2810:	00800134 	movhi	r2,4
    2814:	108cb204 	addi	r2,r2,13000
    2818:	003eb806 	br	22fc <strerror+0x18>
    281c:	00800134 	movhi	r2,4
    2820:	108cad04 	addi	r2,r2,12980
    2824:	003eb506 	br	22fc <strerror+0x18>
    2828:	00800134 	movhi	r2,4
    282c:	108ca504 	addi	r2,r2,12948
    2830:	003eb206 	br	22fc <strerror+0x18>
    2834:	00800134 	movhi	r2,4
    2838:	108c9704 	addi	r2,r2,12892
    283c:	003eaf06 	br	22fc <strerror+0x18>
    2840:	00800134 	movhi	r2,4
    2844:	108c9304 	addi	r2,r2,12876
    2848:	003eac06 	br	22fc <strerror+0x18>
    284c:	00800134 	movhi	r2,4
    2850:	108c8304 	addi	r2,r2,12812
    2854:	003ea906 	br	22fc <strerror+0x18>
    2858:	00800134 	movhi	r2,4
    285c:	108c7f04 	addi	r2,r2,12796
    2860:	003ea606 	br	22fc <strerror+0x18>
    2864:	00800134 	movhi	r2,4
    2868:	108c7a04 	addi	r2,r2,12776
    286c:	003ea306 	br	22fc <strerror+0x18>
    2870:	00800134 	movhi	r2,4
    2874:	108c7704 	addi	r2,r2,12764
    2878:	003ea006 	br	22fc <strerror+0x18>
    287c:	00800134 	movhi	r2,4
    2880:	108c7104 	addi	r2,r2,12740
    2884:	003e9d06 	br	22fc <strerror+0x18>
    2888:	00800134 	movhi	r2,4
    288c:	108c6b04 	addi	r2,r2,12716
    2890:	003e9a06 	br	22fc <strerror+0x18>
    2894:	00800134 	movhi	r2,4
    2898:	108c6804 	addi	r2,r2,12704
    289c:	003e9706 	br	22fc <strerror+0x18>
    28a0:	00800134 	movhi	r2,4
    28a4:	108c6304 	addi	r2,r2,12684
    28a8:	003e9406 	br	22fc <strerror+0x18>
    28ac:	00800134 	movhi	r2,4
    28b0:	108c5e04 	addi	r2,r2,12664
    28b4:	003e9106 	br	22fc <strerror+0x18>
    28b8:	00800134 	movhi	r2,4
    28bc:	108c5904 	addi	r2,r2,12644
    28c0:	003e8e06 	br	22fc <strerror+0x18>
    28c4:	00800134 	movhi	r2,4
    28c8:	108c4e04 	addi	r2,r2,12600
    28cc:	003e8b06 	br	22fc <strerror+0x18>
    28d0:	00800134 	movhi	r2,4
    28d4:	108c4a04 	addi	r2,r2,12584
    28d8:	003e8806 	br	22fc <strerror+0x18>
    28dc:	00800134 	movhi	r2,4
    28e0:	108c3e04 	addi	r2,r2,12536
    28e4:	003e8506 	br	22fc <strerror+0x18>
    28e8:	00800134 	movhi	r2,4
    28ec:	108c3904 	addi	r2,r2,12516
    28f0:	003e8206 	br	22fc <strerror+0x18>
    28f4:	00800134 	movhi	r2,4
    28f8:	108c3204 	addi	r2,r2,12488
    28fc:	003e7f06 	br	22fc <strerror+0x18>
    2900:	00800134 	movhi	r2,4
    2904:	108c2f04 	addi	r2,r2,12476
    2908:	003e7c06 	br	22fc <strerror+0x18>
    290c:	00800134 	movhi	r2,4
    2910:	108c2904 	addi	r2,r2,12452
    2914:	003e7906 	br	22fc <strerror+0x18>
    2918:	00800134 	movhi	r2,4
    291c:	108c2504 	addi	r2,r2,12436
    2920:	003e7606 	br	22fc <strerror+0x18>
    2924:	00800134 	movhi	r2,4
    2928:	108c1e04 	addi	r2,r2,12408
    292c:	003e7306 	br	22fc <strerror+0x18>
    2930:	00800134 	movhi	r2,4
    2934:	108c1b04 	addi	r2,r2,12396
    2938:	003e7006 	br	22fc <strerror+0x18>
    293c:	00800134 	movhi	r2,4
    2940:	108e0c04 	addi	r2,r2,14384
    2944:	003e6d06 	br	22fc <strerror+0x18>

00002948 <strlen>:
    2948:	208000cc 	andi	r2,r4,3
    294c:	10001f1e 	bne	r2,zero,29cc <strlen+0x84>
    2950:	20800017 	ldw	r2,0(r4)
    2954:	01ffbff4 	movhi	r7,65279
    2958:	39ffbfc4 	addi	r7,r7,-257
    295c:	01a02074 	movhi	r6,32897
    2960:	31a02004 	addi	r6,r6,-32640
    2964:	11c7883a 	add	r3,r2,r7
    2968:	0084303a 	nor	r2,zero,r2
    296c:	1886703a 	and	r3,r3,r2
    2970:	1986703a 	and	r3,r3,r6
    2974:	2005883a 	mov	r2,r4
    2978:	1800101e 	bne	r3,zero,29bc <strlen+0x74>
    297c:	10800104 	addi	r2,r2,4
    2980:	10c00017 	ldw	r3,0(r2)
    2984:	19cb883a 	add	r5,r3,r7
    2988:	00c6303a 	nor	r3,zero,r3
    298c:	28c6703a 	and	r3,r5,r3
    2990:	1986703a 	and	r3,r3,r6
    2994:	1800091e 	bne	r3,zero,29bc <strlen+0x74>
    2998:	10800104 	addi	r2,r2,4
    299c:	10c00017 	ldw	r3,0(r2)
    29a0:	19cb883a 	add	r5,r3,r7
    29a4:	00c6303a 	nor	r3,zero,r3
    29a8:	28c6703a 	and	r3,r5,r3
    29ac:	1986703a 	and	r3,r3,r6
    29b0:	183ff226 	beq	r3,zero,297c <strlen+0x34>
    29b4:	00000106 	br	29bc <strlen+0x74>
    29b8:	10800044 	addi	r2,r2,1
    29bc:	10c00007 	ldb	r3,0(r2)
    29c0:	183ffd1e 	bne	r3,zero,29b8 <strlen+0x70>
    29c4:	1105c83a 	sub	r2,r2,r4
    29c8:	f800283a 	ret
    29cc:	2005883a 	mov	r2,r4
    29d0:	003ffa06 	br	29bc <strlen+0x74>

000029d4 <_user_strerror>:
    29d4:	0005883a 	mov	r2,zero
    29d8:	f800283a 	ret

000029dc <__sprint_r>:
    29dc:	30800217 	ldw	r2,8(r6)
    29e0:	defffe04 	addi	sp,sp,-8
    29e4:	dc000015 	stw	r16,0(sp)
    29e8:	dfc00115 	stw	ra,4(sp)
    29ec:	3021883a 	mov	r16,r6
    29f0:	10000226 	beq	r2,zero,29fc <__sprint_r+0x20>
    29f4:	0006d4c0 	call	6d4c <__sfvwrite_r>
    29f8:	80000215 	stw	zero,8(r16)
    29fc:	80000115 	stw	zero,4(r16)
    2a00:	dfc00117 	ldw	ra,4(sp)
    2a04:	dc000017 	ldw	r16,0(sp)
    2a08:	dec00204 	addi	sp,sp,8
    2a0c:	f800283a 	ret

00002a10 <___vfprintf_internal_r>:
    2a10:	defeb904 	addi	sp,sp,-1308
    2a14:	dc013d15 	stw	r16,1268(sp)
    2a18:	d9013015 	stw	r4,1216(sp)
    2a1c:	dfc14615 	stw	ra,1304(sp)
    2a20:	df014515 	stw	fp,1300(sp)
    2a24:	ddc14415 	stw	r23,1296(sp)
    2a28:	dd814315 	stw	r22,1292(sp)
    2a2c:	dd414215 	stw	r21,1288(sp)
    2a30:	dd014115 	stw	r20,1284(sp)
    2a34:	dcc14015 	stw	r19,1280(sp)
    2a38:	dc813f15 	stw	r18,1276(sp)
    2a3c:	dc413e15 	stw	r17,1272(sp)
    2a40:	d9412915 	stw	r5,1188(sp)
    2a44:	3021883a 	mov	r16,r6
    2a48:	d9c12d15 	stw	r7,1204(sp)
    2a4c:	00074380 	call	7438 <_localeconv_r>
    2a50:	10800017 	ldw	r2,0(r2)
    2a54:	d9013017 	ldw	r4,1216(sp)
    2a58:	d8013315 	stw	zero,1228(sp)
    2a5c:	d8813715 	stw	r2,1244(sp)
    2a60:	d8013415 	stw	zero,1232(sp)
    2a64:	20000226 	beq	r4,zero,2a70 <___vfprintf_internal_r+0x60>
    2a68:	20800e17 	ldw	r2,56(r4)
    2a6c:	10019826 	beq	r2,zero,30d0 <___vfprintf_internal_r+0x6c0>
    2a70:	da012917 	ldw	r8,1188(sp)
    2a74:	4080030b 	ldhu	r2,12(r8)
    2a78:	10c0020c 	andi	r3,r2,8
    2a7c:	18ffffcc 	andi	r3,r3,65535
    2a80:	18e0001c 	xori	r3,r3,32768
    2a84:	18e00004 	addi	r3,r3,-32768
    2a88:	18013a26 	beq	r3,zero,2f74 <___vfprintf_internal_r+0x564>
    2a8c:	40c00417 	ldw	r3,16(r8)
    2a90:	18013826 	beq	r3,zero,2f74 <___vfprintf_internal_r+0x564>
    2a94:	1100068c 	andi	r4,r2,26
    2a98:	00c00284 	movi	r3,10
    2a9c:	20c13e26 	beq	r4,r3,2f98 <___vfprintf_internal_r+0x588>
    2aa0:	da010dc4 	addi	r8,sp,1079
    2aa4:	d8800404 	addi	r2,sp,16
    2aa8:	da012615 	stw	r8,1176(sp)
    2aac:	d8811b15 	stw	r2,1132(sp)
    2ab0:	1013883a 	mov	r9,r2
    2ab4:	d8812617 	ldw	r2,1176(sp)
    2ab8:	da010e04 	addi	r8,sp,1080
    2abc:	dc413017 	ldw	r17,1216(sp)
    2ac0:	da012715 	stw	r8,1180(sp)
    2ac4:	4091c83a 	sub	r8,r8,r2
    2ac8:	d8011d15 	stw	zero,1140(sp)
    2acc:	d8011c15 	stw	zero,1136(sp)
    2ad0:	802b883a 	mov	r21,r16
    2ad4:	d8013215 	stw	zero,1224(sp)
    2ad8:	d8013615 	stw	zero,1240(sp)
    2adc:	d8013515 	stw	zero,1236(sp)
    2ae0:	d8012c15 	stw	zero,1200(sp)
    2ae4:	da013915 	stw	r8,1252(sp)
    2ae8:	a8800007 	ldb	r2,0(r21)
    2aec:	1002ec26 	beq	r2,zero,36a0 <___vfprintf_internal_r+0xc90>
    2af0:	00c00944 	movi	r3,37
    2af4:	a825883a 	mov	r18,r21
    2af8:	10c0021e 	bne	r2,r3,2b04 <___vfprintf_internal_r+0xf4>
    2afc:	00001406 	br	2b50 <___vfprintf_internal_r+0x140>
    2b00:	10c00326 	beq	r2,r3,2b10 <___vfprintf_internal_r+0x100>
    2b04:	94800044 	addi	r18,r18,1
    2b08:	90800007 	ldb	r2,0(r18)
    2b0c:	103ffc1e 	bne	r2,zero,2b00 <___vfprintf_internal_r+0xf0>
    2b10:	9561c83a 	sub	r16,r18,r21
    2b14:	80000e26 	beq	r16,zero,2b50 <___vfprintf_internal_r+0x140>
    2b18:	da011d17 	ldw	r8,1140(sp)
    2b1c:	d8c11c17 	ldw	r3,1136(sp)
    2b20:	4d400015 	stw	r21,0(r9)
    2b24:	4c000115 	stw	r16,4(r9)
    2b28:	4411883a 	add	r8,r8,r16
    2b2c:	18c00044 	addi	r3,r3,1
    2b30:	da011d15 	stw	r8,1140(sp)
    2b34:	d8c11c15 	stw	r3,1136(sp)
    2b38:	008001c4 	movi	r2,7
    2b3c:	10c15d16 	blt	r2,r3,30b4 <___vfprintf_internal_r+0x6a4>
    2b40:	4a400204 	addi	r9,r9,8
    2b44:	d8812c17 	ldw	r2,1200(sp)
    2b48:	1405883a 	add	r2,r2,r16
    2b4c:	d8812c15 	stw	r2,1200(sp)
    2b50:	90800007 	ldb	r2,0(r18)
    2b54:	10013b26 	beq	r2,zero,3044 <___vfprintf_internal_r+0x634>
    2b58:	95400044 	addi	r21,r18,1
    2b5c:	94800047 	ldb	r18,1(r18)
    2b60:	d8012585 	stb	zero,1174(sp)
    2b64:	073fffc4 	movi	fp,-1
    2b68:	d8012e15 	stw	zero,1208(sp)
    2b6c:	0021883a 	mov	r16,zero
    2b70:	00c01604 	movi	r3,88
    2b74:	01400244 	movi	r5,9
    2b78:	02800a84 	movi	r10,42
    2b7c:	01c01b04 	movi	r7,108
    2b80:	01800ac4 	movi	r6,43
    2b84:	02c00804 	movi	r11,32
    2b88:	ad400044 	addi	r21,r21,1
    2b8c:	90bff804 	addi	r2,r18,-32
    2b90:	1880092e 	bgeu	r3,r2,2bb8 <___vfprintf_internal_r+0x1a8>
    2b94:	90012b26 	beq	r18,zero,3044 <___vfprintf_internal_r+0x634>
    2b98:	00c00044 	movi	r3,1
    2b9c:	d8c12815 	stw	r3,1184(sp)
    2ba0:	dc810405 	stb	r18,1040(sp)
    2ba4:	d8012585 	stb	zero,1174(sp)
    2ba8:	d8c12b15 	stw	r3,1196(sp)
    2bac:	dcc10404 	addi	r19,sp,1040
    2bb0:	d8013115 	stw	zero,1220(sp)
    2bb4:	00008806 	br	2dd8 <___vfprintf_internal_r+0x3c8>
    2bb8:	1085883a 	add	r2,r2,r2
    2bbc:	1085883a 	add	r2,r2,r2
    2bc0:	01000034 	movhi	r4,0
    2bc4:	210af504 	addi	r4,r4,11220
    2bc8:	1105883a 	add	r2,r2,r4
    2bcc:	10800017 	ldw	r2,0(r2)
    2bd0:	1000683a 	jmp	r2
    2bd4:	00003188 	cmpgei	zero,zero,198
    2bd8:	00002b94 	movui	zero,174
    2bdc:	00002b94 	movui	zero,174
    2be0:	0000319c 	xori	zero,zero,198
    2be4:	00002b94 	movui	zero,174
    2be8:	00002b94 	movui	zero,174
    2bec:	00002b94 	movui	zero,174
    2bf0:	00002b94 	movui	zero,174
    2bf4:	00002b94 	movui	zero,174
    2bf8:	00002b94 	movui	zero,174
    2bfc:	00003284 	movi	zero,202
    2c00:	00003140 	call	314 <alt_uCOSIIErrorHandler+0x110>
    2c04:	00002b94 	movui	zero,174
    2c08:	00002f68 	cmpgeui	zero,zero,189
    2c0c:	0000314c 	andi	zero,zero,197
    2c10:	00002b94 	movui	zero,174
    2c14:	000031a8 	cmpgeui	zero,zero,198
    2c18:	000032a8 	cmpgeui	zero,zero,202
    2c1c:	000032a8 	cmpgeui	zero,zero,202
    2c20:	000032a8 	cmpgeui	zero,zero,202
    2c24:	000032a8 	cmpgeui	zero,zero,202
    2c28:	000032a8 	cmpgeui	zero,zero,202
    2c2c:	000032a8 	cmpgeui	zero,zero,202
    2c30:	000032a8 	cmpgeui	zero,zero,202
    2c34:	000032a8 	cmpgeui	zero,zero,202
    2c38:	000032a8 	cmpgeui	zero,zero,202
    2c3c:	00002b94 	movui	zero,174
    2c40:	00002b94 	movui	zero,174
    2c44:	00002b94 	movui	zero,174
    2c48:	00002b94 	movui	zero,174
    2c4c:	00002b94 	movui	zero,174
    2c50:	00002b94 	movui	zero,174
    2c54:	00002b94 	movui	zero,174
    2c58:	00002b94 	movui	zero,174
    2c5c:	00002b94 	movui	zero,174
    2c60:	00002b94 	movui	zero,174
    2c64:	00002f04 	movi	zero,188
    2c68:	000032d0 	cmplti	zero,zero,203
    2c6c:	00002b94 	movui	zero,174
    2c70:	000032d0 	cmplti	zero,zero,203
    2c74:	00002b94 	movui	zero,174
    2c78:	00002b94 	movui	zero,174
    2c7c:	00002b94 	movui	zero,174
    2c80:	00002b94 	movui	zero,174
    2c84:	00003440 	call	344 <alt_uCOSIIErrorHandler+0x140>
    2c88:	00002b94 	movui	zero,174
    2c8c:	00002b94 	movui	zero,174
    2c90:	00002ecc 	andi	zero,zero,187
    2c94:	00002b94 	movui	zero,174
    2c98:	00002b94 	movui	zero,174
    2c9c:	00002b94 	movui	zero,174
    2ca0:	00002b94 	movui	zero,174
    2ca4:	00002b94 	movui	zero,174
    2ca8:	00002d38 	rdprs	zero,zero,180
    2cac:	00002b94 	movui	zero,174
    2cb0:	00002b94 	movui	zero,174
    2cb4:	000031b4 	movhi	zero,198
    2cb8:	00002b94 	movui	zero,174
    2cbc:	00002b94 	movui	zero,174
    2cc0:	00002b94 	movui	zero,174
    2cc4:	00002b94 	movui	zero,174
    2cc8:	00002b94 	movui	zero,174
    2ccc:	00002b94 	movui	zero,174
    2cd0:	00002b94 	movui	zero,174
    2cd4:	00002b94 	movui	zero,174
    2cd8:	00002b94 	movui	zero,174
    2cdc:	00002b94 	movui	zero,174
    2ce0:	00003228 	cmpgeui	zero,zero,200
    2ce4:	00002f08 	cmpgei	zero,zero,188
    2ce8:	000032d0 	cmplti	zero,zero,203
    2cec:	000032d0 	cmplti	zero,zero,203
    2cf0:	000032d0 	cmplti	zero,zero,203
    2cf4:	00003208 	cmpgei	zero,zero,200
    2cf8:	00002f08 	cmpgei	zero,zero,188
    2cfc:	00002b94 	movui	zero,174
    2d00:	00002b94 	movui	zero,174
    2d04:	00003214 	movui	zero,200
    2d08:	00002b94 	movui	zero,174
    2d0c:	00003258 	cmpnei	zero,zero,201
    2d10:	00002ed0 	cmplti	zero,zero,187
    2d14:	00003358 	cmpnei	zero,zero,205
    2d18:	000033a4 	muli	zero,zero,206
    2d1c:	00002b94 	movui	zero,174
    2d20:	000033b0 	cmpltui	zero,zero,206
    2d24:	00002b94 	movui	zero,174
    2d28:	00002d3c 	xorhi	zero,zero,180
    2d2c:	00002b94 	movui	zero,174
    2d30:	00002b94 	movui	zero,174
    2d34:	0000340c 	andi	zero,zero,208
    2d38:	84000414 	ori	r16,r16,16
    2d3c:	8080080c 	andi	r2,r16,32
    2d40:	1000f51e 	bne	r2,zero,3118 <___vfprintf_internal_r+0x708>
    2d44:	8080040c 	andi	r2,r16,16
    2d48:	10042c26 	beq	r2,zero,3dfc <___vfprintf_internal_r+0x13ec>
    2d4c:	da012d17 	ldw	r8,1204(sp)
    2d50:	002d883a 	mov	r22,zero
    2d54:	00c00044 	movi	r3,1
    2d58:	45c00017 	ldw	r23,0(r8)
    2d5c:	42000104 	addi	r8,r8,4
    2d60:	da012d15 	stw	r8,1204(sp)
    2d64:	b805883a 	mov	r2,r23
    2d68:	d8012585 	stb	zero,1174(sp)
    2d6c:	e0000216 	blt	fp,zero,2d78 <___vfprintf_internal_r+0x368>
    2d70:	013fdfc4 	movi	r4,-129
    2d74:	8120703a 	and	r16,r16,r4
    2d78:	1002671e 	bne	r2,zero,3718 <___vfprintf_internal_r+0xd08>
    2d7c:	e002661e 	bne	fp,zero,3718 <___vfprintf_internal_r+0xd08>
    2d80:	18c03fcc 	andi	r3,r3,255
    2d84:	1803561e 	bne	r3,zero,3ae0 <___vfprintf_internal_r+0x10d0>
    2d88:	8080004c 	andi	r2,r16,1
    2d8c:	10035426 	beq	r2,zero,3ae0 <___vfprintf_internal_r+0x10d0>
    2d90:	da013917 	ldw	r8,1252(sp)
    2d94:	00800c04 	movi	r2,48
    2d98:	d8810dc5 	stb	r2,1079(sp)
    2d9c:	da012b15 	stw	r8,1196(sp)
    2da0:	dcc10dc4 	addi	r19,sp,1079
    2da4:	d8812b17 	ldw	r2,1196(sp)
    2da8:	d8812815 	stw	r2,1184(sp)
    2dac:	1700010e 	bge	r2,fp,2db4 <___vfprintf_internal_r+0x3a4>
    2db0:	df012815 	stw	fp,1184(sp)
    2db4:	d8812583 	ldbu	r2,1174(sp)
    2db8:	df013115 	stw	fp,1220(sp)
    2dbc:	10803fcc 	andi	r2,r2,255
    2dc0:	1080201c 	xori	r2,r2,128
    2dc4:	10bfe004 	addi	r2,r2,-128
    2dc8:	10000326 	beq	r2,zero,2dd8 <___vfprintf_internal_r+0x3c8>
    2dcc:	da012817 	ldw	r8,1184(sp)
    2dd0:	42000044 	addi	r8,r8,1
    2dd4:	da012815 	stw	r8,1184(sp)
    2dd8:	80c0008c 	andi	r3,r16,2
    2ddc:	d8c12a15 	stw	r3,1192(sp)
    2de0:	18000326 	beq	r3,zero,2df0 <___vfprintf_internal_r+0x3e0>
    2de4:	da012817 	ldw	r8,1184(sp)
    2de8:	42000084 	addi	r8,r8,2
    2dec:	da012815 	stw	r8,1184(sp)
    2df0:	80c0210c 	andi	r3,r16,132
    2df4:	d8c12f15 	stw	r3,1212(sp)
    2df8:	1801941e 	bne	r3,zero,344c <___vfprintf_internal_r+0xa3c>
    2dfc:	da012e17 	ldw	r8,1208(sp)
    2e00:	d8c12817 	ldw	r3,1184(sp)
    2e04:	40edc83a 	sub	r22,r8,r3
    2e08:	0581900e 	bge	zero,r22,344c <___vfprintf_internal_r+0xa3c>
    2e0c:	02800404 	movi	r10,16
    2e10:	da011d17 	ldw	r8,1140(sp)
    2e14:	d8c11c17 	ldw	r3,1136(sp)
    2e18:	05c00134 	movhi	r23,4
    2e1c:	bdce1484 	addi	r23,r23,14418
    2e20:	5580200e 	bge	r10,r22,2ea4 <___vfprintf_internal_r+0x494>
    2e24:	dc813815 	stw	r18,1248(sp)
    2e28:	5039883a 	mov	fp,r10
    2e2c:	b825883a 	mov	r18,r23
    2e30:	050001c4 	movi	r20,7
    2e34:	b02f883a 	mov	r23,r22
    2e38:	802d883a 	mov	r22,r16
    2e3c:	dc012917 	ldw	r16,1188(sp)
    2e40:	00000306 	br	2e50 <___vfprintf_internal_r+0x440>
    2e44:	bdfffc04 	addi	r23,r23,-16
    2e48:	4a400204 	addi	r9,r9,8
    2e4c:	e5c0110e 	bge	fp,r23,2e94 <___vfprintf_internal_r+0x484>
    2e50:	4c800015 	stw	r18,0(r9)
    2e54:	4f000115 	stw	fp,4(r9)
    2e58:	42000404 	addi	r8,r8,16
    2e5c:	18c00044 	addi	r3,r3,1
    2e60:	da011d15 	stw	r8,1140(sp)
    2e64:	d8c11c15 	stw	r3,1136(sp)
    2e68:	a0fff60e 	bge	r20,r3,2e44 <___vfprintf_internal_r+0x434>
    2e6c:	8809883a 	mov	r4,r17
    2e70:	800b883a 	mov	r5,r16
    2e74:	d9811b04 	addi	r6,sp,1132
    2e78:	00029dc0 	call	29dc <__sprint_r>
    2e7c:	1000771e 	bne	r2,zero,305c <___vfprintf_internal_r+0x64c>
    2e80:	bdfffc04 	addi	r23,r23,-16
    2e84:	da011d17 	ldw	r8,1140(sp)
    2e88:	d8c11c17 	ldw	r3,1136(sp)
    2e8c:	da400404 	addi	r9,sp,16
    2e90:	e5ffef16 	blt	fp,r23,2e50 <___vfprintf_internal_r+0x440>
    2e94:	b021883a 	mov	r16,r22
    2e98:	b82d883a 	mov	r22,r23
    2e9c:	902f883a 	mov	r23,r18
    2ea0:	dc813817 	ldw	r18,1248(sp)
    2ea4:	4dc00015 	stw	r23,0(r9)
    2ea8:	4d800115 	stw	r22,4(r9)
    2eac:	4591883a 	add	r8,r8,r22
    2eb0:	18c00044 	addi	r3,r3,1
    2eb4:	da011d15 	stw	r8,1140(sp)
    2eb8:	d8c11c15 	stw	r3,1136(sp)
    2ebc:	008001c4 	movi	r2,7
    2ec0:	10c36d16 	blt	r2,r3,3c78 <___vfprintf_internal_r+0x1268>
    2ec4:	4a400204 	addi	r9,r9,8
    2ec8:	00016206 	br	3454 <___vfprintf_internal_r+0xa44>
    2ecc:	84000414 	ori	r16,r16,16
    2ed0:	8080080c 	andi	r2,r16,32
    2ed4:	1000801e 	bne	r2,zero,30d8 <___vfprintf_internal_r+0x6c8>
    2ed8:	8080040c 	andi	r2,r16,16
    2edc:	1003da26 	beq	r2,zero,3e48 <___vfprintf_internal_r+0x1438>
    2ee0:	d8c12d17 	ldw	r3,1204(sp)
    2ee4:	002d883a 	mov	r22,zero
    2ee8:	1dc00017 	ldw	r23,0(r3)
    2eec:	18c00104 	addi	r3,r3,4
    2ef0:	d8c12d15 	stw	r3,1204(sp)
    2ef4:	b805883a 	mov	r2,r23
    2ef8:	0007883a 	mov	r3,zero
    2efc:	d8012585 	stb	zero,1174(sp)
    2f00:	003f9a06 	br	2d6c <___vfprintf_internal_r+0x35c>
    2f04:	84000414 	ori	r16,r16,16
    2f08:	8080080c 	andi	r2,r16,32
    2f0c:	10007b1e 	bne	r2,zero,30fc <___vfprintf_internal_r+0x6ec>
    2f10:	8080040c 	andi	r2,r16,16
    2f14:	1003ed26 	beq	r2,zero,3ecc <___vfprintf_internal_r+0x14bc>
    2f18:	d9012d17 	ldw	r4,1204(sp)
    2f1c:	25c00017 	ldw	r23,0(r4)
    2f20:	21000104 	addi	r4,r4,4
    2f24:	d9012d15 	stw	r4,1204(sp)
    2f28:	b82dd7fa 	srai	r22,r23,31
    2f2c:	b005883a 	mov	r2,r22
    2f30:	1003230e 	bge	r2,zero,3bc0 <___vfprintf_internal_r+0x11b0>
    2f34:	05efc83a 	sub	r23,zero,r23
    2f38:	b804c03a 	cmpne	r2,r23,zero
    2f3c:	05adc83a 	sub	r22,zero,r22
    2f40:	b0adc83a 	sub	r22,r22,r2
    2f44:	00800b44 	movi	r2,45
    2f48:	d8812585 	stb	r2,1174(sp)
    2f4c:	00c00044 	movi	r3,1
    2f50:	bd84b03a 	or	r2,r23,r22
    2f54:	003f8506 	br	2d6c <___vfprintf_internal_r+0x35c>
    2f58:	da012e17 	ldw	r8,1208(sp)
    2f5c:	d8812d15 	stw	r2,1204(sp)
    2f60:	0211c83a 	sub	r8,zero,r8
    2f64:	da012e15 	stw	r8,1208(sp)
    2f68:	84000114 	ori	r16,r16,4
    2f6c:	ac800007 	ldb	r18,0(r21)
    2f70:	003f0506 	br	2b88 <___vfprintf_internal_r+0x178>
    2f74:	d9013017 	ldw	r4,1216(sp)
    2f78:	d9412917 	ldw	r5,1188(sp)
    2f7c:	00049840 	call	4984 <__swsetup_r>
    2f80:	10003d1e 	bne	r2,zero,3078 <___vfprintf_internal_r+0x668>
    2f84:	d8c12917 	ldw	r3,1188(sp)
    2f88:	1880030b 	ldhu	r2,12(r3)
    2f8c:	00c00284 	movi	r3,10
    2f90:	1100068c 	andi	r4,r2,26
    2f94:	20fec21e 	bne	r4,r3,2aa0 <___vfprintf_internal_r+0x90>
    2f98:	d9012917 	ldw	r4,1188(sp)
    2f9c:	20c0038b 	ldhu	r3,14(r4)
    2fa0:	193fffcc 	andi	r4,r3,65535
    2fa4:	2120001c 	xori	r4,r4,32768
    2fa8:	21200004 	addi	r4,r4,-32768
    2fac:	203ebc16 	blt	r4,zero,2aa0 <___vfprintf_internal_r+0x90>
    2fb0:	da012917 	ldw	r8,1188(sp)
    2fb4:	d9013017 	ldw	r4,1216(sp)
    2fb8:	d9c12d17 	ldw	r7,1204(sp)
    2fbc:	42800717 	ldw	r10,28(r8)
    2fc0:	42400917 	ldw	r9,36(r8)
    2fc4:	10bfff4c 	andi	r2,r2,65533
    2fc8:	02010004 	movi	r8,1024
    2fcc:	d881070d 	sth	r2,1052(sp)
    2fd0:	d9410404 	addi	r5,sp,1040
    2fd4:	d8800404 	addi	r2,sp,16
    2fd8:	800d883a 	mov	r6,r16
    2fdc:	d8c1078d 	sth	r3,1054(sp)
    2fe0:	da810b15 	stw	r10,1068(sp)
    2fe4:	da410d15 	stw	r9,1076(sp)
    2fe8:	d8810415 	stw	r2,1040(sp)
    2fec:	d8810815 	stw	r2,1056(sp)
    2ff0:	da010615 	stw	r8,1048(sp)
    2ff4:	da010915 	stw	r8,1060(sp)
    2ff8:	d8010a15 	stw	zero,1064(sp)
    2ffc:	0002a100 	call	2a10 <___vfprintf_internal_r>
    3000:	d8812c15 	stw	r2,1200(sp)
    3004:	10000416 	blt	r2,zero,3018 <___vfprintf_internal_r+0x608>
    3008:	d9013017 	ldw	r4,1216(sp)
    300c:	d9410404 	addi	r5,sp,1040
    3010:	000631c0 	call	631c <_fflush_r>
    3014:	1005d81e 	bne	r2,zero,4778 <___vfprintf_internal_r+0x1d68>
    3018:	d881070b 	ldhu	r2,1052(sp)
    301c:	1080100c 	andi	r2,r2,64
    3020:	10bfffcc 	andi	r2,r2,65535
    3024:	10a0001c 	xori	r2,r2,32768
    3028:	10a00004 	addi	r2,r2,-32768
    302c:	10001426 	beq	r2,zero,3080 <___vfprintf_internal_r+0x670>
    3030:	d8c12917 	ldw	r3,1188(sp)
    3034:	1880030b 	ldhu	r2,12(r3)
    3038:	10801014 	ori	r2,r2,64
    303c:	1880030d 	sth	r2,12(r3)
    3040:	00000f06 	br	3080 <___vfprintf_internal_r+0x670>
    3044:	d8811d17 	ldw	r2,1140(sp)
    3048:	10000426 	beq	r2,zero,305c <___vfprintf_internal_r+0x64c>
    304c:	d9013017 	ldw	r4,1216(sp)
    3050:	d9412917 	ldw	r5,1188(sp)
    3054:	d9811b04 	addi	r6,sp,1132
    3058:	00029dc0 	call	29dc <__sprint_r>
    305c:	d8c12917 	ldw	r3,1188(sp)
    3060:	1880030b 	ldhu	r2,12(r3)
    3064:	1080100c 	andi	r2,r2,64
    3068:	10bfffcc 	andi	r2,r2,65535
    306c:	10a0001c 	xori	r2,r2,32768
    3070:	10a00004 	addi	r2,r2,-32768
    3074:	10000226 	beq	r2,zero,3080 <___vfprintf_internal_r+0x670>
    3078:	00bfffc4 	movi	r2,-1
    307c:	d8812c15 	stw	r2,1200(sp)
    3080:	d8812c17 	ldw	r2,1200(sp)
    3084:	dfc14617 	ldw	ra,1304(sp)
    3088:	df014517 	ldw	fp,1300(sp)
    308c:	ddc14417 	ldw	r23,1296(sp)
    3090:	dd814317 	ldw	r22,1292(sp)
    3094:	dd414217 	ldw	r21,1288(sp)
    3098:	dd014117 	ldw	r20,1284(sp)
    309c:	dcc14017 	ldw	r19,1280(sp)
    30a0:	dc813f17 	ldw	r18,1276(sp)
    30a4:	dc413e17 	ldw	r17,1272(sp)
    30a8:	dc013d17 	ldw	r16,1268(sp)
    30ac:	dec14704 	addi	sp,sp,1308
    30b0:	f800283a 	ret
    30b4:	d9412917 	ldw	r5,1188(sp)
    30b8:	8809883a 	mov	r4,r17
    30bc:	d9811b04 	addi	r6,sp,1132
    30c0:	00029dc0 	call	29dc <__sprint_r>
    30c4:	103fe51e 	bne	r2,zero,305c <___vfprintf_internal_r+0x64c>
    30c8:	da400404 	addi	r9,sp,16
    30cc:	003e9d06 	br	2b44 <___vfprintf_internal_r+0x134>
    30d0:	00065c40 	call	65c4 <__sinit>
    30d4:	003e6606 	br	2a70 <___vfprintf_internal_r+0x60>
    30d8:	d8812d17 	ldw	r2,1204(sp)
    30dc:	0007883a 	mov	r3,zero
    30e0:	15c00017 	ldw	r23,0(r2)
    30e4:	15800117 	ldw	r22,4(r2)
    30e8:	10800204 	addi	r2,r2,8
    30ec:	d8812d15 	stw	r2,1204(sp)
    30f0:	d8012585 	stb	zero,1174(sp)
    30f4:	bd84b03a 	or	r2,r23,r22
    30f8:	003f1c06 	br	2d6c <___vfprintf_internal_r+0x35c>
    30fc:	d8c12d17 	ldw	r3,1204(sp)
    3100:	18800117 	ldw	r2,4(r3)
    3104:	1dc00017 	ldw	r23,0(r3)
    3108:	18c00204 	addi	r3,r3,8
    310c:	d8c12d15 	stw	r3,1204(sp)
    3110:	102d883a 	mov	r22,r2
    3114:	003f8606 	br	2f30 <___vfprintf_internal_r+0x520>
    3118:	d8c12d17 	ldw	r3,1204(sp)
    311c:	d9012d17 	ldw	r4,1204(sp)
    3120:	1dc00017 	ldw	r23,0(r3)
    3124:	1d800117 	ldw	r22,4(r3)
    3128:	21000204 	addi	r4,r4,8
    312c:	00c00044 	movi	r3,1
    3130:	d9012d15 	stw	r4,1204(sp)
    3134:	bd84b03a 	or	r2,r23,r22
    3138:	d8012585 	stb	zero,1174(sp)
    313c:	003f0b06 	br	2d6c <___vfprintf_internal_r+0x35c>
    3140:	d9812585 	stb	r6,1174(sp)
    3144:	ac800007 	ldb	r18,0(r21)
    3148:	003e8f06 	br	2b88 <___vfprintf_internal_r+0x178>
    314c:	ac800007 	ldb	r18,0(r21)
    3150:	a9000044 	addi	r4,r21,1
    3154:	92857d26 	beq	r18,r10,474c <___vfprintf_internal_r+0x1d3c>
    3158:	90bff404 	addi	r2,r18,-48
    315c:	0039883a 	mov	fp,zero
    3160:	28800736 	bltu	r5,r2,3180 <___vfprintf_internal_r+0x770>
    3164:	24800007 	ldb	r18,0(r4)
    3168:	e70002a4 	muli	fp,fp,10
    316c:	21000044 	addi	r4,r4,1
    3170:	1739883a 	add	fp,r2,fp
    3174:	90bff404 	addi	r2,r18,-48
    3178:	28bffa2e 	bgeu	r5,r2,3164 <___vfprintf_internal_r+0x754>
    317c:	e0044216 	blt	fp,zero,4288 <___vfprintf_internal_r+0x1878>
    3180:	202b883a 	mov	r21,r4
    3184:	003e8106 	br	2b8c <___vfprintf_internal_r+0x17c>
    3188:	d8812587 	ldb	r2,1174(sp)
    318c:	1003581e 	bne	r2,zero,3ef0 <___vfprintf_internal_r+0x14e0>
    3190:	dac12585 	stb	r11,1174(sp)
    3194:	ac800007 	ldb	r18,0(r21)
    3198:	003e7b06 	br	2b88 <___vfprintf_internal_r+0x178>
    319c:	84000054 	ori	r16,r16,1
    31a0:	ac800007 	ldb	r18,0(r21)
    31a4:	003e7806 	br	2b88 <___vfprintf_internal_r+0x178>
    31a8:	84002014 	ori	r16,r16,128
    31ac:	ac800007 	ldb	r18,0(r21)
    31b0:	003e7506 	br	2b88 <___vfprintf_internal_r+0x178>
    31b4:	02000134 	movhi	r8,4
    31b8:	420e0804 	addi	r8,r8,14368
    31bc:	da013615 	stw	r8,1240(sp)
    31c0:	8080080c 	andi	r2,r16,32
    31c4:	10009626 	beq	r2,zero,3420 <___vfprintf_internal_r+0xa10>
    31c8:	d8812d17 	ldw	r2,1204(sp)
    31cc:	15c00017 	ldw	r23,0(r2)
    31d0:	15800117 	ldw	r22,4(r2)
    31d4:	10800204 	addi	r2,r2,8
    31d8:	d8812d15 	stw	r2,1204(sp)
    31dc:	8080004c 	andi	r2,r16,1
    31e0:	1002ae26 	beq	r2,zero,3c9c <___vfprintf_internal_r+0x128c>
    31e4:	bd84b03a 	or	r2,r23,r22
    31e8:	10032a26 	beq	r2,zero,3e94 <___vfprintf_internal_r+0x1484>
    31ec:	00c00c04 	movi	r3,48
    31f0:	d8c12505 	stb	r3,1172(sp)
    31f4:	dc812545 	stb	r18,1173(sp)
    31f8:	84000094 	ori	r16,r16,2
    31fc:	00c00084 	movi	r3,2
    3200:	d8012585 	stb	zero,1174(sp)
    3204:	003ed906 	br	2d6c <___vfprintf_internal_r+0x35c>
    3208:	84001014 	ori	r16,r16,64
    320c:	ac800007 	ldb	r18,0(r21)
    3210:	003e5d06 	br	2b88 <___vfprintf_internal_r+0x178>
    3214:	ac800007 	ldb	r18,0(r21)
    3218:	a805883a 	mov	r2,r21
    321c:	91c43226 	beq	r18,r7,42e8 <___vfprintf_internal_r+0x18d8>
    3220:	84000414 	ori	r16,r16,16
    3224:	003e5806 	br	2b88 <___vfprintf_internal_r+0x178>
    3228:	d8c12d17 	ldw	r3,1204(sp)
    322c:	02000044 	movi	r8,1
    3230:	da012815 	stw	r8,1184(sp)
    3234:	18800017 	ldw	r2,0(r3)
    3238:	18c00104 	addi	r3,r3,4
    323c:	d8012585 	stb	zero,1174(sp)
    3240:	d8810405 	stb	r2,1040(sp)
    3244:	d8c12d15 	stw	r3,1204(sp)
    3248:	da012b15 	stw	r8,1196(sp)
    324c:	dcc10404 	addi	r19,sp,1040
    3250:	d8013115 	stw	zero,1220(sp)
    3254:	003ee006 	br	2dd8 <___vfprintf_internal_r+0x3c8>
    3258:	8080080c 	andi	r2,r16,32
    325c:	10031026 	beq	r2,zero,3ea0 <___vfprintf_internal_r+0x1490>
    3260:	d9012d17 	ldw	r4,1204(sp)
    3264:	da012c17 	ldw	r8,1200(sp)
    3268:	20800017 	ldw	r2,0(r4)
    326c:	4007d7fa 	srai	r3,r8,31
    3270:	21000104 	addi	r4,r4,4
    3274:	d9012d15 	stw	r4,1204(sp)
    3278:	12000015 	stw	r8,0(r2)
    327c:	10c00115 	stw	r3,4(r2)
    3280:	003e1906 	br	2ae8 <___vfprintf_internal_r+0xd8>
    3284:	da012d17 	ldw	r8,1204(sp)
    3288:	d9012d17 	ldw	r4,1204(sp)
    328c:	42000017 	ldw	r8,0(r8)
    3290:	20800104 	addi	r2,r4,4
    3294:	da012e15 	stw	r8,1208(sp)
    3298:	403f2f16 	blt	r8,zero,2f58 <___vfprintf_internal_r+0x548>
    329c:	d8812d15 	stw	r2,1204(sp)
    32a0:	ac800007 	ldb	r18,0(r21)
    32a4:	003e3806 	br	2b88 <___vfprintf_internal_r+0x178>
    32a8:	0009883a 	mov	r4,zero
    32ac:	90bff404 	addi	r2,r18,-48
    32b0:	ac800007 	ldb	r18,0(r21)
    32b4:	210002a4 	muli	r4,r4,10
    32b8:	ad400044 	addi	r21,r21,1
    32bc:	2089883a 	add	r4,r4,r2
    32c0:	90bff404 	addi	r2,r18,-48
    32c4:	28bffa2e 	bgeu	r5,r2,32b0 <___vfprintf_internal_r+0x8a0>
    32c8:	d9012e15 	stw	r4,1208(sp)
    32cc:	003e2f06 	br	2b8c <___vfprintf_internal_r+0x17c>
    32d0:	8080020c 	andi	r2,r16,8
    32d4:	1002d426 	beq	r2,zero,3e28 <___vfprintf_internal_r+0x1418>
    32d8:	d8c12d17 	ldw	r3,1204(sp)
    32dc:	1d800017 	ldw	r22,0(r3)
    32e0:	1d000117 	ldw	r20,4(r3)
    32e4:	18c00204 	addi	r3,r3,8
    32e8:	d8c12d15 	stw	r3,1204(sp)
    32ec:	dd813315 	stw	r22,1228(sp)
    32f0:	dd013415 	stw	r20,1232(sp)
    32f4:	b009883a 	mov	r4,r22
    32f8:	a00b883a 	mov	r5,r20
    32fc:	da413c15 	stw	r9,1264(sp)
    3300:	000985c0 	call	985c <__isinfd>
    3304:	da413c17 	ldw	r9,1264(sp)
    3308:	b009883a 	mov	r4,r22
    330c:	a00b883a 	mov	r5,r20
    3310:	10035726 	beq	r2,zero,4070 <___vfprintf_internal_r+0x1660>
    3314:	000d883a 	mov	r6,zero
    3318:	000f883a 	mov	r7,zero
    331c:	000b4580 	call	b458 <__ltdf2>
    3320:	da413c17 	ldw	r9,1264(sp)
    3324:	10041b16 	blt	r2,zero,4394 <___vfprintf_internal_r+0x1984>
    3328:	d8812583 	ldbu	r2,1174(sp)
    332c:	00c011c4 	movi	r3,71
    3330:	1c830b16 	blt	r3,r18,3f60 <___vfprintf_internal_r+0x1550>
    3334:	04c00134 	movhi	r19,4
    3338:	9cce0404 	addi	r19,r19,14352
    333c:	020000c4 	movi	r8,3
    3340:	00ffdfc4 	movi	r3,-129
    3344:	da012815 	stw	r8,1184(sp)
    3348:	80e0703a 	and	r16,r16,r3
    334c:	da012b15 	stw	r8,1196(sp)
    3350:	d8013115 	stw	zero,1220(sp)
    3354:	003e9906 	br	2dbc <___vfprintf_internal_r+0x3ac>
    3358:	d8812d17 	ldw	r2,1204(sp)
    335c:	d8c12d17 	ldw	r3,1204(sp)
    3360:	02000134 	movhi	r8,4
    3364:	420e0d04 	addi	r8,r8,14388
    3368:	15c00017 	ldw	r23,0(r2)
    336c:	00800c04 	movi	r2,48
    3370:	18c00104 	addi	r3,r3,4
    3374:	d8812505 	stb	r2,1172(sp)
    3378:	00801e04 	movi	r2,120
    337c:	d8812545 	stb	r2,1173(sp)
    3380:	d8c12d15 	stw	r3,1204(sp)
    3384:	002d883a 	mov	r22,zero
    3388:	84000094 	ori	r16,r16,2
    338c:	da013615 	stw	r8,1240(sp)
    3390:	00c00084 	movi	r3,2
    3394:	04801e04 	movi	r18,120
    3398:	b805883a 	mov	r2,r23
    339c:	d8012585 	stb	zero,1174(sp)
    33a0:	003e7206 	br	2d6c <___vfprintf_internal_r+0x35c>
    33a4:	84000814 	ori	r16,r16,32
    33a8:	ac800007 	ldb	r18,0(r21)
    33ac:	003df606 	br	2b88 <___vfprintf_internal_r+0x178>
    33b0:	d8812d17 	ldw	r2,1204(sp)
    33b4:	d8012585 	stb	zero,1174(sp)
    33b8:	14c00017 	ldw	r19,0(r2)
    33bc:	15c00104 	addi	r23,r2,4
    33c0:	98040126 	beq	r19,zero,43c8 <___vfprintf_internal_r+0x19b8>
    33c4:	9809883a 	mov	r4,r19
    33c8:	e003dd16 	blt	fp,zero,4340 <___vfprintf_internal_r+0x1930>
    33cc:	000b883a 	mov	r5,zero
    33d0:	e00d883a 	mov	r6,fp
    33d4:	da413c15 	stw	r9,1264(sp)
    33d8:	0007d980 	call	7d98 <memchr>
    33dc:	da413c17 	ldw	r9,1264(sp)
    33e0:	10042e26 	beq	r2,zero,449c <___vfprintf_internal_r+0x1a8c>
    33e4:	14c5c83a 	sub	r2,r2,r19
    33e8:	d8812b15 	stw	r2,1196(sp)
    33ec:	e083790e 	bge	fp,r2,41d4 <___vfprintf_internal_r+0x17c4>
    33f0:	df012815 	stw	fp,1184(sp)
    33f4:	e0049516 	blt	fp,zero,464c <___vfprintf_internal_r+0x1c3c>
    33f8:	d8812583 	ldbu	r2,1174(sp)
    33fc:	df012b15 	stw	fp,1196(sp)
    3400:	ddc12d15 	stw	r23,1204(sp)
    3404:	d8013115 	stw	zero,1220(sp)
    3408:	003e6c06 	br	2dbc <___vfprintf_internal_r+0x3ac>
    340c:	02000134 	movhi	r8,4
    3410:	420e0d04 	addi	r8,r8,14388
    3414:	da013615 	stw	r8,1240(sp)
    3418:	8080080c 	andi	r2,r16,32
    341c:	103f6a1e 	bne	r2,zero,31c8 <___vfprintf_internal_r+0x7b8>
    3420:	8080040c 	andi	r2,r16,16
    3424:	10029326 	beq	r2,zero,3e74 <___vfprintf_internal_r+0x1464>
    3428:	d8c12d17 	ldw	r3,1204(sp)
    342c:	002d883a 	mov	r22,zero
    3430:	1dc00017 	ldw	r23,0(r3)
    3434:	18c00104 	addi	r3,r3,4
    3438:	d8c12d15 	stw	r3,1204(sp)
    343c:	003f6706 	br	31dc <___vfprintf_internal_r+0x7cc>
    3440:	84000214 	ori	r16,r16,8
    3444:	ac800007 	ldb	r18,0(r21)
    3448:	003dcf06 	br	2b88 <___vfprintf_internal_r+0x178>
    344c:	da011d17 	ldw	r8,1140(sp)
    3450:	d8c11c17 	ldw	r3,1136(sp)
    3454:	d8812587 	ldb	r2,1174(sp)
    3458:	10000b26 	beq	r2,zero,3488 <___vfprintf_internal_r+0xa78>
    345c:	d8812584 	addi	r2,sp,1174
    3460:	48800015 	stw	r2,0(r9)
    3464:	00800044 	movi	r2,1
    3468:	48800115 	stw	r2,4(r9)
    346c:	4091883a 	add	r8,r8,r2
    3470:	1887883a 	add	r3,r3,r2
    3474:	da011d15 	stw	r8,1140(sp)
    3478:	d8c11c15 	stw	r3,1136(sp)
    347c:	008001c4 	movi	r2,7
    3480:	10c18516 	blt	r2,r3,3a98 <___vfprintf_internal_r+0x1088>
    3484:	4a400204 	addi	r9,r9,8
    3488:	d9012a17 	ldw	r4,1192(sp)
    348c:	20000b26 	beq	r4,zero,34bc <___vfprintf_internal_r+0xaac>
    3490:	d8812504 	addi	r2,sp,1172
    3494:	48800015 	stw	r2,0(r9)
    3498:	00800084 	movi	r2,2
    349c:	48800115 	stw	r2,4(r9)
    34a0:	4091883a 	add	r8,r8,r2
    34a4:	18c00044 	addi	r3,r3,1
    34a8:	da011d15 	stw	r8,1140(sp)
    34ac:	d8c11c15 	stw	r3,1136(sp)
    34b0:	008001c4 	movi	r2,7
    34b4:	10c18116 	blt	r2,r3,3abc <___vfprintf_internal_r+0x10ac>
    34b8:	4a400204 	addi	r9,r9,8
    34bc:	d9012f17 	ldw	r4,1212(sp)
    34c0:	00802004 	movi	r2,128
    34c4:	2080fc26 	beq	r4,r2,38b8 <___vfprintf_internal_r+0xea8>
    34c8:	d8813117 	ldw	r2,1220(sp)
    34cc:	d9012b17 	ldw	r4,1196(sp)
    34d0:	112fc83a 	sub	r23,r2,r4
    34d4:	05c02a0e 	bge	zero,r23,3580 <___vfprintf_internal_r+0xb70>
    34d8:	07000404 	movi	fp,16
    34dc:	05000134 	movhi	r20,4
    34e0:	a50e1884 	addi	r20,r20,14434
    34e4:	e5c01d0e 	bge	fp,r23,355c <___vfprintf_internal_r+0xb4c>
    34e8:	dc812a15 	stw	r18,1192(sp)
    34ec:	058001c4 	movi	r22,7
    34f0:	a025883a 	mov	r18,r20
    34f4:	8029883a 	mov	r20,r16
    34f8:	dc012917 	ldw	r16,1188(sp)
    34fc:	00000306 	br	350c <___vfprintf_internal_r+0xafc>
    3500:	bdfffc04 	addi	r23,r23,-16
    3504:	4a400204 	addi	r9,r9,8
    3508:	e5c0110e 	bge	fp,r23,3550 <___vfprintf_internal_r+0xb40>
    350c:	4c800015 	stw	r18,0(r9)
    3510:	4f000115 	stw	fp,4(r9)
    3514:	42000404 	addi	r8,r8,16
    3518:	18c00044 	addi	r3,r3,1
    351c:	da011d15 	stw	r8,1140(sp)
    3520:	d8c11c15 	stw	r3,1136(sp)
    3524:	b0fff60e 	bge	r22,r3,3500 <___vfprintf_internal_r+0xaf0>
    3528:	8809883a 	mov	r4,r17
    352c:	800b883a 	mov	r5,r16
    3530:	d9811b04 	addi	r6,sp,1132
    3534:	00029dc0 	call	29dc <__sprint_r>
    3538:	103ec81e 	bne	r2,zero,305c <___vfprintf_internal_r+0x64c>
    353c:	bdfffc04 	addi	r23,r23,-16
    3540:	da011d17 	ldw	r8,1140(sp)
    3544:	d8c11c17 	ldw	r3,1136(sp)
    3548:	da400404 	addi	r9,sp,16
    354c:	e5ffef16 	blt	fp,r23,350c <___vfprintf_internal_r+0xafc>
    3550:	a021883a 	mov	r16,r20
    3554:	9029883a 	mov	r20,r18
    3558:	dc812a17 	ldw	r18,1192(sp)
    355c:	4d000015 	stw	r20,0(r9)
    3560:	4dc00115 	stw	r23,4(r9)
    3564:	45d1883a 	add	r8,r8,r23
    3568:	18c00044 	addi	r3,r3,1
    356c:	da011d15 	stw	r8,1140(sp)
    3570:	d8c11c15 	stw	r3,1136(sp)
    3574:	008001c4 	movi	r2,7
    3578:	10c13e16 	blt	r2,r3,3a74 <___vfprintf_internal_r+0x1064>
    357c:	4a400204 	addi	r9,r9,8
    3580:	8080400c 	andi	r2,r16,256
    3584:	1000831e 	bne	r2,zero,3794 <___vfprintf_internal_r+0xd84>
    3588:	d8812b17 	ldw	r2,1196(sp)
    358c:	4cc00015 	stw	r19,0(r9)
    3590:	48800115 	stw	r2,4(r9)
    3594:	4091883a 	add	r8,r8,r2
    3598:	18c00044 	addi	r3,r3,1
    359c:	da011d15 	stw	r8,1140(sp)
    35a0:	d8c11c15 	stw	r3,1136(sp)
    35a4:	008001c4 	movi	r2,7
    35a8:	10c05316 	blt	r2,r3,36f8 <___vfprintf_internal_r+0xce8>
    35ac:	4a400204 	addi	r9,r9,8
    35b0:	8400010c 	andi	r16,r16,4
    35b4:	80002e26 	beq	r16,zero,3670 <___vfprintf_internal_r+0xc60>
    35b8:	d8812e17 	ldw	r2,1208(sp)
    35bc:	d8c12817 	ldw	r3,1184(sp)
    35c0:	10e1c83a 	sub	r16,r2,r3
    35c4:	04002a0e 	bge	zero,r16,3670 <___vfprintf_internal_r+0xc60>
    35c8:	04800404 	movi	r18,16
    35cc:	d8c11c17 	ldw	r3,1136(sp)
    35d0:	05c00134 	movhi	r23,4
    35d4:	bdce1484 	addi	r23,r23,14418
    35d8:	9400170e 	bge	r18,r16,3638 <___vfprintf_internal_r+0xc28>
    35dc:	04c001c4 	movi	r19,7
    35e0:	dd012917 	ldw	r20,1188(sp)
    35e4:	00000306 	br	35f4 <___vfprintf_internal_r+0xbe4>
    35e8:	843ffc04 	addi	r16,r16,-16
    35ec:	4a400204 	addi	r9,r9,8
    35f0:	9400110e 	bge	r18,r16,3638 <___vfprintf_internal_r+0xc28>
    35f4:	4dc00015 	stw	r23,0(r9)
    35f8:	4c800115 	stw	r18,4(r9)
    35fc:	42000404 	addi	r8,r8,16
    3600:	18c00044 	addi	r3,r3,1
    3604:	da011d15 	stw	r8,1140(sp)
    3608:	d8c11c15 	stw	r3,1136(sp)
    360c:	98fff60e 	bge	r19,r3,35e8 <___vfprintf_internal_r+0xbd8>
    3610:	8809883a 	mov	r4,r17
    3614:	a00b883a 	mov	r5,r20
    3618:	d9811b04 	addi	r6,sp,1132
    361c:	00029dc0 	call	29dc <__sprint_r>
    3620:	103e8e1e 	bne	r2,zero,305c <___vfprintf_internal_r+0x64c>
    3624:	843ffc04 	addi	r16,r16,-16
    3628:	da011d17 	ldw	r8,1140(sp)
    362c:	d8c11c17 	ldw	r3,1136(sp)
    3630:	da400404 	addi	r9,sp,16
    3634:	943fef16 	blt	r18,r16,35f4 <___vfprintf_internal_r+0xbe4>
    3638:	4dc00015 	stw	r23,0(r9)
    363c:	4c000115 	stw	r16,4(r9)
    3640:	8211883a 	add	r8,r16,r8
    3644:	18c00044 	addi	r3,r3,1
    3648:	da011d15 	stw	r8,1140(sp)
    364c:	d8c11c15 	stw	r3,1136(sp)
    3650:	008001c4 	movi	r2,7
    3654:	10c0060e 	bge	r2,r3,3670 <___vfprintf_internal_r+0xc60>
    3658:	d9412917 	ldw	r5,1188(sp)
    365c:	8809883a 	mov	r4,r17
    3660:	d9811b04 	addi	r6,sp,1132
    3664:	00029dc0 	call	29dc <__sprint_r>
    3668:	103e7c1e 	bne	r2,zero,305c <___vfprintf_internal_r+0x64c>
    366c:	da011d17 	ldw	r8,1140(sp)
    3670:	dd012817 	ldw	r20,1184(sp)
    3674:	d9012e17 	ldw	r4,1208(sp)
    3678:	a100010e 	bge	r20,r4,3680 <___vfprintf_internal_r+0xc70>
    367c:	2029883a 	mov	r20,r4
    3680:	d8812c17 	ldw	r2,1200(sp)
    3684:	1505883a 	add	r2,r2,r20
    3688:	d8812c15 	stw	r2,1200(sp)
    368c:	4000b91e 	bne	r8,zero,3974 <___vfprintf_internal_r+0xf64>
    3690:	d8011c15 	stw	zero,1136(sp)
    3694:	a8800007 	ldb	r2,0(r21)
    3698:	da400404 	addi	r9,sp,16
    369c:	103d141e 	bne	r2,zero,2af0 <___vfprintf_internal_r+0xe0>
    36a0:	a825883a 	mov	r18,r21
    36a4:	003d2a06 	br	2b50 <___vfprintf_internal_r+0x140>
    36a8:	d9412917 	ldw	r5,1188(sp)
    36ac:	8809883a 	mov	r4,r17
    36b0:	d9811b04 	addi	r6,sp,1132
    36b4:	00029dc0 	call	29dc <__sprint_r>
    36b8:	103e681e 	bne	r2,zero,305c <___vfprintf_internal_r+0x64c>
    36bc:	da011d17 	ldw	r8,1140(sp)
    36c0:	da400404 	addi	r9,sp,16
    36c4:	8080004c 	andi	r2,r16,1
    36c8:	103fb926 	beq	r2,zero,35b0 <___vfprintf_internal_r+0xba0>
    36cc:	d8c11c17 	ldw	r3,1136(sp)
    36d0:	d9013717 	ldw	r4,1244(sp)
    36d4:	00800044 	movi	r2,1
    36d8:	48800115 	stw	r2,4(r9)
    36dc:	49000015 	stw	r4,0(r9)
    36e0:	4091883a 	add	r8,r8,r2
    36e4:	1887883a 	add	r3,r3,r2
    36e8:	da011d15 	stw	r8,1140(sp)
    36ec:	d8c11c15 	stw	r3,1136(sp)
    36f0:	008001c4 	movi	r2,7
    36f4:	10ffad0e 	bge	r2,r3,35ac <___vfprintf_internal_r+0xb9c>
    36f8:	d9412917 	ldw	r5,1188(sp)
    36fc:	8809883a 	mov	r4,r17
    3700:	d9811b04 	addi	r6,sp,1132
    3704:	00029dc0 	call	29dc <__sprint_r>
    3708:	103e541e 	bne	r2,zero,305c <___vfprintf_internal_r+0x64c>
    370c:	da400404 	addi	r9,sp,16
    3710:	da011d17 	ldw	r8,1140(sp)
    3714:	003fa606 	br	35b0 <___vfprintf_internal_r+0xba0>
    3718:	18803fcc 	andi	r2,r3,255
    371c:	00c00044 	movi	r3,1
    3720:	10c10126 	beq	r2,r3,3b28 <___vfprintf_internal_r+0x1118>
    3724:	00c00084 	movi	r3,2
    3728:	10c0f026 	beq	r2,r3,3aec <___vfprintf_internal_r+0x10dc>
    372c:	d8c10dc4 	addi	r3,sp,1079
    3730:	b808d0fa 	srli	r4,r23,3
    3734:	b00a977a 	slli	r5,r22,29
    3738:	b02cd0fa 	srli	r22,r22,3
    373c:	bdc001cc 	andi	r23,r23,7
    3740:	b8800c04 	addi	r2,r23,48
    3744:	292eb03a 	or	r23,r5,r4
    3748:	18800005 	stb	r2,0(r3)
    374c:	bd88b03a 	or	r4,r23,r22
    3750:	1827883a 	mov	r19,r3
    3754:	18ffffc4 	addi	r3,r3,-1
    3758:	203ff51e 	bne	r4,zero,3730 <___vfprintf_internal_r+0xd20>
    375c:	8100004c 	andi	r4,r16,1
    3760:	980b883a 	mov	r5,r19
    3764:	20000726 	beq	r4,zero,3784 <___vfprintf_internal_r+0xd74>
    3768:	10803fcc 	andi	r2,r2,255
    376c:	1080201c 	xori	r2,r2,128
    3770:	10bfe004 	addi	r2,r2,-128
    3774:	01000c04 	movi	r4,48
    3778:	11000226 	beq	r2,r4,3784 <___vfprintf_internal_r+0xd74>
    377c:	1827883a 	mov	r19,r3
    3780:	293fffc5 	stb	r4,-1(r5)
    3784:	d8812717 	ldw	r2,1180(sp)
    3788:	14c5c83a 	sub	r2,r2,r19
    378c:	d8812b15 	stw	r2,1196(sp)
    3790:	003d8406 	br	2da4 <___vfprintf_internal_r+0x394>
    3794:	00801944 	movi	r2,101
    3798:	14807c0e 	bge	r2,r18,398c <___vfprintf_internal_r+0xf7c>
    379c:	d9013317 	ldw	r4,1228(sp)
    37a0:	d9413417 	ldw	r5,1232(sp)
    37a4:	000d883a 	mov	r6,zero
    37a8:	000f883a 	mov	r7,zero
    37ac:	d8c13b15 	stw	r3,1260(sp)
    37b0:	da013a15 	stw	r8,1256(sp)
    37b4:	da413c15 	stw	r9,1264(sp)
    37b8:	000b2d80 	call	b2d8 <__eqdf2>
    37bc:	d8c13b17 	ldw	r3,1260(sp)
    37c0:	da013a17 	ldw	r8,1256(sp)
    37c4:	da413c17 	ldw	r9,1264(sp)
    37c8:	1001001e 	bne	r2,zero,3bcc <___vfprintf_internal_r+0x11bc>
    37cc:	00800134 	movhi	r2,4
    37d0:	108e1404 	addi	r2,r2,14416
    37d4:	48800015 	stw	r2,0(r9)
    37d8:	00800044 	movi	r2,1
    37dc:	48800115 	stw	r2,4(r9)
    37e0:	4091883a 	add	r8,r8,r2
    37e4:	1887883a 	add	r3,r3,r2
    37e8:	da011d15 	stw	r8,1140(sp)
    37ec:	d8c11c15 	stw	r3,1136(sp)
    37f0:	008001c4 	movi	r2,7
    37f4:	10c1dd16 	blt	r2,r3,3f6c <___vfprintf_internal_r+0x155c>
    37f8:	4a400204 	addi	r9,r9,8
    37fc:	d8812417 	ldw	r2,1168(sp)
    3800:	d8c13217 	ldw	r3,1224(sp)
    3804:	10c00216 	blt	r2,r3,3810 <___vfprintf_internal_r+0xe00>
    3808:	8080004c 	andi	r2,r16,1
    380c:	103f6826 	beq	r2,zero,35b0 <___vfprintf_internal_r+0xba0>
    3810:	d8c11c17 	ldw	r3,1136(sp)
    3814:	d9013717 	ldw	r4,1244(sp)
    3818:	00800044 	movi	r2,1
    381c:	48800115 	stw	r2,4(r9)
    3820:	49000015 	stw	r4,0(r9)
    3824:	4091883a 	add	r8,r8,r2
    3828:	1887883a 	add	r3,r3,r2
    382c:	da011d15 	stw	r8,1140(sp)
    3830:	d8c11c15 	stw	r3,1136(sp)
    3834:	008001c4 	movi	r2,7
    3838:	10c2af16 	blt	r2,r3,42f8 <___vfprintf_internal_r+0x18e8>
    383c:	4a400204 	addi	r9,r9,8
    3840:	d8813217 	ldw	r2,1224(sp)
    3844:	14bfffc4 	addi	r18,r2,-1
    3848:	04bf590e 	bge	zero,r18,35b0 <___vfprintf_internal_r+0xba0>
    384c:	04c00404 	movi	r19,16
    3850:	d8c11c17 	ldw	r3,1136(sp)
    3854:	05000134 	movhi	r20,4
    3858:	a50e1884 	addi	r20,r20,14434
    385c:	9c81630e 	bge	r19,r18,3dec <___vfprintf_internal_r+0x13dc>
    3860:	058001c4 	movi	r22,7
    3864:	ddc12917 	ldw	r23,1188(sp)
    3868:	00000306 	br	3878 <___vfprintf_internal_r+0xe68>
    386c:	4a400204 	addi	r9,r9,8
    3870:	94bffc04 	addi	r18,r18,-16
    3874:	9c815d0e 	bge	r19,r18,3dec <___vfprintf_internal_r+0x13dc>
    3878:	4d000015 	stw	r20,0(r9)
    387c:	4cc00115 	stw	r19,4(r9)
    3880:	42000404 	addi	r8,r8,16
    3884:	18c00044 	addi	r3,r3,1
    3888:	da011d15 	stw	r8,1140(sp)
    388c:	d8c11c15 	stw	r3,1136(sp)
    3890:	b0fff60e 	bge	r22,r3,386c <___vfprintf_internal_r+0xe5c>
    3894:	8809883a 	mov	r4,r17
    3898:	b80b883a 	mov	r5,r23
    389c:	d9811b04 	addi	r6,sp,1132
    38a0:	00029dc0 	call	29dc <__sprint_r>
    38a4:	103ded1e 	bne	r2,zero,305c <___vfprintf_internal_r+0x64c>
    38a8:	da011d17 	ldw	r8,1140(sp)
    38ac:	d8c11c17 	ldw	r3,1136(sp)
    38b0:	da400404 	addi	r9,sp,16
    38b4:	003fee06 	br	3870 <___vfprintf_internal_r+0xe60>
    38b8:	d8812e17 	ldw	r2,1208(sp)
    38bc:	d9012817 	ldw	r4,1184(sp)
    38c0:	112fc83a 	sub	r23,r2,r4
    38c4:	05ff000e 	bge	zero,r23,34c8 <___vfprintf_internal_r+0xab8>
    38c8:	07000404 	movi	fp,16
    38cc:	05000134 	movhi	r20,4
    38d0:	a50e1884 	addi	r20,r20,14434
    38d4:	e5c01d0e 	bge	fp,r23,394c <___vfprintf_internal_r+0xf3c>
    38d8:	dc812a15 	stw	r18,1192(sp)
    38dc:	058001c4 	movi	r22,7
    38e0:	a025883a 	mov	r18,r20
    38e4:	8029883a 	mov	r20,r16
    38e8:	dc012917 	ldw	r16,1188(sp)
    38ec:	00000306 	br	38fc <___vfprintf_internal_r+0xeec>
    38f0:	bdfffc04 	addi	r23,r23,-16
    38f4:	4a400204 	addi	r9,r9,8
    38f8:	e5c0110e 	bge	fp,r23,3940 <___vfprintf_internal_r+0xf30>
    38fc:	4c800015 	stw	r18,0(r9)
    3900:	4f000115 	stw	fp,4(r9)
    3904:	42000404 	addi	r8,r8,16
    3908:	18c00044 	addi	r3,r3,1
    390c:	da011d15 	stw	r8,1140(sp)
    3910:	d8c11c15 	stw	r3,1136(sp)
    3914:	b0fff60e 	bge	r22,r3,38f0 <___vfprintf_internal_r+0xee0>
    3918:	8809883a 	mov	r4,r17
    391c:	800b883a 	mov	r5,r16
    3920:	d9811b04 	addi	r6,sp,1132
    3924:	00029dc0 	call	29dc <__sprint_r>
    3928:	103dcc1e 	bne	r2,zero,305c <___vfprintf_internal_r+0x64c>
    392c:	bdfffc04 	addi	r23,r23,-16
    3930:	da011d17 	ldw	r8,1140(sp)
    3934:	d8c11c17 	ldw	r3,1136(sp)
    3938:	da400404 	addi	r9,sp,16
    393c:	e5ffef16 	blt	fp,r23,38fc <___vfprintf_internal_r+0xeec>
    3940:	a021883a 	mov	r16,r20
    3944:	9029883a 	mov	r20,r18
    3948:	dc812a17 	ldw	r18,1192(sp)
    394c:	4d000015 	stw	r20,0(r9)
    3950:	4dc00115 	stw	r23,4(r9)
    3954:	45d1883a 	add	r8,r8,r23
    3958:	18c00044 	addi	r3,r3,1
    395c:	da011d15 	stw	r8,1140(sp)
    3960:	d8c11c15 	stw	r3,1136(sp)
    3964:	008001c4 	movi	r2,7
    3968:	10c11716 	blt	r2,r3,3dc8 <___vfprintf_internal_r+0x13b8>
    396c:	4a400204 	addi	r9,r9,8
    3970:	003ed506 	br	34c8 <___vfprintf_internal_r+0xab8>
    3974:	d9412917 	ldw	r5,1188(sp)
    3978:	8809883a 	mov	r4,r17
    397c:	d9811b04 	addi	r6,sp,1132
    3980:	00029dc0 	call	29dc <__sprint_r>
    3984:	103f4226 	beq	r2,zero,3690 <___vfprintf_internal_r+0xc80>
    3988:	003db406 	br	305c <___vfprintf_internal_r+0x64c>
    398c:	d9013217 	ldw	r4,1224(sp)
    3990:	00800044 	movi	r2,1
    3994:	4cc00015 	stw	r19,0(r9)
    3998:	1100e10e 	bge	r2,r4,3d20 <___vfprintf_internal_r+0x1310>
    399c:	00800044 	movi	r2,1
    39a0:	48800115 	stw	r2,4(r9)
    39a4:	4091883a 	add	r8,r8,r2
    39a8:	1887883a 	add	r3,r3,r2
    39ac:	da011d15 	stw	r8,1140(sp)
    39b0:	d8c11c15 	stw	r3,1136(sp)
    39b4:	008001c4 	movi	r2,7
    39b8:	10c0ed16 	blt	r2,r3,3d70 <___vfprintf_internal_r+0x1360>
    39bc:	4a400204 	addi	r9,r9,8
    39c0:	d8813717 	ldw	r2,1244(sp)
    39c4:	48800015 	stw	r2,0(r9)
    39c8:	00800044 	movi	r2,1
    39cc:	48800115 	stw	r2,4(r9)
    39d0:	4091883a 	add	r8,r8,r2
    39d4:	1887883a 	add	r3,r3,r2
    39d8:	da011d15 	stw	r8,1140(sp)
    39dc:	d8c11c15 	stw	r3,1136(sp)
    39e0:	008001c4 	movi	r2,7
    39e4:	10c0eb16 	blt	r2,r3,3d94 <___vfprintf_internal_r+0x1384>
    39e8:	4c800204 	addi	r18,r9,8
    39ec:	d9013317 	ldw	r4,1228(sp)
    39f0:	d9413417 	ldw	r5,1232(sp)
    39f4:	000d883a 	mov	r6,zero
    39f8:	000f883a 	mov	r7,zero
    39fc:	d8c13b15 	stw	r3,1260(sp)
    3a00:	da013a15 	stw	r8,1256(sp)
    3a04:	000b3340 	call	b334 <__nedf2>
    3a08:	d8c13b17 	ldw	r3,1260(sp)
    3a0c:	da013a17 	ldw	r8,1256(sp)
    3a10:	1000a626 	beq	r2,zero,3cac <___vfprintf_internal_r+0x129c>
    3a14:	d9013217 	ldw	r4,1224(sp)
    3a18:	9cc00044 	addi	r19,r19,1
    3a1c:	94c00015 	stw	r19,0(r18)
    3a20:	20bfffc4 	addi	r2,r4,-1
    3a24:	90800115 	stw	r2,4(r18)
    3a28:	4091883a 	add	r8,r8,r2
    3a2c:	18c00044 	addi	r3,r3,1
    3a30:	da011d15 	stw	r8,1140(sp)
    3a34:	d8c11c15 	stw	r3,1136(sp)
    3a38:	008001c4 	movi	r2,7
    3a3c:	10c0c316 	blt	r2,r3,3d4c <___vfprintf_internal_r+0x133c>
    3a40:	94800204 	addi	r18,r18,8
    3a44:	d9013517 	ldw	r4,1236(sp)
    3a48:	d8811fc4 	addi	r2,sp,1151
    3a4c:	90800015 	stw	r2,0(r18)
    3a50:	91000115 	stw	r4,4(r18)
    3a54:	4111883a 	add	r8,r8,r4
    3a58:	18c00044 	addi	r3,r3,1
    3a5c:	da011d15 	stw	r8,1140(sp)
    3a60:	d8c11c15 	stw	r3,1136(sp)
    3a64:	008001c4 	movi	r2,7
    3a68:	10ff2316 	blt	r2,r3,36f8 <___vfprintf_internal_r+0xce8>
    3a6c:	92400204 	addi	r9,r18,8
    3a70:	003ecf06 	br	35b0 <___vfprintf_internal_r+0xba0>
    3a74:	d9412917 	ldw	r5,1188(sp)
    3a78:	8809883a 	mov	r4,r17
    3a7c:	d9811b04 	addi	r6,sp,1132
    3a80:	00029dc0 	call	29dc <__sprint_r>
    3a84:	103d751e 	bne	r2,zero,305c <___vfprintf_internal_r+0x64c>
    3a88:	da011d17 	ldw	r8,1140(sp)
    3a8c:	d8c11c17 	ldw	r3,1136(sp)
    3a90:	da400404 	addi	r9,sp,16
    3a94:	003eba06 	br	3580 <___vfprintf_internal_r+0xb70>
    3a98:	d9412917 	ldw	r5,1188(sp)
    3a9c:	8809883a 	mov	r4,r17
    3aa0:	d9811b04 	addi	r6,sp,1132
    3aa4:	00029dc0 	call	29dc <__sprint_r>
    3aa8:	103d6c1e 	bne	r2,zero,305c <___vfprintf_internal_r+0x64c>
    3aac:	da011d17 	ldw	r8,1140(sp)
    3ab0:	d8c11c17 	ldw	r3,1136(sp)
    3ab4:	da400404 	addi	r9,sp,16
    3ab8:	003e7306 	br	3488 <___vfprintf_internal_r+0xa78>
    3abc:	d9412917 	ldw	r5,1188(sp)
    3ac0:	8809883a 	mov	r4,r17
    3ac4:	d9811b04 	addi	r6,sp,1132
    3ac8:	00029dc0 	call	29dc <__sprint_r>
